Archive member included because of file (symbol)

c:/altera/13.1/nios2eds/bin/gnu/h-i686-mingw32/bin/../lib/gcc/nios2-elf/4.7.3/../../../../../H-i686-mingw32/nios2-elf/lib\libc.a(lib_a-impure.o)
                              obj/default/main.o (_impure_ptr)
c:/altera/13.1/nios2eds/bin/gnu/h-i686-mingw32/bin/../lib/gcc/nios2-elf/4.7.3/../../../../../H-i686-mingw32/nios2-elf/lib\libc.a(lib_a-memcpy.o)
                              obj/default/drivers/lwip_tse_mac.o (memcpy)
c:/altera/13.1/nios2eds/bin/gnu/h-i686-mingw32/bin/../lib/gcc/nios2-elf/4.7.3/../../../../../H-i686-mingw32/nios2-elf/lib\libc.a(lib_a-memset.o)
                              obj/default/lwip/src/core/dhcp.o (memset)
c:/altera/13.1/nios2eds/bin/gnu/h-i686-mingw32/bin/../lib/gcc/nios2-elf/4.7.3/../../../../../H-i686-mingw32/nios2-elf/lib\libc.a(lib_a-printf.o)
                              obj/default/drivers/alteraTseEthernetif.o (printf)
c:/altera/13.1/nios2eds/bin/gnu/h-i686-mingw32/bin/../lib/gcc/nios2-elf/4.7.3/../../../../../H-i686-mingw32/nios2-elf/lib\libc.a(lib_a-putc.o)
                              obj/default/main.o (putc)
c:/altera/13.1/nios2eds/bin/gnu/h-i686-mingw32/bin/../lib/gcc/nios2-elf/4.7.3/../../../../../H-i686-mingw32/nios2-elf/lib\libc.a(lib_a-putchar.o)
                              obj/default/lwip/src/core/ipv4/icmp.o (putchar)
c:/altera/13.1/nios2eds/bin/gnu/h-i686-mingw32/bin/../lib/gcc/nios2-elf/4.7.3/../../../../../H-i686-mingw32/nios2-elf/lib\libc.a(lib_a-puts.o)
                              obj/default/drivers/httpd.o (puts)
c:/altera/13.1/nios2eds/bin/gnu/h-i686-mingw32/bin/../lib/gcc/nios2-elf/4.7.3/../../../../../H-i686-mingw32/nios2-elf/lib\libc.a(lib_a-strcmp.o)
                              obj/default/drivers/fs.o (strcmp)
c:/altera/13.1/nios2eds/bin/gnu/h-i686-mingw32/bin/../lib/gcc/nios2-elf/4.7.3/../../../../../H-i686-mingw32/nios2-elf/lib\libc.a(lib_a-strlen.o)
                              c:/altera/13.1/nios2eds/bin/gnu/h-i686-mingw32/bin/../lib/gcc/nios2-elf/4.7.3/../../../../../H-i686-mingw32/nios2-elf/lib\libc.a(lib_a-puts.o) (strlen)
c:/altera/13.1/nios2eds/bin/gnu/h-i686-mingw32/bin/../lib/gcc/nios2-elf/4.7.3/../../../../../H-i686-mingw32/nios2-elf/lib\libc.a(lib_a-strncmp.o)
                              obj/default/drivers/httpd.o (strncmp)
c:/altera/13.1/nios2eds/bin/gnu/h-i686-mingw32/bin/../lib/gcc/nios2-elf/4.7.3/../../../../../H-i686-mingw32/nios2-elf/lib\libc.a(lib_a-vfprintf.o)
                              c:/altera/13.1/nios2eds/bin/gnu/h-i686-mingw32/bin/../lib/gcc/nios2-elf/4.7.3/../../../../../H-i686-mingw32/nios2-elf/lib\libc.a(lib_a-printf.o) (___vfprintf_internal_r)
c:/altera/13.1/nios2eds/bin/gnu/h-i686-mingw32/bin/../lib/gcc/nios2-elf/4.7.3/../../../../../H-i686-mingw32/nios2-elf/lib\libc.a(lib_a-wbuf.o)
                              c:/altera/13.1/nios2eds/bin/gnu/h-i686-mingw32/bin/../lib/gcc/nios2-elf/4.7.3/../../../../../H-i686-mingw32/nios2-elf/lib\libc.a(lib_a-putc.o) (__swbuf_r)
c:/altera/13.1/nios2eds/bin/gnu/h-i686-mingw32/bin/../lib/gcc/nios2-elf/4.7.3/../../../../../H-i686-mingw32/nios2-elf/lib\libc.a(lib_a-wsetup.o)
                              c:/altera/13.1/nios2eds/bin/gnu/h-i686-mingw32/bin/../lib/gcc/nios2-elf/4.7.3/../../../../../H-i686-mingw32/nios2-elf/lib\libc.a(lib_a-vfprintf.o) (__swsetup_r)
c:/altera/13.1/nios2eds/bin/gnu/h-i686-mingw32/bin/../lib/gcc/nios2-elf/4.7.3/../../../../../H-i686-mingw32/nios2-elf/lib\libc.a(lib_a-dtoa.o)
                              c:/altera/13.1/nios2eds/bin/gnu/h-i686-mingw32/bin/../lib/gcc/nios2-elf/4.7.3/../../../../../H-i686-mingw32/nios2-elf/lib\libc.a(lib_a-vfprintf.o) (_dtoa_r)
c:/altera/13.1/nios2eds/bin/gnu/h-i686-mingw32/bin/../lib/gcc/nios2-elf/4.7.3/../../../../../H-i686-mingw32/nios2-elf/lib\libc.a(lib_a-fflush.o)
                              c:/altera/13.1/nios2eds/bin/gnu/h-i686-mingw32/bin/../lib/gcc/nios2-elf/4.7.3/../../../../../H-i686-mingw32/nios2-elf/lib\libc.a(lib_a-vfprintf.o) (_fflush_r)
c:/altera/13.1/nios2eds/bin/gnu/h-i686-mingw32/bin/../lib/gcc/nios2-elf/4.7.3/../../../../../H-i686-mingw32/nios2-elf/lib\libc.a(lib_a-findfp.o)
                              c:/altera/13.1/nios2eds/bin/gnu/h-i686-mingw32/bin/../lib/gcc/nios2-elf/4.7.3/../../../../../H-i686-mingw32/nios2-elf/lib\libc.a(lib_a-putc.o) (__sinit)
c:/altera/13.1/nios2eds/bin/gnu/h-i686-mingw32/bin/../lib/gcc/nios2-elf/4.7.3/../../../../../H-i686-mingw32/nios2-elf/lib\libc.a(lib_a-freer.o)
                              c:/altera/13.1/nios2eds/bin/gnu/h-i686-mingw32/bin/../lib/gcc/nios2-elf/4.7.3/../../../../../H-i686-mingw32/nios2-elf/lib\libc.a(lib_a-wsetup.o) (_free_r)
c:/altera/13.1/nios2eds/bin/gnu/h-i686-mingw32/bin/../lib/gcc/nios2-elf/4.7.3/../../../../../H-i686-mingw32/nios2-elf/lib\libc.a(lib_a-fvwrite.o)
                              c:/altera/13.1/nios2eds/bin/gnu/h-i686-mingw32/bin/../lib/gcc/nios2-elf/4.7.3/../../../../../H-i686-mingw32/nios2-elf/lib\libc.a(lib_a-puts.o) (__sfvwrite_r)
c:/altera/13.1/nios2eds/bin/gnu/h-i686-mingw32/bin/../lib/gcc/nios2-elf/4.7.3/../../../../../H-i686-mingw32/nios2-elf/lib\libc.a(lib_a-fwalk.o)
                              c:/altera/13.1/nios2eds/bin/gnu/h-i686-mingw32/bin/../lib/gcc/nios2-elf/4.7.3/../../../../../H-i686-mingw32/nios2-elf/lib\libc.a(lib_a-findfp.o) (_fwalk)
c:/altera/13.1/nios2eds/bin/gnu/h-i686-mingw32/bin/../lib/gcc/nios2-elf/4.7.3/../../../../../H-i686-mingw32/nios2-elf/lib\libc.a(lib_a-locale.o)
                              c:/altera/13.1/nios2eds/bin/gnu/h-i686-mingw32/bin/../lib/gcc/nios2-elf/4.7.3/../../../../../H-i686-mingw32/nios2-elf/lib\libc.a(lib_a-vfprintf.o) (_localeconv_r)
c:/altera/13.1/nios2eds/bin/gnu/h-i686-mingw32/bin/../lib/gcc/nios2-elf/4.7.3/../../../../../H-i686-mingw32/nios2-elf/lib\libc.a(lib_a-makebuf.o)
                              c:/altera/13.1/nios2eds/bin/gnu/h-i686-mingw32/bin/../lib/gcc/nios2-elf/4.7.3/../../../../../H-i686-mingw32/nios2-elf/lib\libc.a(lib_a-wsetup.o) (__smakebuf_r)
c:/altera/13.1/nios2eds/bin/gnu/h-i686-mingw32/bin/../lib/gcc/nios2-elf/4.7.3/../../../../../H-i686-mingw32/nios2-elf/lib\libc.a(lib_a-mallocr.o)
                              c:/altera/13.1/nios2eds/bin/gnu/h-i686-mingw32/bin/../lib/gcc/nios2-elf/4.7.3/../../../../../H-i686-mingw32/nios2-elf/lib\libc.a(lib_a-findfp.o) (_malloc_r)
c:/altera/13.1/nios2eds/bin/gnu/h-i686-mingw32/bin/../lib/gcc/nios2-elf/4.7.3/../../../../../H-i686-mingw32/nios2-elf/lib\libc.a(lib_a-memchr.o)
                              c:/altera/13.1/nios2eds/bin/gnu/h-i686-mingw32/bin/../lib/gcc/nios2-elf/4.7.3/../../../../../H-i686-mingw32/nios2-elf/lib\libc.a(lib_a-vfprintf.o) (memchr)
c:/altera/13.1/nios2eds/bin/gnu/h-i686-mingw32/bin/../lib/gcc/nios2-elf/4.7.3/../../../../../H-i686-mingw32/nios2-elf/lib\libc.a(lib_a-memmove.o)
                              c:/altera/13.1/nios2eds/bin/gnu/h-i686-mingw32/bin/../lib/gcc/nios2-elf/4.7.3/../../../../../H-i686-mingw32/nios2-elf/lib\libc.a(lib_a-fvwrite.o) (memmove)
c:/altera/13.1/nios2eds/bin/gnu/h-i686-mingw32/bin/../lib/gcc/nios2-elf/4.7.3/../../../../../H-i686-mingw32/nios2-elf/lib\libc.a(lib_a-mprec.o)
                              c:/altera/13.1/nios2eds/bin/gnu/h-i686-mingw32/bin/../lib/gcc/nios2-elf/4.7.3/../../../../../H-i686-mingw32/nios2-elf/lib\libc.a(lib_a-dtoa.o) (_Balloc)
c:/altera/13.1/nios2eds/bin/gnu/h-i686-mingw32/bin/../lib/gcc/nios2-elf/4.7.3/../../../../../H-i686-mingw32/nios2-elf/lib\libc.a(lib_a-reallocr.o)
                              c:/altera/13.1/nios2eds/bin/gnu/h-i686-mingw32/bin/../lib/gcc/nios2-elf/4.7.3/../../../../../H-i686-mingw32/nios2-elf/lib\libc.a(lib_a-fvwrite.o) (_realloc_r)
c:/altera/13.1/nios2eds/bin/gnu/h-i686-mingw32/bin/../lib/gcc/nios2-elf/4.7.3/../../../../../H-i686-mingw32/nios2-elf/lib\libc.a(lib_a-s_isinfd.o)
                              c:/altera/13.1/nios2eds/bin/gnu/h-i686-mingw32/bin/../lib/gcc/nios2-elf/4.7.3/../../../../../H-i686-mingw32/nios2-elf/lib\libc.a(lib_a-vfprintf.o) (__isinfd)
c:/altera/13.1/nios2eds/bin/gnu/h-i686-mingw32/bin/../lib/gcc/nios2-elf/4.7.3/../../../../../H-i686-mingw32/nios2-elf/lib\libc.a(lib_a-s_isnand.o)
                              c:/altera/13.1/nios2eds/bin/gnu/h-i686-mingw32/bin/../lib/gcc/nios2-elf/4.7.3/../../../../../H-i686-mingw32/nios2-elf/lib\libc.a(lib_a-vfprintf.o) (__isnand)
c:/altera/13.1/nios2eds/bin/gnu/h-i686-mingw32/bin/../lib/gcc/nios2-elf/4.7.3/../../../../../H-i686-mingw32/nios2-elf/lib\libc.a(lib_a-sbrkr.o)
                              c:/altera/13.1/nios2eds/bin/gnu/h-i686-mingw32/bin/../lib/gcc/nios2-elf/4.7.3/../../../../../H-i686-mingw32/nios2-elf/lib\libc.a(lib_a-freer.o) (_sbrk_r)
c:/altera/13.1/nios2eds/bin/gnu/h-i686-mingw32/bin/../lib/gcc/nios2-elf/4.7.3/../../../../../H-i686-mingw32/nios2-elf/lib\libc.a(lib_a-stdio.o)
                              c:/altera/13.1/nios2eds/bin/gnu/h-i686-mingw32/bin/../lib/gcc/nios2-elf/4.7.3/../../../../../H-i686-mingw32/nios2-elf/lib\libc.a(lib_a-findfp.o) (__sread)
c:/altera/13.1/nios2eds/bin/gnu/h-i686-mingw32/bin/../lib/gcc/nios2-elf/4.7.3/../../../../../H-i686-mingw32/nios2-elf/lib\libc.a(lib_a-writer.o)
                              c:/altera/13.1/nios2eds/bin/gnu/h-i686-mingw32/bin/../lib/gcc/nios2-elf/4.7.3/../../../../../H-i686-mingw32/nios2-elf/lib\libc.a(lib_a-stdio.o) (_write_r)
c:/altera/13.1/nios2eds/bin/gnu/h-i686-mingw32/bin/../lib/gcc/nios2-elf/4.7.3/../../../../../H-i686-mingw32/nios2-elf/lib\libc.a(lib_a-callocr.o)
                              c:/altera/13.1/nios2eds/bin/gnu/h-i686-mingw32/bin/../lib/gcc/nios2-elf/4.7.3/../../../../../H-i686-mingw32/nios2-elf/lib\libc.a(lib_a-mprec.o) (_calloc_r)
c:/altera/13.1/nios2eds/bin/gnu/h-i686-mingw32/bin/../lib/gcc/nios2-elf/4.7.3/../../../../../H-i686-mingw32/nios2-elf/lib\libc.a(lib_a-closer.o)
                              c:/altera/13.1/nios2eds/bin/gnu/h-i686-mingw32/bin/../lib/gcc/nios2-elf/4.7.3/../../../../../H-i686-mingw32/nios2-elf/lib\libc.a(lib_a-stdio.o) (_close_r)
c:/altera/13.1/nios2eds/bin/gnu/h-i686-mingw32/bin/../lib/gcc/nios2-elf/4.7.3/../../../../../H-i686-mingw32/nios2-elf/lib\libc.a(lib_a-fclose.o)
                              c:/altera/13.1/nios2eds/bin/gnu/h-i686-mingw32/bin/../lib/gcc/nios2-elf/4.7.3/../../../../../H-i686-mingw32/nios2-elf/lib\libc.a(lib_a-findfp.o) (fclose)
c:/altera/13.1/nios2eds/bin/gnu/h-i686-mingw32/bin/../lib/gcc/nios2-elf/4.7.3/../../../../../H-i686-mingw32/nios2-elf/lib\libc.a(lib_a-fstatr.o)
                              c:/altera/13.1/nios2eds/bin/gnu/h-i686-mingw32/bin/../lib/gcc/nios2-elf/4.7.3/../../../../../H-i686-mingw32/nios2-elf/lib\libc.a(lib_a-makebuf.o) (_fstat_r)
c:/altera/13.1/nios2eds/bin/gnu/h-i686-mingw32/bin/../lib/gcc/nios2-elf/4.7.3/../../../../../H-i686-mingw32/nios2-elf/lib\libc.a(lib_a-int_errno.o)
                              c:/altera/13.1/nios2eds/bin/gnu/h-i686-mingw32/bin/../lib/gcc/nios2-elf/4.7.3/../../../../../H-i686-mingw32/nios2-elf/lib\libc.a(lib_a-sbrkr.o) (errno)
c:/altera/13.1/nios2eds/bin/gnu/h-i686-mingw32/bin/../lib/gcc/nios2-elf/4.7.3/../../../../../H-i686-mingw32/nios2-elf/lib\libc.a(lib_a-isattyr.o)
                              c:/altera/13.1/nios2eds/bin/gnu/h-i686-mingw32/bin/../lib/gcc/nios2-elf/4.7.3/../../../../../H-i686-mingw32/nios2-elf/lib\libc.a(lib_a-makebuf.o) (_isatty_r)
c:/altera/13.1/nios2eds/bin/gnu/h-i686-mingw32/bin/../lib/gcc/nios2-elf/4.7.3/../../../../../H-i686-mingw32/nios2-elf/lib\libc.a(lib_a-lseekr.o)
                              c:/altera/13.1/nios2eds/bin/gnu/h-i686-mingw32/bin/../lib/gcc/nios2-elf/4.7.3/../../../../../H-i686-mingw32/nios2-elf/lib\libc.a(lib_a-stdio.o) (_lseek_r)
c:/altera/13.1/nios2eds/bin/gnu/h-i686-mingw32/bin/../lib/gcc/nios2-elf/4.7.3/../../../../../H-i686-mingw32/nios2-elf/lib\libc.a(lib_a-readr.o)
                              c:/altera/13.1/nios2eds/bin/gnu/h-i686-mingw32/bin/../lib/gcc/nios2-elf/4.7.3/../../../../../H-i686-mingw32/nios2-elf/lib\libc.a(lib_a-stdio.o) (_read_r)
c:/altera/13.1/nios2eds/bin/gnu/h-i686-mingw32/bin/../lib/gcc/nios2-elf/4.7.3\libgcc.a(_udivdi3.o)
                              c:/altera/13.1/nios2eds/bin/gnu/h-i686-mingw32/bin/../lib/gcc/nios2-elf/4.7.3/../../../../../H-i686-mingw32/nios2-elf/lib\libc.a(lib_a-vfprintf.o) (__udivdi3)
c:/altera/13.1/nios2eds/bin/gnu/h-i686-mingw32/bin/../lib/gcc/nios2-elf/4.7.3\libgcc.a(_umoddi3.o)
                              c:/altera/13.1/nios2eds/bin/gnu/h-i686-mingw32/bin/../lib/gcc/nios2-elf/4.7.3/../../../../../H-i686-mingw32/nios2-elf/lib\libc.a(lib_a-vfprintf.o) (__umoddi3)
c:/altera/13.1/nios2eds/bin/gnu/h-i686-mingw32/bin/../lib/gcc/nios2-elf/4.7.3\libgcc.a(_addsub_df.o)
                              c:/altera/13.1/nios2eds/bin/gnu/h-i686-mingw32/bin/../lib/gcc/nios2-elf/4.7.3/../../../../../H-i686-mingw32/nios2-elf/lib\libc.a(lib_a-dtoa.o) (__adddf3)
c:/altera/13.1/nios2eds/bin/gnu/h-i686-mingw32/bin/../lib/gcc/nios2-elf/4.7.3\libgcc.a(_mul_df.o)
                              c:/altera/13.1/nios2eds/bin/gnu/h-i686-mingw32/bin/../lib/gcc/nios2-elf/4.7.3/../../../../../H-i686-mingw32/nios2-elf/lib\libc.a(lib_a-dtoa.o) (__muldf3)
c:/altera/13.1/nios2eds/bin/gnu/h-i686-mingw32/bin/../lib/gcc/nios2-elf/4.7.3\libgcc.a(_div_df.o)
                              c:/altera/13.1/nios2eds/bin/gnu/h-i686-mingw32/bin/../lib/gcc/nios2-elf/4.7.3/../../../../../H-i686-mingw32/nios2-elf/lib\libc.a(lib_a-dtoa.o) (__divdf3)
c:/altera/13.1/nios2eds/bin/gnu/h-i686-mingw32/bin/../lib/gcc/nios2-elf/4.7.3\libgcc.a(_eq_df.o)
                              c:/altera/13.1/nios2eds/bin/gnu/h-i686-mingw32/bin/../lib/gcc/nios2-elf/4.7.3/../../../../../H-i686-mingw32/nios2-elf/lib\libc.a(lib_a-vfprintf.o) (__eqdf2)
c:/altera/13.1/nios2eds/bin/gnu/h-i686-mingw32/bin/../lib/gcc/nios2-elf/4.7.3\libgcc.a(_ne_df.o)
                              c:/altera/13.1/nios2eds/bin/gnu/h-i686-mingw32/bin/../lib/gcc/nios2-elf/4.7.3/../../../../../H-i686-mingw32/nios2-elf/lib\libc.a(lib_a-vfprintf.o) (__nedf2)
c:/altera/13.1/nios2eds/bin/gnu/h-i686-mingw32/bin/../lib/gcc/nios2-elf/4.7.3\libgcc.a(_gt_df.o)
                              c:/altera/13.1/nios2eds/bin/gnu/h-i686-mingw32/bin/../lib/gcc/nios2-elf/4.7.3/../../../../../H-i686-mingw32/nios2-elf/lib\libc.a(lib_a-dtoa.o) (__gtdf2)
c:/altera/13.1/nios2eds/bin/gnu/h-i686-mingw32/bin/../lib/gcc/nios2-elf/4.7.3\libgcc.a(_ge_df.o)
                              c:/altera/13.1/nios2eds/bin/gnu/h-i686-mingw32/bin/../lib/gcc/nios2-elf/4.7.3/../../../../../H-i686-mingw32/nios2-elf/lib\libc.a(lib_a-dtoa.o) (__gedf2)
c:/altera/13.1/nios2eds/bin/gnu/h-i686-mingw32/bin/../lib/gcc/nios2-elf/4.7.3\libgcc.a(_lt_df.o)
                              c:/altera/13.1/nios2eds/bin/gnu/h-i686-mingw32/bin/../lib/gcc/nios2-elf/4.7.3/../../../../../H-i686-mingw32/nios2-elf/lib\libc.a(lib_a-vfprintf.o) (__ltdf2)
c:/altera/13.1/nios2eds/bin/gnu/h-i686-mingw32/bin/../lib/gcc/nios2-elf/4.7.3\libgcc.a(_si_to_df.o)
                              c:/altera/13.1/nios2eds/bin/gnu/h-i686-mingw32/bin/../lib/gcc/nios2-elf/4.7.3/../../../../../H-i686-mingw32/nios2-elf/lib\libc.a(lib_a-dtoa.o) (__floatsidf)
c:/altera/13.1/nios2eds/bin/gnu/h-i686-mingw32/bin/../lib/gcc/nios2-elf/4.7.3\libgcc.a(_df_to_si.o)
                              c:/altera/13.1/nios2eds/bin/gnu/h-i686-mingw32/bin/../lib/gcc/nios2-elf/4.7.3/../../../../../H-i686-mingw32/nios2-elf/lib\libc.a(lib_a-dtoa.o) (__fixdfsi)
c:/altera/13.1/nios2eds/bin/gnu/h-i686-mingw32/bin/../lib/gcc/nios2-elf/4.7.3\libgcc.a(_thenan_df.o)
                              c:/altera/13.1/nios2eds/bin/gnu/h-i686-mingw32/bin/../lib/gcc/nios2-elf/4.7.3\libgcc.a(_addsub_df.o) (__thenan_df)
c:/altera/13.1/nios2eds/bin/gnu/h-i686-mingw32/bin/../lib/gcc/nios2-elf/4.7.3\libgcc.a(_usi_to_df.o)
                              c:/altera/13.1/nios2eds/bin/gnu/h-i686-mingw32/bin/../lib/gcc/nios2-elf/4.7.3/../../../../../H-i686-mingw32/nios2-elf/lib\libc.a(lib_a-dtoa.o) (__floatunsidf)
c:/altera/13.1/nios2eds/bin/gnu/h-i686-mingw32/bin/../lib/gcc/nios2-elf/4.7.3\libgcc.a(lib2-divmod.o)
                              c:/altera/13.1/nios2eds/bin/gnu/h-i686-mingw32/bin/../lib/gcc/nios2-elf/4.7.3/../../../../../H-i686-mingw32/nios2-elf/lib\libc.a(lib_a-vfprintf.o) (__divsi3)
c:/altera/13.1/nios2eds/bin/gnu/h-i686-mingw32/bin/../lib/gcc/nios2-elf/4.7.3\libgcc.a(_muldi3.o)
                              c:/altera/13.1/nios2eds/bin/gnu/h-i686-mingw32/bin/../lib/gcc/nios2-elf/4.7.3\libgcc.a(_mul_df.o) (__muldi3)
c:/altera/13.1/nios2eds/bin/gnu/h-i686-mingw32/bin/../lib/gcc/nios2-elf/4.7.3\libgcc.a(_clz.o)
                              c:/altera/13.1/nios2eds/bin/gnu/h-i686-mingw32/bin/../lib/gcc/nios2-elf/4.7.3\libgcc.a(_udivdi3.o) (__clz_tab)
c:/altera/13.1/nios2eds/bin/gnu/h-i686-mingw32/bin/../lib/gcc/nios2-elf/4.7.3\libgcc.a(_clzsi2.o)
                              c:/altera/13.1/nios2eds/bin/gnu/h-i686-mingw32/bin/../lib/gcc/nios2-elf/4.7.3\libgcc.a(_si_to_df.o) (__clzsi2)
c:/altera/13.1/nios2eds/bin/gnu/h-i686-mingw32/bin/../lib/gcc/nios2-elf/4.7.3\libgcc.a(_pack_df.o)
                              c:/altera/13.1/nios2eds/bin/gnu/h-i686-mingw32/bin/../lib/gcc/nios2-elf/4.7.3\libgcc.a(_addsub_df.o) (__pack_d)
c:/altera/13.1/nios2eds/bin/gnu/h-i686-mingw32/bin/../lib/gcc/nios2-elf/4.7.3\libgcc.a(_unpack_df.o)
                              c:/altera/13.1/nios2eds/bin/gnu/h-i686-mingw32/bin/../lib/gcc/nios2-elf/4.7.3\libgcc.a(_addsub_df.o) (__unpack_d)
c:/altera/13.1/nios2eds/bin/gnu/h-i686-mingw32/bin/../lib/gcc/nios2-elf/4.7.3\libgcc.a(_fpcmp_parts_df.o)
                              c:/altera/13.1/nios2eds/bin/gnu/h-i686-mingw32/bin/../lib/gcc/nios2-elf/4.7.3\libgcc.a(_eq_df.o) (__fpcmp_parts_d)
c:/altera/13.1/nios2eds/bin/gnu/h-i686-mingw32/bin/../lib/gcc/nios2-elf/4.7.3\libgcc.a(_lshrdi3.o)
                              c:/altera/13.1/nios2eds/bin/gnu/h-i686-mingw32/bin/../lib/gcc/nios2-elf/4.7.3\libgcc.a(_pack_df.o) (__lshrdi3)
c:/altera/13.1/nios2eds/bin/gnu/h-i686-mingw32/bin/../lib/gcc/nios2-elf/4.7.3\libgcc.a(_ashldi3.o)
                              c:/altera/13.1/nios2eds/bin/gnu/h-i686-mingw32/bin/../lib/gcc/nios2-elf/4.7.3\libgcc.a(_pack_df.o) (__ashldi3)
../lwIP_NIOS_II_Example_bsp\libhal_bsp.a(alt_alarm_start.o)
                              obj/default/main.o (alt_alarm_start)
../lwIP_NIOS_II_Example_bsp\libhal_bsp.a(alt_close.o)
                              c:/altera/13.1/nios2eds/bin/gnu/h-i686-mingw32/bin/../lib/gcc/nios2-elf/4.7.3/../../../../../H-i686-mingw32/nios2-elf/lib\libc.a(lib_a-closer.o) (close)
../lwIP_NIOS_II_Example_bsp\libhal_bsp.a(alt_dev.o)
                              ../lwIP_NIOS_II_Example_bsp\libhal_bsp.a(alt_close.o) (alt_fd_list)
../lwIP_NIOS_II_Example_bsp\libhal_bsp.a(alt_errno.o)
                              ../lwIP_NIOS_II_Example_bsp\libhal_bsp.a(alt_close.o) (alt_errno)
../lwIP_NIOS_II_Example_bsp\libhal_bsp.a(alt_fstat.o)
                              c:/altera/13.1/nios2eds/bin/gnu/h-i686-mingw32/bin/../lib/gcc/nios2-elf/4.7.3/../../../../../H-i686-mingw32/nios2-elf/lib\libc.a(lib_a-fstatr.o) (fstat)
../lwIP_NIOS_II_Example_bsp\libhal_bsp.a(alt_isatty.o)
                              c:/altera/13.1/nios2eds/bin/gnu/h-i686-mingw32/bin/../lib/gcc/nios2-elf/4.7.3/../../../../../H-i686-mingw32/nios2-elf/lib\libc.a(lib_a-isattyr.o) (isatty)
../lwIP_NIOS_II_Example_bsp\libhal_bsp.a(alt_load.o)
                              ../lwIP_NIOS_II_Example_bsp/obj/HAL/src/crt0.o (alt_load)
../lwIP_NIOS_II_Example_bsp\libhal_bsp.a(alt_lseek.o)
                              c:/altera/13.1/nios2eds/bin/gnu/h-i686-mingw32/bin/../lib/gcc/nios2-elf/4.7.3/../../../../../H-i686-mingw32/nios2-elf/lib\libc.a(lib_a-lseekr.o) (lseek)
../lwIP_NIOS_II_Example_bsp\libhal_bsp.a(alt_main.o)
                              ../lwIP_NIOS_II_Example_bsp/obj/HAL/src/crt0.o (alt_main)
../lwIP_NIOS_II_Example_bsp\libhal_bsp.a(alt_malloc_lock.o)
                              c:/altera/13.1/nios2eds/bin/gnu/h-i686-mingw32/bin/../lib/gcc/nios2-elf/4.7.3/../../../../../H-i686-mingw32/nios2-elf/lib\libc.a(lib_a-freer.o) (__malloc_lock)
../lwIP_NIOS_II_Example_bsp\libhal_bsp.a(alt_read.o)
                              c:/altera/13.1/nios2eds/bin/gnu/h-i686-mingw32/bin/../lib/gcc/nios2-elf/4.7.3/../../../../../H-i686-mingw32/nios2-elf/lib\libc.a(lib_a-readr.o) (read)
../lwIP_NIOS_II_Example_bsp\libhal_bsp.a(alt_release_fd.o)
                              ../lwIP_NIOS_II_Example_bsp\libhal_bsp.a(alt_close.o) (alt_release_fd)
../lwIP_NIOS_II_Example_bsp\libhal_bsp.a(alt_remap_uncached.o)
                              obj/default/drivers/alteraTseEthernetif.o (alt_remap_uncached)
../lwIP_NIOS_II_Example_bsp\libhal_bsp.a(alt_sbrk.o)
                              c:/altera/13.1/nios2eds/bin/gnu/h-i686-mingw32/bin/../lib/gcc/nios2-elf/4.7.3/../../../../../H-i686-mingw32/nios2-elf/lib\libc.a(lib_a-sbrkr.o) (sbrk)
../lwIP_NIOS_II_Example_bsp\libhal_bsp.a(alt_tick.o)
                              obj/default/main.o (_alt_tick_rate)
../lwIP_NIOS_II_Example_bsp\libhal_bsp.a(alt_uncached_malloc.o)
                              obj/default/drivers/lwip_tse_mac.o (alt_uncached_malloc)
../lwIP_NIOS_II_Example_bsp\libhal_bsp.a(alt_usleep.o)
                              obj/default/main.o (usleep)
../lwIP_NIOS_II_Example_bsp\libhal_bsp.a(alt_write.o)
                              c:/altera/13.1/nios2eds/bin/gnu/h-i686-mingw32/bin/../lib/gcc/nios2-elf/4.7.3/../../../../../H-i686-mingw32/nios2-elf/lib\libc.a(lib_a-writer.o) (write)
../lwIP_NIOS_II_Example_bsp\libhal_bsp.a(alt_sys_init.o)
                              ../lwIP_NIOS_II_Example_bsp\libhal_bsp.a(alt_main.o) (alt_irq_init)
../lwIP_NIOS_II_Example_bsp\libhal_bsp.a(altera_avalon_cfi_flash.o)
                              ../lwIP_NIOS_II_Example_bsp\libhal_bsp.a(alt_sys_init.o) (alt_flash_cfi_init)
../lwIP_NIOS_II_Example_bsp\libhal_bsp.a(altera_avalon_cfi_flash_table.o)
                              ../lwIP_NIOS_II_Example_bsp\libhal_bsp.a(altera_avalon_cfi_flash.o) (alt_set_flash_width_func)
../lwIP_NIOS_II_Example_bsp\libhal_bsp.a(altera_avalon_jtag_uart_fd.o)
                              ../lwIP_NIOS_II_Example_bsp\libhal_bsp.a(alt_sys_init.o) (altera_avalon_jtag_uart_read_fd)
../lwIP_NIOS_II_Example_bsp\libhal_bsp.a(altera_avalon_jtag_uart_init.o)
                              ../lwIP_NIOS_II_Example_bsp\libhal_bsp.a(alt_sys_init.o) (altera_avalon_jtag_uart_init)
../lwIP_NIOS_II_Example_bsp\libhal_bsp.a(altera_avalon_jtag_uart_ioctl.o)
                              ../lwIP_NIOS_II_Example_bsp\libhal_bsp.a(altera_avalon_jtag_uart_fd.o) (altera_avalon_jtag_uart_ioctl)
../lwIP_NIOS_II_Example_bsp\libhal_bsp.a(altera_avalon_jtag_uart_read.o)
                              ../lwIP_NIOS_II_Example_bsp\libhal_bsp.a(altera_avalon_jtag_uart_fd.o) (altera_avalon_jtag_uart_read)
../lwIP_NIOS_II_Example_bsp\libhal_bsp.a(altera_avalon_jtag_uart_write.o)
                              ../lwIP_NIOS_II_Example_bsp\libhal_bsp.a(altera_avalon_jtag_uart_fd.o) (altera_avalon_jtag_uart_write)
../lwIP_NIOS_II_Example_bsp\libhal_bsp.a(altera_avalon_lcd_16207.o)
                              ../lwIP_NIOS_II_Example_bsp\libhal_bsp.a(alt_sys_init.o) (altera_avalon_lcd_16207_init)
../lwIP_NIOS_II_Example_bsp\libhal_bsp.a(altera_avalon_lcd_16207_fd.o)
                              ../lwIP_NIOS_II_Example_bsp\libhal_bsp.a(alt_sys_init.o) (altera_avalon_lcd_16207_write_fd)
../lwIP_NIOS_II_Example_bsp\libhal_bsp.a(altera_avalon_sgdma.o)
                              obj/default/drivers/lwip_tse_mac.o (alt_avalon_sgdma_construct_stream_to_mem_desc)
../lwIP_NIOS_II_Example_bsp\libhal_bsp.a(altera_avalon_timer_sc.o)
                              ../lwIP_NIOS_II_Example_bsp\libhal_bsp.a(alt_sys_init.o) (alt_avalon_timer_sc_init)
../lwIP_NIOS_II_Example_bsp\libhal_bsp.a(altera_avalon_tse.o)
                              obj/default/drivers/lwip_tse_mac.o (tse_mac_initTransInfo2)
../lwIP_NIOS_II_Example_bsp\libhal_bsp.a(altera_avalon_uart_fd.o)
                              ../lwIP_NIOS_II_Example_bsp\libhal_bsp.a(alt_sys_init.o) (altera_avalon_uart_read_fd)
../lwIP_NIOS_II_Example_bsp\libhal_bsp.a(altera_avalon_uart_init.o)
                              ../lwIP_NIOS_II_Example_bsp\libhal_bsp.a(alt_sys_init.o) (altera_avalon_uart_init)
../lwIP_NIOS_II_Example_bsp\libhal_bsp.a(altera_avalon_uart_read.o)
                              ../lwIP_NIOS_II_Example_bsp\libhal_bsp.a(altera_avalon_uart_fd.o) (altera_avalon_uart_read)
../lwIP_NIOS_II_Example_bsp\libhal_bsp.a(altera_avalon_uart_write.o)
                              ../lwIP_NIOS_II_Example_bsp\libhal_bsp.a(altera_avalon_uart_fd.o) (altera_avalon_uart_write)
../lwIP_NIOS_II_Example_bsp\libhal_bsp.a(altera_vic_0_vector_tbl.o)
                              ../lwIP_NIOS_II_Example_bsp\libhal_bsp.a(alt_sys_init.o) (VIC_0_VECTOR_TABLE)
../lwIP_NIOS_II_Example_bsp\libhal_bsp.a(altera_vic_funnel_non_preemptive.o)
                              ../lwIP_NIOS_II_Example_bsp\libhal_bsp.a(altera_vic_0_vector_tbl.o) (alt_shadow_non_preemptive_interrupt)
../lwIP_NIOS_II_Example_bsp\libhal_bsp.a(altera_vic_irq_init.o)
                              ../lwIP_NIOS_II_Example_bsp\libhal_bsp.a(alt_sys_init.o) (alt_vic_irq_init)
../lwIP_NIOS_II_Example_bsp\libhal_bsp.a(altera_vic_isr_register.o)
                              ../lwIP_NIOS_II_Example_bsp\libhal_bsp.a(altera_avalon_jtag_uart_init.o) (alt_ic_isr_register)
../lwIP_NIOS_II_Example_bsp\libhal_bsp.a(alt_busy_sleep.o)
                              ../lwIP_NIOS_II_Example_bsp\libhal_bsp.a(alt_usleep.o) (alt_busy_sleep)
../lwIP_NIOS_II_Example_bsp\libhal_bsp.a(alt_dcache_flush.o)
                              ../lwIP_NIOS_II_Example_bsp\libhal_bsp.a(alt_remap_uncached.o) (alt_dcache_flush)
../lwIP_NIOS_II_Example_bsp\libhal_bsp.a(alt_dcache_flush_all.o)
                              ../lwIP_NIOS_II_Example_bsp\libhal_bsp.a(alt_load.o) (alt_dcache_flush_all)
../lwIP_NIOS_II_Example_bsp\libhal_bsp.a(alt_dev_llist_insert.o)
                              ../lwIP_NIOS_II_Example_bsp\libhal_bsp.a(alt_sys_init.o) (alt_dev_llist_insert)
../lwIP_NIOS_II_Example_bsp\libhal_bsp.a(alt_do_ctors.o)
                              ../lwIP_NIOS_II_Example_bsp\libhal_bsp.a(alt_main.o) (_do_ctors)
../lwIP_NIOS_II_Example_bsp\libhal_bsp.a(alt_do_dtors.o)
                              ../lwIP_NIOS_II_Example_bsp\libhal_bsp.a(alt_main.o) (_do_dtors)
../lwIP_NIOS_II_Example_bsp\libhal_bsp.a(alt_find_dev.o)
                              ../lwIP_NIOS_II_Example_bsp\libhal_bsp.a(altera_avalon_sgdma.o) (alt_find_dev)
../lwIP_NIOS_II_Example_bsp\libhal_bsp.a(alt_flash_dev.o)
                              ../lwIP_NIOS_II_Example_bsp\libhal_bsp.a(altera_avalon_cfi_flash.o) (alt_flash_dev_list)
../lwIP_NIOS_II_Example_bsp\libhal_bsp.a(alt_icache_flush_all.o)
                              ../lwIP_NIOS_II_Example_bsp\libhal_bsp.a(alt_load.o) (alt_icache_flush_all)
../lwIP_NIOS_II_Example_bsp\libhal_bsp.a(alt_io_redirect.o)
                              ../lwIP_NIOS_II_Example_bsp\libhal_bsp.a(alt_main.o) (alt_io_redirect)
../lwIP_NIOS_II_Example_bsp\libhal_bsp.a(alt_open.o)
                              ../lwIP_NIOS_II_Example_bsp\libhal_bsp.a(alt_io_redirect.o) (open)
../lwIP_NIOS_II_Example_bsp\libhal_bsp.a(altera_avalon_cfi_flash_amd.o)
                              ../lwIP_NIOS_II_Example_bsp\libhal_bsp.a(altera_avalon_cfi_flash_table.o) (alt_program_amd)
../lwIP_NIOS_II_Example_bsp\libhal_bsp.a(altera_avalon_cfi_flash_intel.o)
                              ../lwIP_NIOS_II_Example_bsp\libhal_bsp.a(altera_avalon_cfi_flash_table.o) (alt_program_intel)
../lwIP_NIOS_II_Example_bsp\libhal_bsp.a(alt_find_file.o)
                              ../lwIP_NIOS_II_Example_bsp\libhal_bsp.a(alt_open.o) (alt_find_file)
../lwIP_NIOS_II_Example_bsp\libhal_bsp.a(alt_get_fd.o)
                              ../lwIP_NIOS_II_Example_bsp\libhal_bsp.a(alt_open.o) (alt_get_fd)
../lwIP_NIOS_II_Example_bsp\libhal_bsp.a(alt_icache_flush.o)
                              ../lwIP_NIOS_II_Example_bsp\libhal_bsp.a(alt_icache_flush_all.o) (alt_icache_flush)
c:/altera/13.1/nios2eds/bin/gnu/h-i686-mingw32/bin/../lib/gcc/nios2-elf/4.7.3/../../../../../H-i686-mingw32/nios2-elf/lib\libc.a(lib_a-atexit.o)
                              ../lwIP_NIOS_II_Example_bsp\libhal_bsp.a(alt_main.o) (atexit)
c:/altera/13.1/nios2eds/bin/gnu/h-i686-mingw32/bin/../lib/gcc/nios2-elf/4.7.3/../../../../../H-i686-mingw32/nios2-elf/lib\libc.a(lib_a-ctype_.o)
                              ../lwIP_NIOS_II_Example_bsp\libhal_bsp.a(altera_avalon_lcd_16207.o) (__ctype_ptr)
c:/altera/13.1/nios2eds/bin/gnu/h-i686-mingw32/bin/../lib/gcc/nios2-elf/4.7.3/../../../../../H-i686-mingw32/nios2-elf/lib\libc.a(lib_a-exit.o)
                              ../lwIP_NIOS_II_Example_bsp\libhal_bsp.a(alt_main.o) (exit)
c:/altera/13.1/nios2eds/bin/gnu/h-i686-mingw32/bin/../lib/gcc/nios2-elf/4.7.3/../../../../../H-i686-mingw32/nios2-elf/lib\libc.a(lib_a-malloc.o)
                              ../lwIP_NIOS_II_Example_bsp\libhal_bsp.a(alt_uncached_malloc.o) (malloc)
c:/altera/13.1/nios2eds/bin/gnu/h-i686-mingw32/bin/../lib/gcc/nios2-elf/4.7.3/../../../../../H-i686-mingw32/nios2-elf/lib\libc.a(lib_a-memcmp.o)
                              ../lwIP_NIOS_II_Example_bsp\libhal_bsp.a(altera_avalon_cfi_flash.o) (memcmp)
c:/altera/13.1/nios2eds/bin/gnu/h-i686-mingw32/bin/../lib/gcc/nios2-elf/4.7.3/../../../../../H-i686-mingw32/nios2-elf/lib\libc.a(lib_a-strcpy.o)
                              ../lwIP_NIOS_II_Example_bsp\libhal_bsp.a(altera_avalon_tse.o) (strcpy)
c:/altera/13.1/nios2eds/bin/gnu/h-i686-mingw32/bin/../lib/gcc/nios2-elf/4.7.3/../../../../../H-i686-mingw32/nios2-elf/lib\libc.a(lib_a-__atexit.o)
                              c:/altera/13.1/nios2eds/bin/gnu/h-i686-mingw32/bin/../lib/gcc/nios2-elf/4.7.3/../../../../../H-i686-mingw32/nios2-elf/lib\libc.a(lib_a-atexit.o) (__register_exitproc)
c:/altera/13.1/nios2eds/bin/gnu/h-i686-mingw32/bin/../lib/gcc/nios2-elf/4.7.3/../../../../../H-i686-mingw32/nios2-elf/lib\libc.a(lib_a-__call_atexit.o)
                              c:/altera/13.1/nios2eds/bin/gnu/h-i686-mingw32/bin/../lib/gcc/nios2-elf/4.7.3/../../../../../H-i686-mingw32/nios2-elf/lib\libc.a(lib_a-exit.o) (__call_exitprocs)
../lwIP_NIOS_II_Example_bsp\libhal_bsp.a(alt_exit.o)
                              c:/altera/13.1/nios2eds/bin/gnu/h-i686-mingw32/bin/../lib/gcc/nios2-elf/4.7.3/../../../../../H-i686-mingw32/nios2-elf/lib\libc.a(lib_a-exit.o) (_exit)

Allocating common symbols
Common symbol       size              file

netif_list          0x4               obj/default/lwip/src/core/netif.o
alteraTseNetif      0x34              obj/default/main.o
tcp_active_pcbs     0x4               obj/default/lwip/src/core/tcp.o
udp_pcbs            0x4               obj/default/lwip/src/core/udp.o
errno               0x4               c:/altera/13.1/nios2eds/bin/gnu/h-i686-mingw32/bin/../lib/gcc/nios2-elf/4.7.3/../../../../../H-i686-mingw32/nios2-elf/lib\libc.a(lib_a-int_errno.o)
pmac_groups         0x20              ../lwIP_NIOS_II_Example_bsp\libhal_bsp.a(altera_avalon_tse.o)
current_netif       0x4               obj/default/lwip/src/core/ipv4/ip.o
tcp_ticks           0x4               obj/default/lwip/src/core/tcp.o
tcp_listen_pcbs     0x4               obj/default/lwip/src/core/tcp.o
tse                 0x100             obj/default/drivers/lwip_tse_mac.o
pphy_profiles       0x20              ../lwIP_NIOS_II_Example_bsp\libhal_bsp.a(altera_avalon_tse.o)
tcp_tmp_pcb         0x4               obj/default/lwip/src/core/tcp.o
tcp_input_pcb       0x4               obj/default/lwip/src/core/tcp_in.o
current_header      0x4               obj/default/lwip/src/core/ipv4/ip.o
tcp_bound_pcbs      0x4               obj/default/lwip/src/core/tcp.o
_atexit0            0x190             c:/altera/13.1/nios2eds/bin/gnu/h-i686-mingw32/bin/../lib/gcc/nios2-elf/4.7.3/../../../../../H-i686-mingw32/nios2-elf/lib\libc.a(lib_a-atexit.o)
alt_vic_dev_list    0x4               ../lwIP_NIOS_II_Example_bsp\libhal_bsp.a(altera_vic_irq_init.o)
tcp_tw_pcbs         0x4               obj/default/lwip/src/core/tcp.o
lwip_stats          0x118             obj/default/lwip/src/core/stats.o
netif_default       0x4               obj/default/lwip/src/core/netif.o
lwipStaticIp        0x4               obj/default/main.o

Memory Configuration

Name             Origin             Length             Attributes
sdram_BEFORE_EXCEPTION 0x00000000         0x00000020
sdram            0x00000020         0x01ffffe0
descriptor_memory 0x02001000         0x00001000
ext_flash        0x04000000         0x00800000
reset            0x05000000         0x00000020
sram             0x05000020         0x001fffe0
onchip_memory2   0x0a000000         0x00020000
*default*        0x00000000         0xffffffff

Linker script and memory map

LOAD ../lwIP_NIOS_II_Example_bsp/obj/HAL/src/crt0.o
LOAD obj/default/drivers/alteraTseEthernetif.o
LOAD obj/default/drivers/fs.o
LOAD obj/default/drivers/fsdata.o
LOAD obj/default/drivers/httpd.o
LOAD obj/default/drivers/lwip_tse_mac.o
LOAD obj/default/drivers/tse_my_system.o
LOAD obj/default/lwip/src/api/api_lib.o
LOAD obj/default/lwip/src/api/api_msg.o
LOAD obj/default/lwip/src/api/err.o
LOAD obj/default/lwip/src/api/netbuf.o
LOAD obj/default/lwip/src/api/netdb.o
LOAD obj/default/lwip/src/api/netifapi.o
LOAD obj/default/lwip/src/api/sockets.o
LOAD obj/default/lwip/src/api/tcpip.o
LOAD obj/default/lwip/src/core/dhcp.o
LOAD obj/default/lwip/src/core/dns.o
LOAD obj/default/lwip/src/core/init.o
LOAD obj/default/lwip/src/core/ipv4/autoip.o
LOAD obj/default/lwip/src/core/ipv4/icmp.o
LOAD obj/default/lwip/src/core/ipv4/igmp.o
LOAD obj/default/lwip/src/core/ipv4/inet.o
LOAD obj/default/lwip/src/core/ipv4/inet_chksum.o
LOAD obj/default/lwip/src/core/ipv4/ip.o
LOAD obj/default/lwip/src/core/ipv4/ip_addr.o
LOAD obj/default/lwip/src/core/ipv4/ip_frag.o
LOAD obj/default/lwip/src/core/mem.o
LOAD obj/default/lwip/src/core/memp.o
LOAD obj/default/lwip/src/core/netif.o
LOAD obj/default/lwip/src/core/pbuf.o
LOAD obj/default/lwip/src/core/raw.o
LOAD obj/default/lwip/src/core/snmp/asn1_dec.o
LOAD obj/default/lwip/src/core/snmp/asn1_enc.o
LOAD obj/default/lwip/src/core/snmp/mib2.o
LOAD obj/default/lwip/src/core/snmp/mib_structs.o
LOAD obj/default/lwip/src/core/snmp/msg_in.o
LOAD obj/default/lwip/src/core/snmp/msg_out.o
LOAD obj/default/lwip/src/core/stats.o
LOAD obj/default/lwip/src/core/sys.o
LOAD obj/default/lwip/src/core/tcp.o
LOAD obj/default/lwip/src/core/tcp_in.o
LOAD obj/default/lwip/src/core/tcp_out.o
LOAD obj/default/lwip/src/core/udp.o
LOAD obj/default/lwip/src/netif/etharp.o
LOAD obj/default/lwip/src/netif/ethernetif.o
LOAD obj/default/lwip/src/netif/loopif.o
LOAD obj/default/lwip/src/netif/ppp/auth.o
LOAD obj/default/lwip/src/netif/ppp/chap.o
LOAD obj/default/lwip/src/netif/ppp/chpms.o
LOAD obj/default/lwip/src/netif/ppp/fsm.o
LOAD obj/default/lwip/src/netif/ppp/ipcp.o
LOAD obj/default/lwip/src/netif/ppp/lcp.o
LOAD obj/default/lwip/src/netif/ppp/magic.o
LOAD obj/default/lwip/src/netif/ppp/md5.o
LOAD obj/default/lwip/src/netif/ppp/pap.o
LOAD obj/default/lwip/src/netif/ppp/ppp.o
LOAD obj/default/lwip/src/netif/ppp/ppp_oe.o
LOAD obj/default/lwip/src/netif/ppp/randm.o
LOAD obj/default/lwip/src/netif/ppp/vj.o
LOAD obj/default/lwip/src/netif/slipif.o
LOAD obj/default/main.o
LOAD c:/altera/13.1/nios2eds/bin/gnu/h-i686-mingw32/bin/../lib/gcc/nios2-elf/4.7.3/../../../../../H-i686-mingw32/nios2-elf/lib\libstdc++.a
LOAD c:/altera/13.1/nios2eds/bin/gnu/h-i686-mingw32/bin/../lib/gcc/nios2-elf/4.7.3/../../../../../H-i686-mingw32/nios2-elf/lib\libm.a
LOAD c:/altera/13.1/nios2eds/bin/gnu/h-i686-mingw32/bin/../lib/gcc/nios2-elf/4.7.3\libgcc.a
START GROUP
LOAD c:/altera/13.1/nios2eds/bin/gnu/h-i686-mingw32/bin/../lib/gcc/nios2-elf/4.7.3/../../../../../H-i686-mingw32/nios2-elf/lib\libc.a
LOAD c:/altera/13.1/nios2eds/bin/gnu/h-i686-mingw32/bin/../lib/gcc/nios2-elf/4.7.3\libgcc.a
LOAD ../lwIP_NIOS_II_Example_bsp\libhal_bsp.a
END GROUP
LOAD c:/altera/13.1/nios2eds/bin/gnu/h-i686-mingw32/bin/../lib/gcc/nios2-elf/4.7.3\libgcc.a
                0x00000000                __alt_mem_sdram = 0x0
                0x02001000                __alt_mem_descriptor_memory = 0x2001000
                0x04000000                __alt_mem_ext_flash = 0x4000000
                0x05000000                __alt_mem_sram = 0x5000000
                0x0a000000                __alt_mem_onchip_memory2 = 0xa000000

.entry          0x05000000       0x20
 *(.entry)
 .entry         0x05000000       0x20 ../lwIP_NIOS_II_Example_bsp/obj/HAL/src/crt0.o
                0x05000000                __reset

.exceptions     0x00000020        0x0
                0x00000020                PROVIDE (__ram_exceptions_start, ABSOLUTE (.))
                0x00000020                . = ALIGN (0x20)
 *(.irq)
 *(.exceptions.entry.label)
 *(.exceptions.entry.user)
 *(.exceptions.entry.ecc_fatal)
 *(.exceptions.entry)
 *(.exceptions.irqtest.user)
 *(.exceptions.irqtest)
 *(.exceptions.irqhandler.user)
 *(.exceptions.irqhandler)
 *(.exceptions.irqreturn.user)
 *(.exceptions.irqreturn)
 *(.exceptions.notirq.label)
 *(.exceptions.notirq.user)
 *(.exceptions.notirq)
 *(.exceptions.soft.user)
 *(.exceptions.soft)
 *(.exceptions.unknown.user)
 *(.exceptions.unknown)
 *(.exceptions.exit.label)
 *(.exceptions.exit.user)
 *(.exceptions.exit)
 *(.exceptions)
                0x00000020                PROVIDE (__ram_exceptions_end, ABSOLUTE (.))
                0x00000020                PROVIDE (__flash_exceptions_start, LOADADDR (.exceptions))

.text           0x00000020    0x2cf0c
                0x00000020                PROVIDE (stext, ABSOLUTE (.))
 *(.interp)
 *(.hash)
 *(.dynsym)
 *(.dynstr)
 *(.gnu.version)
 *(.gnu.version_d)
 *(.gnu.version_r)
 *(.rel.init)
 *(.rela.init)
 *(.rel.text .rel.text.* .rel.gnu.linkonce.t.*)
 *(.rela.text .rela.text.* .rela.gnu.linkonce.t.*)
 *(.rel.fini)
 *(.rela.fini)
 *(.rel.rodata .rel.rodata.* .rel.gnu.linkonce.r.*)
 *(.rela.rodata .rela.rodata.* .rela.gnu.linkonce.r.*)
 *(.rel.data .rel.data.* .rel.gnu.linkonce.d.*)
 *(.rela.data .rela.data.* .rela.gnu.linkonce.d.*)
 *(.rel.tdata .rel.tdata.* .rel.gnu.linkonce.td.*)
 *(.rela.tdata .rela.tdata.* .rela.gnu.linkonce.td.*)
 *(.rel.tbss .rel.tbss.* .rel.gnu.linkonce.tb.*)
 *(.rela.tbss .rela.tbss.* .rela.gnu.linkonce.tb.*)
 *(.rel.ctors)
 *(.rela.ctors)
 *(.rel.dtors)
 *(.rela.dtors)
 *(.rel.got)
 *(.rela.got)
 *(.rel.sdata .rel.sdata.* .rel.gnu.linkonce.s.*)
 *(.rela.sdata .rela.sdata.* .rela.gnu.linkonce.s.*)
 *(.rel.sbss .rel.sbss.* .rel.gnu.linkonce.sb.*)
 *(.rela.sbss .rela.sbss.* .rela.gnu.linkonce.sb.*)
 *(.rel.sdata2 .rel.sdata2.* .rel.gnu.linkonce.s2.*)
 *(.rela.sdata2 .rela.sdata2.* .rela.gnu.linkonce.s2.*)
 *(.rel.sbss2 .rel.sbss2.* .rel.gnu.linkonce.sb2.*)
 *(.rela.sbss2 .rela.sbss2.* .rela.gnu.linkonce.sb2.*)
 *(.rel.bss .rel.bss.* .rel.gnu.linkonce.b.*)
 *(.rela.bss .rela.bss.* .rela.gnu.linkonce.b.*)
 *(.rel.plt)
 *(.rela.plt)
 *(.rel.dyn)
 *(.init)
 *(.plt)
 *(.text .stub .text.* .gnu.linkonce.t.*)
 .text          0x00000020       0x7c ../lwIP_NIOS_II_Example_bsp/obj/HAL/src/crt0.o
                0x00000020                _start
 .text          0x0000009c      0x4f4 obj/default/drivers/alteraTseEthernetif.o
                0x00000334                ethernetif_input
                0x00000418                ethernetif_init
 .text          0x00000590       0x94 obj/default/drivers/fs.o
                0x00000590                fs_open
 .text          0x00000624        0x0 obj/default/drivers/fsdata.o
 .text          0x00000624      0x654 obj/default/drivers/httpd.o
                0x00000c0c                httpd_init
 .text          0x00000c78      0xcc8 obj/default/drivers/lwip_tse_mac.o
                0x00000c78                tse_mac_init
                0x000014e0                tse_sgdma_read_init
                0x00001598                tse_sgdmaRx_isr
                0x0000162c                tse_mac_raw_send
                0x0000179c                tse_mac_rcv
 .text          0x00001940        0x0 obj/default/drivers/tse_my_system.o
 .text          0x00001940        0x0 obj/default/lwip/src/api/api_lib.o
 .text          0x00001940        0x0 obj/default/lwip/src/api/api_msg.o
 .text          0x00001940       0x44 obj/default/lwip/src/api/err.o
                0x00001940                lwip_strerr
 .text          0x00001984        0x0 obj/default/lwip/src/api/netbuf.o
 .text          0x00001984        0x0 obj/default/lwip/src/api/netdb.o
 .text          0x00001984        0x0 obj/default/lwip/src/api/netifapi.o
 .text          0x00001984        0x0 obj/default/lwip/src/api/sockets.o
 .text          0x00001984        0x0 obj/default/lwip/src/api/tcpip.o
 .text          0x00001984     0x3420 obj/default/lwip/src/core/dhcp.o
                0x00001e04                dhcp_coarse_tmr
                0x00001eb8                dhcp_fine_tmr
                0x00002610                dhcp_start
                0x00002854                dhcp_inform
                0x000029e8                dhcp_network_changed
                0x00002a9c                dhcp_arp_reply
                0x00003250                dhcp_renew
                0x000036d0                dhcp_release
                0x000038ac                dhcp_stop
 .text          0x00004da4        0x0 obj/default/lwip/src/core/dns.o
 .text          0x00004da4       0x4c obj/default/lwip/src/core/init.o
                0x00004dc0                lwip_init
 .text          0x00004df0        0x0 obj/default/lwip/src/core/ipv4/autoip.o
 .text          0x00004df0      0x990 obj/default/lwip/src/core/ipv4/icmp.o
                0x00004df0                icmp_input
                0x00005488                icmp_dest_unreach
                0x000054cc                icmp_time_exceeded
 .text          0x00005780        0x0 obj/default/lwip/src/core/ipv4/igmp.o
 .text          0x00005780      0x594 obj/default/lwip/src/core/ipv4/inet.o
                0x00005780                inet_addr
                0x000057c4                inet_aton
                0x00005bbc                inet_ntoa
 .text          0x00005d14      0x49c obj/default/lwip/src/core/ipv4/inet_chksum.o
                0x00005e40                inet_chksum_pseudo
                0x00006060                inet_chksum
                0x000060a4                inet_chksum_pbuf
 .text          0x000061b0      0xc1c obj/default/lwip/src/core/ipv4/ip.o
                0x000061b0                ip_route
                0x000062ac                ip_input
                0x0000687c                ip_output_if
                0x00006d18                ip_output
 .text          0x00006dcc       0xf0 obj/default/lwip/src/core/ipv4/ip_addr.o
                0x00006dcc                ip_addr_isbroadcast
 .text          0x00006ebc     0x12ec obj/default/lwip/src/core/ipv4/ip_frag.o
                0x00006ebc                ip_reass_tmr
                0x00007984                ip_reass
                0x00007ea4                ip_frag
 .text          0x000081a8      0xba8 obj/default/lwip/src/core/mem.o
                0x000083a0                mem_init
                0x00008448                mem_free
                0x000085c8                mem_realloc
                0x000088ec                mem_malloc
                0x00008cd8                mem_calloc
 .text          0x00008d50      0x490 obj/default/lwip/src/core/memp.o
                0x00008d50                memp_init
                0x00008f0c                memp_malloc
                0x000090e8                memp_free
 .text          0x000091e0      0x5ec obj/default/lwip/src/core/netif.o
                0x000091e0                netif_add
                0x000092b8                netif_set_addr
                0x00009310                netif_remove
                0x000093cc                netif_find
                0x000094ac                netif_set_ipaddr
                0x00009604                netif_set_gw
                0x00009654                netif_set_netmask
                0x000096a4                netif_set_default
                0x000096cc                netif_set_up
                0x00009748                netif_set_down
                0x00009798                netif_is_up
 .text          0x000097cc     0x1590 obj/default/lwip/src/core/pbuf.o
                0x000097cc                pbuf_alloc
                0x00009d0c                pbuf_realloc
                0x00009f90                pbuf_header
                0x0000a188                pbuf_free
                0x0000a354                pbuf_clen
                0x0000a3a0                pbuf_ref
                0x0000a3e0                pbuf_cat
                0x0000a520                pbuf_chain
                0x0000a560                pbuf_dechain
                0x0000a68c                pbuf_copy
                0x0000a950                pbuf_copy_partial
                0x0000aaec                pbuf_take
                0x0000aca4                pbuf_coalesce
 .text          0x0000ad5c      0x4f0 obj/default/lwip/src/core/raw.o
                0x0000ad5c                raw_input
                0x0000ae8c                raw_bind
                0x0000aee0                raw_connect
                0x0000af34                raw_recv
                0x0000af74                raw_sendto
                0x0000b0ec                raw_send
                0x0000b130                raw_remove
                0x0000b1cc                raw_new
 .text          0x0000b24c        0x0 obj/default/lwip/src/core/snmp/asn1_dec.o
 .text          0x0000b24c        0x0 obj/default/lwip/src/core/snmp/asn1_enc.o
 .text          0x0000b24c        0x0 obj/default/lwip/src/core/snmp/mib2.o
 .text          0x0000b24c        0x0 obj/default/lwip/src/core/snmp/mib_structs.o
 .text          0x0000b24c        0x0 obj/default/lwip/src/core/snmp/msg_in.o
 .text          0x0000b24c        0x0 obj/default/lwip/src/core/snmp/msg_out.o
 .text          0x0000b24c        0x0 obj/default/lwip/src/core/stats.o
 .text          0x0000b24c        0x0 obj/default/lwip/src/core/sys.o
 .text          0x0000b24c     0x288c obj/default/lwip/src/core/tcp.o
                0x0000b24c                tcp_tmr
                0x0000b294                tcp_close
                0x0000b4a0                tcp_abandon
                0x0000b634                tcp_bind
                0x0000b94c                tcp_listen_with_backlog
                0x0000bb10                tcp_update_rcv_ann_wnd
                0x0000bbfc                tcp_recved
                0x0000be04                tcp_connect
                0x0000c058                tcp_slowtmr
                0x0000c91c                tcp_fasttmr
                0x0000ca38                tcp_segs_free
                0x0000ca9c                tcp_seg_free
                0x0000cb08                tcp_setprio
                0x0000cb3c                tcp_seg_copy
                0x0000cba4                tcp_recv_null
                0x0000cda4                tcp_alloc
                0x0000cf9c                tcp_new
                0x0000cfc8                tcp_arg
                0x0000cff8                tcp_recv
                0x0000d028                tcp_sent
                0x0000d058                tcp_err
                0x0000d088                tcp_accept
                0x0000d0b8                tcp_poll
                0x0000d0fc                tcp_pcb_purge
                0x0000d230                tcp_pcb_remove
                0x0000d410                tcp_next_iss
                0x0000d440                tcp_eff_send_mss
                0x0000d4c4                tcp_debug_state_str
                0x0000d500                tcp_debug_print
                0x0000d754                tcp_debug_print_state
                0x0000d7a0                tcp_debug_print_flags
                0x0000d89c                tcp_debug_print_pcbs
                0x0000d9a4                tcp_pcbs_sane
 .text          0x0000dad8     0x3de4 obj/default/lwip/src/core/tcp_in.o
                0x0000dad8                tcp_input
 .text          0x000118bc     0x2954 obj/default/lwip/src/core/tcp_out.o
                0x00011b44                tcp_send_ctrl
                0x00011b98                tcp_write
                0x00011c50                tcp_enqueue
                0x000129a4                tcp_send_empty_ack
                0x00012b00                tcp_output
                0x00013724                tcp_rst
                0x000139d0                tcp_rexmit_rto
                0x00013a84                tcp_rexmit
                0x00013c58                tcp_rexmit_fast
                0x00013d7c                tcp_keepalive
                0x00013f6c                tcp_zero_window_probe
 .text          0x00014210      0xe24 obj/default/lwip/src/core/udp.o
                0x00014210                udp_input
                0x00014854                udp_send
                0x000148a8                udp_sendto
                0x0001493c                udp_sendto_if
                0x00014c1c                udp_bind
                0x00014d84                udp_connect
                0x00014e98                udp_disconnect
                0x00014f00                udp_recv
                0x00014f40                udp_remove
                0x00014fdc                udp_new
 .text          0x00015034     0x1b20 obj/default/lwip/src/netif/etharp.o
                0x00015120                etharp_tmr
                0x00015ae8                etharp_find_addr
                0x00015ba4                etharp_ip_input
                0x00015c74                etharp_arp_input
                0x00016074                etharp_output
                0x000162e4                etharp_query
                0x000169a0                etharp_request
                0x00016a14                ethernet_input
 .text          0x00016b54        0x0 obj/default/lwip/src/netif/ethernetif.o
 .text          0x00016b54        0x0 obj/default/lwip/src/netif/loopif.o
 .text          0x00016b54        0x0 obj/default/lwip/src/netif/ppp/auth.o
 .text          0x00016b54        0x0 obj/default/lwip/src/netif/ppp/chap.o
 .text          0x00016b54        0x0 obj/default/lwip/src/netif/ppp/chpms.o
 .text          0x00016b54        0x0 obj/default/lwip/src/netif/ppp/fsm.o
 .text          0x00016b54        0x0 obj/default/lwip/src/netif/ppp/ipcp.o
 .text          0x00016b54        0x0 obj/default/lwip/src/netif/ppp/lcp.o
 .text          0x00016b54        0x0 obj/default/lwip/src/netif/ppp/magic.o
 .text          0x00016b54        0x0 obj/default/lwip/src/netif/ppp/md5.o
 .text          0x00016b54        0x0 obj/default/lwip/src/netif/ppp/pap.o
 .text          0x00016b54        0x0 obj/default/lwip/src/netif/ppp/ppp.o
 .text          0x00016b54        0x0 obj/default/lwip/src/netif/ppp/ppp_oe.o
 .text          0x00016b54        0x0 obj/default/lwip/src/netif/ppp/randm.o
 .text          0x00016b54        0x0 obj/default/lwip/src/netif/ppp/vj.o
 .text          0x00016b54        0x0 obj/default/lwip/src/netif/slipif.o
 .text          0x00016b54      0x314 obj/default/main.o
                0x00016b54                lwipAlarmCallback
                0x00016b80                main
                0x00016da4                lwipProcessTimers
 .text          0x00016e68        0x0 c:/altera/13.1/nios2eds/bin/gnu/h-i686-mingw32/bin/../lib/gcc/nios2-elf/4.7.3/../../../../../H-i686-mingw32/nios2-elf/lib\libc.a(lib_a-impure.o)
 .text          0x00016e68       0xf8 c:/altera/13.1/nios2eds/bin/gnu/h-i686-mingw32/bin/../lib/gcc/nios2-elf/4.7.3/../../../../../H-i686-mingw32/nios2-elf/lib\libc.a(lib_a-memcpy.o)
                0x00016e68                memcpy
 .text          0x00016f60       0xdc c:/altera/13.1/nios2eds/bin/gnu/h-i686-mingw32/bin/../lib/gcc/nios2-elf/4.7.3/../../../../../H-i686-mingw32/nios2-elf/lib\libc.a(lib_a-memset.o)
                0x00016f60                memset
 .text          0x0001703c       0x68 c:/altera/13.1/nios2eds/bin/gnu/h-i686-mingw32/bin/../lib/gcc/nios2-elf/4.7.3/../../../../../H-i686-mingw32/nios2-elf/lib\libc.a(lib_a-printf.o)
                0x0001703c                _printf_r
                0x00017068                printf
 .text          0x000170a4      0x1ac c:/altera/13.1/nios2eds/bin/gnu/h-i686-mingw32/bin/../lib/gcc/nios2-elf/4.7.3/../../../../../H-i686-mingw32/nios2-elf/lib\libc.a(lib_a-putc.o)
                0x000170a4                _putc_r
                0x00017160                putc
 .text          0x00017250       0x24 c:/altera/13.1/nios2eds/bin/gnu/h-i686-mingw32/bin/../lib/gcc/nios2-elf/4.7.3/../../../../../H-i686-mingw32/nios2-elf/lib\libc.a(lib_a-putchar.o)
                0x00017250                _putchar_r
                0x00017258                putchar
 .text          0x00017274       0x98 c:/altera/13.1/nios2eds/bin/gnu/h-i686-mingw32/bin/../lib/gcc/nios2-elf/4.7.3/../../../../../H-i686-mingw32/nios2-elf/lib\libc.a(lib_a-puts.o)
                0x00017274                _puts_r
                0x000172f8                puts
 .text          0x0001730c       0xa4 c:/altera/13.1/nios2eds/bin/gnu/h-i686-mingw32/bin/../lib/gcc/nios2-elf/4.7.3/../../../../../H-i686-mingw32/nios2-elf/lib\libc.a(lib_a-strcmp.o)
                0x0001730c                strcmp
 .text          0x000173b0       0x8c c:/altera/13.1/nios2eds/bin/gnu/h-i686-mingw32/bin/../lib/gcc/nios2-elf/4.7.3/../../../../../H-i686-mingw32/nios2-elf/lib\libc.a(lib_a-strlen.o)
                0x000173b0                strlen
 .text          0x0001743c       0xfc c:/altera/13.1/nios2eds/bin/gnu/h-i686-mingw32/bin/../lib/gcc/nios2-elf/4.7.3/../../../../../H-i686-mingw32/nios2-elf/lib\libc.a(lib_a-strncmp.o)
                0x0001743c                strncmp
 .text          0x00017538     0x1e50 c:/altera/13.1/nios2eds/bin/gnu/h-i686-mingw32/bin/../lib/gcc/nios2-elf/4.7.3/../../../../../H-i686-mingw32/nios2-elf/lib\libc.a(lib_a-vfprintf.o)
                0x0001756c                ___vfprintf_internal_r
                0x00019364                __vfprintf_internal
 .text          0x00019388      0x158 c:/altera/13.1/nios2eds/bin/gnu/h-i686-mingw32/bin/../lib/gcc/nios2-elf/4.7.3/../../../../../H-i686-mingw32/nios2-elf/lib\libc.a(lib_a-wbuf.o)
                0x00019388                __swbuf_r
                0x000194c4                __swbuf
 .text          0x000194e0      0x174 c:/altera/13.1/nios2eds/bin/gnu/h-i686-mingw32/bin/../lib/gcc/nios2-elf/4.7.3/../../../../../H-i686-mingw32/nios2-elf/lib\libc.a(lib_a-wsetup.o)
                0x000194e0                __swsetup_r
 .text          0x00019654     0x1824 c:/altera/13.1/nios2eds/bin/gnu/h-i686-mingw32/bin/../lib/gcc/nios2-elf/4.7.3/../../../../../H-i686-mingw32/nios2-elf/lib\libc.a(lib_a-dtoa.o)
                0x0001985c                _dtoa_r
 .text          0x0001ae78      0x218 c:/altera/13.1/nios2eds/bin/gnu/h-i686-mingw32/bin/../lib/gcc/nios2-elf/4.7.3/../../../../../H-i686-mingw32/nios2-elf/lib\libc.a(lib_a-fflush.o)
                0x0001ae78                _fflush_r
                0x0001b060                fflush
 .text          0x0001b090      0x2d8 c:/altera/13.1/nios2eds/bin/gnu/h-i686-mingw32/bin/../lib/gcc/nios2-elf/4.7.3/../../../../../H-i686-mingw32/nios2-elf/lib\libc.a(lib_a-findfp.o)
                0x0001b0a0                _cleanup_r
                0x0001b0ac                __sfmoreglue
                0x0001b110                _cleanup
                0x0001b120                __sinit
                0x0001b22c                __sfp
                0x0001b328                __sfp_lock_acquire
                0x0001b32c                __sfp_lock_release
                0x0001b330                __sinit_lock_acquire
                0x0001b334                __sinit_lock_release
                0x0001b338                __fp_lock_all
                0x0001b350                __fp_unlock_all
 .text          0x0001b368      0x40c c:/altera/13.1/nios2eds/bin/gnu/h-i686-mingw32/bin/../lib/gcc/nios2-elf/4.7.3/../../../../../H-i686-mingw32/nios2-elf/lib\libc.a(lib_a-freer.o)
                0x0001b368                _malloc_trim_r
                0x0001b4a4                _free_r
 .text          0x0001b774      0x4e4 c:/altera/13.1/nios2eds/bin/gnu/h-i686-mingw32/bin/../lib/gcc/nios2-elf/4.7.3/../../../../../H-i686-mingw32/nios2-elf/lib\libc.a(lib_a-fvwrite.o)
                0x0001b774                __sfvwrite_r
 .text          0x0001bc58      0x160 c:/altera/13.1/nios2eds/bin/gnu/h-i686-mingw32/bin/../lib/gcc/nios2-elf/4.7.3/../../../../../H-i686-mingw32/nios2-elf/lib\libc.a(lib_a-fwalk.o)
                0x0001bc58                _fwalk
                0x0001bd00                _fwalk_reent
 .text          0x0001bdb8       0xdc c:/altera/13.1/nios2eds/bin/gnu/h-i686-mingw32/bin/../lib/gcc/nios2-elf/4.7.3/../../../../../H-i686-mingw32/nios2-elf/lib\libc.a(lib_a-locale.o)
                0x0001bdb8                _setlocale_r
                0x0001be54                __locale_charset
                0x0001be60                _localeconv_r
                0x0001be6c                setlocale
                0x0001be88                localeconv
 .text          0x0001be94      0x1a8 c:/altera/13.1/nios2eds/bin/gnu/h-i686-mingw32/bin/../lib/gcc/nios2-elf/4.7.3/../../../../../H-i686-mingw32/nios2-elf/lib\libc.a(lib_a-makebuf.o)
                0x0001be94                __smakebuf_r
 .text          0x0001c03c      0x784 c:/altera/13.1/nios2eds/bin/gnu/h-i686-mingw32/bin/../lib/gcc/nios2-elf/4.7.3/../../../../../H-i686-mingw32/nios2-elf/lib\libc.a(lib_a-mallocr.o)
                0x0001c03c                _malloc_r
 .text          0x0001c7c0       0xf8 c:/altera/13.1/nios2eds/bin/gnu/h-i686-mingw32/bin/../lib/gcc/nios2-elf/4.7.3/../../../../../H-i686-mingw32/nios2-elf/lib\libc.a(lib_a-memchr.o)
                0x0001c7c0                memchr
 .text          0x0001c8b8      0x128 c:/altera/13.1/nios2eds/bin/gnu/h-i686-mingw32/bin/../lib/gcc/nios2-elf/4.7.3/../../../../../H-i686-mingw32/nios2-elf/lib\libc.a(lib_a-memmove.o)
                0x0001c8b8                memmove
 .text          0x0001c9e0      0xfa8 c:/altera/13.1/nios2eds/bin/gnu/h-i686-mingw32/bin/../lib/gcc/nios2-elf/4.7.3/../../../../../H-i686-mingw32/nios2-elf/lib\libc.a(lib_a-mprec.o)
                0x0001c9e0                _Balloc
                0x0001ca88                _Bfree
                0x0001cab0                __multadd
                0x0001cbc4                __s2b
                0x0001ccc8                __hi0bits
                0x0001cd30                __lo0bits
                0x0001cde0                __i2b
                0x0001ce1c                __multiply
                0x0001cffc                __pow5mult
                0x0001d128                __lshift
                0x0001d284                __mcmp
                0x0001d2dc                __mdiff
                0x0001d484                __ulp
                0x0001d4e4                __b2d
                0x0001d62c                __d2b
                0x0001d770                __ratio
                0x0001d814                _mprec_log10
                0x0001d888                __copybits
                0x0001d904                __any_on
 .text          0x0001d988      0x5fc c:/altera/13.1/nios2eds/bin/gnu/h-i686-mingw32/bin/../lib/gcc/nios2-elf/4.7.3/../../../../../H-i686-mingw32/nios2-elf/lib\libc.a(lib_a-reallocr.o)
                0x0001d988                _realloc_r
 .text          0x0001df84       0x38 c:/altera/13.1/nios2eds/bin/gnu/h-i686-mingw32/bin/../lib/gcc/nios2-elf/4.7.3/../../../../../H-i686-mingw32/nios2-elf/lib\libc.a(lib_a-s_isinfd.o)
                0x0001df84                __isinfd
 .text          0x0001dfbc       0x2c c:/altera/13.1/nios2eds/bin/gnu/h-i686-mingw32/bin/../lib/gcc/nios2-elf/4.7.3/../../../../../H-i686-mingw32/nios2-elf/lib\libc.a(lib_a-s_isnand.o)
                0x0001dfbc                __isnand
 .text          0x0001dfe8       0x64 c:/altera/13.1/nios2eds/bin/gnu/h-i686-mingw32/bin/../lib/gcc/nios2-elf/4.7.3/../../../../../H-i686-mingw32/nios2-elf/lib\libc.a(lib_a-sbrkr.o)
                0x0001dfe8                _sbrk_r
 .text          0x0001e04c      0x140 c:/altera/13.1/nios2eds/bin/gnu/h-i686-mingw32/bin/../lib/gcc/nios2-elf/4.7.3/../../../../../H-i686-mingw32/nios2-elf/lib\libc.a(lib_a-stdio.o)
                0x0001e04c                __sread
                0x0001e0a0                __swrite
                0x0001e128                __sseek
                0x0001e184                __sclose
 .text          0x0001e18c       0x6c c:/altera/13.1/nios2eds/bin/gnu/h-i686-mingw32/bin/../lib/gcc/nios2-elf/4.7.3/../../../../../H-i686-mingw32/nios2-elf/lib\libc.a(lib_a-writer.o)
                0x0001e18c                _write_r
 .text          0x0001e1f8       0xbc c:/altera/13.1/nios2eds/bin/gnu/h-i686-mingw32/bin/../lib/gcc/nios2-elf/4.7.3/../../../../../H-i686-mingw32/nios2-elf/lib\libc.a(lib_a-callocr.o)
                0x0001e1f8                _calloc_r
 .text          0x0001e2b4       0x64 c:/altera/13.1/nios2eds/bin/gnu/h-i686-mingw32/bin/../lib/gcc/nios2-elf/4.7.3/../../../../../H-i686-mingw32/nios2-elf/lib\libc.a(lib_a-closer.o)
                0x0001e2b4                _close_r
 .text          0x0001e318      0x150 c:/altera/13.1/nios2eds/bin/gnu/h-i686-mingw32/bin/../lib/gcc/nios2-elf/4.7.3/../../../../../H-i686-mingw32/nios2-elf/lib\libc.a(lib_a-fclose.o)
                0x0001e318                _fclose_r
                0x0001e454                fclose
 .text          0x0001e468       0x68 c:/altera/13.1/nios2eds/bin/gnu/h-i686-mingw32/bin/../lib/gcc/nios2-elf/4.7.3/../../../../../H-i686-mingw32/nios2-elf/lib\libc.a(lib_a-fstatr.o)
                0x0001e468                _fstat_r
 .text          0x0001e4d0        0x0 c:/altera/13.1/nios2eds/bin/gnu/h-i686-mingw32/bin/../lib/gcc/nios2-elf/4.7.3/../../../../../H-i686-mingw32/nios2-elf/lib\libc.a(lib_a-int_errno.o)
 .text          0x0001e4d0       0x64 c:/altera/13.1/nios2eds/bin/gnu/h-i686-mingw32/bin/../lib/gcc/nios2-elf/4.7.3/../../../../../H-i686-mingw32/nios2-elf/lib\libc.a(lib_a-isattyr.o)
                0x0001e4d0                _isatty_r
 .text          0x0001e534       0x6c c:/altera/13.1/nios2eds/bin/gnu/h-i686-mingw32/bin/../lib/gcc/nios2-elf/4.7.3/../../../../../H-i686-mingw32/nios2-elf/lib\libc.a(lib_a-lseekr.o)
                0x0001e534                _lseek_r
 .text          0x0001e5a0       0x6c c:/altera/13.1/nios2eds/bin/gnu/h-i686-mingw32/bin/../lib/gcc/nios2-elf/4.7.3/../../../../../H-i686-mingw32/nios2-elf/lib\libc.a(lib_a-readr.o)
                0x0001e5a0                _read_r
 .text          0x0001e60c      0x5c8 c:/altera/13.1/nios2eds/bin/gnu/h-i686-mingw32/bin/../lib/gcc/nios2-elf/4.7.3\libgcc.a(_udivdi3.o)
                0x0001e60c                __udivdi3
 .text          0x0001ebd4      0x58c c:/altera/13.1/nios2eds/bin/gnu/h-i686-mingw32/bin/../lib/gcc/nios2-elf/4.7.3\libgcc.a(_umoddi3.o)
                0x0001ebd4                __umoddi3
 .text          0x0001f160      0x408 c:/altera/13.1/nios2eds/bin/gnu/h-i686-mingw32/bin/../lib/gcc/nios2-elf/4.7.3\libgcc.a(_addsub_df.o)
                0x0001f4b4                __adddf3
                0x0001f508                __subdf3
 .text          0x0001f568      0x2e4 c:/altera/13.1/nios2eds/bin/gnu/h-i686-mingw32/bin/../lib/gcc/nios2-elf/4.7.3\libgcc.a(_mul_df.o)
                0x0001f568                __muldf3
 .text          0x0001f84c      0x1b4 c:/altera/13.1/nios2eds/bin/gnu/h-i686-mingw32/bin/../lib/gcc/nios2-elf/4.7.3\libgcc.a(_div_df.o)
                0x0001f84c                __divdf3
 .text          0x0001fa00       0x5c c:/altera/13.1/nios2eds/bin/gnu/h-i686-mingw32/bin/../lib/gcc/nios2-elf/4.7.3\libgcc.a(_eq_df.o)
                0x0001fa00                __eqdf2
 .text          0x0001fa5c       0x5c c:/altera/13.1/nios2eds/bin/gnu/h-i686-mingw32/bin/../lib/gcc/nios2-elf/4.7.3\libgcc.a(_ne_df.o)
                0x0001fa5c                __nedf2
 .text          0x0001fab8       0x64 c:/altera/13.1/nios2eds/bin/gnu/h-i686-mingw32/bin/../lib/gcc/nios2-elf/4.7.3\libgcc.a(_gt_df.o)
                0x0001fab8                __gtdf2
 .text          0x0001fb1c       0x64 c:/altera/13.1/nios2eds/bin/gnu/h-i686-mingw32/bin/../lib/gcc/nios2-elf/4.7.3\libgcc.a(_ge_df.o)
                0x0001fb1c                __gedf2
 .text          0x0001fb80       0x5c c:/altera/13.1/nios2eds/bin/gnu/h-i686-mingw32/bin/../lib/gcc/nios2-elf/4.7.3\libgcc.a(_lt_df.o)
                0x0001fb80                __ltdf2
 .text          0x0001fbdc       0xd4 c:/altera/13.1/nios2eds/bin/gnu/h-i686-mingw32/bin/../lib/gcc/nios2-elf/4.7.3\libgcc.a(_si_to_df.o)
                0x0001fbdc                __floatsidf
 .text          0x0001fcb0       0xd4 c:/altera/13.1/nios2eds/bin/gnu/h-i686-mingw32/bin/../lib/gcc/nios2-elf/4.7.3\libgcc.a(_df_to_si.o)
                0x0001fcb0                __fixdfsi
 .text          0x0001fd84        0x0 c:/altera/13.1/nios2eds/bin/gnu/h-i686-mingw32/bin/../lib/gcc/nios2-elf/4.7.3\libgcc.a(_thenan_df.o)
 .text          0x0001fd84      0x11c c:/altera/13.1/nios2eds/bin/gnu/h-i686-mingw32/bin/../lib/gcc/nios2-elf/4.7.3\libgcc.a(_usi_to_df.o)
                0x0001fd84                __floatunsidf
 .text          0x0001fea0      0x130 c:/altera/13.1/nios2eds/bin/gnu/h-i686-mingw32/bin/../lib/gcc/nios2-elf/4.7.3\libgcc.a(lib2-divmod.o)
                0x0001ff14                __divsi3
                0x0001ff64                __modsi3
                0x0001ffc0                __udivsi3
                0x0001ffc8                __umodsi3
 .text          0x0001ffd0       0x60 c:/altera/13.1/nios2eds/bin/gnu/h-i686-mingw32/bin/../lib/gcc/nios2-elf/4.7.3\libgcc.a(_muldi3.o)
                0x0001ffd0                __muldi3
 .text          0x00020030        0x0 c:/altera/13.1/nios2eds/bin/gnu/h-i686-mingw32/bin/../lib/gcc/nios2-elf/4.7.3\libgcc.a(_clz.o)
 .text          0x00020030       0xac c:/altera/13.1/nios2eds/bin/gnu/h-i686-mingw32/bin/../lib/gcc/nios2-elf/4.7.3\libgcc.a(_clzsi2.o)
                0x00020030                __clzsi2
 .text          0x000200dc      0x224 c:/altera/13.1/nios2eds/bin/gnu/h-i686-mingw32/bin/../lib/gcc/nios2-elf/4.7.3\libgcc.a(_pack_df.o)
                0x000200dc                __pack_d
 .text          0x00020300      0x104 c:/altera/13.1/nios2eds/bin/gnu/h-i686-mingw32/bin/../lib/gcc/nios2-elf/4.7.3\libgcc.a(_unpack_df.o)
                0x00020300                __unpack_d
 .text          0x00020404       0xd0 c:/altera/13.1/nios2eds/bin/gnu/h-i686-mingw32/bin/../lib/gcc/nios2-elf/4.7.3\libgcc.a(_fpcmp_parts_df.o)
                0x00020404                __fpcmp_parts_d
 .text          0x000204d4       0x44 c:/altera/13.1/nios2eds/bin/gnu/h-i686-mingw32/bin/../lib/gcc/nios2-elf/4.7.3\libgcc.a(_lshrdi3.o)
                0x000204d4                __lshrdi3
 .text          0x00020518       0x44 c:/altera/13.1/nios2eds/bin/gnu/h-i686-mingw32/bin/../lib/gcc/nios2-elf/4.7.3\libgcc.a(_ashldi3.o)
                0x00020518                __ashldi3
 .text          0x0002055c      0x16c ../lwIP_NIOS_II_Example_bsp\libhal_bsp.a(alt_alarm_start.o)
                0x0002055c                alt_alarm_start
 .text          0x000206c8      0x118 ../lwIP_NIOS_II_Example_bsp\libhal_bsp.a(alt_close.o)
                0x00020718                close
 .text          0x000207e0       0x2c ../lwIP_NIOS_II_Example_bsp\libhal_bsp.a(alt_dev.o)
 .text          0x0002080c        0x0 ../lwIP_NIOS_II_Example_bsp\libhal_bsp.a(alt_errno.o)
 .text          0x0002080c       0xfc ../lwIP_NIOS_II_Example_bsp\libhal_bsp.a(alt_fstat.o)
                0x0002085c                fstat
 .text          0x00020908       0xf0 ../lwIP_NIOS_II_Example_bsp\libhal_bsp.a(alt_isatty.o)
                0x00020958                isatty
 .text          0x000209f8       0xec ../lwIP_NIOS_II_Example_bsp\libhal_bsp.a(alt_load.o)
                0x00020a64                alt_load
 .text          0x00020ae4      0x120 ../lwIP_NIOS_II_Example_bsp\libhal_bsp.a(alt_lseek.o)
                0x00020b34                lseek
 .text          0x00020c04       0x78 ../lwIP_NIOS_II_Example_bsp\libhal_bsp.a(alt_main.o)
                0x00020c04                alt_main
 .text          0x00020c7c       0x40 ../lwIP_NIOS_II_Example_bsp\libhal_bsp.a(alt_malloc_lock.o)
                0x00020c7c                __malloc_lock
                0x00020c9c                __malloc_unlock
 .text          0x00020cbc      0x140 ../lwIP_NIOS_II_Example_bsp\libhal_bsp.a(alt_read.o)
                0x00020d0c                read
 .text          0x00020dfc       0x60 ../lwIP_NIOS_II_Example_bsp\libhal_bsp.a(alt_release_fd.o)
                0x00020dfc                alt_release_fd
 .text          0x00020e5c       0x40 ../lwIP_NIOS_II_Example_bsp\libhal_bsp.a(alt_remap_uncached.o)
                0x00020e5c                alt_remap_uncached
 .text          0x00020e9c      0x108 ../lwIP_NIOS_II_Example_bsp\libhal_bsp.a(alt_sbrk.o)
                0x00020e9c                sbrk
 .text          0x00020fa4      0x1c8 ../lwIP_NIOS_II_Example_bsp\libhal_bsp.a(alt_tick.o)
                0x00020fa4                alt_alarm_stop
                0x00021068                alt_tick
 .text          0x0002116c       0x58 ../lwIP_NIOS_II_Example_bsp\libhal_bsp.a(alt_uncached_malloc.o)
                0x0002116c                alt_uncached_malloc
 .text          0x000211c4       0x30 ../lwIP_NIOS_II_Example_bsp\libhal_bsp.a(alt_usleep.o)
                0x000211c4                usleep
 .text          0x000211f4      0x13c ../lwIP_NIOS_II_Example_bsp\libhal_bsp.a(alt_write.o)
                0x00021244                write
 .text          0x00021330      0x188 ../lwIP_NIOS_II_Example_bsp\libhal_bsp.a(alt_sys_init.o)
                0x00021368                alt_irq_init
                0x000213a8                alt_sys_init
 .text          0x000214b8      0x894 ../lwIP_NIOS_II_Example_bsp\libhal_bsp.a(altera_avalon_cfi_flash.o)
                0x000214f0                alt_flash_cfi_init
                0x00021580                alt_flash_cfi_write
                0x0002182c                alt_flash_cfi_get_info
                0x000218b8                alt_flash_cfi_read
                0x0002191c                alt_write_value_to_flash
                0x00021a74                alt_flash_program_block
 .text          0x00021d4c     0x1430 ../lwIP_NIOS_II_Example_bsp\libhal_bsp.a(altera_avalon_cfi_flash_table.o)
                0x00021d4c                alt_read_query_entry_8bit
                0x00021d88                alt_read_query_entry_16bit
                0x00021dc8                alt_read_query_entry_32bit
                0x00021e08                alt_write_flash_command_8bit_device_8bit_mode
                0x00021e4c                alt_write_flash_command_16bit_device_8bit_mode
                0x00021ec0                alt_write_flash_command_32bit_device_8bit_mode
                0x00021f0c                alt_write_flash_command_16bit_device_16bit_mode
                0x00021f54                alt_write_flash_command_32bit_device_16bit_mode
                0x00021fa0                alt_write_flash_command_32bit_device_32bit_mode
                0x00021fec                alt_write_native_8bit
                0x00022024                alt_write_native_16bit
                0x0002205c                alt_write_native_32bit
                0x00022090                alt_set_flash_width_func
                0x00022254                alt_set_flash_algorithm_func
                0x00022370                alt_read_cfi_table
                0x00022938                alt_read_cfi_width
                0x000230a8                alt_check_primary_table
 .text          0x0002317c      0x164 ../lwIP_NIOS_II_Example_bsp\libhal_bsp.a(altera_avalon_jtag_uart_fd.o)
                0x0002317c                altera_avalon_jtag_uart_read_fd
                0x000231dc                altera_avalon_jtag_uart_write_fd
                0x0002323c                altera_avalon_jtag_uart_close_fd
                0x0002328c                altera_avalon_jtag_uart_ioctl_fd
 .text          0x000232e0      0x3d0 ../lwIP_NIOS_II_Example_bsp\libhal_bsp.a(altera_avalon_jtag_uart_init.o)
                0x000232e0                altera_avalon_jtag_uart_init
                0x00023648                altera_avalon_jtag_uart_close
 .text          0x000236b0       0xf4 ../lwIP_NIOS_II_Example_bsp\libhal_bsp.a(altera_avalon_jtag_uart_ioctl.o)
                0x000236b0                altera_avalon_jtag_uart_ioctl
 .text          0x000237a4      0x244 ../lwIP_NIOS_II_Example_bsp\libhal_bsp.a(altera_avalon_jtag_uart_read.o)
                0x000237a4                altera_avalon_jtag_uart_read
 .text          0x000239e8      0x250 ../lwIP_NIOS_II_Example_bsp\libhal_bsp.a(altera_avalon_jtag_uart_write.o)
                0x000239e8                altera_avalon_jtag_uart_write
 .text          0x00023c38      0xe8c ../lwIP_NIOS_II_Example_bsp\libhal_bsp.a(altera_avalon_lcd_16207.o)
                0x000243fc                altera_avalon_lcd_16207_write
                0x0002498c                altera_avalon_lcd_16207_init
 .text          0x00024ac4       0x60 ../lwIP_NIOS_II_Example_bsp\libhal_bsp.a(altera_avalon_lcd_16207_fd.o)
                0x00024ac4                altera_avalon_lcd_16207_write_fd
 .text          0x00024b24      0xd2c ../lwIP_NIOS_II_Example_bsp\libhal_bsp.a(altera_avalon_sgdma.o)
                0x00024b74                alt_avalon_sgdma_do_async_transfer
                0x00024c98                alt_avalon_sgdma_do_sync_transfer
                0x00024da8                alt_avalon_sgdma_construct_mem_to_mem_desc
                0x00024e18                alt_avalon_sgdma_construct_mem_to_mem_desc_burst
                0x00024e98                alt_avalon_sgdma_construct_stream_to_mem_desc
                0x00024ef4                alt_avalon_sgdma_construct_stream_to_mem_desc_burst
                0x00024f68                alt_avalon_sgdma_construct_mem_to_stream_desc
                0x00024fe4                alt_avalon_sgdma_construct_mem_to_stream_desc_burst
                0x0002506c                alt_avalon_sgdma_register_callback
                0x000250bc                alt_avalon_sgdma_start
                0x00025110                alt_avalon_sgdma_stop
                0x00025168                alt_avalon_sgdma_check_descriptor_status
                0x000251cc                alt_avalon_sgdma_open
                0x0002521c                alt_avalon_sgdma_construct_descriptor
                0x000252a4                alt_avalon_sgdma_enable_desc_poll
                0x00025324                alt_avalon_sgdma_disable_desc_poll
                0x00025384                alt_avalon_sgdma_construct_descriptor_burst
                0x000257ac                alt_avalon_sgdma_init
 .text          0x00025850      0x128 ../lwIP_NIOS_II_Example_bsp\libhal_bsp.a(altera_avalon_timer_sc.o)
                0x000258f0                alt_avalon_timer_sc_init
 .text          0x00025978     0x4fa8 ../lwIP_NIOS_II_Example_bsp\libhal_bsp.a(altera_avalon_tse.o)
                0x00025978                no_printf
                0x000259a4                tse_mac_initTransInfo2
                0x00025a04                tse_mac_sTxWrite
                0x00025ae4                tse_mac_aRxRead
                0x00025b88                tse_mac_SwReset
                0x00025c10                tse_mac_setMIImode
                0x00025c64                tse_mac_setGMIImode
                0x00025cb4                alt_tse_phy_add_profile
                0x00025e98                alt_tse_system_add_sys
                0x00026894                alt_tse_sys_enable_mdio_sharing
                0x000269f8                alt_tse_mac_get_common_speed
                0x00026a38                alt_tse_mac_set_common_speed
                0x00026a80                alt_tse_get_system_index
                0x00026aec                alt_tse_get_mac_group_index
                0x00026b60                alt_tse_get_mac_info_index
                0x00026be0                alt_tse_get_mac_info
                0x00026cb8                alt_tse_mac_set_speed
                0x00026d98                alt_tse_mac_set_duplex
                0x00026e24                getPHYSpeed
                0x00027898                alt_tse_phy_rd_mdio_addr
                0x000278e0                alt_tse_phy_wr_mdio_addr
                0x00027938                alt_tse_phy_wr_mdio_reg
                0x00027a64                alt_tse_phy_rd_mdio_reg
                0x00027b30                alt_tse_phy_add_profile_default
                0x00027dc8                alt_tse_phy_print_profile
                0x00027fd8                alt_tse_mac_group_init
                0x00028674                alt_tse_mac_get_phy
                0x00028a90                alt_tse_mac_associate_phy
                0x00028cd0                alt_tse_phy_cfg_pcs
                0x00028df8                alt_tse_phy_init
                0x00028f10                alt_tse_phy_restart_an
                0x000290d4                alt_tse_phy_check_link
                0x00029234                alt_tse_phy_get_cap
                0x000297cc                alt_tse_phy_set_adv_1000
                0x00029988                alt_tse_phy_set_adv_100
                0x00029bd0                alt_tse_phy_set_adv_10
                0x00029d78                alt_tse_phy_get_common_speed
                0x0002a0a0                alt_tse_phy_set_common_speed
                0x0002a558                marvell_phy_cfg
                0x0002a5f0                marvell_cfg_gmii
                0x0002a6d4                marvell_cfg_sgmii
                0x0002a7b8                marvell_cfg_rgmii
                0x0002a8a8                DP83848C_link_status_read
 .text          0x0002a920      0x110 ../lwIP_NIOS_II_Example_bsp\libhal_bsp.a(altera_avalon_uart_fd.o)
                0x0002a920                altera_avalon_uart_read_fd
                0x0002a980                altera_avalon_uart_write_fd
                0x0002a9e0                altera_avalon_uart_close_fd
 .text          0x0002aa30      0x3a8 ../lwIP_NIOS_II_Example_bsp\libhal_bsp.a(altera_avalon_uart_init.o)
                0x0002aa30                altera_avalon_uart_init
                0x0002ad84                altera_avalon_uart_close
 .text          0x0002add8      0x2ac ../lwIP_NIOS_II_Example_bsp\libhal_bsp.a(altera_avalon_uart_read.o)
                0x0002ae28                altera_avalon_uart_read
 .text          0x0002b084      0x250 ../lwIP_NIOS_II_Example_bsp\libhal_bsp.a(altera_avalon_uart_write.o)
                0x0002b0d4                altera_avalon_uart_write
 .text          0x0002b2d4      0x200 ../lwIP_NIOS_II_Example_bsp\libhal_bsp.a(altera_vic_0_vector_tbl.o)
                0x0002b2d4                VIC_0_VECTOR_TABLE
 .text          0x0002b4d4       0x18 ../lwIP_NIOS_II_Example_bsp\libhal_bsp.a(altera_vic_funnel_non_preemptive.o)
                0x0002b4d4                alt_shadow_non_preemptive_interrupt
 .text          0x0002b4ec      0x13c ../lwIP_NIOS_II_Example_bsp\libhal_bsp.a(altera_vic_irq_init.o)
                0x0002b4ec                alt_vic_irq_init
 .text          0x0002b628      0x158 ../lwIP_NIOS_II_Example_bsp\libhal_bsp.a(altera_vic_isr_register.o)
                0x0002b628                alt_ic_isr_register
 .text          0x0002b780      0x128 ../lwIP_NIOS_II_Example_bsp\libhal_bsp.a(alt_busy_sleep.o)
                0x0002b780                alt_busy_sleep
 .text          0x0002b8a8       0x24 ../lwIP_NIOS_II_Example_bsp\libhal_bsp.a(alt_dcache_flush.o)
                0x0002b8a8                alt_dcache_flush
 .text          0x0002b8cc       0x1c ../lwIP_NIOS_II_Example_bsp\libhal_bsp.a(alt_dcache_flush_all.o)
                0x0002b8cc                alt_dcache_flush_all
 .text          0x0002b8e8       0xf0 ../lwIP_NIOS_II_Example_bsp\libhal_bsp.a(alt_dev_llist_insert.o)
                0x0002b938                alt_dev_llist_insert
 .text          0x0002b9d8       0x5c ../lwIP_NIOS_II_Example_bsp\libhal_bsp.a(alt_do_ctors.o)
                0x0002b9d8                _do_ctors
 .text          0x0002ba34       0x5c ../lwIP_NIOS_II_Example_bsp\libhal_bsp.a(alt_do_dtors.o)
                0x0002ba34                _do_dtors
 .text          0x0002ba90       0x90 ../lwIP_NIOS_II_Example_bsp\libhal_bsp.a(alt_find_dev.o)
                0x0002ba90                alt_find_dev
 .text          0x0002bb20       0xb8 ../lwIP_NIOS_II_Example_bsp\libhal_bsp.a(alt_flash_dev.o)
                0x0002bb20                alt_flash_open_dev
                0x0002bb88                alt_flash_close_dev
 .text          0x0002bbd8       0x30 ../lwIP_NIOS_II_Example_bsp\libhal_bsp.a(alt_icache_flush_all.o)
                0x0002bbd8                alt_icache_flush_all
 .text          0x0002bc08      0x138 ../lwIP_NIOS_II_Example_bsp\libhal_bsp.a(alt_io_redirect.o)
                0x0002bcc8                alt_io_redirect
 .text          0x0002bd40      0x270 ../lwIP_NIOS_II_Example_bsp\libhal_bsp.a(alt_open.o)
                0x0002be5c                open
 .text          0x0002bfb0      0x460 ../lwIP_NIOS_II_Example_bsp\libhal_bsp.a(altera_avalon_cfi_flash_amd.o)
                0x0002bfb0                alt_program_amd
                0x0002c018                alt_erase_block_amd
 .text          0x0002c410      0x438 ../lwIP_NIOS_II_Example_bsp\libhal_bsp.a(altera_avalon_cfi_flash_intel.o)
                0x0002c410                alt_program_intel
                0x0002c490                alt_erase_block_intel
 .text          0x0002c848      0x114 ../lwIP_NIOS_II_Example_bsp\libhal_bsp.a(alt_find_file.o)
                0x0002c848                alt_find_file
 .text          0x0002c95c       0xb4 ../lwIP_NIOS_II_Example_bsp\libhal_bsp.a(alt_get_fd.o)
                0x0002c95c                alt_get_fd
 .text          0x0002ca10       0x8c ../lwIP_NIOS_II_Example_bsp\libhal_bsp.a(alt_icache_flush.o)
                0x0002ca10                alt_icache_flush
 .text          0x0002ca9c       0x14 c:/altera/13.1/nios2eds/bin/gnu/h-i686-mingw32/bin/../lib/gcc/nios2-elf/4.7.3/../../../../../H-i686-mingw32/nios2-elf/lib\libc.a(lib_a-atexit.o)
                0x0002ca9c                atexit
 .text          0x0002cab0        0x0 c:/altera/13.1/nios2eds/bin/gnu/h-i686-mingw32/bin/../lib/gcc/nios2-elf/4.7.3/../../../../../H-i686-mingw32/nios2-elf/lib\libc.a(lib_a-ctype_.o)
 .text          0x0002cab0       0x38 c:/altera/13.1/nios2eds/bin/gnu/h-i686-mingw32/bin/../lib/gcc/nios2-elf/4.7.3/../../../../../H-i686-mingw32/nios2-elf/lib\libc.a(lib_a-exit.o)
                0x0002cab0                exit
 .text          0x0002cae8       0x28 c:/altera/13.1/nios2eds/bin/gnu/h-i686-mingw32/bin/../lib/gcc/nios2-elf/4.7.3/../../../../../H-i686-mingw32/nios2-elf/lib\libc.a(lib_a-malloc.o)
                0x0002cae8                malloc
                0x0002cafc                free
 .text          0x0002cb10       0x7c c:/altera/13.1/nios2eds/bin/gnu/h-i686-mingw32/bin/../lib/gcc/nios2-elf/4.7.3/../../../../../H-i686-mingw32/nios2-elf/lib\libc.a(lib_a-memcmp.o)
                0x0002cb10                memcmp
 .text          0x0002cb8c       0x94 c:/altera/13.1/nios2eds/bin/gnu/h-i686-mingw32/bin/../lib/gcc/nios2-elf/4.7.3/../../../../../H-i686-mingw32/nios2-elf/lib\libc.a(lib_a-strcpy.o)
                0x0002cb8c                strcpy
 .text          0x0002cc20      0x130 c:/altera/13.1/nios2eds/bin/gnu/h-i686-mingw32/bin/../lib/gcc/nios2-elf/4.7.3/../../../../../H-i686-mingw32/nios2-elf/lib\libc.a(lib_a-__atexit.o)
                0x0002cc20                __register_exitproc
 .text          0x0002cd50      0x1a0 c:/altera/13.1/nios2eds/bin/gnu/h-i686-mingw32/bin/../lib/gcc/nios2-elf/4.7.3/../../../../../H-i686-mingw32/nios2-elf/lib\libc.a(lib_a-__call_atexit.o)
                0x0002cd50                __call_exitprocs
 .text          0x0002cef0       0x3c ../lwIP_NIOS_II_Example_bsp\libhal_bsp.a(alt_exit.o)
                0x0002cef0                _exit
 *(.gnu.warning.*)
 *(.fini)
                0x0002cf2c                PROVIDE (__etext, ABSOLUTE (.))
                0x0002cf2c                PROVIDE (_etext, ABSOLUTE (.))
                0x0002cf2c                PROVIDE (etext, ABSOLUTE (.))
 *(.eh_frame_hdr)
                0x0002cf2c                . = ALIGN (0x4)
                0x0002cf2c                PROVIDE (__preinit_array_start, ABSOLUTE (.))
 *(.preinit_array)
                0x0002cf2c                PROVIDE (__preinit_array_end, ABSOLUTE (.))
                0x0002cf2c                PROVIDE (__init_array_start, ABSOLUTE (.))
 *(.init_array)
                0x0002cf2c                PROVIDE (__init_array_end, ABSOLUTE (.))
                0x0002cf2c                PROVIDE (__fini_array_start, ABSOLUTE (.))
 *(.fini_array)
                0x0002cf2c                PROVIDE (__fini_array_end, ABSOLUTE (.))
 *(.eh_frame)
 *(.gcc_except_table .gcc_except_table.*)
 *(.dynamic)
                0x0002cf2c                PROVIDE (__CTOR_LIST__, ABSOLUTE (.))
 *(.ctors)
 *(SORT(.ctors.*))
                0x0002cf2c                PROVIDE (__CTOR_END__, ABSOLUTE (.))
                0x0002cf2c                PROVIDE (__DTOR_LIST__, ABSOLUTE (.))
 *(.dtors)
 *(SORT(.dtors.*))
                0x0002cf2c                PROVIDE (__DTOR_END__, ABSOLUTE (.))
 *(.jcr)
                0x0002cf2c                . = ALIGN (0x4)

.rodata         0x0002cf2c     0x525c
                0x0002cf2c                PROVIDE (__ram_rodata_start, ABSOLUTE (.))
                0x0002cf2c                . = ALIGN (0x4)
 *(.rodata .rodata.* .gnu.linkonce.r.*)
 .rodata        0x0002cf2c       0xb4 obj/default/drivers/alteraTseEthernetif.o
 .rodata        0x0002cfe0      0xc80 obj/default/drivers/fs.o
                0x0002dc30                file_img_sics_gif
                0x0002dc40                file_404_html
                0x0002dc50                file_index_html
 .rodata        0x0002dc60       0x3c obj/default/drivers/httpd.o
 .rodata        0x0002dc9c      0x198 obj/default/drivers/lwip_tse_mac.o
 .rodata        0x0002de34       0x20 obj/default/drivers/tse_my_system.o
 .rodata        0x0002de54      0x110 obj/default/lwip/src/api/err.o
 .rodata        0x0002df64      0x448 obj/default/lwip/src/core/dhcp.o
 .rodata        0x0002e3ac      0x28c obj/default/lwip/src/core/ipv4/icmp.o
 .rodata        0x0002e638       0x70 obj/default/lwip/src/core/ipv4/ip.o
 .rodata        0x0002e6a8      0x15c obj/default/lwip/src/core/ipv4/ip_frag.o
 .rodata        0x0002e804      0x1e8 obj/default/lwip/src/core/mem.o
 .rodata        0x0002e9ec      0x12c obj/default/lwip/src/core/memp.o
 .rodata        0x0002eb18      0x478 obj/default/lwip/src/core/pbuf.o
 .rodata        0x0002ef90       0x64 obj/default/lwip/src/core/raw.o
 .rodata        0x0002eff4      0x6ec obj/default/lwip/src/core/tcp.o
                0x0002f06a                tcp_backoff
 .rodata        0x0002f6e0      0x320 obj/default/lwip/src/core/tcp_in.o
 .rodata        0x0002fa00      0x2c4 obj/default/lwip/src/core/tcp_out.o
 .rodata        0x0002fcc4       0xa0 obj/default/lwip/src/core/udp.o
 .rodata        0x0002fd64      0x1b0 obj/default/lwip/src/netif/etharp.o
 .rodata        0x0002ff14       0x6c obj/default/main.o
 .rodata.str1.4
                0x0002ff80        0x2 c:/altera/13.1/nios2eds/bin/gnu/h-i686-mingw32/bin/../lib/gcc/nios2-elf/4.7.3/../../../../../H-i686-mingw32/nios2-elf/lib\libc.a(lib_a-impure.o)
                                  0x4 (size before relaxing)
 *fill*         0x0002ff82        0x2 
 .rodata.str1.4
                0x0002ff84        0x2 c:/altera/13.1/nios2eds/bin/gnu/h-i686-mingw32/bin/../lib/gcc/nios2-elf/4.7.3/../../../../../H-i686-mingw32/nios2-elf/lib\libc.a(lib_a-puts.o)
                                  0x4 (size before relaxing)
 *fill*         0x0002ff86        0x2 
 .rodata.str1.4
                0x0002ff88       0x42 c:/altera/13.1/nios2eds/bin/gnu/h-i686-mingw32/bin/../lib/gcc/nios2-elf/4.7.3/../../../../../H-i686-mingw32/nios2-elf/lib\libc.a(lib_a-vfprintf.o)
                                 0x44 (size before relaxing)
 .rodata        0x0002ffca       0x20 c:/altera/13.1/nios2eds/bin/gnu/h-i686-mingw32/bin/../lib/gcc/nios2-elf/4.7.3/../../../../../H-i686-mingw32/nios2-elf/lib\libc.a(lib_a-vfprintf.o)
 *fill*         0x0002ffea        0x2 
 .rodata.str1.4
                0x0002ffec       0x10 c:/altera/13.1/nios2eds/bin/gnu/h-i686-mingw32/bin/../lib/gcc/nios2-elf/4.7.3/../../../../../H-i686-mingw32/nios2-elf/lib\libc.a(lib_a-dtoa.o)
                                 0x14 (size before relaxing)
 .rodata.str1.4
                0x0002fffc       0x10 c:/altera/13.1/nios2eds/bin/gnu/h-i686-mingw32/bin/../lib/gcc/nios2-elf/4.7.3/../../../../../H-i686-mingw32/nios2-elf/lib\libc.a(lib_a-locale.o)
                                 0x18 (size before relaxing)
 .rodata        0x0003000c       0x30 c:/altera/13.1/nios2eds/bin/gnu/h-i686-mingw32/bin/../lib/gcc/nios2-elf/4.7.3/../../../../../H-i686-mingw32/nios2-elf/lib\libc.a(lib_a-locale.o)
 .rodata        0x0003003c      0x124 c:/altera/13.1/nios2eds/bin/gnu/h-i686-mingw32/bin/../lib/gcc/nios2-elf/4.7.3/../../../../../H-i686-mingw32/nios2-elf/lib\libc.a(lib_a-mprec.o)
                0x0003003c                __mprec_tinytens
                0x00030064                __mprec_bigtens
                0x0003008c                __mprec_tens
 .rodata        0x00030160       0x14 c:/altera/13.1/nios2eds/bin/gnu/h-i686-mingw32/bin/../lib/gcc/nios2-elf/4.7.3\libgcc.a(_thenan_df.o)
                0x00030160                __thenan_df
 .rodata        0x00030174      0x100 c:/altera/13.1/nios2eds/bin/gnu/h-i686-mingw32/bin/../lib/gcc/nios2-elf/4.7.3\libgcc.a(_clz.o)
                0x00030174                __clz_tab
 .rodata        0x00030274        0xc ../lwIP_NIOS_II_Example_bsp\libhal_bsp.a(alt_dev.o)
 .rodata        0x00030280       0x10 ../lwIP_NIOS_II_Example_bsp\libhal_bsp.a(alt_main.o)
 .rodata        0x00030290       0x70 ../lwIP_NIOS_II_Example_bsp\libhal_bsp.a(alt_sys_init.o)
 .rodata        0x00030300     0x1be4 ../lwIP_NIOS_II_Example_bsp\libhal_bsp.a(altera_avalon_tse.o)
 .rodata        0x00031ee4       0x20 ../lwIP_NIOS_II_Example_bsp\libhal_bsp.a(altera_vic_irq_init.o)
 .rodata        0x00031f04      0x281 c:/altera/13.1/nios2eds/bin/gnu/h-i686-mingw32/bin/../lib/gcc/nios2-elf/4.7.3/../../../../../H-i686-mingw32/nios2-elf/lib\libc.a(lib_a-ctype_.o)
                0x00031f04                _ctype_
 *(.rodata1)
                0x00032188                . = ALIGN (0x4)
 *fill*         0x00032185        0x3 
                0x00032188                PROVIDE (__ram_rodata_end, ABSOLUTE (.))
                0x0002cf2c                PROVIDE (__flash_rodata_start, LOADADDR (.rodata))

.rwdata         0x00032188     0x22a4 load address 0x0003442c
                0x00032188                PROVIDE (__ram_rwdata_start, ABSOLUTE (.))
                0x00032188                . = ALIGN (0x4)
 *(.got.plt)
 *(.got)
 *(.data1)
 *(.data .data.* .gnu.linkonce.d.*)
 .data          0x00032188        0x0 ../lwIP_NIOS_II_Example_bsp/obj/HAL/src/crt0.o
 .data          0x00032188        0x0 obj/default/drivers/alteraTseEthernetif.o
 .data          0x00032188        0x0 obj/default/drivers/fs.o
 .data          0x00032188        0x0 obj/default/drivers/fsdata.o
 .data          0x00032188        0x0 obj/default/drivers/httpd.o
 .data          0x00032188        0x0 obj/default/drivers/lwip_tse_mac.o
 .data          0x00032188      0x240 obj/default/drivers/tse_my_system.o
                0x00032188                tse_mac_device
 .data          0x000323c8        0x0 obj/default/lwip/src/api/api_lib.o
 .data          0x000323c8        0x0 obj/default/lwip/src/api/api_msg.o
 .data          0x000323c8       0x3c obj/default/lwip/src/api/err.o
 .data          0x00032404        0x0 obj/default/lwip/src/api/netbuf.o
 .data          0x00032404        0x0 obj/default/lwip/src/api/netdb.o
 .data          0x00032404        0x0 obj/default/lwip/src/api/netifapi.o
 .data          0x00032404        0x0 obj/default/lwip/src/api/sockets.o
 .data          0x00032404        0x0 obj/default/lwip/src/api/tcpip.o
 .data          0x00032404        0x0 obj/default/lwip/src/core/dhcp.o
 .data          0x00032404        0x0 obj/default/lwip/src/core/dns.o
 .data          0x00032404        0x0 obj/default/lwip/src/core/init.o
 .data          0x00032404        0x0 obj/default/lwip/src/core/ipv4/autoip.o
 .data          0x00032404        0x0 obj/default/lwip/src/core/ipv4/icmp.o
 .data          0x00032404        0x0 obj/default/lwip/src/core/ipv4/igmp.o
 .data          0x00032404        0x0 obj/default/lwip/src/core/ipv4/inet.o
 .data          0x00032404        0x0 obj/default/lwip/src/core/ipv4/inet_chksum.o
 .data          0x00032404        0x0 obj/default/lwip/src/core/ipv4/ip.o
 .data          0x00032404        0x0 obj/default/lwip/src/core/ipv4/ip_addr.o
 .data          0x00032404        0x0 obj/default/lwip/src/core/ipv4/ip_frag.o
 .data          0x00032404        0x0 obj/default/lwip/src/core/mem.o
 .data          0x00032404       0x24 obj/default/lwip/src/core/memp.o
 .data          0x00032428        0x0 obj/default/lwip/src/core/netif.o
 .data          0x00032428        0x0 obj/default/lwip/src/core/pbuf.o
 .data          0x00032428        0x0 obj/default/lwip/src/core/raw.o
 .data          0x00032428        0x0 obj/default/lwip/src/core/snmp/asn1_dec.o
 .data          0x00032428        0x0 obj/default/lwip/src/core/snmp/asn1_enc.o
 .data          0x00032428        0x0 obj/default/lwip/src/core/snmp/mib2.o
 .data          0x00032428        0x0 obj/default/lwip/src/core/snmp/mib_structs.o
 .data          0x00032428        0x0 obj/default/lwip/src/core/snmp/msg_in.o
 .data          0x00032428        0x0 obj/default/lwip/src/core/snmp/msg_out.o
 .data          0x00032428        0x0 obj/default/lwip/src/core/stats.o
 .data          0x00032428        0x0 obj/default/lwip/src/core/sys.o
 .data          0x00032428       0x2c obj/default/lwip/src/core/tcp.o
                0x00032428                tcp_state_str
 .data          0x00032454        0x0 obj/default/lwip/src/core/tcp_in.o
 .data          0x00032454        0x0 obj/default/lwip/src/core/tcp_out.o
 .data          0x00032454        0x0 obj/default/lwip/src/core/udp.o
 .data          0x00032454        0x0 obj/default/lwip/src/netif/etharp.o
 .data          0x00032454        0x0 obj/default/lwip/src/netif/ethernetif.o
 .data          0x00032454        0x0 obj/default/lwip/src/netif/loopif.o
 .data          0x00032454        0x0 obj/default/lwip/src/netif/ppp/auth.o
 .data          0x00032454        0x0 obj/default/lwip/src/netif/ppp/chap.o
 .data          0x00032454        0x0 obj/default/lwip/src/netif/ppp/chpms.o
 .data          0x00032454        0x0 obj/default/lwip/src/netif/ppp/fsm.o
 .data          0x00032454        0x0 obj/default/lwip/src/netif/ppp/ipcp.o
 .data          0x00032454        0x0 obj/default/lwip/src/netif/ppp/lcp.o
 .data          0x00032454        0x0 obj/default/lwip/src/netif/ppp/magic.o
 .data          0x00032454        0x0 obj/default/lwip/src/netif/ppp/md5.o
 .data          0x00032454        0x0 obj/default/lwip/src/netif/ppp/pap.o
 .data          0x00032454        0x0 obj/default/lwip/src/netif/ppp/ppp.o
 .data          0x00032454        0x0 obj/default/lwip/src/netif/ppp/ppp_oe.o
 .data          0x00032454        0x0 obj/default/lwip/src/netif/ppp/randm.o
 .data          0x00032454        0x0 obj/default/lwip/src/netif/ppp/vj.o
 .data          0x00032454        0x0 obj/default/lwip/src/netif/slipif.o
 .data          0x00032454        0x0 obj/default/main.o
 .data          0x00032454      0x400 c:/altera/13.1/nios2eds/bin/gnu/h-i686-mingw32/bin/../lib/gcc/nios2-elf/4.7.3/../../../../../H-i686-mingw32/nios2-elf/lib\libc.a(lib_a-impure.o)
 .data          0x00032854        0x0 c:/altera/13.1/nios2eds/bin/gnu/h-i686-mingw32/bin/../lib/gcc/nios2-elf/4.7.3/../../../../../H-i686-mingw32/nios2-elf/lib\libc.a(lib_a-memcpy.o)
 .data          0x00032854        0x0 c:/altera/13.1/nios2eds/bin/gnu/h-i686-mingw32/bin/../lib/gcc/nios2-elf/4.7.3/../../../../../H-i686-mingw32/nios2-elf/lib\libc.a(lib_a-memset.o)
 .data          0x00032854        0x0 c:/altera/13.1/nios2eds/bin/gnu/h-i686-mingw32/bin/../lib/gcc/nios2-elf/4.7.3/../../../../../H-i686-mingw32/nios2-elf/lib\libc.a(lib_a-printf.o)
 .data          0x00032854        0x0 c:/altera/13.1/nios2eds/bin/gnu/h-i686-mingw32/bin/../lib/gcc/nios2-elf/4.7.3/../../../../../H-i686-mingw32/nios2-elf/lib\libc.a(lib_a-putc.o)
 .data          0x00032854        0x0 c:/altera/13.1/nios2eds/bin/gnu/h-i686-mingw32/bin/../lib/gcc/nios2-elf/4.7.3/../../../../../H-i686-mingw32/nios2-elf/lib\libc.a(lib_a-putchar.o)
 .data          0x00032854        0x0 c:/altera/13.1/nios2eds/bin/gnu/h-i686-mingw32/bin/../lib/gcc/nios2-elf/4.7.3/../../../../../H-i686-mingw32/nios2-elf/lib\libc.a(lib_a-puts.o)
 .data          0x00032854        0x0 c:/altera/13.1/nios2eds/bin/gnu/h-i686-mingw32/bin/../lib/gcc/nios2-elf/4.7.3/../../../../../H-i686-mingw32/nios2-elf/lib\libc.a(lib_a-strcmp.o)
 .data          0x00032854        0x0 c:/altera/13.1/nios2eds/bin/gnu/h-i686-mingw32/bin/../lib/gcc/nios2-elf/4.7.3/../../../../../H-i686-mingw32/nios2-elf/lib\libc.a(lib_a-strlen.o)
 .data          0x00032854        0x0 c:/altera/13.1/nios2eds/bin/gnu/h-i686-mingw32/bin/../lib/gcc/nios2-elf/4.7.3/../../../../../H-i686-mingw32/nios2-elf/lib\libc.a(lib_a-strncmp.o)
 .data          0x00032854        0x0 c:/altera/13.1/nios2eds/bin/gnu/h-i686-mingw32/bin/../lib/gcc/nios2-elf/4.7.3/../../../../../H-i686-mingw32/nios2-elf/lib\libc.a(lib_a-vfprintf.o)
 .data          0x00032854        0x0 c:/altera/13.1/nios2eds/bin/gnu/h-i686-mingw32/bin/../lib/gcc/nios2-elf/4.7.3/../../../../../H-i686-mingw32/nios2-elf/lib\libc.a(lib_a-wbuf.o)
 .data          0x00032854        0x0 c:/altera/13.1/nios2eds/bin/gnu/h-i686-mingw32/bin/../lib/gcc/nios2-elf/4.7.3/../../../../../H-i686-mingw32/nios2-elf/lib\libc.a(lib_a-wsetup.o)
 .data          0x00032854        0x0 c:/altera/13.1/nios2eds/bin/gnu/h-i686-mingw32/bin/../lib/gcc/nios2-elf/4.7.3/../../../../../H-i686-mingw32/nios2-elf/lib\libc.a(lib_a-dtoa.o)
 .data          0x00032854        0x0 c:/altera/13.1/nios2eds/bin/gnu/h-i686-mingw32/bin/../lib/gcc/nios2-elf/4.7.3/../../../../../H-i686-mingw32/nios2-elf/lib\libc.a(lib_a-fflush.o)
 .data          0x00032854        0x0 c:/altera/13.1/nios2eds/bin/gnu/h-i686-mingw32/bin/../lib/gcc/nios2-elf/4.7.3/../../../../../H-i686-mingw32/nios2-elf/lib\libc.a(lib_a-findfp.o)
 .data          0x00032854        0x0 c:/altera/13.1/nios2eds/bin/gnu/h-i686-mingw32/bin/../lib/gcc/nios2-elf/4.7.3/../../../../../H-i686-mingw32/nios2-elf/lib\libc.a(lib_a-freer.o)
 .data          0x00032854        0x0 c:/altera/13.1/nios2eds/bin/gnu/h-i686-mingw32/bin/../lib/gcc/nios2-elf/4.7.3/../../../../../H-i686-mingw32/nios2-elf/lib\libc.a(lib_a-fvwrite.o)
 .data          0x00032854        0x0 c:/altera/13.1/nios2eds/bin/gnu/h-i686-mingw32/bin/../lib/gcc/nios2-elf/4.7.3/../../../../../H-i686-mingw32/nios2-elf/lib\libc.a(lib_a-fwalk.o)
 .data          0x00032854        0xc c:/altera/13.1/nios2eds/bin/gnu/h-i686-mingw32/bin/../lib/gcc/nios2-elf/4.7.3/../../../../../H-i686-mingw32/nios2-elf/lib\libc.a(lib_a-locale.o)
                0x00032854                __lc_ctype
 .data          0x00032860        0x0 c:/altera/13.1/nios2eds/bin/gnu/h-i686-mingw32/bin/../lib/gcc/nios2-elf/4.7.3/../../../../../H-i686-mingw32/nios2-elf/lib\libc.a(lib_a-makebuf.o)
 .data          0x00032860      0x408 c:/altera/13.1/nios2eds/bin/gnu/h-i686-mingw32/bin/../lib/gcc/nios2-elf/4.7.3/../../../../../H-i686-mingw32/nios2-elf/lib\libc.a(lib_a-mallocr.o)
                0x00032860                __malloc_av_
 .data          0x00032c68        0x0 c:/altera/13.1/nios2eds/bin/gnu/h-i686-mingw32/bin/../lib/gcc/nios2-elf/4.7.3/../../../../../H-i686-mingw32/nios2-elf/lib\libc.a(lib_a-memchr.o)
 .data          0x00032c68        0x0 c:/altera/13.1/nios2eds/bin/gnu/h-i686-mingw32/bin/../lib/gcc/nios2-elf/4.7.3/../../../../../H-i686-mingw32/nios2-elf/lib\libc.a(lib_a-memmove.o)
 .data          0x00032c68        0x0 c:/altera/13.1/nios2eds/bin/gnu/h-i686-mingw32/bin/../lib/gcc/nios2-elf/4.7.3/../../../../../H-i686-mingw32/nios2-elf/lib\libc.a(lib_a-mprec.o)
 .data          0x00032c68        0x0 c:/altera/13.1/nios2eds/bin/gnu/h-i686-mingw32/bin/../lib/gcc/nios2-elf/4.7.3/../../../../../H-i686-mingw32/nios2-elf/lib\libc.a(lib_a-reallocr.o)
 .data          0x00032c68        0x0 c:/altera/13.1/nios2eds/bin/gnu/h-i686-mingw32/bin/../lib/gcc/nios2-elf/4.7.3/../../../../../H-i686-mingw32/nios2-elf/lib\libc.a(lib_a-s_isinfd.o)
 .data          0x00032c68        0x0 c:/altera/13.1/nios2eds/bin/gnu/h-i686-mingw32/bin/../lib/gcc/nios2-elf/4.7.3/../../../../../H-i686-mingw32/nios2-elf/lib\libc.a(lib_a-s_isnand.o)
 .data          0x00032c68        0x0 c:/altera/13.1/nios2eds/bin/gnu/h-i686-mingw32/bin/../lib/gcc/nios2-elf/4.7.3/../../../../../H-i686-mingw32/nios2-elf/lib\libc.a(lib_a-sbrkr.o)
 .data          0x00032c68        0x0 c:/altera/13.1/nios2eds/bin/gnu/h-i686-mingw32/bin/../lib/gcc/nios2-elf/4.7.3/../../../../../H-i686-mingw32/nios2-elf/lib\libc.a(lib_a-stdio.o)
 .data          0x00032c68        0x0 c:/altera/13.1/nios2eds/bin/gnu/h-i686-mingw32/bin/../lib/gcc/nios2-elf/4.7.3/../../../../../H-i686-mingw32/nios2-elf/lib\libc.a(lib_a-writer.o)
 .data          0x00032c68        0x0 c:/altera/13.1/nios2eds/bin/gnu/h-i686-mingw32/bin/../lib/gcc/nios2-elf/4.7.3/../../../../../H-i686-mingw32/nios2-elf/lib\libc.a(lib_a-callocr.o)
 .data          0x00032c68        0x0 c:/altera/13.1/nios2eds/bin/gnu/h-i686-mingw32/bin/../lib/gcc/nios2-elf/4.7.3/../../../../../H-i686-mingw32/nios2-elf/lib\libc.a(lib_a-closer.o)
 .data          0x00032c68        0x0 c:/altera/13.1/nios2eds/bin/gnu/h-i686-mingw32/bin/../lib/gcc/nios2-elf/4.7.3/../../../../../H-i686-mingw32/nios2-elf/lib\libc.a(lib_a-fclose.o)
 .data          0x00032c68        0x0 c:/altera/13.1/nios2eds/bin/gnu/h-i686-mingw32/bin/../lib/gcc/nios2-elf/4.7.3/../../../../../H-i686-mingw32/nios2-elf/lib\libc.a(lib_a-fstatr.o)
 .data          0x00032c68        0x0 c:/altera/13.1/nios2eds/bin/gnu/h-i686-mingw32/bin/../lib/gcc/nios2-elf/4.7.3/../../../../../H-i686-mingw32/nios2-elf/lib\libc.a(lib_a-int_errno.o)
 .data          0x00032c68        0x0 c:/altera/13.1/nios2eds/bin/gnu/h-i686-mingw32/bin/../lib/gcc/nios2-elf/4.7.3/../../../../../H-i686-mingw32/nios2-elf/lib\libc.a(lib_a-isattyr.o)
 .data          0x00032c68        0x0 c:/altera/13.1/nios2eds/bin/gnu/h-i686-mingw32/bin/../lib/gcc/nios2-elf/4.7.3/../../../../../H-i686-mingw32/nios2-elf/lib\libc.a(lib_a-lseekr.o)
 .data          0x00032c68        0x0 c:/altera/13.1/nios2eds/bin/gnu/h-i686-mingw32/bin/../lib/gcc/nios2-elf/4.7.3/../../../../../H-i686-mingw32/nios2-elf/lib\libc.a(lib_a-readr.o)
 .data          0x00032c68        0x0 c:/altera/13.1/nios2eds/bin/gnu/h-i686-mingw32/bin/../lib/gcc/nios2-elf/4.7.3\libgcc.a(_udivdi3.o)
 .data          0x00032c68        0x0 c:/altera/13.1/nios2eds/bin/gnu/h-i686-mingw32/bin/../lib/gcc/nios2-elf/4.7.3\libgcc.a(_umoddi3.o)
 .data          0x00032c68        0x0 c:/altera/13.1/nios2eds/bin/gnu/h-i686-mingw32/bin/../lib/gcc/nios2-elf/4.7.3\libgcc.a(_addsub_df.o)
 .data          0x00032c68        0x0 c:/altera/13.1/nios2eds/bin/gnu/h-i686-mingw32/bin/../lib/gcc/nios2-elf/4.7.3\libgcc.a(_mul_df.o)
 .data          0x00032c68        0x0 c:/altera/13.1/nios2eds/bin/gnu/h-i686-mingw32/bin/../lib/gcc/nios2-elf/4.7.3\libgcc.a(_div_df.o)
 .data          0x00032c68        0x0 c:/altera/13.1/nios2eds/bin/gnu/h-i686-mingw32/bin/../lib/gcc/nios2-elf/4.7.3\libgcc.a(_eq_df.o)
 .data          0x00032c68        0x0 c:/altera/13.1/nios2eds/bin/gnu/h-i686-mingw32/bin/../lib/gcc/nios2-elf/4.7.3\libgcc.a(_ne_df.o)
 .data          0x00032c68        0x0 c:/altera/13.1/nios2eds/bin/gnu/h-i686-mingw32/bin/../lib/gcc/nios2-elf/4.7.3\libgcc.a(_gt_df.o)
 .data          0x00032c68        0x0 c:/altera/13.1/nios2eds/bin/gnu/h-i686-mingw32/bin/../lib/gcc/nios2-elf/4.7.3\libgcc.a(_ge_df.o)
 .data          0x00032c68        0x0 c:/altera/13.1/nios2eds/bin/gnu/h-i686-mingw32/bin/../lib/gcc/nios2-elf/4.7.3\libgcc.a(_lt_df.o)
 .data          0x00032c68        0x0 c:/altera/13.1/nios2eds/bin/gnu/h-i686-mingw32/bin/../lib/gcc/nios2-elf/4.7.3\libgcc.a(_si_to_df.o)
 .data          0x00032c68        0x0 c:/altera/13.1/nios2eds/bin/gnu/h-i686-mingw32/bin/../lib/gcc/nios2-elf/4.7.3\libgcc.a(_df_to_si.o)
 .data          0x00032c68        0x0 c:/altera/13.1/nios2eds/bin/gnu/h-i686-mingw32/bin/../lib/gcc/nios2-elf/4.7.3\libgcc.a(_thenan_df.o)
 .data          0x00032c68        0x0 c:/altera/13.1/nios2eds/bin/gnu/h-i686-mingw32/bin/../lib/gcc/nios2-elf/4.7.3\libgcc.a(_usi_to_df.o)
 .data          0x00032c68        0x0 c:/altera/13.1/nios2eds/bin/gnu/h-i686-mingw32/bin/../lib/gcc/nios2-elf/4.7.3\libgcc.a(lib2-divmod.o)
 .data          0x00032c68        0x0 c:/altera/13.1/nios2eds/bin/gnu/h-i686-mingw32/bin/../lib/gcc/nios2-elf/4.7.3\libgcc.a(_muldi3.o)
 .data          0x00032c68        0x0 c:/altera/13.1/nios2eds/bin/gnu/h-i686-mingw32/bin/../lib/gcc/nios2-elf/4.7.3\libgcc.a(_clz.o)
 .data          0x00032c68        0x0 c:/altera/13.1/nios2eds/bin/gnu/h-i686-mingw32/bin/../lib/gcc/nios2-elf/4.7.3\libgcc.a(_clzsi2.o)
 .data          0x00032c68        0x0 c:/altera/13.1/nios2eds/bin/gnu/h-i686-mingw32/bin/../lib/gcc/nios2-elf/4.7.3\libgcc.a(_pack_df.o)
 .data          0x00032c68        0x0 c:/altera/13.1/nios2eds/bin/gnu/h-i686-mingw32/bin/../lib/gcc/nios2-elf/4.7.3\libgcc.a(_unpack_df.o)
 .data          0x00032c68        0x0 c:/altera/13.1/nios2eds/bin/gnu/h-i686-mingw32/bin/../lib/gcc/nios2-elf/4.7.3\libgcc.a(_fpcmp_parts_df.o)
 .data          0x00032c68        0x0 c:/altera/13.1/nios2eds/bin/gnu/h-i686-mingw32/bin/../lib/gcc/nios2-elf/4.7.3\libgcc.a(_lshrdi3.o)
 .data          0x00032c68        0x0 c:/altera/13.1/nios2eds/bin/gnu/h-i686-mingw32/bin/../lib/gcc/nios2-elf/4.7.3\libgcc.a(_ashldi3.o)
 .data          0x00032c68        0x0 ../lwIP_NIOS_II_Example_bsp\libhal_bsp.a(alt_alarm_start.o)
 .data          0x00032c68        0x0 ../lwIP_NIOS_II_Example_bsp\libhal_bsp.a(alt_close.o)
 .data          0x00032c68      0x1a8 ../lwIP_NIOS_II_Example_bsp\libhal_bsp.a(alt_dev.o)
                0x00032c68                alt_dev_null
                0x00032c90                alt_fd_list
 .data          0x00032e10        0x0 ../lwIP_NIOS_II_Example_bsp\libhal_bsp.a(alt_errno.o)
 .data          0x00032e10        0x0 ../lwIP_NIOS_II_Example_bsp\libhal_bsp.a(alt_fstat.o)
 .data          0x00032e10        0x0 ../lwIP_NIOS_II_Example_bsp\libhal_bsp.a(alt_isatty.o)
 .data          0x00032e10        0x0 ../lwIP_NIOS_II_Example_bsp\libhal_bsp.a(alt_load.o)
 .data          0x00032e10        0x0 ../lwIP_NIOS_II_Example_bsp\libhal_bsp.a(alt_lseek.o)
 .data          0x00032e10        0x0 ../lwIP_NIOS_II_Example_bsp\libhal_bsp.a(alt_main.o)
 .data          0x00032e10        0x0 ../lwIP_NIOS_II_Example_bsp\libhal_bsp.a(alt_malloc_lock.o)
 .data          0x00032e10        0x0 ../lwIP_NIOS_II_Example_bsp\libhal_bsp.a(alt_read.o)
 .data          0x00032e10        0x0 ../lwIP_NIOS_II_Example_bsp\libhal_bsp.a(alt_release_fd.o)
 .data          0x00032e10        0x0 ../lwIP_NIOS_II_Example_bsp\libhal_bsp.a(alt_remap_uncached.o)
 .data          0x00032e10        0x0 ../lwIP_NIOS_II_Example_bsp\libhal_bsp.a(alt_sbrk.o)
 .data          0x00032e10        0x0 ../lwIP_NIOS_II_Example_bsp\libhal_bsp.a(alt_tick.o)
 .data          0x00032e10        0x0 ../lwIP_NIOS_II_Example_bsp\libhal_bsp.a(alt_uncached_malloc.o)
 .data          0x00032e10        0x0 ../lwIP_NIOS_II_Example_bsp\libhal_bsp.a(alt_usleep.o)
 .data          0x00032e10        0x0 ../lwIP_NIOS_II_Example_bsp\libhal_bsp.a(alt_write.o)
 .data          0x00032e10     0x15a0 ../lwIP_NIOS_II_Example_bsp\libhal_bsp.a(alt_sys_init.o)
 .data          0x000343b0        0x0 ../lwIP_NIOS_II_Example_bsp\libhal_bsp.a(altera_avalon_cfi_flash.o)
 .data          0x000343b0        0x0 ../lwIP_NIOS_II_Example_bsp\libhal_bsp.a(altera_avalon_cfi_flash_table.o)
 .data          0x000343b0        0x0 ../lwIP_NIOS_II_Example_bsp\libhal_bsp.a(altera_avalon_jtag_uart_fd.o)
 .data          0x000343b0        0x0 ../lwIP_NIOS_II_Example_bsp\libhal_bsp.a(altera_avalon_jtag_uart_init.o)
 .data          0x000343b0        0x0 ../lwIP_NIOS_II_Example_bsp\libhal_bsp.a(altera_avalon_jtag_uart_ioctl.o)
 .data          0x000343b0        0x0 ../lwIP_NIOS_II_Example_bsp\libhal_bsp.a(altera_avalon_jtag_uart_read.o)
 .data          0x000343b0        0x0 ../lwIP_NIOS_II_Example_bsp\libhal_bsp.a(altera_avalon_jtag_uart_write.o)
 .data          0x000343b0        0x0 ../lwIP_NIOS_II_Example_bsp\libhal_bsp.a(altera_avalon_lcd_16207.o)
 .data          0x000343b0        0x0 ../lwIP_NIOS_II_Example_bsp\libhal_bsp.a(altera_avalon_lcd_16207_fd.o)
 .data          0x000343b0        0x0 ../lwIP_NIOS_II_Example_bsp\libhal_bsp.a(altera_avalon_sgdma.o)
 .data          0x000343b0        0x0 ../lwIP_NIOS_II_Example_bsp\libhal_bsp.a(altera_avalon_timer_sc.o)
 .data          0x000343b0        0x0 ../lwIP_NIOS_II_Example_bsp\libhal_bsp.a(altera_avalon_tse.o)
 .data          0x000343b0        0x0 ../lwIP_NIOS_II_Example_bsp\libhal_bsp.a(altera_avalon_uart_fd.o)
 .data          0x000343b0        0x0 ../lwIP_NIOS_II_Example_bsp\libhal_bsp.a(altera_avalon_uart_init.o)
 .data          0x000343b0        0x0 ../lwIP_NIOS_II_Example_bsp\libhal_bsp.a(altera_avalon_uart_read.o)
 .data          0x000343b0        0x0 ../lwIP_NIOS_II_Example_bsp\libhal_bsp.a(altera_avalon_uart_write.o)
 .data          0x000343b0        0x0 ../lwIP_NIOS_II_Example_bsp\libhal_bsp.a(altera_vic_0_vector_tbl.o)
 .data          0x000343b0        0x0 ../lwIP_NIOS_II_Example_bsp\libhal_bsp.a(altera_vic_funnel_non_preemptive.o)
 .data          0x000343b0        0x0 ../lwIP_NIOS_II_Example_bsp\libhal_bsp.a(altera_vic_irq_init.o)
 .data          0x000343b0        0x0 ../lwIP_NIOS_II_Example_bsp\libhal_bsp.a(altera_vic_isr_register.o)
 .data          0x000343b0        0x0 ../lwIP_NIOS_II_Example_bsp\libhal_bsp.a(alt_busy_sleep.o)
 .data          0x000343b0        0x0 ../lwIP_NIOS_II_Example_bsp\libhal_bsp.a(alt_dcache_flush.o)
 .data          0x000343b0        0x0 ../lwIP_NIOS_II_Example_bsp\libhal_bsp.a(alt_dcache_flush_all.o)
 .data          0x000343b0        0x0 ../lwIP_NIOS_II_Example_bsp\libhal_bsp.a(alt_dev_llist_insert.o)
 .data          0x000343b0        0x0 ../lwIP_NIOS_II_Example_bsp\libhal_bsp.a(alt_do_ctors.o)
 .data          0x000343b0        0x0 ../lwIP_NIOS_II_Example_bsp\libhal_bsp.a(alt_do_dtors.o)
 .data          0x000343b0        0x0 ../lwIP_NIOS_II_Example_bsp\libhal_bsp.a(alt_find_dev.o)
 .data          0x000343b0        0x0 ../lwIP_NIOS_II_Example_bsp\libhal_bsp.a(alt_flash_dev.o)
 .data          0x000343b0        0x0 ../lwIP_NIOS_II_Example_bsp\libhal_bsp.a(alt_icache_flush_all.o)
 .data          0x000343b0        0x0 ../lwIP_NIOS_II_Example_bsp\libhal_bsp.a(alt_io_redirect.o)
 .data          0x000343b0        0x0 ../lwIP_NIOS_II_Example_bsp\libhal_bsp.a(alt_open.o)
 .data          0x000343b0        0x0 ../lwIP_NIOS_II_Example_bsp\libhal_bsp.a(altera_avalon_cfi_flash_amd.o)
 .data          0x000343b0        0x0 ../lwIP_NIOS_II_Example_bsp\libhal_bsp.a(altera_avalon_cfi_flash_intel.o)
 .data          0x000343b0        0x0 ../lwIP_NIOS_II_Example_bsp\libhal_bsp.a(alt_find_file.o)
 .data          0x000343b0        0x0 ../lwIP_NIOS_II_Example_bsp\libhal_bsp.a(alt_get_fd.o)
 .data          0x000343b0        0x0 ../lwIP_NIOS_II_Example_bsp\libhal_bsp.a(alt_icache_flush.o)
 .data          0x000343b0        0x0 c:/altera/13.1/nios2eds/bin/gnu/h-i686-mingw32/bin/../lib/gcc/nios2-elf/4.7.3/../../../../../H-i686-mingw32/nios2-elf/lib\libc.a(lib_a-atexit.o)
 .data          0x000343b0        0x0 c:/altera/13.1/nios2eds/bin/gnu/h-i686-mingw32/bin/../lib/gcc/nios2-elf/4.7.3/../../../../../H-i686-mingw32/nios2-elf/lib\libc.a(lib_a-ctype_.o)
 .data          0x000343b0        0x0 c:/altera/13.1/nios2eds/bin/gnu/h-i686-mingw32/bin/../lib/gcc/nios2-elf/4.7.3/../../../../../H-i686-mingw32/nios2-elf/lib\libc.a(lib_a-exit.o)
 .data          0x000343b0        0x0 c:/altera/13.1/nios2eds/bin/gnu/h-i686-mingw32/bin/../lib/gcc/nios2-elf/4.7.3/../../../../../H-i686-mingw32/nios2-elf/lib\libc.a(lib_a-malloc.o)
 .data          0x000343b0        0x0 c:/altera/13.1/nios2eds/bin/gnu/h-i686-mingw32/bin/../lib/gcc/nios2-elf/4.7.3/../../../../../H-i686-mingw32/nios2-elf/lib\libc.a(lib_a-memcmp.o)
 .data          0x000343b0        0x0 c:/altera/13.1/nios2eds/bin/gnu/h-i686-mingw32/bin/../lib/gcc/nios2-elf/4.7.3/../../../../../H-i686-mingw32/nios2-elf/lib\libc.a(lib_a-strcpy.o)
 .data          0x000343b0        0x0 c:/altera/13.1/nios2eds/bin/gnu/h-i686-mingw32/bin/../lib/gcc/nios2-elf/4.7.3/../../../../../H-i686-mingw32/nios2-elf/lib\libc.a(lib_a-__atexit.o)
 .data          0x000343b0        0x0 c:/altera/13.1/nios2eds/bin/gnu/h-i686-mingw32/bin/../lib/gcc/nios2-elf/4.7.3/../../../../../H-i686-mingw32/nios2-elf/lib\libc.a(lib_a-__call_atexit.o)
 .data          0x000343b0        0x0 ../lwIP_NIOS_II_Example_bsp\libhal_bsp.a(alt_exit.o)
                0x0003c3b0                _gp = ABSOLUTE ((. + 0x8000))
                0x0003c3b0                PROVIDE (gp, _gp)
 *(.rwdata .rwdata.*)
 *(.sdata .sdata.* .gnu.linkonce.s.*)
 .sdata         0x000343b0        0x4 obj/default/lwip/src/core/dhcp.o
 .sdata         0x000343b4        0x8 obj/default/lwip/src/core/ipv4/ip_addr.o
                0x000343b4                ip_addr_any
                0x000343b8                ip_addr_broadcast
 .sdata         0x000343bc       0x10 obj/default/lwip/src/core/tcp.o
                0x000343bc                tcp_persist_backoff
 .sdata         0x000343cc        0xc obj/default/lwip/src/netif/etharp.o
                0x000343cc                ethbroadcast
                0x000343d2                ethzero
 .sdata         0x000343d8        0x8 c:/altera/13.1/nios2eds/bin/gnu/h-i686-mingw32/bin/../lib/gcc/nios2-elf/4.7.3/../../../../../H-i686-mingw32/nios2-elf/lib\libc.a(lib_a-impure.o)
                0x000343d8                _global_impure_ptr
                0x000343dc                _impure_ptr
 .sdata         0x000343e0        0x4 c:/altera/13.1/nios2eds/bin/gnu/h-i686-mingw32/bin/../lib/gcc/nios2-elf/4.7.3/../../../../../H-i686-mingw32/nios2-elf/lib\libc.a(lib_a-locale.o)
                0x000343e0                __mb_cur_max
 .sdata         0x000343e4        0x8 c:/altera/13.1/nios2eds/bin/gnu/h-i686-mingw32/bin/../lib/gcc/nios2-elf/4.7.3/../../../../../H-i686-mingw32/nios2-elf/lib\libc.a(lib_a-mallocr.o)
                0x000343e4                __malloc_sbrk_base
                0x000343e8                __malloc_trim_threshold
 .sdata         0x000343ec       0x14 ../lwIP_NIOS_II_Example_bsp\libhal_bsp.a(alt_dev.o)
                0x000343ec                alt_fs_list
                0x000343f4                alt_dev_list
                0x000343fc                alt_max_fd
 .sdata         0x00034400        0x4 ../lwIP_NIOS_II_Example_bsp\libhal_bsp.a(alt_errno.o)
                0x00034400                alt_errno
 .sdata         0x00034404        0x4 ../lwIP_NIOS_II_Example_bsp\libhal_bsp.a(alt_sbrk.o)
 .sdata         0x00034408        0x8 ../lwIP_NIOS_II_Example_bsp\libhal_bsp.a(alt_tick.o)
                0x00034408                alt_alarm_list
 .sdata         0x00034410        0x4 ../lwIP_NIOS_II_Example_bsp\libhal_bsp.a(altera_avalon_lcd_16207.o)
 .sdata         0x00034414        0x8 ../lwIP_NIOS_II_Example_bsp\libhal_bsp.a(altera_avalon_sgdma.o)
                0x00034414                alt_sgdma_list
 .sdata         0x0003441c        0x1 ../lwIP_NIOS_II_Example_bsp\libhal_bsp.a(altera_avalon_tse.o)
                0x0003441c                max_mac_system
 *fill*         0x0003441d        0x3 
 .sdata         0x00034420        0x8 ../lwIP_NIOS_II_Example_bsp\libhal_bsp.a(alt_flash_dev.o)
                0x00034420                alt_flash_dev_list
 .sdata         0x00034428        0x4 c:/altera/13.1/nios2eds/bin/gnu/h-i686-mingw32/bin/../lib/gcc/nios2-elf/4.7.3/../../../../../H-i686-mingw32/nios2-elf/lib\libc.a(lib_a-ctype_.o)
                0x00034428                __ctype_ptr
 *(.sdata2 .sdata2.* .gnu.linkonce.s2.*)
                0x0003442c                . = ALIGN (0x4)
                0x0003442c                _edata = ABSOLUTE (.)
                0x0003442c                PROVIDE (edata, ABSOLUTE (.))
                0x0003442c                PROVIDE (__ram_rwdata_end, ABSOLUTE (.))
                0x0003442c                PROVIDE (__flash_rwdata_start, LOADADDR (.rwdata))

.bss            0x000366d0     0xe1d0
                0x000366d0                __bss_start = ABSOLUTE (.)
                0x000366d0                PROVIDE (__sbss_start, ABSOLUTE (.))
                0x000366d0                PROVIDE (___sbss_start, ABSOLUTE (.))
 *(.dynsbss)
 *(.sbss .sbss.* .gnu.linkonce.sb.*)
 .sbss          0x000366d0        0x2 obj/default/lwip/src/core/ipv4/ip.o
 *fill*         0x000366d2        0x2 
 .sbss          0x000366d4        0x8 obj/default/lwip/src/core/ipv4/ip.o
                0x000366d4                current_netif
                0x000366d8                current_header
 .sbss          0x000366dc        0x8 obj/default/lwip/src/core/ipv4/ip_frag.o
 .sbss          0x000366e4       0x10 obj/default/lwip/src/core/mem.o
 .sbss          0x000366f4        0xc obj/default/lwip/src/core/netif.o
                0x000366f8                netif_list
                0x000366fc                netif_default
 .sbss          0x00036700        0x4 obj/default/lwip/src/core/raw.o
 .sbss          0x00036704       0x1c obj/default/lwip/src/core/tcp.o
                0x00036708                tcp_active_pcbs
                0x0003670c                tcp_ticks
                0x00036710                tcp_listen_pcbs
                0x00036714                tcp_tmp_pcb
                0x00036718                tcp_bound_pcbs
                0x0003671c                tcp_tw_pcbs
 .sbss          0x00036720       0x20 obj/default/lwip/src/core/tcp_in.o
                0x0003673c                tcp_input_pcb
 .sbss          0x00036740        0x4 obj/default/lwip/src/core/udp.o
                0x00036740                udp_pcbs
 .sbss          0x00036744        0x1 obj/default/lwip/src/netif/etharp.o
 *fill*         0x00036745        0x3 
 .sbss          0x00036748       0x14 obj/default/main.o
                0x00036758                lwipStaticIp
 .sbss          0x0003675c        0xc c:/altera/13.1/nios2eds/bin/gnu/h-i686-mingw32/bin/../lib/gcc/nios2-elf/4.7.3/../../../../../H-i686-mingw32/nios2-elf/lib\libc.a(lib_a-locale.o)
                0x0003675c                _PathLocale
                0x00036760                __mlocale_changed
                0x00036764                __nlocale_changed
 .sbss          0x00036768        0xc c:/altera/13.1/nios2eds/bin/gnu/h-i686-mingw32/bin/../lib/gcc/nios2-elf/4.7.3/../../../../../H-i686-mingw32/nios2-elf/lib\libc.a(lib_a-mallocr.o)
                0x00036768                __malloc_max_total_mem
                0x0003676c                __malloc_max_sbrked_mem
                0x00036770                __malloc_top_pad
 .sbss          0x00036774        0x4 c:/altera/13.1/nios2eds/bin/gnu/h-i686-mingw32/bin/../lib/gcc/nios2-elf/4.7.3/../../../../../H-i686-mingw32/nios2-elf/lib\libc.a(lib_a-int_errno.o)
                0x00036774                errno
 .sbss          0x00036778        0xc ../lwIP_NIOS_II_Example_bsp\libhal_bsp.a(alt_main.o)
                0x00036778                alt_argc
                0x0003677c                alt_argv
                0x00036780                alt_envp
 .sbss          0x00036784        0x8 ../lwIP_NIOS_II_Example_bsp\libhal_bsp.a(alt_tick.o)
                0x00036784                _alt_tick_rate
                0x00036788                _alt_nticks
 .sbss          0x0003678c        0x4 ../lwIP_NIOS_II_Example_bsp\libhal_bsp.a(altera_avalon_tse.o)
                0x0003678c                phy_profile_count
                0x0003678d                mac_group_count
 .sbss          0x00036790        0x4 ../lwIP_NIOS_II_Example_bsp\libhal_bsp.a(altera_vic_irq_init.o)
                0x00036790                alt_vic_dev_list
 *(.sbss2 .sbss2.* .gnu.linkonce.sb2.*)
 *(.scommon)
                0x00036794                PROVIDE (__sbss_end, ABSOLUTE (.))
                0x00036794                PROVIDE (___sbss_end, ABSOLUTE (.))
 *(.dynbss)
 *(.bss .bss.* .gnu.linkonce.b.*)
 .bss           0x00036794        0x0 ../lwIP_NIOS_II_Example_bsp/obj/HAL/src/crt0.o
 .bss           0x00036794        0x0 obj/default/drivers/alteraTseEthernetif.o
 .bss           0x00036794        0x0 obj/default/drivers/fs.o
 .bss           0x00036794        0x0 obj/default/drivers/fsdata.o
 .bss           0x00036794        0x0 obj/default/drivers/httpd.o
 .bss           0x00036794        0x0 obj/default/drivers/lwip_tse_mac.o
 .bss           0x00036794        0x0 obj/default/drivers/tse_my_system.o
 .bss           0x00036794        0x0 obj/default/lwip/src/api/api_lib.o
 .bss           0x00036794        0x0 obj/default/lwip/src/api/api_msg.o
 .bss           0x00036794        0x0 obj/default/lwip/src/api/err.o
 .bss           0x00036794        0x0 obj/default/lwip/src/api/netbuf.o
 .bss           0x00036794        0x0 obj/default/lwip/src/api/netdb.o
 .bss           0x00036794        0x0 obj/default/lwip/src/api/netifapi.o
 .bss           0x00036794        0x0 obj/default/lwip/src/api/sockets.o
 .bss           0x00036794        0x0 obj/default/lwip/src/api/tcpip.o
 .bss           0x00036794        0x0 obj/default/lwip/src/core/dhcp.o
 .bss           0x00036794        0x0 obj/default/lwip/src/core/dns.o
 .bss           0x00036794        0x0 obj/default/lwip/src/core/init.o
 .bss           0x00036794        0x0 obj/default/lwip/src/core/ipv4/autoip.o
 .bss           0x00036794        0x0 obj/default/lwip/src/core/ipv4/icmp.o
 .bss           0x00036794        0x0 obj/default/lwip/src/core/ipv4/igmp.o
 .bss           0x00036794       0x10 obj/default/lwip/src/core/ipv4/inet.o
 .bss           0x000367a4        0x0 obj/default/lwip/src/core/ipv4/inet_chksum.o
 .bss           0x000367a4        0x0 obj/default/lwip/src/core/ipv4/ip.o
 .bss           0x000367a4        0x0 obj/default/lwip/src/core/ipv4/ip_addr.o
 .bss           0x000367a4      0x5e0 obj/default/lwip/src/core/ipv4/ip_frag.o
 .bss           0x00036d84      0x654 obj/default/lwip/src/core/mem.o
 .bss           0x000373d8     0xcf40 obj/default/lwip/src/core/memp.o
 .bss           0x00044318        0x0 obj/default/lwip/src/core/netif.o
 .bss           0x00044318        0x0 obj/default/lwip/src/core/pbuf.o
 .bss           0x00044318        0x0 obj/default/lwip/src/core/raw.o
 .bss           0x00044318        0x0 obj/default/lwip/src/core/snmp/asn1_dec.o
 .bss           0x00044318        0x0 obj/default/lwip/src/core/snmp/asn1_enc.o
 .bss           0x00044318        0x0 obj/default/lwip/src/core/snmp/mib2.o
 .bss           0x00044318        0x0 obj/default/lwip/src/core/snmp/mib_structs.o
 .bss           0x00044318        0x0 obj/default/lwip/src/core/snmp/msg_in.o
 .bss           0x00044318        0x0 obj/default/lwip/src/core/snmp/msg_out.o
 .bss           0x00044318        0x0 obj/default/lwip/src/core/stats.o
 .bss           0x00044318        0x0 obj/default/lwip/src/core/sys.o
 .bss           0x00044318        0x0 obj/default/lwip/src/core/tcp.o
 .bss           0x00044318       0x14 obj/default/lwip/src/core/tcp_in.o
 .bss           0x0004432c        0x0 obj/default/lwip/src/core/tcp_out.o
 .bss           0x0004432c        0x0 obj/default/lwip/src/core/udp.o
 .bss           0x0004432c      0x118 obj/default/lwip/src/netif/etharp.o
 .bss           0x00044444        0x0 obj/default/lwip/src/netif/ethernetif.o
 .bss           0x00044444        0x0 obj/default/lwip/src/netif/loopif.o
 .bss           0x00044444        0x0 obj/default/lwip/src/netif/ppp/auth.o
 .bss           0x00044444        0x0 obj/default/lwip/src/netif/ppp/chap.o
 .bss           0x00044444        0x0 obj/default/lwip/src/netif/ppp/chpms.o
 .bss           0x00044444        0x0 obj/default/lwip/src/netif/ppp/fsm.o
 .bss           0x00044444        0x0 obj/default/lwip/src/netif/ppp/ipcp.o
 .bss           0x00044444        0x0 obj/default/lwip/src/netif/ppp/lcp.o
 .bss           0x00044444        0x0 obj/default/lwip/src/netif/ppp/magic.o
 .bss           0x00044444        0x0 obj/default/lwip/src/netif/ppp/md5.o
 .bss           0x00044444        0x0 obj/default/lwip/src/netif/ppp/pap.o
 .bss           0x00044444        0x0 obj/default/lwip/src/netif/ppp/ppp.o
 .bss           0x00044444        0x0 obj/default/lwip/src/netif/ppp/ppp_oe.o
 .bss           0x00044444        0x0 obj/default/lwip/src/netif/ppp/randm.o
 .bss           0x00044444        0x0 obj/default/lwip/src/netif/ppp/vj.o
 .bss           0x00044444        0x0 obj/default/lwip/src/netif/slipif.o
 .bss           0x00044444       0x18 obj/default/main.o
 .bss           0x0004445c        0x0 c:/altera/13.1/nios2eds/bin/gnu/h-i686-mingw32/bin/../lib/gcc/nios2-elf/4.7.3/../../../../../H-i686-mingw32/nios2-elf/lib\libc.a(lib_a-impure.o)
 .bss           0x0004445c        0x0 c:/altera/13.1/nios2eds/bin/gnu/h-i686-mingw32/bin/../lib/gcc/nios2-elf/4.7.3/../../../../../H-i686-mingw32/nios2-elf/lib\libc.a(lib_a-memcpy.o)
 .bss           0x0004445c        0x0 c:/altera/13.1/nios2eds/bin/gnu/h-i686-mingw32/bin/../lib/gcc/nios2-elf/4.7.3/../../../../../H-i686-mingw32/nios2-elf/lib\libc.a(lib_a-memset.o)
 .bss           0x0004445c        0x0 c:/altera/13.1/nios2eds/bin/gnu/h-i686-mingw32/bin/../lib/gcc/nios2-elf/4.7.3/../../../../../H-i686-mingw32/nios2-elf/lib\libc.a(lib_a-printf.o)
 .bss           0x0004445c        0x0 c:/altera/13.1/nios2eds/bin/gnu/h-i686-mingw32/bin/../lib/gcc/nios2-elf/4.7.3/../../../../../H-i686-mingw32/nios2-elf/lib\libc.a(lib_a-putc.o)
 .bss           0x0004445c        0x0 c:/altera/13.1/nios2eds/bin/gnu/h-i686-mingw32/bin/../lib/gcc/nios2-elf/4.7.3/../../../../../H-i686-mingw32/nios2-elf/lib\libc.a(lib_a-putchar.o)
 .bss           0x0004445c        0x0 c:/altera/13.1/nios2eds/bin/gnu/h-i686-mingw32/bin/../lib/gcc/nios2-elf/4.7.3/../../../../../H-i686-mingw32/nios2-elf/lib\libc.a(lib_a-puts.o)
 .bss           0x0004445c        0x0 c:/altera/13.1/nios2eds/bin/gnu/h-i686-mingw32/bin/../lib/gcc/nios2-elf/4.7.3/../../../../../H-i686-mingw32/nios2-elf/lib\libc.a(lib_a-strcmp.o)
 .bss           0x0004445c        0x0 c:/altera/13.1/nios2eds/bin/gnu/h-i686-mingw32/bin/../lib/gcc/nios2-elf/4.7.3/../../../../../H-i686-mingw32/nios2-elf/lib\libc.a(lib_a-strlen.o)
 .bss           0x0004445c        0x0 c:/altera/13.1/nios2eds/bin/gnu/h-i686-mingw32/bin/../lib/gcc/nios2-elf/4.7.3/../../../../../H-i686-mingw32/nios2-elf/lib\libc.a(lib_a-strncmp.o)
 .bss           0x0004445c        0x0 c:/altera/13.1/nios2eds/bin/gnu/h-i686-mingw32/bin/../lib/gcc/nios2-elf/4.7.3/../../../../../H-i686-mingw32/nios2-elf/lib\libc.a(lib_a-vfprintf.o)
 .bss           0x0004445c        0x0 c:/altera/13.1/nios2eds/bin/gnu/h-i686-mingw32/bin/../lib/gcc/nios2-elf/4.7.3/../../../../../H-i686-mingw32/nios2-elf/lib\libc.a(lib_a-wbuf.o)
 .bss           0x0004445c        0x0 c:/altera/13.1/nios2eds/bin/gnu/h-i686-mingw32/bin/../lib/gcc/nios2-elf/4.7.3/../../../../../H-i686-mingw32/nios2-elf/lib\libc.a(lib_a-wsetup.o)
 .bss           0x0004445c        0x0 c:/altera/13.1/nios2eds/bin/gnu/h-i686-mingw32/bin/../lib/gcc/nios2-elf/4.7.3/../../../../../H-i686-mingw32/nios2-elf/lib\libc.a(lib_a-dtoa.o)
 .bss           0x0004445c        0x0 c:/altera/13.1/nios2eds/bin/gnu/h-i686-mingw32/bin/../lib/gcc/nios2-elf/4.7.3/../../../../../H-i686-mingw32/nios2-elf/lib\libc.a(lib_a-fflush.o)
 .bss           0x0004445c        0x0 c:/altera/13.1/nios2eds/bin/gnu/h-i686-mingw32/bin/../lib/gcc/nios2-elf/4.7.3/../../../../../H-i686-mingw32/nios2-elf/lib\libc.a(lib_a-findfp.o)
 .bss           0x0004445c        0x0 c:/altera/13.1/nios2eds/bin/gnu/h-i686-mingw32/bin/../lib/gcc/nios2-elf/4.7.3/../../../../../H-i686-mingw32/nios2-elf/lib\libc.a(lib_a-freer.o)
 .bss           0x0004445c        0x0 c:/altera/13.1/nios2eds/bin/gnu/h-i686-mingw32/bin/../lib/gcc/nios2-elf/4.7.3/../../../../../H-i686-mingw32/nios2-elf/lib\libc.a(lib_a-fvwrite.o)
 .bss           0x0004445c        0x0 c:/altera/13.1/nios2eds/bin/gnu/h-i686-mingw32/bin/../lib/gcc/nios2-elf/4.7.3/../../../../../H-i686-mingw32/nios2-elf/lib\libc.a(lib_a-fwalk.o)
 .bss           0x0004445c        0x0 c:/altera/13.1/nios2eds/bin/gnu/h-i686-mingw32/bin/../lib/gcc/nios2-elf/4.7.3/../../../../../H-i686-mingw32/nios2-elf/lib\libc.a(lib_a-locale.o)
 .bss           0x0004445c        0x0 c:/altera/13.1/nios2eds/bin/gnu/h-i686-mingw32/bin/../lib/gcc/nios2-elf/4.7.3/../../../../../H-i686-mingw32/nios2-elf/lib\libc.a(lib_a-makebuf.o)
 .bss           0x0004445c       0x28 c:/altera/13.1/nios2eds/bin/gnu/h-i686-mingw32/bin/../lib/gcc/nios2-elf/4.7.3/../../../../../H-i686-mingw32/nios2-elf/lib\libc.a(lib_a-mallocr.o)
                0x0004445c                __malloc_current_mallinfo
 .bss           0x00044484        0x0 c:/altera/13.1/nios2eds/bin/gnu/h-i686-mingw32/bin/../lib/gcc/nios2-elf/4.7.3/../../../../../H-i686-mingw32/nios2-elf/lib\libc.a(lib_a-memchr.o)
 .bss           0x00044484        0x0 c:/altera/13.1/nios2eds/bin/gnu/h-i686-mingw32/bin/../lib/gcc/nios2-elf/4.7.3/../../../../../H-i686-mingw32/nios2-elf/lib\libc.a(lib_a-memmove.o)
 .bss           0x00044484        0x0 c:/altera/13.1/nios2eds/bin/gnu/h-i686-mingw32/bin/../lib/gcc/nios2-elf/4.7.3/../../../../../H-i686-mingw32/nios2-elf/lib\libc.a(lib_a-mprec.o)
 .bss           0x00044484        0x0 c:/altera/13.1/nios2eds/bin/gnu/h-i686-mingw32/bin/../lib/gcc/nios2-elf/4.7.3/../../../../../H-i686-mingw32/nios2-elf/lib\libc.a(lib_a-reallocr.o)
 .bss           0x00044484        0x0 c:/altera/13.1/nios2eds/bin/gnu/h-i686-mingw32/bin/../lib/gcc/nios2-elf/4.7.3/../../../../../H-i686-mingw32/nios2-elf/lib\libc.a(lib_a-s_isinfd.o)
 .bss           0x00044484        0x0 c:/altera/13.1/nios2eds/bin/gnu/h-i686-mingw32/bin/../lib/gcc/nios2-elf/4.7.3/../../../../../H-i686-mingw32/nios2-elf/lib\libc.a(lib_a-s_isnand.o)
 .bss           0x00044484        0x0 c:/altera/13.1/nios2eds/bin/gnu/h-i686-mingw32/bin/../lib/gcc/nios2-elf/4.7.3/../../../../../H-i686-mingw32/nios2-elf/lib\libc.a(lib_a-sbrkr.o)
 .bss           0x00044484        0x0 c:/altera/13.1/nios2eds/bin/gnu/h-i686-mingw32/bin/../lib/gcc/nios2-elf/4.7.3/../../../../../H-i686-mingw32/nios2-elf/lib\libc.a(lib_a-stdio.o)
 .bss           0x00044484        0x0 c:/altera/13.1/nios2eds/bin/gnu/h-i686-mingw32/bin/../lib/gcc/nios2-elf/4.7.3/../../../../../H-i686-mingw32/nios2-elf/lib\libc.a(lib_a-writer.o)
 .bss           0x00044484        0x0 c:/altera/13.1/nios2eds/bin/gnu/h-i686-mingw32/bin/../lib/gcc/nios2-elf/4.7.3/../../../../../H-i686-mingw32/nios2-elf/lib\libc.a(lib_a-callocr.o)
 .bss           0x00044484        0x0 c:/altera/13.1/nios2eds/bin/gnu/h-i686-mingw32/bin/../lib/gcc/nios2-elf/4.7.3/../../../../../H-i686-mingw32/nios2-elf/lib\libc.a(lib_a-closer.o)
 .bss           0x00044484        0x0 c:/altera/13.1/nios2eds/bin/gnu/h-i686-mingw32/bin/../lib/gcc/nios2-elf/4.7.3/../../../../../H-i686-mingw32/nios2-elf/lib\libc.a(lib_a-fclose.o)
 .bss           0x00044484        0x0 c:/altera/13.1/nios2eds/bin/gnu/h-i686-mingw32/bin/../lib/gcc/nios2-elf/4.7.3/../../../../../H-i686-mingw32/nios2-elf/lib\libc.a(lib_a-fstatr.o)
 .bss           0x00044484        0x0 c:/altera/13.1/nios2eds/bin/gnu/h-i686-mingw32/bin/../lib/gcc/nios2-elf/4.7.3/../../../../../H-i686-mingw32/nios2-elf/lib\libc.a(lib_a-int_errno.o)
 .bss           0x00044484        0x0 c:/altera/13.1/nios2eds/bin/gnu/h-i686-mingw32/bin/../lib/gcc/nios2-elf/4.7.3/../../../../../H-i686-mingw32/nios2-elf/lib\libc.a(lib_a-isattyr.o)
 .bss           0x00044484        0x0 c:/altera/13.1/nios2eds/bin/gnu/h-i686-mingw32/bin/../lib/gcc/nios2-elf/4.7.3/../../../../../H-i686-mingw32/nios2-elf/lib\libc.a(lib_a-lseekr.o)
 .bss           0x00044484        0x0 c:/altera/13.1/nios2eds/bin/gnu/h-i686-mingw32/bin/../lib/gcc/nios2-elf/4.7.3/../../../../../H-i686-mingw32/nios2-elf/lib\libc.a(lib_a-readr.o)
 .bss           0x00044484        0x0 c:/altera/13.1/nios2eds/bin/gnu/h-i686-mingw32/bin/../lib/gcc/nios2-elf/4.7.3\libgcc.a(_udivdi3.o)
 .bss           0x00044484        0x0 c:/altera/13.1/nios2eds/bin/gnu/h-i686-mingw32/bin/../lib/gcc/nios2-elf/4.7.3\libgcc.a(_umoddi3.o)
 .bss           0x00044484        0x0 c:/altera/13.1/nios2eds/bin/gnu/h-i686-mingw32/bin/../lib/gcc/nios2-elf/4.7.3\libgcc.a(_addsub_df.o)
 .bss           0x00044484        0x0 c:/altera/13.1/nios2eds/bin/gnu/h-i686-mingw32/bin/../lib/gcc/nios2-elf/4.7.3\libgcc.a(_mul_df.o)
 .bss           0x00044484        0x0 c:/altera/13.1/nios2eds/bin/gnu/h-i686-mingw32/bin/../lib/gcc/nios2-elf/4.7.3\libgcc.a(_div_df.o)
 .bss           0x00044484        0x0 c:/altera/13.1/nios2eds/bin/gnu/h-i686-mingw32/bin/../lib/gcc/nios2-elf/4.7.3\libgcc.a(_eq_df.o)
 .bss           0x00044484        0x0 c:/altera/13.1/nios2eds/bin/gnu/h-i686-mingw32/bin/../lib/gcc/nios2-elf/4.7.3\libgcc.a(_ne_df.o)
 .bss           0x00044484        0x0 c:/altera/13.1/nios2eds/bin/gnu/h-i686-mingw32/bin/../lib/gcc/nios2-elf/4.7.3\libgcc.a(_gt_df.o)
 .bss           0x00044484        0x0 c:/altera/13.1/nios2eds/bin/gnu/h-i686-mingw32/bin/../lib/gcc/nios2-elf/4.7.3\libgcc.a(_ge_df.o)
 .bss           0x00044484        0x0 c:/altera/13.1/nios2eds/bin/gnu/h-i686-mingw32/bin/../lib/gcc/nios2-elf/4.7.3\libgcc.a(_lt_df.o)
 .bss           0x00044484        0x0 c:/altera/13.1/nios2eds/bin/gnu/h-i686-mingw32/bin/../lib/gcc/nios2-elf/4.7.3\libgcc.a(_si_to_df.o)
 .bss           0x00044484        0x0 c:/altera/13.1/nios2eds/bin/gnu/h-i686-mingw32/bin/../lib/gcc/nios2-elf/4.7.3\libgcc.a(_df_to_si.o)
 .bss           0x00044484        0x0 c:/altera/13.1/nios2eds/bin/gnu/h-i686-mingw32/bin/../lib/gcc/nios2-elf/4.7.3\libgcc.a(_thenan_df.o)
 .bss           0x00044484        0x0 c:/altera/13.1/nios2eds/bin/gnu/h-i686-mingw32/bin/../lib/gcc/nios2-elf/4.7.3\libgcc.a(_usi_to_df.o)
 .bss           0x00044484        0x0 c:/altera/13.1/nios2eds/bin/gnu/h-i686-mingw32/bin/../lib/gcc/nios2-elf/4.7.3\libgcc.a(lib2-divmod.o)
 .bss           0x00044484        0x0 c:/altera/13.1/nios2eds/bin/gnu/h-i686-mingw32/bin/../lib/gcc/nios2-elf/4.7.3\libgcc.a(_muldi3.o)
 .bss           0x00044484        0x0 c:/altera/13.1/nios2eds/bin/gnu/h-i686-mingw32/bin/../lib/gcc/nios2-elf/4.7.3\libgcc.a(_clz.o)
 .bss           0x00044484        0x0 c:/altera/13.1/nios2eds/bin/gnu/h-i686-mingw32/bin/../lib/gcc/nios2-elf/4.7.3\libgcc.a(_clzsi2.o)
 .bss           0x00044484        0x0 c:/altera/13.1/nios2eds/bin/gnu/h-i686-mingw32/bin/../lib/gcc/nios2-elf/4.7.3\libgcc.a(_pack_df.o)
 .bss           0x00044484        0x0 c:/altera/13.1/nios2eds/bin/gnu/h-i686-mingw32/bin/../lib/gcc/nios2-elf/4.7.3\libgcc.a(_unpack_df.o)
 .bss           0x00044484        0x0 c:/altera/13.1/nios2eds/bin/gnu/h-i686-mingw32/bin/../lib/gcc/nios2-elf/4.7.3\libgcc.a(_fpcmp_parts_df.o)
 .bss           0x00044484        0x0 c:/altera/13.1/nios2eds/bin/gnu/h-i686-mingw32/bin/../lib/gcc/nios2-elf/4.7.3\libgcc.a(_lshrdi3.o)
 .bss           0x00044484        0x0 c:/altera/13.1/nios2eds/bin/gnu/h-i686-mingw32/bin/../lib/gcc/nios2-elf/4.7.3\libgcc.a(_ashldi3.o)
 .bss           0x00044484        0x0 ../lwIP_NIOS_II_Example_bsp\libhal_bsp.a(alt_alarm_start.o)
 .bss           0x00044484        0x0 ../lwIP_NIOS_II_Example_bsp\libhal_bsp.a(alt_close.o)
 .bss           0x00044484        0x0 ../lwIP_NIOS_II_Example_bsp\libhal_bsp.a(alt_dev.o)
 .bss           0x00044484        0x0 ../lwIP_NIOS_II_Example_bsp\libhal_bsp.a(alt_errno.o)
 .bss           0x00044484        0x0 ../lwIP_NIOS_II_Example_bsp\libhal_bsp.a(alt_fstat.o)
 .bss           0x00044484        0x0 ../lwIP_NIOS_II_Example_bsp\libhal_bsp.a(alt_isatty.o)
 .bss           0x00044484        0x0 ../lwIP_NIOS_II_Example_bsp\libhal_bsp.a(alt_load.o)
 .bss           0x00044484        0x0 ../lwIP_NIOS_II_Example_bsp\libhal_bsp.a(alt_lseek.o)
 .bss           0x00044484        0x0 ../lwIP_NIOS_II_Example_bsp\libhal_bsp.a(alt_main.o)
 .bss           0x00044484        0x0 ../lwIP_NIOS_II_Example_bsp\libhal_bsp.a(alt_malloc_lock.o)
 .bss           0x00044484        0x0 ../lwIP_NIOS_II_Example_bsp\libhal_bsp.a(alt_read.o)
 .bss           0x00044484        0x0 ../lwIP_NIOS_II_Example_bsp\libhal_bsp.a(alt_release_fd.o)
 .bss           0x00044484        0x0 ../lwIP_NIOS_II_Example_bsp\libhal_bsp.a(alt_remap_uncached.o)
 .bss           0x00044484        0x0 ../lwIP_NIOS_II_Example_bsp\libhal_bsp.a(alt_sbrk.o)
 .bss           0x00044484        0x0 ../lwIP_NIOS_II_Example_bsp\libhal_bsp.a(alt_tick.o)
 .bss           0x00044484        0x0 ../lwIP_NIOS_II_Example_bsp\libhal_bsp.a(alt_uncached_malloc.o)
 .bss           0x00044484        0x0 ../lwIP_NIOS_II_Example_bsp\libhal_bsp.a(alt_usleep.o)
 .bss           0x00044484        0x0 ../lwIP_NIOS_II_Example_bsp\libhal_bsp.a(alt_write.o)
 .bss           0x00044484        0x0 ../lwIP_NIOS_II_Example_bsp\libhal_bsp.a(alt_sys_init.o)
 .bss           0x00044484        0x0 ../lwIP_NIOS_II_Example_bsp\libhal_bsp.a(altera_avalon_cfi_flash.o)
 .bss           0x00044484        0x0 ../lwIP_NIOS_II_Example_bsp\libhal_bsp.a(altera_avalon_cfi_flash_table.o)
 .bss           0x00044484        0x0 ../lwIP_NIOS_II_Example_bsp\libhal_bsp.a(altera_avalon_jtag_uart_fd.o)
 .bss           0x00044484        0x0 ../lwIP_NIOS_II_Example_bsp\libhal_bsp.a(altera_avalon_jtag_uart_init.o)
 .bss           0x00044484        0x0 ../lwIP_NIOS_II_Example_bsp\libhal_bsp.a(altera_avalon_jtag_uart_ioctl.o)
 .bss           0x00044484        0x0 ../lwIP_NIOS_II_Example_bsp\libhal_bsp.a(altera_avalon_jtag_uart_read.o)
 .bss           0x00044484        0x0 ../lwIP_NIOS_II_Example_bsp\libhal_bsp.a(altera_avalon_jtag_uart_write.o)
 .bss           0x00044484        0x0 ../lwIP_NIOS_II_Example_bsp\libhal_bsp.a(altera_avalon_lcd_16207.o)
 .bss           0x00044484        0x0 ../lwIP_NIOS_II_Example_bsp\libhal_bsp.a(altera_avalon_lcd_16207_fd.o)
 .bss           0x00044484        0x0 ../lwIP_NIOS_II_Example_bsp\libhal_bsp.a(altera_avalon_sgdma.o)
 .bss           0x00044484        0x0 ../lwIP_NIOS_II_Example_bsp\libhal_bsp.a(altera_avalon_timer_sc.o)
 .bss           0x00044484        0x0 ../lwIP_NIOS_II_Example_bsp\libhal_bsp.a(altera_avalon_tse.o)
 .bss           0x00044484        0x0 ../lwIP_NIOS_II_Example_bsp\libhal_bsp.a(altera_avalon_uart_fd.o)
 .bss           0x00044484        0x0 ../lwIP_NIOS_II_Example_bsp\libhal_bsp.a(altera_avalon_uart_init.o)
 .bss           0x00044484        0x0 ../lwIP_NIOS_II_Example_bsp\libhal_bsp.a(altera_avalon_uart_read.o)
 .bss           0x00044484        0x0 ../lwIP_NIOS_II_Example_bsp\libhal_bsp.a(altera_avalon_uart_write.o)
 .bss           0x00044484        0x0 ../lwIP_NIOS_II_Example_bsp\libhal_bsp.a(altera_vic_0_vector_tbl.o)
 .bss           0x00044484        0x0 ../lwIP_NIOS_II_Example_bsp\libhal_bsp.a(altera_vic_funnel_non_preemptive.o)
 .bss           0x00044484        0x0 ../lwIP_NIOS_II_Example_bsp\libhal_bsp.a(altera_vic_irq_init.o)
 .bss           0x00044484        0x0 ../lwIP_NIOS_II_Example_bsp\libhal_bsp.a(altera_vic_isr_register.o)
 .bss           0x00044484        0x0 ../lwIP_NIOS_II_Example_bsp\libhal_bsp.a(alt_busy_sleep.o)
 .bss           0x00044484        0x0 ../lwIP_NIOS_II_Example_bsp\libhal_bsp.a(alt_dcache_flush.o)
 .bss           0x00044484        0x0 ../lwIP_NIOS_II_Example_bsp\libhal_bsp.a(alt_dcache_flush_all.o)
 .bss           0x00044484        0x0 ../lwIP_NIOS_II_Example_bsp\libhal_bsp.a(alt_dev_llist_insert.o)
 .bss           0x00044484        0x0 ../lwIP_NIOS_II_Example_bsp\libhal_bsp.a(alt_do_ctors.o)
 .bss           0x00044484        0x0 ../lwIP_NIOS_II_Example_bsp\libhal_bsp.a(alt_do_dtors.o)
 .bss           0x00044484        0x0 ../lwIP_NIOS_II_Example_bsp\libhal_bsp.a(alt_find_dev.o)
 .bss           0x00044484        0x0 ../lwIP_NIOS_II_Example_bsp\libhal_bsp.a(alt_flash_dev.o)
 .bss           0x00044484        0x0 ../lwIP_NIOS_II_Example_bsp\libhal_bsp.a(alt_icache_flush_all.o)
 .bss           0x00044484        0x0 ../lwIP_NIOS_II_Example_bsp\libhal_bsp.a(alt_io_redirect.o)
 .bss           0x00044484        0x0 ../lwIP_NIOS_II_Example_bsp\libhal_bsp.a(alt_open.o)
 .bss           0x00044484        0x0 ../lwIP_NIOS_II_Example_bsp\libhal_bsp.a(altera_avalon_cfi_flash_amd.o)
 .bss           0x00044484        0x0 ../lwIP_NIOS_II_Example_bsp\libhal_bsp.a(altera_avalon_cfi_flash_intel.o)
 .bss           0x00044484        0x0 ../lwIP_NIOS_II_Example_bsp\libhal_bsp.a(alt_find_file.o)
 .bss           0x00044484        0x0 ../lwIP_NIOS_II_Example_bsp\libhal_bsp.a(alt_get_fd.o)
 .bss           0x00044484        0x0 ../lwIP_NIOS_II_Example_bsp\libhal_bsp.a(alt_icache_flush.o)
 .bss           0x00044484        0x0 c:/altera/13.1/nios2eds/bin/gnu/h-i686-mingw32/bin/../lib/gcc/nios2-elf/4.7.3/../../../../../H-i686-mingw32/nios2-elf/lib\libc.a(lib_a-atexit.o)
 .bss           0x00044484        0x0 c:/altera/13.1/nios2eds/bin/gnu/h-i686-mingw32/bin/../lib/gcc/nios2-elf/4.7.3/../../../../../H-i686-mingw32/nios2-elf/lib\libc.a(lib_a-ctype_.o)
 .bss           0x00044484        0x0 c:/altera/13.1/nios2eds/bin/gnu/h-i686-mingw32/bin/../lib/gcc/nios2-elf/4.7.3/../../../../../H-i686-mingw32/nios2-elf/lib\libc.a(lib_a-exit.o)
 .bss           0x00044484        0x0 c:/altera/13.1/nios2eds/bin/gnu/h-i686-mingw32/bin/../lib/gcc/nios2-elf/4.7.3/../../../../../H-i686-mingw32/nios2-elf/lib\libc.a(lib_a-malloc.o)
 .bss           0x00044484        0x0 c:/altera/13.1/nios2eds/bin/gnu/h-i686-mingw32/bin/../lib/gcc/nios2-elf/4.7.3/../../../../../H-i686-mingw32/nios2-elf/lib\libc.a(lib_a-memcmp.o)
 .bss           0x00044484        0x0 c:/altera/13.1/nios2eds/bin/gnu/h-i686-mingw32/bin/../lib/gcc/nios2-elf/4.7.3/../../../../../H-i686-mingw32/nios2-elf/lib\libc.a(lib_a-strcpy.o)
 .bss           0x00044484        0x0 c:/altera/13.1/nios2eds/bin/gnu/h-i686-mingw32/bin/../lib/gcc/nios2-elf/4.7.3/../../../../../H-i686-mingw32/nios2-elf/lib\libc.a(lib_a-__atexit.o)
 .bss           0x00044484        0x0 c:/altera/13.1/nios2eds/bin/gnu/h-i686-mingw32/bin/../lib/gcc/nios2-elf/4.7.3/../../../../../H-i686-mingw32/nios2-elf/lib\libc.a(lib_a-__call_atexit.o)
 .bss           0x00044484        0x0 ../lwIP_NIOS_II_Example_bsp\libhal_bsp.a(alt_exit.o)
 *(COMMON)
 COMMON         0x00044484      0x100 obj/default/drivers/lwip_tse_mac.o
                0x00044484                tse
 COMMON         0x00044584      0x118 obj/default/lwip/src/core/stats.o
                0x00044584                lwip_stats
 COMMON         0x0004469c       0x34 obj/default/main.o
                0x0004469c                alteraTseNetif
 COMMON         0x000446d0       0x40 ../lwIP_NIOS_II_Example_bsp\libhal_bsp.a(altera_avalon_tse.o)
                0x000446d0                pmac_groups
                0x000446f0                pphy_profiles
 COMMON         0x00044710      0x190 c:/altera/13.1/nios2eds/bin/gnu/h-i686-mingw32/bin/../lib/gcc/nios2-elf/4.7.3/../../../../../H-i686-mingw32/nios2-elf/lib\libc.a(lib_a-atexit.o)
                0x00044710                _atexit0
                0x000448a0                . = ALIGN (0x4)
                0x000448a0                __bss_end = ABSOLUTE (.)

.sdram          0x000448a0        0x0
                0x000448a0                PROVIDE (_alt_partition_sdram_start, ABSOLUTE (.))
 *(.sdram .sdram. sdram.*)
                0x000448a0                . = ALIGN (0x4)
                0x000448a0                PROVIDE (_alt_partition_sdram_end, ABSOLUTE (.))
                0x000448a0                _end = ABSOLUTE (.)
                0x000448a0                end = ABSOLUTE (.)
                0x000448a0                __alt_stack_base = ABSOLUTE (.)
                0x000448a0                PROVIDE (_alt_partition_sdram_load_addr, LOADADDR (.sdram))

.descriptor_memory
                0x02001000        0x0 load address 0x000448a0
                0x02001000                PROVIDE (_alt_partition_descriptor_memory_start, ABSOLUTE (.))
 *(.descriptor_memory .descriptor_memory. descriptor_memory.*)
                0x02001000                . = ALIGN (0x4)
                0x02001000                PROVIDE (_alt_partition_descriptor_memory_end, ABSOLUTE (.))
                0x000448a0                PROVIDE (_alt_partition_descriptor_memory_load_addr, LOADADDR (.descriptor_memory))

.ext_flash      0x04000000        0x0 load address 0x000448a0
                0x04000000                PROVIDE (_alt_partition_ext_flash_start, ABSOLUTE (.))
 *(.ext_flash .ext_flash. ext_flash.*)
                0x04000000                . = ALIGN (0x4)
                0x04000000                PROVIDE (_alt_partition_ext_flash_end, ABSOLUTE (.))
                0x000448a0                PROVIDE (_alt_partition_ext_flash_load_addr, LOADADDR (.ext_flash))

.sram           0x05000020        0x0 load address 0x000448a0
                0x05000020                PROVIDE (_alt_partition_sram_start, ABSOLUTE (.))
 *(.sram .sram. sram.*)
                0x05000020                . = ALIGN (0x4)
                0x05000020                PROVIDE (_alt_partition_sram_end, ABSOLUTE (.))
                0x000448a0                PROVIDE (_alt_partition_sram_load_addr, LOADADDR (.sram))

.onchip_memory2
                0x0a000000        0x0 load address 0x000448a0
                0x0a000000                PROVIDE (_alt_partition_onchip_memory2_start, ABSOLUTE (.))
 *(.onchip_memory2 .onchip_memory2. onchip_memory2.*)
                0x0a000000                . = ALIGN (0x4)
                0x0a000000                PROVIDE (_alt_partition_onchip_memory2_end, ABSOLUTE (.))
                0x000448a0                PROVIDE (_alt_partition_onchip_memory2_load_addr, LOADADDR (.onchip_memory2))

.stab
 *(.stab)

.stabstr
 *(.stabstr)

.stab.excl
 *(.stab.excl)

.stab.exclstr
 *(.stab.exclstr)

.stab.index
 *(.stab.index)

.stab.indexstr
 *(.stab.indexstr)

.comment        0x00000000       0x23
 *(.comment)
 .comment       0x00000000       0x23 obj/default/drivers/alteraTseEthernetif.o
                                 0x24 (size before relaxing)
 .comment       0x00000000       0x24 obj/default/drivers/fs.o
 .comment       0x00000000       0x24 obj/default/drivers/fsdata.o
 .comment       0x00000000       0x24 obj/default/drivers/httpd.o
 .comment       0x00000000       0x24 obj/default/drivers/lwip_tse_mac.o
 .comment       0x00000000       0x24 obj/default/drivers/tse_my_system.o
 .comment       0x00000000       0x24 obj/default/lwip/src/api/api_lib.o
 .comment       0x00000000       0x24 obj/default/lwip/src/api/api_msg.o
 .comment       0x00000000       0x24 obj/default/lwip/src/api/err.o
 .comment       0x00000000       0x24 obj/default/lwip/src/api/netbuf.o
 .comment       0x00000000       0x24 obj/default/lwip/src/api/netdb.o
 .comment       0x00000000       0x24 obj/default/lwip/src/api/netifapi.o
 .comment       0x00000000       0x24 obj/default/lwip/src/api/sockets.o
 .comment       0x00000000       0x24 obj/default/lwip/src/api/tcpip.o
 .comment       0x00000000       0x24 obj/default/lwip/src/core/dhcp.o
 .comment       0x00000000       0x24 obj/default/lwip/src/core/dns.o
 .comment       0x00000000       0x24 obj/default/lwip/src/core/init.o
 .comment       0x00000000       0x24 obj/default/lwip/src/core/ipv4/autoip.o
 .comment       0x00000000       0x24 obj/default/lwip/src/core/ipv4/icmp.o
 .comment       0x00000000       0x24 obj/default/lwip/src/core/ipv4/igmp.o
 .comment       0x00000000       0x24 obj/default/lwip/src/core/ipv4/inet.o
 .comment       0x00000000       0x24 obj/default/lwip/src/core/ipv4/inet_chksum.o
 .comment       0x00000000       0x24 obj/default/lwip/src/core/ipv4/ip.o
 .comment       0x00000000       0x24 obj/default/lwip/src/core/ipv4/ip_addr.o
 .comment       0x00000000       0x24 obj/default/lwip/src/core/ipv4/ip_frag.o
 .comment       0x00000000       0x24 obj/default/lwip/src/core/mem.o
 .comment       0x00000000       0x24 obj/default/lwip/src/core/memp.o
 .comment       0x00000000       0x24 obj/default/lwip/src/core/netif.o
 .comment       0x00000000       0x24 obj/default/lwip/src/core/pbuf.o
 .comment       0x00000000       0x24 obj/default/lwip/src/core/raw.o
 .comment       0x00000000       0x24 obj/default/lwip/src/core/snmp/asn1_dec.o
 .comment       0x00000000       0x24 obj/default/lwip/src/core/snmp/asn1_enc.o
 .comment       0x00000000       0x24 obj/default/lwip/src/core/snmp/mib2.o
 .comment       0x00000000       0x24 obj/default/lwip/src/core/snmp/mib_structs.o
 .comment       0x00000000       0x24 obj/default/lwip/src/core/snmp/msg_in.o
 .comment       0x00000000       0x24 obj/default/lwip/src/core/snmp/msg_out.o
 .comment       0x00000000       0x24 obj/default/lwip/src/core/stats.o
 .comment       0x00000000       0x24 obj/default/lwip/src/core/sys.o
 .comment       0x00000000       0x24 obj/default/lwip/src/core/tcp.o
 .comment       0x00000000       0x24 obj/default/lwip/src/core/tcp_in.o
 .comment       0x00000000       0x24 obj/default/lwip/src/core/tcp_out.o
 .comment       0x00000000       0x24 obj/default/lwip/src/core/udp.o
 .comment       0x00000000       0x24 obj/default/lwip/src/netif/etharp.o
 .comment       0x00000000       0x24 obj/default/lwip/src/netif/ethernetif.o
 .comment       0x00000000       0x24 obj/default/lwip/src/netif/loopif.o
 .comment       0x00000000       0x24 obj/default/lwip/src/netif/ppp/auth.o
 .comment       0x00000000       0x24 obj/default/lwip/src/netif/ppp/chap.o
 .comment       0x00000000       0x24 obj/default/lwip/src/netif/ppp/chpms.o
 .comment       0x00000000       0x24 obj/default/lwip/src/netif/ppp/fsm.o
 .comment       0x00000000       0x24 obj/default/lwip/src/netif/ppp/ipcp.o
 .comment       0x00000000       0x24 obj/default/lwip/src/netif/ppp/lcp.o
 .comment       0x00000000       0x24 obj/default/lwip/src/netif/ppp/magic.o
 .comment       0x00000000       0x24 obj/default/lwip/src/netif/ppp/md5.o
 .comment       0x00000000       0x24 obj/default/lwip/src/netif/ppp/pap.o
 .comment       0x00000000       0x24 obj/default/lwip/src/netif/ppp/ppp.o
 .comment       0x00000000       0x24 obj/default/lwip/src/netif/ppp/ppp_oe.o
 .comment       0x00000000       0x24 obj/default/lwip/src/netif/ppp/randm.o
 .comment       0x00000000       0x24 obj/default/lwip/src/netif/ppp/vj.o
 .comment       0x00000000       0x24 obj/default/lwip/src/netif/slipif.o
 .comment       0x00000000       0x24 obj/default/main.o
 .comment       0x00000000       0x24 c:/altera/13.1/nios2eds/bin/gnu/h-i686-mingw32/bin/../lib/gcc/nios2-elf/4.7.3/../../../../../H-i686-mingw32/nios2-elf/lib\libc.a(lib_a-impure.o)
 .comment       0x00000000       0x24 c:/altera/13.1/nios2eds/bin/gnu/h-i686-mingw32/bin/../lib/gcc/nios2-elf/4.7.3/../../../../../H-i686-mingw32/nios2-elf/lib\libc.a(lib_a-memcpy.o)
 .comment       0x00000000       0x24 c:/altera/13.1/nios2eds/bin/gnu/h-i686-mingw32/bin/../lib/gcc/nios2-elf/4.7.3/../../../../../H-i686-mingw32/nios2-elf/lib\libc.a(lib_a-memset.o)
 .comment       0x00000000       0x24 c:/altera/13.1/nios2eds/bin/gnu/h-i686-mingw32/bin/../lib/gcc/nios2-elf/4.7.3/../../../../../H-i686-mingw32/nios2-elf/lib\libc.a(lib_a-printf.o)
 .comment       0x00000000       0x24 c:/altera/13.1/nios2eds/bin/gnu/h-i686-mingw32/bin/../lib/gcc/nios2-elf/4.7.3/../../../../../H-i686-mingw32/nios2-elf/lib\libc.a(lib_a-putc.o)
 .comment       0x00000000       0x24 c:/altera/13.1/nios2eds/bin/gnu/h-i686-mingw32/bin/../lib/gcc/nios2-elf/4.7.3/../../../../../H-i686-mingw32/nios2-elf/lib\libc.a(lib_a-putchar.o)
 .comment       0x00000000       0x24 c:/altera/13.1/nios2eds/bin/gnu/h-i686-mingw32/bin/../lib/gcc/nios2-elf/4.7.3/../../../../../H-i686-mingw32/nios2-elf/lib\libc.a(lib_a-puts.o)
 .comment       0x00000000       0x24 c:/altera/13.1/nios2eds/bin/gnu/h-i686-mingw32/bin/../lib/gcc/nios2-elf/4.7.3/../../../../../H-i686-mingw32/nios2-elf/lib\libc.a(lib_a-strcmp.o)
 .comment       0x00000000       0x24 c:/altera/13.1/nios2eds/bin/gnu/h-i686-mingw32/bin/../lib/gcc/nios2-elf/4.7.3/../../../../../H-i686-mingw32/nios2-elf/lib\libc.a(lib_a-strlen.o)
 .comment       0x00000000       0x24 c:/altera/13.1/nios2eds/bin/gnu/h-i686-mingw32/bin/../lib/gcc/nios2-elf/4.7.3/../../../../../H-i686-mingw32/nios2-elf/lib\libc.a(lib_a-strncmp.o)
 .comment       0x00000000       0x24 c:/altera/13.1/nios2eds/bin/gnu/h-i686-mingw32/bin/../lib/gcc/nios2-elf/4.7.3/../../../../../H-i686-mingw32/nios2-elf/lib\libc.a(lib_a-vfprintf.o)
 .comment       0x00000000       0x24 c:/altera/13.1/nios2eds/bin/gnu/h-i686-mingw32/bin/../lib/gcc/nios2-elf/4.7.3/../../../../../H-i686-mingw32/nios2-elf/lib\libc.a(lib_a-wbuf.o)
 .comment       0x00000000       0x24 c:/altera/13.1/nios2eds/bin/gnu/h-i686-mingw32/bin/../lib/gcc/nios2-elf/4.7.3/../../../../../H-i686-mingw32/nios2-elf/lib\libc.a(lib_a-wsetup.o)
 .comment       0x00000000       0x24 c:/altera/13.1/nios2eds/bin/gnu/h-i686-mingw32/bin/../lib/gcc/nios2-elf/4.7.3/../../../../../H-i686-mingw32/nios2-elf/lib\libc.a(lib_a-dtoa.o)
 .comment       0x00000000       0x24 c:/altera/13.1/nios2eds/bin/gnu/h-i686-mingw32/bin/../lib/gcc/nios2-elf/4.7.3/../../../../../H-i686-mingw32/nios2-elf/lib\libc.a(lib_a-fflush.o)
 .comment       0x00000000       0x24 c:/altera/13.1/nios2eds/bin/gnu/h-i686-mingw32/bin/../lib/gcc/nios2-elf/4.7.3/../../../../../H-i686-mingw32/nios2-elf/lib\libc.a(lib_a-findfp.o)
 .comment       0x00000000       0x24 c:/altera/13.1/nios2eds/bin/gnu/h-i686-mingw32/bin/../lib/gcc/nios2-elf/4.7.3/../../../../../H-i686-mingw32/nios2-elf/lib\libc.a(lib_a-freer.o)
 .comment       0x00000000       0x24 c:/altera/13.1/nios2eds/bin/gnu/h-i686-mingw32/bin/../lib/gcc/nios2-elf/4.7.3/../../../../../H-i686-mingw32/nios2-elf/lib\libc.a(lib_a-fvwrite.o)
 .comment       0x00000000       0x24 c:/altera/13.1/nios2eds/bin/gnu/h-i686-mingw32/bin/../lib/gcc/nios2-elf/4.7.3/../../../../../H-i686-mingw32/nios2-elf/lib\libc.a(lib_a-fwalk.o)
 .comment       0x00000000       0x24 c:/altera/13.1/nios2eds/bin/gnu/h-i686-mingw32/bin/../lib/gcc/nios2-elf/4.7.3/../../../../../H-i686-mingw32/nios2-elf/lib\libc.a(lib_a-locale.o)
 .comment       0x00000000       0x24 c:/altera/13.1/nios2eds/bin/gnu/h-i686-mingw32/bin/../lib/gcc/nios2-elf/4.7.3/../../../../../H-i686-mingw32/nios2-elf/lib\libc.a(lib_a-makebuf.o)
 .comment       0x00000000       0x24 c:/altera/13.1/nios2eds/bin/gnu/h-i686-mingw32/bin/../lib/gcc/nios2-elf/4.7.3/../../../../../H-i686-mingw32/nios2-elf/lib\libc.a(lib_a-mallocr.o)
 .comment       0x00000000       0x24 c:/altera/13.1/nios2eds/bin/gnu/h-i686-mingw32/bin/../lib/gcc/nios2-elf/4.7.3/../../../../../H-i686-mingw32/nios2-elf/lib\libc.a(lib_a-memchr.o)
 .comment       0x00000000       0x24 c:/altera/13.1/nios2eds/bin/gnu/h-i686-mingw32/bin/../lib/gcc/nios2-elf/4.7.3/../../../../../H-i686-mingw32/nios2-elf/lib\libc.a(lib_a-memmove.o)
 .comment       0x00000000       0x24 c:/altera/13.1/nios2eds/bin/gnu/h-i686-mingw32/bin/../lib/gcc/nios2-elf/4.7.3/../../../../../H-i686-mingw32/nios2-elf/lib\libc.a(lib_a-mprec.o)
 .comment       0x00000000       0x24 c:/altera/13.1/nios2eds/bin/gnu/h-i686-mingw32/bin/../lib/gcc/nios2-elf/4.7.3/../../../../../H-i686-mingw32/nios2-elf/lib\libc.a(lib_a-reallocr.o)
 .comment       0x00000000       0x24 c:/altera/13.1/nios2eds/bin/gnu/h-i686-mingw32/bin/../lib/gcc/nios2-elf/4.7.3/../../../../../H-i686-mingw32/nios2-elf/lib\libc.a(lib_a-s_isinfd.o)
 .comment       0x00000000       0x24 c:/altera/13.1/nios2eds/bin/gnu/h-i686-mingw32/bin/../lib/gcc/nios2-elf/4.7.3/../../../../../H-i686-mingw32/nios2-elf/lib\libc.a(lib_a-s_isnand.o)
 .comment       0x00000000       0x24 c:/altera/13.1/nios2eds/bin/gnu/h-i686-mingw32/bin/../lib/gcc/nios2-elf/4.7.3/../../../../../H-i686-mingw32/nios2-elf/lib\libc.a(lib_a-sbrkr.o)
 .comment       0x00000000       0x24 c:/altera/13.1/nios2eds/bin/gnu/h-i686-mingw32/bin/../lib/gcc/nios2-elf/4.7.3/../../../../../H-i686-mingw32/nios2-elf/lib\libc.a(lib_a-stdio.o)
 .comment       0x00000000       0x24 c:/altera/13.1/nios2eds/bin/gnu/h-i686-mingw32/bin/../lib/gcc/nios2-elf/4.7.3/../../../../../H-i686-mingw32/nios2-elf/lib\libc.a(lib_a-writer.o)
 .comment       0x00000000       0x24 c:/altera/13.1/nios2eds/bin/gnu/h-i686-mingw32/bin/../lib/gcc/nios2-elf/4.7.3/../../../../../H-i686-mingw32/nios2-elf/lib\libc.a(lib_a-callocr.o)
 .comment       0x00000000       0x24 c:/altera/13.1/nios2eds/bin/gnu/h-i686-mingw32/bin/../lib/gcc/nios2-elf/4.7.3/../../../../../H-i686-mingw32/nios2-elf/lib\libc.a(lib_a-closer.o)
 .comment       0x00000000       0x24 c:/altera/13.1/nios2eds/bin/gnu/h-i686-mingw32/bin/../lib/gcc/nios2-elf/4.7.3/../../../../../H-i686-mingw32/nios2-elf/lib\libc.a(lib_a-fclose.o)
 .comment       0x00000000       0x24 c:/altera/13.1/nios2eds/bin/gnu/h-i686-mingw32/bin/../lib/gcc/nios2-elf/4.7.3/../../../../../H-i686-mingw32/nios2-elf/lib\libc.a(lib_a-fstatr.o)
 .comment       0x00000000       0x24 c:/altera/13.1/nios2eds/bin/gnu/h-i686-mingw32/bin/../lib/gcc/nios2-elf/4.7.3/../../../../../H-i686-mingw32/nios2-elf/lib\libc.a(lib_a-int_errno.o)
 .comment       0x00000000       0x24 c:/altera/13.1/nios2eds/bin/gnu/h-i686-mingw32/bin/../lib/gcc/nios2-elf/4.7.3/../../../../../H-i686-mingw32/nios2-elf/lib\libc.a(lib_a-isattyr.o)
 .comment       0x00000000       0x24 c:/altera/13.1/nios2eds/bin/gnu/h-i686-mingw32/bin/../lib/gcc/nios2-elf/4.7.3/../../../../../H-i686-mingw32/nios2-elf/lib\libc.a(lib_a-lseekr.o)
 .comment       0x00000000       0x24 c:/altera/13.1/nios2eds/bin/gnu/h-i686-mingw32/bin/../lib/gcc/nios2-elf/4.7.3/../../../../../H-i686-mingw32/nios2-elf/lib\libc.a(lib_a-readr.o)
 .comment       0x00000000       0x24 c:/altera/13.1/nios2eds/bin/gnu/h-i686-mingw32/bin/../lib/gcc/nios2-elf/4.7.3\libgcc.a(_udivdi3.o)
 .comment       0x00000000       0x24 c:/altera/13.1/nios2eds/bin/gnu/h-i686-mingw32/bin/../lib/gcc/nios2-elf/4.7.3\libgcc.a(_umoddi3.o)
 .comment       0x00000000       0x24 c:/altera/13.1/nios2eds/bin/gnu/h-i686-mingw32/bin/../lib/gcc/nios2-elf/4.7.3\libgcc.a(_addsub_df.o)
 .comment       0x00000000       0x24 c:/altera/13.1/nios2eds/bin/gnu/h-i686-mingw32/bin/../lib/gcc/nios2-elf/4.7.3\libgcc.a(_mul_df.o)
 .comment       0x00000000       0x24 c:/altera/13.1/nios2eds/bin/gnu/h-i686-mingw32/bin/../lib/gcc/nios2-elf/4.7.3\libgcc.a(_div_df.o)
 .comment       0x00000000       0x24 c:/altera/13.1/nios2eds/bin/gnu/h-i686-mingw32/bin/../lib/gcc/nios2-elf/4.7.3\libgcc.a(_eq_df.o)
 .comment       0x00000000       0x24 c:/altera/13.1/nios2eds/bin/gnu/h-i686-mingw32/bin/../lib/gcc/nios2-elf/4.7.3\libgcc.a(_ne_df.o)
 .comment       0x00000000       0x24 c:/altera/13.1/nios2eds/bin/gnu/h-i686-mingw32/bin/../lib/gcc/nios2-elf/4.7.3\libgcc.a(_gt_df.o)
 .comment       0x00000000       0x24 c:/altera/13.1/nios2eds/bin/gnu/h-i686-mingw32/bin/../lib/gcc/nios2-elf/4.7.3\libgcc.a(_ge_df.o)
 .comment       0x00000000       0x24 c:/altera/13.1/nios2eds/bin/gnu/h-i686-mingw32/bin/../lib/gcc/nios2-elf/4.7.3\libgcc.a(_lt_df.o)
 .comment       0x00000000       0x24 c:/altera/13.1/nios2eds/bin/gnu/h-i686-mingw32/bin/../lib/gcc/nios2-elf/4.7.3\libgcc.a(_si_to_df.o)
 .comment       0x00000000       0x24 c:/altera/13.1/nios2eds/bin/gnu/h-i686-mingw32/bin/../lib/gcc/nios2-elf/4.7.3\libgcc.a(_df_to_si.o)
 .comment       0x00000000       0x24 c:/altera/13.1/nios2eds/bin/gnu/h-i686-mingw32/bin/../lib/gcc/nios2-elf/4.7.3\libgcc.a(_thenan_df.o)
 .comment       0x00000000       0x24 c:/altera/13.1/nios2eds/bin/gnu/h-i686-mingw32/bin/../lib/gcc/nios2-elf/4.7.3\libgcc.a(_usi_to_df.o)
 .comment       0x00000000       0x24 c:/altera/13.1/nios2eds/bin/gnu/h-i686-mingw32/bin/../lib/gcc/nios2-elf/4.7.3\libgcc.a(lib2-divmod.o)
 .comment       0x00000000       0x24 c:/altera/13.1/nios2eds/bin/gnu/h-i686-mingw32/bin/../lib/gcc/nios2-elf/4.7.3\libgcc.a(_muldi3.o)
 .comment       0x00000000       0x24 c:/altera/13.1/nios2eds/bin/gnu/h-i686-mingw32/bin/../lib/gcc/nios2-elf/4.7.3\libgcc.a(_clz.o)
 .comment       0x00000000       0x24 c:/altera/13.1/nios2eds/bin/gnu/h-i686-mingw32/bin/../lib/gcc/nios2-elf/4.7.3\libgcc.a(_clzsi2.o)
 .comment       0x00000000       0x24 c:/altera/13.1/nios2eds/bin/gnu/h-i686-mingw32/bin/../lib/gcc/nios2-elf/4.7.3\libgcc.a(_pack_df.o)
 .comment       0x00000000       0x24 c:/altera/13.1/nios2eds/bin/gnu/h-i686-mingw32/bin/../lib/gcc/nios2-elf/4.7.3\libgcc.a(_unpack_df.o)
 .comment       0x00000000       0x24 c:/altera/13.1/nios2eds/bin/gnu/h-i686-mingw32/bin/../lib/gcc/nios2-elf/4.7.3\libgcc.a(_fpcmp_parts_df.o)
 .comment       0x00000000       0x24 c:/altera/13.1/nios2eds/bin/gnu/h-i686-mingw32/bin/../lib/gcc/nios2-elf/4.7.3\libgcc.a(_lshrdi3.o)
 .comment       0x00000000       0x24 c:/altera/13.1/nios2eds/bin/gnu/h-i686-mingw32/bin/../lib/gcc/nios2-elf/4.7.3\libgcc.a(_ashldi3.o)
 .comment       0x00000000       0x24 ../lwIP_NIOS_II_Example_bsp\libhal_bsp.a(alt_alarm_start.o)
 .comment       0x00000000       0x24 ../lwIP_NIOS_II_Example_bsp\libhal_bsp.a(alt_close.o)
 .comment       0x00000000       0x24 ../lwIP_NIOS_II_Example_bsp\libhal_bsp.a(alt_dev.o)
 .comment       0x00000000       0x24 ../lwIP_NIOS_II_Example_bsp\libhal_bsp.a(alt_errno.o)
 .comment       0x00000000       0x24 ../lwIP_NIOS_II_Example_bsp\libhal_bsp.a(alt_fstat.o)
 .comment       0x00000000       0x24 ../lwIP_NIOS_II_Example_bsp\libhal_bsp.a(alt_isatty.o)
 .comment       0x00000000       0x24 ../lwIP_NIOS_II_Example_bsp\libhal_bsp.a(alt_load.o)
 .comment       0x00000000       0x24 ../lwIP_NIOS_II_Example_bsp\libhal_bsp.a(alt_lseek.o)
 .comment       0x00000000       0x24 ../lwIP_NIOS_II_Example_bsp\libhal_bsp.a(alt_main.o)
 .comment       0x00000000       0x24 ../lwIP_NIOS_II_Example_bsp\libhal_bsp.a(alt_malloc_lock.o)
 .comment       0x00000000       0x24 ../lwIP_NIOS_II_Example_bsp\libhal_bsp.a(alt_read.o)
 .comment       0x00000000       0x24 ../lwIP_NIOS_II_Example_bsp\libhal_bsp.a(alt_release_fd.o)
 .comment       0x00000000       0x24 ../lwIP_NIOS_II_Example_bsp\libhal_bsp.a(alt_remap_uncached.o)
 .comment       0x00000000       0x24 ../lwIP_NIOS_II_Example_bsp\libhal_bsp.a(alt_sbrk.o)
 .comment       0x00000000       0x24 ../lwIP_NIOS_II_Example_bsp\libhal_bsp.a(alt_tick.o)
 .comment       0x00000000       0x24 ../lwIP_NIOS_II_Example_bsp\libhal_bsp.a(alt_uncached_malloc.o)
 .comment       0x00000000       0x24 ../lwIP_NIOS_II_Example_bsp\libhal_bsp.a(alt_usleep.o)
 .comment       0x00000000       0x24 ../lwIP_NIOS_II_Example_bsp\libhal_bsp.a(alt_write.o)
 .comment       0x00000000       0x24 ../lwIP_NIOS_II_Example_bsp\libhal_bsp.a(alt_sys_init.o)
 .comment       0x00000000       0x24 ../lwIP_NIOS_II_Example_bsp\libhal_bsp.a(altera_avalon_cfi_flash.o)
 .comment       0x00000000       0x24 ../lwIP_NIOS_II_Example_bsp\libhal_bsp.a(altera_avalon_cfi_flash_table.o)
 .comment       0x00000000       0x24 ../lwIP_NIOS_II_Example_bsp\libhal_bsp.a(altera_avalon_jtag_uart_fd.o)
 .comment       0x00000000       0x24 ../lwIP_NIOS_II_Example_bsp\libhal_bsp.a(altera_avalon_jtag_uart_init.o)
 .comment       0x00000000       0x24 ../lwIP_NIOS_II_Example_bsp\libhal_bsp.a(altera_avalon_jtag_uart_ioctl.o)
 .comment       0x00000000       0x24 ../lwIP_NIOS_II_Example_bsp\libhal_bsp.a(altera_avalon_jtag_uart_read.o)
 .comment       0x00000000       0x24 ../lwIP_NIOS_II_Example_bsp\libhal_bsp.a(altera_avalon_jtag_uart_write.o)
 .comment       0x00000000       0x24 ../lwIP_NIOS_II_Example_bsp\libhal_bsp.a(altera_avalon_lcd_16207.o)
 .comment       0x00000000       0x24 ../lwIP_NIOS_II_Example_bsp\libhal_bsp.a(altera_avalon_lcd_16207_fd.o)
 .comment       0x00000000       0x24 ../lwIP_NIOS_II_Example_bsp\libhal_bsp.a(altera_avalon_sgdma.o)
 .comment       0x00000000       0x24 ../lwIP_NIOS_II_Example_bsp\libhal_bsp.a(altera_avalon_timer_sc.o)
 .comment       0x00000000       0x24 ../lwIP_NIOS_II_Example_bsp\libhal_bsp.a(altera_avalon_tse.o)
 .comment       0x00000000       0x24 ../lwIP_NIOS_II_Example_bsp\libhal_bsp.a(altera_avalon_uart_fd.o)
 .comment       0x00000000       0x24 ../lwIP_NIOS_II_Example_bsp\libhal_bsp.a(altera_avalon_uart_init.o)
 .comment       0x00000000       0x24 ../lwIP_NIOS_II_Example_bsp\libhal_bsp.a(altera_avalon_uart_read.o)
 .comment       0x00000000       0x24 ../lwIP_NIOS_II_Example_bsp\libhal_bsp.a(altera_avalon_uart_write.o)
 .comment       0x00000000       0x24 ../lwIP_NIOS_II_Example_bsp\libhal_bsp.a(altera_vic_irq_init.o)
 .comment       0x00000000       0x24 ../lwIP_NIOS_II_Example_bsp\libhal_bsp.a(altera_vic_isr_register.o)
 .comment       0x00000000       0x24 ../lwIP_NIOS_II_Example_bsp\libhal_bsp.a(alt_busy_sleep.o)
 .comment       0x00000000       0x24 ../lwIP_NIOS_II_Example_bsp\libhal_bsp.a(alt_dcache_flush.o)
 .comment       0x00000000       0x24 ../lwIP_NIOS_II_Example_bsp\libhal_bsp.a(alt_dcache_flush_all.o)
 .comment       0x00000000       0x24 ../lwIP_NIOS_II_Example_bsp\libhal_bsp.a(alt_dev_llist_insert.o)
 .comment       0x00000000       0x24 ../lwIP_NIOS_II_Example_bsp\libhal_bsp.a(alt_do_ctors.o)
 .comment       0x00000000       0x24 ../lwIP_NIOS_II_Example_bsp\libhal_bsp.a(alt_do_dtors.o)
 .comment       0x00000000       0x24 ../lwIP_NIOS_II_Example_bsp\libhal_bsp.a(alt_find_dev.o)
 .comment       0x00000000       0x24 ../lwIP_NIOS_II_Example_bsp\libhal_bsp.a(alt_flash_dev.o)
 .comment       0x00000000       0x24 ../lwIP_NIOS_II_Example_bsp\libhal_bsp.a(alt_icache_flush_all.o)
 .comment       0x00000000       0x24 ../lwIP_NIOS_II_Example_bsp\libhal_bsp.a(alt_io_redirect.o)
 .comment       0x00000000       0x24 ../lwIP_NIOS_II_Example_bsp\libhal_bsp.a(alt_open.o)
 .comment       0x00000000       0x24 ../lwIP_NIOS_II_Example_bsp\libhal_bsp.a(altera_avalon_cfi_flash_amd.o)
 .comment       0x00000000       0x24 ../lwIP_NIOS_II_Example_bsp\libhal_bsp.a(altera_avalon_cfi_flash_intel.o)
 .comment       0x00000000       0x24 ../lwIP_NIOS_II_Example_bsp\libhal_bsp.a(alt_find_file.o)
 .comment       0x00000000       0x24 ../lwIP_NIOS_II_Example_bsp\libhal_bsp.a(alt_get_fd.o)
 .comment       0x00000000       0x24 ../lwIP_NIOS_II_Example_bsp\libhal_bsp.a(alt_icache_flush.o)
 .comment       0x00000000       0x24 c:/altera/13.1/nios2eds/bin/gnu/h-i686-mingw32/bin/../lib/gcc/nios2-elf/4.7.3/../../../../../H-i686-mingw32/nios2-elf/lib\libc.a(lib_a-atexit.o)
 .comment       0x00000000       0x24 c:/altera/13.1/nios2eds/bin/gnu/h-i686-mingw32/bin/../lib/gcc/nios2-elf/4.7.3/../../../../../H-i686-mingw32/nios2-elf/lib\libc.a(lib_a-ctype_.o)
 .comment       0x00000000       0x24 c:/altera/13.1/nios2eds/bin/gnu/h-i686-mingw32/bin/../lib/gcc/nios2-elf/4.7.3/../../../../../H-i686-mingw32/nios2-elf/lib\libc.a(lib_a-exit.o)
 .comment       0x00000000       0x24 c:/altera/13.1/nios2eds/bin/gnu/h-i686-mingw32/bin/../lib/gcc/nios2-elf/4.7.3/../../../../../H-i686-mingw32/nios2-elf/lib\libc.a(lib_a-malloc.o)
 .comment       0x00000000       0x24 c:/altera/13.1/nios2eds/bin/gnu/h-i686-mingw32/bin/../lib/gcc/nios2-elf/4.7.3/../../../../../H-i686-mingw32/nios2-elf/lib\libc.a(lib_a-memcmp.o)
 .comment       0x00000000       0x24 c:/altera/13.1/nios2eds/bin/gnu/h-i686-mingw32/bin/../lib/gcc/nios2-elf/4.7.3/../../../../../H-i686-mingw32/nios2-elf/lib\libc.a(lib_a-strcpy.o)
 .comment       0x00000000       0x24 c:/altera/13.1/nios2eds/bin/gnu/h-i686-mingw32/bin/../lib/gcc/nios2-elf/4.7.3/../../../../../H-i686-mingw32/nios2-elf/lib\libc.a(lib_a-__atexit.o)
 .comment       0x00000000       0x24 c:/altera/13.1/nios2eds/bin/gnu/h-i686-mingw32/bin/../lib/gcc/nios2-elf/4.7.3/../../../../../H-i686-mingw32/nios2-elf/lib\libc.a(lib_a-__call_atexit.o)
 .comment       0x00000000       0x24 ../lwIP_NIOS_II_Example_bsp\libhal_bsp.a(alt_exit.o)

.debug
 *(.debug)

.line
 *(.line)

.debug_srcinfo
 *(.debug_srcinfo)

.debug_sfnames
 *(.debug_sfnames)

.debug_aranges  0x00000000     0x1600
 *(.debug_aranges)
 .debug_aranges
                0x00000000       0x28 ../lwIP_NIOS_II_Example_bsp/obj/HAL/src/crt0.o
 .debug_aranges
                0x00000028       0x20 obj/default/drivers/alteraTseEthernetif.o
 .debug_aranges
                0x00000048       0x20 obj/default/drivers/fs.o
 .debug_aranges
                0x00000068       0x20 obj/default/drivers/httpd.o
 .debug_aranges
                0x00000088       0x20 obj/default/drivers/lwip_tse_mac.o
 .debug_aranges
                0x000000a8       0x18 obj/default/drivers/tse_my_system.o
 .debug_aranges
                0x000000c0       0x18 obj/default/lwip/src/api/api_lib.o
 .debug_aranges
                0x000000d8       0x18 obj/default/lwip/src/api/api_msg.o
 .debug_aranges
                0x000000f0       0x20 obj/default/lwip/src/api/err.o
 .debug_aranges
                0x00000110       0x18 obj/default/lwip/src/api/netbuf.o
 .debug_aranges
                0x00000128       0x18 obj/default/lwip/src/api/netdb.o
 .debug_aranges
                0x00000140       0x18 obj/default/lwip/src/api/netifapi.o
 .debug_aranges
                0x00000158       0x18 obj/default/lwip/src/api/sockets.o
 .debug_aranges
                0x00000170       0x18 obj/default/lwip/src/api/tcpip.o
 .debug_aranges
                0x00000188       0x20 obj/default/lwip/src/core/dhcp.o
 .debug_aranges
                0x000001a8       0x18 obj/default/lwip/src/core/dns.o
 .debug_aranges
                0x000001c0       0x20 obj/default/lwip/src/core/init.o
 .debug_aranges
                0x000001e0       0x18 obj/default/lwip/src/core/ipv4/autoip.o
 .debug_aranges
                0x000001f8       0x20 obj/default/lwip/src/core/ipv4/icmp.o
 .debug_aranges
                0x00000218       0x18 obj/default/lwip/src/core/ipv4/igmp.o
 .debug_aranges
                0x00000230       0x20 obj/default/lwip/src/core/ipv4/inet.o
 .debug_aranges
                0x00000250       0x20 obj/default/lwip/src/core/ipv4/inet_chksum.o
 .debug_aranges
                0x00000270       0x20 obj/default/lwip/src/core/ipv4/ip.o
 .debug_aranges
                0x00000290       0x20 obj/default/lwip/src/core/ipv4/ip_addr.o
 .debug_aranges
                0x000002b0       0x20 obj/default/lwip/src/core/ipv4/ip_frag.o
 .debug_aranges
                0x000002d0       0x20 obj/default/lwip/src/core/mem.o
 .debug_aranges
                0x000002f0       0x20 obj/default/lwip/src/core/memp.o
 .debug_aranges
                0x00000310       0x20 obj/default/lwip/src/core/netif.o
 .debug_aranges
                0x00000330       0x20 obj/default/lwip/src/core/pbuf.o
 .debug_aranges
                0x00000350       0x20 obj/default/lwip/src/core/raw.o
 .debug_aranges
                0x00000370       0x18 obj/default/lwip/src/core/snmp/asn1_dec.o
 .debug_aranges
                0x00000388       0x18 obj/default/lwip/src/core/snmp/asn1_enc.o
 .debug_aranges
                0x000003a0       0x18 obj/default/lwip/src/core/snmp/mib2.o
 .debug_aranges
                0x000003b8       0x18 obj/default/lwip/src/core/snmp/mib_structs.o
 .debug_aranges
                0x000003d0       0x18 obj/default/lwip/src/core/snmp/msg_in.o
 .debug_aranges
                0x000003e8       0x18 obj/default/lwip/src/core/snmp/msg_out.o
 .debug_aranges
                0x00000400       0x18 obj/default/lwip/src/core/stats.o
 .debug_aranges
                0x00000418       0x18 obj/default/lwip/src/core/sys.o
 .debug_aranges
                0x00000430       0x20 obj/default/lwip/src/core/tcp.o
 .debug_aranges
                0x00000450       0x20 obj/default/lwip/src/core/tcp_in.o
 .debug_aranges
                0x00000470       0x20 obj/default/lwip/src/core/tcp_out.o
 .debug_aranges
                0x00000490       0x20 obj/default/lwip/src/core/udp.o
 .debug_aranges
                0x000004b0       0x20 obj/default/lwip/src/netif/etharp.o
 .debug_aranges
                0x000004d0       0x18 obj/default/lwip/src/netif/ethernetif.o
 .debug_aranges
                0x000004e8       0x18 obj/default/lwip/src/netif/loopif.o
 .debug_aranges
                0x00000500       0x18 obj/default/lwip/src/netif/ppp/auth.o
 .debug_aranges
                0x00000518       0x18 obj/default/lwip/src/netif/ppp/chap.o
 .debug_aranges
                0x00000530       0x18 obj/default/lwip/src/netif/ppp/chpms.o
 .debug_aranges
                0x00000548       0x18 obj/default/lwip/src/netif/ppp/fsm.o
 .debug_aranges
                0x00000560       0x18 obj/default/lwip/src/netif/ppp/ipcp.o
 .debug_aranges
                0x00000578       0x18 obj/default/lwip/src/netif/ppp/lcp.o
 .debug_aranges
                0x00000590       0x18 obj/default/lwip/src/netif/ppp/magic.o
 .debug_aranges
                0x000005a8       0x18 obj/default/lwip/src/netif/ppp/md5.o
 .debug_aranges
                0x000005c0       0x18 obj/default/lwip/src/netif/ppp/pap.o
 .debug_aranges
                0x000005d8       0x18 obj/default/lwip/src/netif/ppp/ppp.o
 .debug_aranges
                0x000005f0       0x18 obj/default/lwip/src/netif/ppp/ppp_oe.o
 .debug_aranges
                0x00000608       0x18 obj/default/lwip/src/netif/ppp/randm.o
 .debug_aranges
                0x00000620       0x18 obj/default/lwip/src/netif/ppp/vj.o
 .debug_aranges
                0x00000638       0x18 obj/default/lwip/src/netif/slipif.o
 .debug_aranges
                0x00000650       0x20 obj/default/main.o
 .debug_aranges
                0x00000670       0x18 c:/altera/13.1/nios2eds/bin/gnu/h-i686-mingw32/bin/../lib/gcc/nios2-elf/4.7.3/../../../../../H-i686-mingw32/nios2-elf/lib\libc.a(lib_a-impure.o)
 .debug_aranges
                0x00000688       0x20 c:/altera/13.1/nios2eds/bin/gnu/h-i686-mingw32/bin/../lib/gcc/nios2-elf/4.7.3/../../../../../H-i686-mingw32/nios2-elf/lib\libc.a(lib_a-memcpy.o)
 .debug_aranges
                0x000006a8       0x20 c:/altera/13.1/nios2eds/bin/gnu/h-i686-mingw32/bin/../lib/gcc/nios2-elf/4.7.3/../../../../../H-i686-mingw32/nios2-elf/lib\libc.a(lib_a-memset.o)
 .debug_aranges
                0x000006c8       0x20 c:/altera/13.1/nios2eds/bin/gnu/h-i686-mingw32/bin/../lib/gcc/nios2-elf/4.7.3/../../../../../H-i686-mingw32/nios2-elf/lib\libc.a(lib_a-printf.o)
 .debug_aranges
                0x000006e8       0x20 c:/altera/13.1/nios2eds/bin/gnu/h-i686-mingw32/bin/../lib/gcc/nios2-elf/4.7.3/../../../../../H-i686-mingw32/nios2-elf/lib\libc.a(lib_a-putc.o)
 .debug_aranges
                0x00000708       0x20 c:/altera/13.1/nios2eds/bin/gnu/h-i686-mingw32/bin/../lib/gcc/nios2-elf/4.7.3/../../../../../H-i686-mingw32/nios2-elf/lib\libc.a(lib_a-putchar.o)
 .debug_aranges
                0x00000728       0x20 c:/altera/13.1/nios2eds/bin/gnu/h-i686-mingw32/bin/../lib/gcc/nios2-elf/4.7.3/../../../../../H-i686-mingw32/nios2-elf/lib\libc.a(lib_a-puts.o)
 .debug_aranges
                0x00000748       0x20 c:/altera/13.1/nios2eds/bin/gnu/h-i686-mingw32/bin/../lib/gcc/nios2-elf/4.7.3/../../../../../H-i686-mingw32/nios2-elf/lib\libc.a(lib_a-strcmp.o)
 .debug_aranges
                0x00000768       0x20 c:/altera/13.1/nios2eds/bin/gnu/h-i686-mingw32/bin/../lib/gcc/nios2-elf/4.7.3/../../../../../H-i686-mingw32/nios2-elf/lib\libc.a(lib_a-strlen.o)
 .debug_aranges
                0x00000788       0x20 c:/altera/13.1/nios2eds/bin/gnu/h-i686-mingw32/bin/../lib/gcc/nios2-elf/4.7.3/../../../../../H-i686-mingw32/nios2-elf/lib\libc.a(lib_a-strncmp.o)
 .debug_aranges
                0x000007a8       0x20 c:/altera/13.1/nios2eds/bin/gnu/h-i686-mingw32/bin/../lib/gcc/nios2-elf/4.7.3/../../../../../H-i686-mingw32/nios2-elf/lib\libc.a(lib_a-vfprintf.o)
 .debug_aranges
                0x000007c8       0x20 c:/altera/13.1/nios2eds/bin/gnu/h-i686-mingw32/bin/../lib/gcc/nios2-elf/4.7.3/../../../../../H-i686-mingw32/nios2-elf/lib\libc.a(lib_a-wbuf.o)
 .debug_aranges
                0x000007e8       0x20 c:/altera/13.1/nios2eds/bin/gnu/h-i686-mingw32/bin/../lib/gcc/nios2-elf/4.7.3/../../../../../H-i686-mingw32/nios2-elf/lib\libc.a(lib_a-wsetup.o)
 .debug_aranges
                0x00000808       0x20 c:/altera/13.1/nios2eds/bin/gnu/h-i686-mingw32/bin/../lib/gcc/nios2-elf/4.7.3/../../../../../H-i686-mingw32/nios2-elf/lib\libc.a(lib_a-dtoa.o)
 .debug_aranges
                0x00000828       0x20 c:/altera/13.1/nios2eds/bin/gnu/h-i686-mingw32/bin/../lib/gcc/nios2-elf/4.7.3/../../../../../H-i686-mingw32/nios2-elf/lib\libc.a(lib_a-fflush.o)
 .debug_aranges
                0x00000848       0x20 c:/altera/13.1/nios2eds/bin/gnu/h-i686-mingw32/bin/../lib/gcc/nios2-elf/4.7.3/../../../../../H-i686-mingw32/nios2-elf/lib\libc.a(lib_a-findfp.o)
 .debug_aranges
                0x00000868       0x20 c:/altera/13.1/nios2eds/bin/gnu/h-i686-mingw32/bin/../lib/gcc/nios2-elf/4.7.3/../../../../../H-i686-mingw32/nios2-elf/lib\libc.a(lib_a-freer.o)
 .debug_aranges
                0x00000888       0x20 c:/altera/13.1/nios2eds/bin/gnu/h-i686-mingw32/bin/../lib/gcc/nios2-elf/4.7.3/../../../../../H-i686-mingw32/nios2-elf/lib\libc.a(lib_a-fvwrite.o)
 .debug_aranges
                0x000008a8       0x20 c:/altera/13.1/nios2eds/bin/gnu/h-i686-mingw32/bin/../lib/gcc/nios2-elf/4.7.3/../../../../../H-i686-mingw32/nios2-elf/lib\libc.a(lib_a-fwalk.o)
 .debug_aranges
                0x000008c8       0x20 c:/altera/13.1/nios2eds/bin/gnu/h-i686-mingw32/bin/../lib/gcc/nios2-elf/4.7.3/../../../../../H-i686-mingw32/nios2-elf/lib\libc.a(lib_a-locale.o)
 .debug_aranges
                0x000008e8       0x20 c:/altera/13.1/nios2eds/bin/gnu/h-i686-mingw32/bin/../lib/gcc/nios2-elf/4.7.3/../../../../../H-i686-mingw32/nios2-elf/lib\libc.a(lib_a-makebuf.o)
 .debug_aranges
                0x00000908       0x20 c:/altera/13.1/nios2eds/bin/gnu/h-i686-mingw32/bin/../lib/gcc/nios2-elf/4.7.3/../../../../../H-i686-mingw32/nios2-elf/lib\libc.a(lib_a-mallocr.o)
 .debug_aranges
                0x00000928       0x20 c:/altera/13.1/nios2eds/bin/gnu/h-i686-mingw32/bin/../lib/gcc/nios2-elf/4.7.3/../../../../../H-i686-mingw32/nios2-elf/lib\libc.a(lib_a-memchr.o)
 .debug_aranges
                0x00000948       0x20 c:/altera/13.1/nios2eds/bin/gnu/h-i686-mingw32/bin/../lib/gcc/nios2-elf/4.7.3/../../../../../H-i686-mingw32/nios2-elf/lib\libc.a(lib_a-memmove.o)
 .debug_aranges
                0x00000968       0x20 c:/altera/13.1/nios2eds/bin/gnu/h-i686-mingw32/bin/../lib/gcc/nios2-elf/4.7.3/../../../../../H-i686-mingw32/nios2-elf/lib\libc.a(lib_a-mprec.o)
 .debug_aranges
                0x00000988       0x20 c:/altera/13.1/nios2eds/bin/gnu/h-i686-mingw32/bin/../lib/gcc/nios2-elf/4.7.3/../../../../../H-i686-mingw32/nios2-elf/lib\libc.a(lib_a-reallocr.o)
 .debug_aranges
                0x000009a8       0x20 c:/altera/13.1/nios2eds/bin/gnu/h-i686-mingw32/bin/../lib/gcc/nios2-elf/4.7.3/../../../../../H-i686-mingw32/nios2-elf/lib\libc.a(lib_a-s_isinfd.o)
 .debug_aranges
                0x000009c8       0x20 c:/altera/13.1/nios2eds/bin/gnu/h-i686-mingw32/bin/../lib/gcc/nios2-elf/4.7.3/../../../../../H-i686-mingw32/nios2-elf/lib\libc.a(lib_a-s_isnand.o)
 .debug_aranges
                0x000009e8       0x20 c:/altera/13.1/nios2eds/bin/gnu/h-i686-mingw32/bin/../lib/gcc/nios2-elf/4.7.3/../../../../../H-i686-mingw32/nios2-elf/lib\libc.a(lib_a-sbrkr.o)
 .debug_aranges
                0x00000a08       0x20 c:/altera/13.1/nios2eds/bin/gnu/h-i686-mingw32/bin/../lib/gcc/nios2-elf/4.7.3/../../../../../H-i686-mingw32/nios2-elf/lib\libc.a(lib_a-stdio.o)
 .debug_aranges
                0x00000a28       0x20 c:/altera/13.1/nios2eds/bin/gnu/h-i686-mingw32/bin/../lib/gcc/nios2-elf/4.7.3/../../../../../H-i686-mingw32/nios2-elf/lib\libc.a(lib_a-writer.o)
 .debug_aranges
                0x00000a48       0x20 c:/altera/13.1/nios2eds/bin/gnu/h-i686-mingw32/bin/../lib/gcc/nios2-elf/4.7.3/../../../../../H-i686-mingw32/nios2-elf/lib\libc.a(lib_a-callocr.o)
 .debug_aranges
                0x00000a68       0x20 c:/altera/13.1/nios2eds/bin/gnu/h-i686-mingw32/bin/../lib/gcc/nios2-elf/4.7.3/../../../../../H-i686-mingw32/nios2-elf/lib\libc.a(lib_a-closer.o)
 .debug_aranges
                0x00000a88       0x20 c:/altera/13.1/nios2eds/bin/gnu/h-i686-mingw32/bin/../lib/gcc/nios2-elf/4.7.3/../../../../../H-i686-mingw32/nios2-elf/lib\libc.a(lib_a-fclose.o)
 .debug_aranges
                0x00000aa8       0x20 c:/altera/13.1/nios2eds/bin/gnu/h-i686-mingw32/bin/../lib/gcc/nios2-elf/4.7.3/../../../../../H-i686-mingw32/nios2-elf/lib\libc.a(lib_a-fstatr.o)
 .debug_aranges
                0x00000ac8       0x18 c:/altera/13.1/nios2eds/bin/gnu/h-i686-mingw32/bin/../lib/gcc/nios2-elf/4.7.3/../../../../../H-i686-mingw32/nios2-elf/lib\libc.a(lib_a-int_errno.o)
 .debug_aranges
                0x00000ae0       0x20 c:/altera/13.1/nios2eds/bin/gnu/h-i686-mingw32/bin/../lib/gcc/nios2-elf/4.7.3/../../../../../H-i686-mingw32/nios2-elf/lib\libc.a(lib_a-isattyr.o)
 .debug_aranges
                0x00000b00       0x20 c:/altera/13.1/nios2eds/bin/gnu/h-i686-mingw32/bin/../lib/gcc/nios2-elf/4.7.3/../../../../../H-i686-mingw32/nios2-elf/lib\libc.a(lib_a-lseekr.o)
 .debug_aranges
                0x00000b20       0x20 c:/altera/13.1/nios2eds/bin/gnu/h-i686-mingw32/bin/../lib/gcc/nios2-elf/4.7.3/../../../../../H-i686-mingw32/nios2-elf/lib\libc.a(lib_a-readr.o)
 .debug_aranges
                0x00000b40       0x20 c:/altera/13.1/nios2eds/bin/gnu/h-i686-mingw32/bin/../lib/gcc/nios2-elf/4.7.3\libgcc.a(_udivdi3.o)
 .debug_aranges
                0x00000b60       0x20 c:/altera/13.1/nios2eds/bin/gnu/h-i686-mingw32/bin/../lib/gcc/nios2-elf/4.7.3\libgcc.a(_umoddi3.o)
 .debug_aranges
                0x00000b80       0x20 c:/altera/13.1/nios2eds/bin/gnu/h-i686-mingw32/bin/../lib/gcc/nios2-elf/4.7.3\libgcc.a(_addsub_df.o)
 .debug_aranges
                0x00000ba0       0x20 c:/altera/13.1/nios2eds/bin/gnu/h-i686-mingw32/bin/../lib/gcc/nios2-elf/4.7.3\libgcc.a(_mul_df.o)
 .debug_aranges
                0x00000bc0       0x20 c:/altera/13.1/nios2eds/bin/gnu/h-i686-mingw32/bin/../lib/gcc/nios2-elf/4.7.3\libgcc.a(_div_df.o)
 .debug_aranges
                0x00000be0       0x20 c:/altera/13.1/nios2eds/bin/gnu/h-i686-mingw32/bin/../lib/gcc/nios2-elf/4.7.3\libgcc.a(_eq_df.o)
 .debug_aranges
                0x00000c00       0x20 c:/altera/13.1/nios2eds/bin/gnu/h-i686-mingw32/bin/../lib/gcc/nios2-elf/4.7.3\libgcc.a(_ne_df.o)
 .debug_aranges
                0x00000c20       0x20 c:/altera/13.1/nios2eds/bin/gnu/h-i686-mingw32/bin/../lib/gcc/nios2-elf/4.7.3\libgcc.a(_gt_df.o)
 .debug_aranges
                0x00000c40       0x20 c:/altera/13.1/nios2eds/bin/gnu/h-i686-mingw32/bin/../lib/gcc/nios2-elf/4.7.3\libgcc.a(_ge_df.o)
 .debug_aranges
                0x00000c60       0x20 c:/altera/13.1/nios2eds/bin/gnu/h-i686-mingw32/bin/../lib/gcc/nios2-elf/4.7.3\libgcc.a(_lt_df.o)
 .debug_aranges
                0x00000c80       0x20 c:/altera/13.1/nios2eds/bin/gnu/h-i686-mingw32/bin/../lib/gcc/nios2-elf/4.7.3\libgcc.a(_si_to_df.o)
 .debug_aranges
                0x00000ca0       0x20 c:/altera/13.1/nios2eds/bin/gnu/h-i686-mingw32/bin/../lib/gcc/nios2-elf/4.7.3\libgcc.a(_df_to_si.o)
 .debug_aranges
                0x00000cc0       0x18 c:/altera/13.1/nios2eds/bin/gnu/h-i686-mingw32/bin/../lib/gcc/nios2-elf/4.7.3\libgcc.a(_thenan_df.o)
 .debug_aranges
                0x00000cd8       0x20 c:/altera/13.1/nios2eds/bin/gnu/h-i686-mingw32/bin/../lib/gcc/nios2-elf/4.7.3\libgcc.a(_usi_to_df.o)
 .debug_aranges
                0x00000cf8       0x20 c:/altera/13.1/nios2eds/bin/gnu/h-i686-mingw32/bin/../lib/gcc/nios2-elf/4.7.3\libgcc.a(lib2-divmod.o)
 .debug_aranges
                0x00000d18       0x20 c:/altera/13.1/nios2eds/bin/gnu/h-i686-mingw32/bin/../lib/gcc/nios2-elf/4.7.3\libgcc.a(_muldi3.o)
 .debug_aranges
                0x00000d38       0x18 c:/altera/13.1/nios2eds/bin/gnu/h-i686-mingw32/bin/../lib/gcc/nios2-elf/4.7.3\libgcc.a(_clz.o)
 .debug_aranges
                0x00000d50       0x20 c:/altera/13.1/nios2eds/bin/gnu/h-i686-mingw32/bin/../lib/gcc/nios2-elf/4.7.3\libgcc.a(_clzsi2.o)
 .debug_aranges
                0x00000d70       0x20 c:/altera/13.1/nios2eds/bin/gnu/h-i686-mingw32/bin/../lib/gcc/nios2-elf/4.7.3\libgcc.a(_pack_df.o)
 .debug_aranges
                0x00000d90       0x20 c:/altera/13.1/nios2eds/bin/gnu/h-i686-mingw32/bin/../lib/gcc/nios2-elf/4.7.3\libgcc.a(_unpack_df.o)
 .debug_aranges
                0x00000db0       0x20 c:/altera/13.1/nios2eds/bin/gnu/h-i686-mingw32/bin/../lib/gcc/nios2-elf/4.7.3\libgcc.a(_fpcmp_parts_df.o)
 .debug_aranges
                0x00000dd0       0x20 c:/altera/13.1/nios2eds/bin/gnu/h-i686-mingw32/bin/../lib/gcc/nios2-elf/4.7.3\libgcc.a(_lshrdi3.o)
 .debug_aranges
                0x00000df0       0x20 c:/altera/13.1/nios2eds/bin/gnu/h-i686-mingw32/bin/../lib/gcc/nios2-elf/4.7.3\libgcc.a(_ashldi3.o)
 .debug_aranges
                0x00000e10       0x20 ../lwIP_NIOS_II_Example_bsp\libhal_bsp.a(alt_alarm_start.o)
 .debug_aranges
                0x00000e30       0x20 ../lwIP_NIOS_II_Example_bsp\libhal_bsp.a(alt_close.o)
 .debug_aranges
                0x00000e50       0x20 ../lwIP_NIOS_II_Example_bsp\libhal_bsp.a(alt_dev.o)
 .debug_aranges
                0x00000e70       0x18 ../lwIP_NIOS_II_Example_bsp\libhal_bsp.a(alt_errno.o)
 .debug_aranges
                0x00000e88       0x20 ../lwIP_NIOS_II_Example_bsp\libhal_bsp.a(alt_fstat.o)
 .debug_aranges
                0x00000ea8       0x20 ../lwIP_NIOS_II_Example_bsp\libhal_bsp.a(alt_isatty.o)
 .debug_aranges
                0x00000ec8       0x20 ../lwIP_NIOS_II_Example_bsp\libhal_bsp.a(alt_load.o)
 .debug_aranges
                0x00000ee8       0x20 ../lwIP_NIOS_II_Example_bsp\libhal_bsp.a(alt_lseek.o)
 .debug_aranges
                0x00000f08       0x20 ../lwIP_NIOS_II_Example_bsp\libhal_bsp.a(alt_main.o)
 .debug_aranges
                0x00000f28       0x20 ../lwIP_NIOS_II_Example_bsp\libhal_bsp.a(alt_malloc_lock.o)
 .debug_aranges
                0x00000f48       0x20 ../lwIP_NIOS_II_Example_bsp\libhal_bsp.a(alt_read.o)
 .debug_aranges
                0x00000f68       0x20 ../lwIP_NIOS_II_Example_bsp\libhal_bsp.a(alt_release_fd.o)
 .debug_aranges
                0x00000f88       0x20 ../lwIP_NIOS_II_Example_bsp\libhal_bsp.a(alt_remap_uncached.o)
 .debug_aranges
                0x00000fa8       0x20 ../lwIP_NIOS_II_Example_bsp\libhal_bsp.a(alt_sbrk.o)
 .debug_aranges
                0x00000fc8       0x20 ../lwIP_NIOS_II_Example_bsp\libhal_bsp.a(alt_tick.o)
 .debug_aranges
                0x00000fe8       0x20 ../lwIP_NIOS_II_Example_bsp\libhal_bsp.a(alt_uncached_malloc.o)
 .debug_aranges
                0x00001008       0x20 ../lwIP_NIOS_II_Example_bsp\libhal_bsp.a(alt_usleep.o)
 .debug_aranges
                0x00001028       0x20 ../lwIP_NIOS_II_Example_bsp\libhal_bsp.a(alt_write.o)
 .debug_aranges
                0x00001048       0x20 ../lwIP_NIOS_II_Example_bsp\libhal_bsp.a(alt_sys_init.o)
 .debug_aranges
                0x00001068       0x20 ../lwIP_NIOS_II_Example_bsp\libhal_bsp.a(altera_avalon_cfi_flash.o)
 .debug_aranges
                0x00001088       0x20 ../lwIP_NIOS_II_Example_bsp\libhal_bsp.a(altera_avalon_cfi_flash_table.o)
 .debug_aranges
                0x000010a8       0x20 ../lwIP_NIOS_II_Example_bsp\libhal_bsp.a(altera_avalon_jtag_uart_fd.o)
 .debug_aranges
                0x000010c8       0x20 ../lwIP_NIOS_II_Example_bsp\libhal_bsp.a(altera_avalon_jtag_uart_init.o)
 .debug_aranges
                0x000010e8       0x20 ../lwIP_NIOS_II_Example_bsp\libhal_bsp.a(altera_avalon_jtag_uart_ioctl.o)
 .debug_aranges
                0x00001108       0x20 ../lwIP_NIOS_II_Example_bsp\libhal_bsp.a(altera_avalon_jtag_uart_read.o)
 .debug_aranges
                0x00001128       0x20 ../lwIP_NIOS_II_Example_bsp\libhal_bsp.a(altera_avalon_jtag_uart_write.o)
 .debug_aranges
                0x00001148       0x20 ../lwIP_NIOS_II_Example_bsp\libhal_bsp.a(altera_avalon_lcd_16207.o)
 .debug_aranges
                0x00001168       0x20 ../lwIP_NIOS_II_Example_bsp\libhal_bsp.a(altera_avalon_lcd_16207_fd.o)
 .debug_aranges
                0x00001188       0x20 ../lwIP_NIOS_II_Example_bsp\libhal_bsp.a(altera_avalon_sgdma.o)
 .debug_aranges
                0x000011a8       0x20 ../lwIP_NIOS_II_Example_bsp\libhal_bsp.a(altera_avalon_timer_sc.o)
 .debug_aranges
                0x000011c8       0x20 ../lwIP_NIOS_II_Example_bsp\libhal_bsp.a(altera_avalon_tse.o)
 .debug_aranges
                0x000011e8       0x20 ../lwIP_NIOS_II_Example_bsp\libhal_bsp.a(altera_avalon_uart_fd.o)
 .debug_aranges
                0x00001208       0x20 ../lwIP_NIOS_II_Example_bsp\libhal_bsp.a(altera_avalon_uart_init.o)
 .debug_aranges
                0x00001228       0x20 ../lwIP_NIOS_II_Example_bsp\libhal_bsp.a(altera_avalon_uart_read.o)
 .debug_aranges
                0x00001248       0x20 ../lwIP_NIOS_II_Example_bsp\libhal_bsp.a(altera_avalon_uart_write.o)
 .debug_aranges
                0x00001268       0x20 ../lwIP_NIOS_II_Example_bsp\libhal_bsp.a(altera_vic_0_vector_tbl.o)
 .debug_aranges
                0x00001288       0x20 ../lwIP_NIOS_II_Example_bsp\libhal_bsp.a(altera_vic_funnel_non_preemptive.o)
 .debug_aranges
                0x000012a8       0x20 ../lwIP_NIOS_II_Example_bsp\libhal_bsp.a(altera_vic_irq_init.o)
 .debug_aranges
                0x000012c8       0x20 ../lwIP_NIOS_II_Example_bsp\libhal_bsp.a(altera_vic_isr_register.o)
 .debug_aranges
                0x000012e8       0x20 ../lwIP_NIOS_II_Example_bsp\libhal_bsp.a(alt_busy_sleep.o)
 .debug_aranges
                0x00001308       0x20 ../lwIP_NIOS_II_Example_bsp\libhal_bsp.a(alt_dcache_flush.o)
 .debug_aranges
                0x00001328       0x20 ../lwIP_NIOS_II_Example_bsp\libhal_bsp.a(alt_dcache_flush_all.o)
 .debug_aranges
                0x00001348       0x20 ../lwIP_NIOS_II_Example_bsp\libhal_bsp.a(alt_dev_llist_insert.o)
 .debug_aranges
                0x00001368       0x20 ../lwIP_NIOS_II_Example_bsp\libhal_bsp.a(alt_do_ctors.o)
 .debug_aranges
                0x00001388       0x20 ../lwIP_NIOS_II_Example_bsp\libhal_bsp.a(alt_do_dtors.o)
 .debug_aranges
                0x000013a8       0x20 ../lwIP_NIOS_II_Example_bsp\libhal_bsp.a(alt_find_dev.o)
 .debug_aranges
                0x000013c8       0x20 ../lwIP_NIOS_II_Example_bsp\libhal_bsp.a(alt_flash_dev.o)
 .debug_aranges
                0x000013e8       0x20 ../lwIP_NIOS_II_Example_bsp\libhal_bsp.a(alt_icache_flush_all.o)
 .debug_aranges
                0x00001408       0x20 ../lwIP_NIOS_II_Example_bsp\libhal_bsp.a(alt_io_redirect.o)
 .debug_aranges
                0x00001428       0x20 ../lwIP_NIOS_II_Example_bsp\libhal_bsp.a(alt_open.o)
 .debug_aranges
                0x00001448       0x20 ../lwIP_NIOS_II_Example_bsp\libhal_bsp.a(altera_avalon_cfi_flash_amd.o)
 .debug_aranges
                0x00001468       0x20 ../lwIP_NIOS_II_Example_bsp\libhal_bsp.a(altera_avalon_cfi_flash_intel.o)
 .debug_aranges
                0x00001488       0x20 ../lwIP_NIOS_II_Example_bsp\libhal_bsp.a(alt_find_file.o)
 .debug_aranges
                0x000014a8       0x20 ../lwIP_NIOS_II_Example_bsp\libhal_bsp.a(alt_get_fd.o)
 .debug_aranges
                0x000014c8       0x20 ../lwIP_NIOS_II_Example_bsp\libhal_bsp.a(alt_icache_flush.o)
 .debug_aranges
                0x000014e8       0x20 c:/altera/13.1/nios2eds/bin/gnu/h-i686-mingw32/bin/../lib/gcc/nios2-elf/4.7.3/../../../../../H-i686-mingw32/nios2-elf/lib\libc.a(lib_a-atexit.o)
 .debug_aranges
                0x00001508       0x18 c:/altera/13.1/nios2eds/bin/gnu/h-i686-mingw32/bin/../lib/gcc/nios2-elf/4.7.3/../../../../../H-i686-mingw32/nios2-elf/lib\libc.a(lib_a-ctype_.o)
 .debug_aranges
                0x00001520       0x20 c:/altera/13.1/nios2eds/bin/gnu/h-i686-mingw32/bin/../lib/gcc/nios2-elf/4.7.3/../../../../../H-i686-mingw32/nios2-elf/lib\libc.a(lib_a-exit.o)
 .debug_aranges
                0x00001540       0x20 c:/altera/13.1/nios2eds/bin/gnu/h-i686-mingw32/bin/../lib/gcc/nios2-elf/4.7.3/../../../../../H-i686-mingw32/nios2-elf/lib\libc.a(lib_a-malloc.o)
 .debug_aranges
                0x00001560       0x20 c:/altera/13.1/nios2eds/bin/gnu/h-i686-mingw32/bin/../lib/gcc/nios2-elf/4.7.3/../../../../../H-i686-mingw32/nios2-elf/lib\libc.a(lib_a-memcmp.o)
 .debug_aranges
                0x00001580       0x20 c:/altera/13.1/nios2eds/bin/gnu/h-i686-mingw32/bin/../lib/gcc/nios2-elf/4.7.3/../../../../../H-i686-mingw32/nios2-elf/lib\libc.a(lib_a-strcpy.o)
 .debug_aranges
                0x000015a0       0x20 c:/altera/13.1/nios2eds/bin/gnu/h-i686-mingw32/bin/../lib/gcc/nios2-elf/4.7.3/../../../../../H-i686-mingw32/nios2-elf/lib\libc.a(lib_a-__atexit.o)
 .debug_aranges
                0x000015c0       0x20 c:/altera/13.1/nios2eds/bin/gnu/h-i686-mingw32/bin/../lib/gcc/nios2-elf/4.7.3/../../../../../H-i686-mingw32/nios2-elf/lib\libc.a(lib_a-__call_atexit.o)
 .debug_aranges
                0x000015e0       0x20 ../lwIP_NIOS_II_Example_bsp\libhal_bsp.a(alt_exit.o)

.debug_pubnames
 *(.debug_pubnames)

.debug_info     0x00000000    0x3dd00
 *(.debug_info .gnu.linkonce.wi.*)
 .debug_info    0x00000000       0x85 ../lwIP_NIOS_II_Example_bsp/obj/HAL/src/crt0.o
 .debug_info    0x00000085      0x86e obj/default/drivers/alteraTseEthernetif.o
 .debug_info    0x000008f3      0x228 obj/default/drivers/fs.o
 .debug_info    0x00000b1b      0xa17 obj/default/drivers/httpd.o
 .debug_info    0x00001532     0x19a7 obj/default/drivers/lwip_tse_mac.o
 .debug_info    0x00002ed9      0x97c obj/default/drivers/tse_my_system.o
 .debug_info    0x00003855       0x72 obj/default/lwip/src/api/api_lib.o
 .debug_info    0x000038c7       0x72 obj/default/lwip/src/api/api_msg.o
 .debug_info    0x00003939       0xe9 obj/default/lwip/src/api/err.o
 .debug_info    0x00003a22       0x72 obj/default/lwip/src/api/netbuf.o
 .debug_info    0x00003a94       0x72 obj/default/lwip/src/api/netdb.o
 .debug_info    0x00003b06       0x72 obj/default/lwip/src/api/netifapi.o
 .debug_info    0x00003b78       0x72 obj/default/lwip/src/api/sockets.o
 .debug_info    0x00003bea       0x72 obj/default/lwip/src/api/tcpip.o
 .debug_info    0x00003c5c     0x1132 obj/default/lwip/src/core/dhcp.o
 .debug_info    0x00004d8e       0x72 obj/default/lwip/src/core/dns.o
 .debug_info    0x00004e00       0xa5 obj/default/lwip/src/core/init.o
 .debug_info    0x00004ea5       0x72 obj/default/lwip/src/core/ipv4/autoip.o
 .debug_info    0x00004f17      0x810 obj/default/lwip/src/core/ipv4/icmp.o
 .debug_info    0x00005727       0x72 obj/default/lwip/src/core/ipv4/igmp.o
 .debug_info    0x00005799      0x24f obj/default/lwip/src/core/ipv4/inet.o
 .debug_info    0x000059e8      0x2ce obj/default/lwip/src/core/ipv4/inet_chksum.o
 .debug_info    0x00005cb6      0xbe9 obj/default/lwip/src/core/ipv4/ip.o
 .debug_info    0x0000689f      0x321 obj/default/lwip/src/core/ipv4/ip_addr.o
 .debug_info    0x00006bc0      0xb40 obj/default/lwip/src/core/ipv4/ip_frag.o
 .debug_info    0x00007700      0x5d9 obj/default/lwip/src/core/mem.o
 .debug_info    0x00007cd9      0x4c7 obj/default/lwip/src/core/memp.o
 .debug_info    0x000081a0      0xf60 obj/default/lwip/src/core/netif.o
 .debug_info    0x00009100      0x6b6 obj/default/lwip/src/core/pbuf.o
 .debug_info    0x000097b6      0x6f6 obj/default/lwip/src/core/raw.o
 .debug_info    0x00009eac       0x72 obj/default/lwip/src/core/snmp/asn1_dec.o
 .debug_info    0x00009f1e       0x72 obj/default/lwip/src/core/snmp/asn1_enc.o
 .debug_info    0x00009f90       0x72 obj/default/lwip/src/core/snmp/mib2.o
 .debug_info    0x0000a002       0x72 obj/default/lwip/src/core/snmp/mib_structs.o
 .debug_info    0x0000a074       0x72 obj/default/lwip/src/core/snmp/msg_in.o
 .debug_info    0x0000a0e6       0x72 obj/default/lwip/src/core/snmp/msg_out.o
 .debug_info    0x0000a158      0x2f3 obj/default/lwip/src/core/stats.o
 .debug_info    0x0000a44b       0x72 obj/default/lwip/src/core/sys.o
 .debug_info    0x0000a4bd     0x15fa obj/default/lwip/src/core/tcp.o
 .debug_info    0x0000bab7      0xfce obj/default/lwip/src/core/tcp_in.o
 .debug_info    0x0000ca85     0x100a obj/default/lwip/src/core/tcp_out.o
 .debug_info    0x0000da8f      0xdb5 obj/default/lwip/src/core/udp.o
 .debug_info    0x0000e844     0x11bb obj/default/lwip/src/netif/etharp.o
 .debug_info    0x0000f9ff       0x72 obj/default/lwip/src/netif/ethernetif.o
 .debug_info    0x0000fa71       0x72 obj/default/lwip/src/netif/loopif.o
 .debug_info    0x0000fae3       0x72 obj/default/lwip/src/netif/ppp/auth.o
 .debug_info    0x0000fb55       0x72 obj/default/lwip/src/netif/ppp/chap.o
 .debug_info    0x0000fbc7       0x72 obj/default/lwip/src/netif/ppp/chpms.o
 .debug_info    0x0000fc39       0x72 obj/default/lwip/src/netif/ppp/fsm.o
 .debug_info    0x0000fcab       0x72 obj/default/lwip/src/netif/ppp/ipcp.o
 .debug_info    0x0000fd1d       0x72 obj/default/lwip/src/netif/ppp/lcp.o
 .debug_info    0x0000fd8f       0x72 obj/default/lwip/src/netif/ppp/magic.o
 .debug_info    0x0000fe01       0x72 obj/default/lwip/src/netif/ppp/md5.o
 .debug_info    0x0000fe73       0x72 obj/default/lwip/src/netif/ppp/pap.o
 .debug_info    0x0000fee5       0x72 obj/default/lwip/src/netif/ppp/ppp.o
 .debug_info    0x0000ff57       0x72 obj/default/lwip/src/netif/ppp/ppp_oe.o
 .debug_info    0x0000ffc9       0x72 obj/default/lwip/src/netif/ppp/randm.o
 .debug_info    0x0001003b       0x72 obj/default/lwip/src/netif/ppp/vj.o
 .debug_info    0x000100ad       0x72 obj/default/lwip/src/netif/slipif.o
 .debug_info    0x0001011f     0x11e8 obj/default/main.o
 .debug_info    0x00011307      0x938 c:/altera/13.1/nios2eds/bin/gnu/h-i686-mingw32/bin/../lib/gcc/nios2-elf/4.7.3/../../../../../H-i686-mingw32/nios2-elf/lib\libc.a(lib_a-impure.o)
 .debug_info    0x00011c3f      0x10e c:/altera/13.1/nios2eds/bin/gnu/h-i686-mingw32/bin/../lib/gcc/nios2-elf/4.7.3/../../../../../H-i686-mingw32/nios2-elf/lib\libc.a(lib_a-memcpy.o)
 .debug_info    0x00011d4d      0x117 c:/altera/13.1/nios2eds/bin/gnu/h-i686-mingw32/bin/../lib/gcc/nios2-elf/4.7.3/../../../../../H-i686-mingw32/nios2-elf/lib\libc.a(lib_a-memset.o)
 .debug_info    0x00011e64      0xa6c c:/altera/13.1/nios2eds/bin/gnu/h-i686-mingw32/bin/../lib/gcc/nios2-elf/4.7.3/../../../../../H-i686-mingw32/nios2-elf/lib\libc.a(lib_a-printf.o)
 .debug_info    0x000128d0      0xa2e c:/altera/13.1/nios2eds/bin/gnu/h-i686-mingw32/bin/../lib/gcc/nios2-elf/4.7.3/../../../../../H-i686-mingw32/nios2-elf/lib\libc.a(lib_a-putc.o)
 .debug_info    0x000132fe      0x9d7 c:/altera/13.1/nios2eds/bin/gnu/h-i686-mingw32/bin/../lib/gcc/nios2-elf/4.7.3/../../../../../H-i686-mingw32/nios2-elf/lib\libc.a(lib_a-putchar.o)
 .debug_info    0x00013cd5      0xab7 c:/altera/13.1/nios2eds/bin/gnu/h-i686-mingw32/bin/../lib/gcc/nios2-elf/4.7.3/../../../../../H-i686-mingw32/nios2-elf/lib\libc.a(lib_a-puts.o)
 .debug_info    0x0001478c       0xe1 c:/altera/13.1/nios2eds/bin/gnu/h-i686-mingw32/bin/../lib/gcc/nios2-elf/4.7.3/../../../../../H-i686-mingw32/nios2-elf/lib\libc.a(lib_a-strcmp.o)
 .debug_info    0x0001486d       0xdf c:/altera/13.1/nios2eds/bin/gnu/h-i686-mingw32/bin/../lib/gcc/nios2-elf/4.7.3/../../../../../H-i686-mingw32/nios2-elf/lib\libc.a(lib_a-strlen.o)
 .debug_info    0x0001494c       0xf9 c:/altera/13.1/nios2eds/bin/gnu/h-i686-mingw32/bin/../lib/gcc/nios2-elf/4.7.3/../../../../../H-i686-mingw32/nios2-elf/lib\libc.a(lib_a-strncmp.o)
 .debug_info    0x00014a45     0x195a c:/altera/13.1/nios2eds/bin/gnu/h-i686-mingw32/bin/../lib/gcc/nios2-elf/4.7.3/../../../../../H-i686-mingw32/nios2-elf/lib\libc.a(lib_a-vfprintf.o)
 .debug_info    0x0001639f      0xa6e c:/altera/13.1/nios2eds/bin/gnu/h-i686-mingw32/bin/../lib/gcc/nios2-elf/4.7.3/../../../../../H-i686-mingw32/nios2-elf/lib\libc.a(lib_a-wbuf.o)
 .debug_info    0x00016e0d      0x9d4 c:/altera/13.1/nios2eds/bin/gnu/h-i686-mingw32/bin/../lib/gcc/nios2-elf/4.7.3/../../../../../H-i686-mingw32/nios2-elf/lib\libc.a(lib_a-wsetup.o)
 .debug_info    0x000177e1     0x1408 c:/altera/13.1/nios2eds/bin/gnu/h-i686-mingw32/bin/../lib/gcc/nios2-elf/4.7.3/../../../../../H-i686-mingw32/nios2-elf/lib\libc.a(lib_a-dtoa.o)
 .debug_info    0x00018be9      0xad0 c:/altera/13.1/nios2eds/bin/gnu/h-i686-mingw32/bin/../lib/gcc/nios2-elf/4.7.3/../../../../../H-i686-mingw32/nios2-elf/lib\libc.a(lib_a-fflush.o)
 .debug_info    0x000196b9      0xd6f c:/altera/13.1/nios2eds/bin/gnu/h-i686-mingw32/bin/../lib/gcc/nios2-elf/4.7.3/../../../../../H-i686-mingw32/nios2-elf/lib\libc.a(lib_a-findfp.o)
 .debug_info    0x0001a428      0xcf9 c:/altera/13.1/nios2eds/bin/gnu/h-i686-mingw32/bin/../lib/gcc/nios2-elf/4.7.3/../../../../../H-i686-mingw32/nios2-elf/lib\libc.a(lib_a-freer.o)
 .debug_info    0x0001b121      0xd05 c:/altera/13.1/nios2eds/bin/gnu/h-i686-mingw32/bin/../lib/gcc/nios2-elf/4.7.3/../../../../../H-i686-mingw32/nios2-elf/lib\libc.a(lib_a-fvwrite.o)
 .debug_info    0x0001be26      0xb72 c:/altera/13.1/nios2eds/bin/gnu/h-i686-mingw32/bin/../lib/gcc/nios2-elf/4.7.3/../../../../../H-i686-mingw32/nios2-elf/lib\libc.a(lib_a-fwalk.o)
 .debug_info    0x0001c998      0xc10 c:/altera/13.1/nios2eds/bin/gnu/h-i686-mingw32/bin/../lib/gcc/nios2-elf/4.7.3/../../../../../H-i686-mingw32/nios2-elf/lib\libc.a(lib_a-locale.o)
 .debug_info    0x0001d5a8      0xbc2 c:/altera/13.1/nios2eds/bin/gnu/h-i686-mingw32/bin/../lib/gcc/nios2-elf/4.7.3/../../../../../H-i686-mingw32/nios2-elf/lib\libc.a(lib_a-makebuf.o)
 .debug_info    0x0001e16a      0xe44 c:/altera/13.1/nios2eds/bin/gnu/h-i686-mingw32/bin/../lib/gcc/nios2-elf/4.7.3/../../../../../H-i686-mingw32/nios2-elf/lib\libc.a(lib_a-mallocr.o)
 .debug_info    0x0001efae      0x13e c:/altera/13.1/nios2eds/bin/gnu/h-i686-mingw32/bin/../lib/gcc/nios2-elf/4.7.3/../../../../../H-i686-mingw32/nios2-elf/lib\libc.a(lib_a-memchr.o)
 .debug_info    0x0001f0ec      0x146 c:/altera/13.1/nios2eds/bin/gnu/h-i686-mingw32/bin/../lib/gcc/nios2-elf/4.7.3/../../../../../H-i686-mingw32/nios2-elf/lib\libc.a(lib_a-memmove.o)
 .debug_info    0x0001f232     0x172a c:/altera/13.1/nios2eds/bin/gnu/h-i686-mingw32/bin/../lib/gcc/nios2-elf/4.7.3/../../../../../H-i686-mingw32/nios2-elf/lib\libc.a(lib_a-mprec.o)
 .debug_info    0x0002095c      0xd8e c:/altera/13.1/nios2eds/bin/gnu/h-i686-mingw32/bin/../lib/gcc/nios2-elf/4.7.3/../../../../../H-i686-mingw32/nios2-elf/lib\libc.a(lib_a-reallocr.o)
 .debug_info    0x000216ea       0xe8 c:/altera/13.1/nios2eds/bin/gnu/h-i686-mingw32/bin/../lib/gcc/nios2-elf/4.7.3/../../../../../H-i686-mingw32/nios2-elf/lib\libc.a(lib_a-s_isinfd.o)
 .debug_info    0x000217d2       0xe8 c:/altera/13.1/nios2eds/bin/gnu/h-i686-mingw32/bin/../lib/gcc/nios2-elf/4.7.3/../../../../../H-i686-mingw32/nios2-elf/lib\libc.a(lib_a-s_isnand.o)
 .debug_info    0x000218ba      0x9a3 c:/altera/13.1/nios2eds/bin/gnu/h-i686-mingw32/bin/../lib/gcc/nios2-elf/4.7.3/../../../../../H-i686-mingw32/nios2-elf/lib\libc.a(lib_a-sbrkr.o)
 .debug_info    0x0002225d      0xbfd c:/altera/13.1/nios2eds/bin/gnu/h-i686-mingw32/bin/../lib/gcc/nios2-elf/4.7.3/../../../../../H-i686-mingw32/nios2-elf/lib\libc.a(lib_a-stdio.o)
 .debug_info    0x00022e5a      0x9d2 c:/altera/13.1/nios2eds/bin/gnu/h-i686-mingw32/bin/../lib/gcc/nios2-elf/4.7.3/../../../../../H-i686-mingw32/nios2-elf/lib\libc.a(lib_a-writer.o)
 .debug_info    0x0002382c      0xa9b c:/altera/13.1/nios2eds/bin/gnu/h-i686-mingw32/bin/../lib/gcc/nios2-elf/4.7.3/../../../../../H-i686-mingw32/nios2-elf/lib\libc.a(lib_a-callocr.o)
 .debug_info    0x000242c7      0x97f c:/altera/13.1/nios2eds/bin/gnu/h-i686-mingw32/bin/../lib/gcc/nios2-elf/4.7.3/../../../../../H-i686-mingw32/nios2-elf/lib\libc.a(lib_a-closer.o)
 .debug_info    0x00024c46      0xa97 c:/altera/13.1/nios2eds/bin/gnu/h-i686-mingw32/bin/../lib/gcc/nios2-elf/4.7.3/../../../../../H-i686-mingw32/nios2-elf/lib\libc.a(lib_a-fclose.o)
 .debug_info    0x000256dd      0xb2f c:/altera/13.1/nios2eds/bin/gnu/h-i686-mingw32/bin/../lib/gcc/nios2-elf/4.7.3/../../../../../H-i686-mingw32/nios2-elf/lib\libc.a(lib_a-fstatr.o)
 .debug_info    0x0002620c       0x84 c:/altera/13.1/nios2eds/bin/gnu/h-i686-mingw32/bin/../lib/gcc/nios2-elf/4.7.3/../../../../../H-i686-mingw32/nios2-elf/lib\libc.a(lib_a-int_errno.o)
 .debug_info    0x00026290      0x97f c:/altera/13.1/nios2eds/bin/gnu/h-i686-mingw32/bin/../lib/gcc/nios2-elf/4.7.3/../../../../../H-i686-mingw32/nios2-elf/lib\libc.a(lib_a-isattyr.o)
 .debug_info    0x00026c0f      0x9cb c:/altera/13.1/nios2eds/bin/gnu/h-i686-mingw32/bin/../lib/gcc/nios2-elf/4.7.3/../../../../../H-i686-mingw32/nios2-elf/lib\libc.a(lib_a-lseekr.o)
 .debug_info    0x000275da      0x9cb c:/altera/13.1/nios2eds/bin/gnu/h-i686-mingw32/bin/../lib/gcc/nios2-elf/4.7.3/../../../../../H-i686-mingw32/nios2-elf/lib\libc.a(lib_a-readr.o)
 .debug_info    0x00027fa5      0x718 c:/altera/13.1/nios2eds/bin/gnu/h-i686-mingw32/bin/../lib/gcc/nios2-elf/4.7.3\libgcc.a(_udivdi3.o)
 .debug_info    0x000286bd      0x771 c:/altera/13.1/nios2eds/bin/gnu/h-i686-mingw32/bin/../lib/gcc/nios2-elf/4.7.3\libgcc.a(_umoddi3.o)
 .debug_info    0x00028e2e      0x588 c:/altera/13.1/nios2eds/bin/gnu/h-i686-mingw32/bin/../lib/gcc/nios2-elf/4.7.3\libgcc.a(_addsub_df.o)
 .debug_info    0x000293b6      0x519 c:/altera/13.1/nios2eds/bin/gnu/h-i686-mingw32/bin/../lib/gcc/nios2-elf/4.7.3\libgcc.a(_mul_df.o)
 .debug_info    0x000298cf      0x443 c:/altera/13.1/nios2eds/bin/gnu/h-i686-mingw32/bin/../lib/gcc/nios2-elf/4.7.3\libgcc.a(_div_df.o)
 .debug_info    0x00029d12      0x320 c:/altera/13.1/nios2eds/bin/gnu/h-i686-mingw32/bin/../lib/gcc/nios2-elf/4.7.3\libgcc.a(_eq_df.o)
 .debug_info    0x0002a032      0x320 c:/altera/13.1/nios2eds/bin/gnu/h-i686-mingw32/bin/../lib/gcc/nios2-elf/4.7.3\libgcc.a(_ne_df.o)
 .debug_info    0x0002a352      0x320 c:/altera/13.1/nios2eds/bin/gnu/h-i686-mingw32/bin/../lib/gcc/nios2-elf/4.7.3\libgcc.a(_gt_df.o)
 .debug_info    0x0002a672      0x320 c:/altera/13.1/nios2eds/bin/gnu/h-i686-mingw32/bin/../lib/gcc/nios2-elf/4.7.3\libgcc.a(_ge_df.o)
 .debug_info    0x0002a992      0x320 c:/altera/13.1/nios2eds/bin/gnu/h-i686-mingw32/bin/../lib/gcc/nios2-elf/4.7.3\libgcc.a(_lt_df.o)
 .debug_info    0x0002acb2      0x261 c:/altera/13.1/nios2eds/bin/gnu/h-i686-mingw32/bin/../lib/gcc/nios2-elf/4.7.3\libgcc.a(_si_to_df.o)
 .debug_info    0x0002af13      0x30b c:/altera/13.1/nios2eds/bin/gnu/h-i686-mingw32/bin/../lib/gcc/nios2-elf/4.7.3\libgcc.a(_df_to_si.o)
 .debug_info    0x0002b21e      0x155 c:/altera/13.1/nios2eds/bin/gnu/h-i686-mingw32/bin/../lib/gcc/nios2-elf/4.7.3\libgcc.a(_thenan_df.o)
 .debug_info    0x0002b373      0x284 c:/altera/13.1/nios2eds/bin/gnu/h-i686-mingw32/bin/../lib/gcc/nios2-elf/4.7.3\libgcc.a(_usi_to_df.o)
 .debug_info    0x0002b5f7      0x289 c:/altera/13.1/nios2eds/bin/gnu/h-i686-mingw32/bin/../lib/gcc/nios2-elf/4.7.3\libgcc.a(lib2-divmod.o)
 .debug_info    0x0002b880      0x1ea c:/altera/13.1/nios2eds/bin/gnu/h-i686-mingw32/bin/../lib/gcc/nios2-elf/4.7.3\libgcc.a(_muldi3.o)
 .debug_info    0x0002ba6a       0xac c:/altera/13.1/nios2eds/bin/gnu/h-i686-mingw32/bin/../lib/gcc/nios2-elf/4.7.3\libgcc.a(_clz.o)
 .debug_info    0x0002bb16      0x123 c:/altera/13.1/nios2eds/bin/gnu/h-i686-mingw32/bin/../lib/gcc/nios2-elf/4.7.3\libgcc.a(_clzsi2.o)
 .debug_info    0x0002bc39      0x2f7 c:/altera/13.1/nios2eds/bin/gnu/h-i686-mingw32/bin/../lib/gcc/nios2-elf/4.7.3\libgcc.a(_pack_df.o)
 .debug_info    0x0002bf30      0x265 c:/altera/13.1/nios2eds/bin/gnu/h-i686-mingw32/bin/../lib/gcc/nios2-elf/4.7.3\libgcc.a(_unpack_df.o)
 .debug_info    0x0002c195      0x226 c:/altera/13.1/nios2eds/bin/gnu/h-i686-mingw32/bin/../lib/gcc/nios2-elf/4.7.3\libgcc.a(_fpcmp_parts_df.o)
 .debug_info    0x0002c3bb      0x185 c:/altera/13.1/nios2eds/bin/gnu/h-i686-mingw32/bin/../lib/gcc/nios2-elf/4.7.3\libgcc.a(_lshrdi3.o)
 .debug_info    0x0002c540      0x185 c:/altera/13.1/nios2eds/bin/gnu/h-i686-mingw32/bin/../lib/gcc/nios2-elf/4.7.3\libgcc.a(_ashldi3.o)
 .debug_info    0x0002c6c5      0x301 ../lwIP_NIOS_II_Example_bsp\libhal_bsp.a(alt_alarm_start.o)
 .debug_info    0x0002c9c6      0x350 ../lwIP_NIOS_II_Example_bsp\libhal_bsp.a(alt_close.o)
 .debug_info    0x0002cd16      0x4e3 ../lwIP_NIOS_II_Example_bsp\libhal_bsp.a(alt_dev.o)
 .debug_info    0x0002d1f9       0xa3 ../lwIP_NIOS_II_Example_bsp\libhal_bsp.a(alt_errno.o)
 .debug_info    0x0002d29c      0x4d8 ../lwIP_NIOS_II_Example_bsp\libhal_bsp.a(alt_fstat.o)
 .debug_info    0x0002d774      0x4db ../lwIP_NIOS_II_Example_bsp\libhal_bsp.a(alt_isatty.o)
 .debug_info    0x0002dc4f      0x135 ../lwIP_NIOS_II_Example_bsp\libhal_bsp.a(alt_load.o)
 .debug_info    0x0002dd84      0x381 ../lwIP_NIOS_II_Example_bsp\libhal_bsp.a(alt_lseek.o)
 .debug_info    0x0002e105      0x139 ../lwIP_NIOS_II_Example_bsp\libhal_bsp.a(alt_main.o)
 .debug_info    0x0002e23e      0x950 ../lwIP_NIOS_II_Example_bsp\libhal_bsp.a(alt_malloc_lock.o)
 .debug_info    0x0002eb8e      0x500 ../lwIP_NIOS_II_Example_bsp\libhal_bsp.a(alt_read.o)
 .debug_info    0x0002f08e      0x2dd ../lwIP_NIOS_II_Example_bsp\libhal_bsp.a(alt_release_fd.o)
 .debug_info    0x0002f36b       0xc9 ../lwIP_NIOS_II_Example_bsp\libhal_bsp.a(alt_remap_uncached.o)
 .debug_info    0x0002f434      0x1e1 ../lwIP_NIOS_II_Example_bsp\libhal_bsp.a(alt_sbrk.o)
 .debug_info    0x0002f615      0x2ce ../lwIP_NIOS_II_Example_bsp\libhal_bsp.a(alt_tick.o)
 .debug_info    0x0002f8e3       0xd4 ../lwIP_NIOS_II_Example_bsp\libhal_bsp.a(alt_uncached_malloc.o)
 .debug_info    0x0002f9b7       0xad ../lwIP_NIOS_II_Example_bsp\libhal_bsp.a(alt_usleep.o)
 .debug_info    0x0002fa64      0x507 ../lwIP_NIOS_II_Example_bsp\libhal_bsp.a(alt_write.o)
 .debug_info    0x0002ff6b      0xdf3 ../lwIP_NIOS_II_Example_bsp\libhal_bsp.a(alt_sys_init.o)
 .debug_info    0x00030d5e      0x852 ../lwIP_NIOS_II_Example_bsp\libhal_bsp.a(altera_avalon_cfi_flash.o)
 .debug_info    0x000315b0      0x9e5 ../lwIP_NIOS_II_Example_bsp\libhal_bsp.a(altera_avalon_cfi_flash_table.o)
 .debug_info    0x00031f95      0x58a ../lwIP_NIOS_II_Example_bsp\libhal_bsp.a(altera_avalon_jtag_uart_fd.o)
 .debug_info    0x0003251f      0x3d8 ../lwIP_NIOS_II_Example_bsp\libhal_bsp.a(altera_avalon_jtag_uart_init.o)
 .debug_info    0x000328f7      0x2a9 ../lwIP_NIOS_II_Example_bsp\libhal_bsp.a(altera_avalon_jtag_uart_ioctl.o)
 .debug_info    0x00032ba0      0x38e ../lwIP_NIOS_II_Example_bsp\libhal_bsp.a(altera_avalon_jtag_uart_read.o)
 .debug_info    0x00032f2e      0x389 ../lwIP_NIOS_II_Example_bsp\libhal_bsp.a(altera_avalon_jtag_uart_write.o)
 .debug_info    0x000332b7      0x714 ../lwIP_NIOS_II_Example_bsp\libhal_bsp.a(altera_avalon_lcd_16207.o)
 .debug_info    0x000339cb      0x525 ../lwIP_NIOS_II_Example_bsp\libhal_bsp.a(altera_avalon_lcd_16207_fd.o)
 .debug_info    0x00033ef0      0xb3d ../lwIP_NIOS_II_Example_bsp\libhal_bsp.a(altera_avalon_sgdma.o)
 .debug_info    0x00034a2d      0x252 ../lwIP_NIOS_II_Example_bsp\libhal_bsp.a(altera_avalon_timer_sc.o)
 .debug_info    0x00034c7f     0x2642 ../lwIP_NIOS_II_Example_bsp\libhal_bsp.a(altera_avalon_tse.o)
 .debug_info    0x000372c1      0x481 ../lwIP_NIOS_II_Example_bsp\libhal_bsp.a(altera_avalon_uart_fd.o)
 .debug_info    0x00037742      0x356 ../lwIP_NIOS_II_Example_bsp\libhal_bsp.a(altera_avalon_uart_init.o)
 .debug_info    0x00037a98      0x36f ../lwIP_NIOS_II_Example_bsp\libhal_bsp.a(altera_avalon_uart_read.o)
 .debug_info    0x00037e07      0x365 ../lwIP_NIOS_II_Example_bsp\libhal_bsp.a(altera_avalon_uart_write.o)
 .debug_info    0x0003816c       0xa0 ../lwIP_NIOS_II_Example_bsp\libhal_bsp.a(altera_vic_0_vector_tbl.o)
 .debug_info    0x0003820c       0xa9 ../lwIP_NIOS_II_Example_bsp\libhal_bsp.a(altera_vic_funnel_non_preemptive.o)
 .debug_info    0x000382b5      0x1a9 ../lwIP_NIOS_II_Example_bsp\libhal_bsp.a(altera_vic_irq_init.o)
 .debug_info    0x0003845e      0x297 ../lwIP_NIOS_II_Example_bsp\libhal_bsp.a(altera_vic_isr_register.o)
 .debug_info    0x000386f5       0xd5 ../lwIP_NIOS_II_Example_bsp\libhal_bsp.a(alt_busy_sleep.o)
 .debug_info    0x000387ca       0xba ../lwIP_NIOS_II_Example_bsp\libhal_bsp.a(alt_dcache_flush.o)
 .debug_info    0x00038884       0x90 ../lwIP_NIOS_II_Example_bsp\libhal_bsp.a(alt_dcache_flush_all.o)
 .debug_info    0x00038914      0x1b9 ../lwIP_NIOS_II_Example_bsp\libhal_bsp.a(alt_dev_llist_insert.o)
 .debug_info    0x00038acd       0x8d ../lwIP_NIOS_II_Example_bsp\libhal_bsp.a(alt_do_ctors.o)
 .debug_info    0x00038b5a       0x8d ../lwIP_NIOS_II_Example_bsp\libhal_bsp.a(alt_do_dtors.o)
 .debug_info    0x00038be7      0x30d ../lwIP_NIOS_II_Example_bsp\libhal_bsp.a(alt_find_dev.o)
 .debug_info    0x00038ef4      0x3ce ../lwIP_NIOS_II_Example_bsp\libhal_bsp.a(alt_flash_dev.o)
 .debug_info    0x000392c2       0x90 ../lwIP_NIOS_II_Example_bsp\libhal_bsp.a(alt_icache_flush_all.o)
 .debug_info    0x00039352      0x4f0 ../lwIP_NIOS_II_Example_bsp\libhal_bsp.a(alt_io_redirect.o)
 .debug_info    0x00039842      0x3f0 ../lwIP_NIOS_II_Example_bsp\libhal_bsp.a(alt_open.o)
 .debug_info    0x00039c32      0x65f ../lwIP_NIOS_II_Example_bsp\libhal_bsp.a(altera_avalon_cfi_flash_amd.o)
 .debug_info    0x0003a291      0x65f ../lwIP_NIOS_II_Example_bsp\libhal_bsp.a(altera_avalon_cfi_flash_intel.o)
 .debug_info    0x0003a8f0      0x30c ../lwIP_NIOS_II_Example_bsp\libhal_bsp.a(alt_find_file.o)
 .debug_info    0x0003abfc      0x339 ../lwIP_NIOS_II_Example_bsp\libhal_bsp.a(alt_get_fd.o)
 .debug_info    0x0003af35       0xda ../lwIP_NIOS_II_Example_bsp\libhal_bsp.a(alt_icache_flush.o)
 .debug_info    0x0003b00f      0x1e6 c:/altera/13.1/nios2eds/bin/gnu/h-i686-mingw32/bin/../lib/gcc/nios2-elf/4.7.3/../../../../../H-i686-mingw32/nios2-elf/lib\libc.a(lib_a-atexit.o)
 .debug_info    0x0003b1f5       0x98 c:/altera/13.1/nios2eds/bin/gnu/h-i686-mingw32/bin/../lib/gcc/nios2-elf/4.7.3/../../../../../H-i686-mingw32/nios2-elf/lib\libc.a(lib_a-ctype_.o)
 .debug_info    0x0003b28d      0x993 c:/altera/13.1/nios2eds/bin/gnu/h-i686-mingw32/bin/../lib/gcc/nios2-elf/4.7.3/../../../../../H-i686-mingw32/nios2-elf/lib\libc.a(lib_a-exit.o)
 .debug_info    0x0003bc20      0x9c9 c:/altera/13.1/nios2eds/bin/gnu/h-i686-mingw32/bin/../lib/gcc/nios2-elf/4.7.3/../../../../../H-i686-mingw32/nios2-elf/lib\libc.a(lib_a-malloc.o)
 .debug_info    0x0003c5e9      0x117 c:/altera/13.1/nios2eds/bin/gnu/h-i686-mingw32/bin/../lib/gcc/nios2-elf/4.7.3/../../../../../H-i686-mingw32/nios2-elf/lib\libc.a(lib_a-memcmp.o)
 .debug_info    0x0003c700      0x114 c:/altera/13.1/nios2eds/bin/gnu/h-i686-mingw32/bin/../lib/gcc/nios2-elf/4.7.3/../../../../../H-i686-mingw32/nios2-elf/lib\libc.a(lib_a-strcpy.o)
 .debug_info    0x0003c814      0x9f9 c:/altera/13.1/nios2eds/bin/gnu/h-i686-mingw32/bin/../lib/gcc/nios2-elf/4.7.3/../../../../../H-i686-mingw32/nios2-elf/lib\libc.a(lib_a-__atexit.o)
 .debug_info    0x0003d20d      0xa07 c:/altera/13.1/nios2eds/bin/gnu/h-i686-mingw32/bin/../lib/gcc/nios2-elf/4.7.3/../../../../../H-i686-mingw32/nios2-elf/lib\libc.a(lib_a-__call_atexit.o)
 .debug_info    0x0003dc14       0xec ../lwIP_NIOS_II_Example_bsp\libhal_bsp.a(alt_exit.o)

.debug_abbrev   0x00000000     0xd9af
 *(.debug_abbrev)
 .debug_abbrev  0x00000000       0x12 ../lwIP_NIOS_II_Example_bsp/obj/HAL/src/crt0.o
 .debug_abbrev  0x00000012      0x1f8 obj/default/drivers/alteraTseEthernetif.o
 .debug_abbrev  0x0000020a       0xdc obj/default/drivers/fs.o
 .debug_abbrev  0x000002e6      0x165 obj/default/drivers/httpd.o
 .debug_abbrev  0x0000044b      0x215 obj/default/drivers/lwip_tse_mac.o
 .debug_abbrev  0x00000660       0xf0 obj/default/drivers/tse_my_system.o
 .debug_abbrev  0x00000750       0x26 obj/default/lwip/src/api/api_lib.o
 .debug_abbrev  0x00000776       0x26 obj/default/lwip/src/api/api_msg.o
 .debug_abbrev  0x0000079c       0x93 obj/default/lwip/src/api/err.o
 .debug_abbrev  0x0000082f       0x26 obj/default/lwip/src/api/netbuf.o
 .debug_abbrev  0x00000855       0x26 obj/default/lwip/src/api/netdb.o
 .debug_abbrev  0x0000087b       0x26 obj/default/lwip/src/api/netifapi.o
 .debug_abbrev  0x000008a1       0x26 obj/default/lwip/src/api/sockets.o
 .debug_abbrev  0x000008c7       0x26 obj/default/lwip/src/api/tcpip.o
 .debug_abbrev  0x000008ed      0x21a obj/default/lwip/src/core/dhcp.o
 .debug_abbrev  0x00000b07       0x26 obj/default/lwip/src/core/dns.o
 .debug_abbrev  0x00000b2d       0x58 obj/default/lwip/src/core/init.o
 .debug_abbrev  0x00000b85       0x26 obj/default/lwip/src/core/ipv4/autoip.o
 .debug_abbrev  0x00000bab      0x1c5 obj/default/lwip/src/core/ipv4/icmp.o
 .debug_abbrev  0x00000d70       0x26 obj/default/lwip/src/core/ipv4/igmp.o
 .debug_abbrev  0x00000d96       0xeb obj/default/lwip/src/core/ipv4/inet.o
 .debug_abbrev  0x00000e81      0x13c obj/default/lwip/src/core/ipv4/inet_chksum.o
 .debug_abbrev  0x00000fbd      0x199 obj/default/lwip/src/core/ipv4/ip.o
 .debug_abbrev  0x00001156       0xf3 obj/default/lwip/src/core/ipv4/ip_addr.o
 .debug_abbrev  0x00001249      0x1ff obj/default/lwip/src/core/ipv4/ip_frag.o
 .debug_abbrev  0x00001448      0x19f obj/default/lwip/src/core/mem.o
 .debug_abbrev  0x000015e7      0x167 obj/default/lwip/src/core/memp.o
 .debug_abbrev  0x0000174e      0x25d obj/default/lwip/src/core/netif.o
 .debug_abbrev  0x000019ab      0x1a3 obj/default/lwip/src/core/pbuf.o
 .debug_abbrev  0x00001b4e      0x1b7 obj/default/lwip/src/core/raw.o
 .debug_abbrev  0x00001d05       0x26 obj/default/lwip/src/core/snmp/asn1_dec.o
 .debug_abbrev  0x00001d2b       0x26 obj/default/lwip/src/core/snmp/asn1_enc.o
 .debug_abbrev  0x00001d51       0x26 obj/default/lwip/src/core/snmp/mib2.o
 .debug_abbrev  0x00001d77       0x26 obj/default/lwip/src/core/snmp/mib_structs.o
 .debug_abbrev  0x00001d9d       0x26 obj/default/lwip/src/core/snmp/msg_in.o
 .debug_abbrev  0x00001dc3       0x26 obj/default/lwip/src/core/snmp/msg_out.o
 .debug_abbrev  0x00001de9       0xa8 obj/default/lwip/src/core/stats.o
 .debug_abbrev  0x00001e91       0x26 obj/default/lwip/src/core/sys.o
 .debug_abbrev  0x00001eb7      0x2e4 obj/default/lwip/src/core/tcp.o
 .debug_abbrev  0x0000219b      0x23b obj/default/lwip/src/core/tcp_in.o
 .debug_abbrev  0x000023d6      0x25e obj/default/lwip/src/core/tcp_out.o
 .debug_abbrev  0x00002634      0x1e7 obj/default/lwip/src/core/udp.o
 .debug_abbrev  0x0000281b      0x21b obj/default/lwip/src/netif/etharp.o
 .debug_abbrev  0x00002a36       0x26 obj/default/lwip/src/netif/ethernetif.o
 .debug_abbrev  0x00002a5c       0x26 obj/default/lwip/src/netif/loopif.o
 .debug_abbrev  0x00002a82       0x26 obj/default/lwip/src/netif/ppp/auth.o
 .debug_abbrev  0x00002aa8       0x26 obj/default/lwip/src/netif/ppp/chap.o
 .debug_abbrev  0x00002ace       0x26 obj/default/lwip/src/netif/ppp/chpms.o
 .debug_abbrev  0x00002af4       0x26 obj/default/lwip/src/netif/ppp/fsm.o
 .debug_abbrev  0x00002b1a       0x26 obj/default/lwip/src/netif/ppp/ipcp.o
 .debug_abbrev  0x00002b40       0x26 obj/default/lwip/src/netif/ppp/lcp.o
 .debug_abbrev  0x00002b66       0x26 obj/default/lwip/src/netif/ppp/magic.o
 .debug_abbrev  0x00002b8c       0x26 obj/default/lwip/src/netif/ppp/md5.o
 .debug_abbrev  0x00002bb2       0x26 obj/default/lwip/src/netif/ppp/pap.o
 .debug_abbrev  0x00002bd8       0x26 obj/default/lwip/src/netif/ppp/ppp.o
 .debug_abbrev  0x00002bfe       0x26 obj/default/lwip/src/netif/ppp/ppp_oe.o
 .debug_abbrev  0x00002c24       0x26 obj/default/lwip/src/netif/ppp/randm.o
 .debug_abbrev  0x00002c4a       0x26 obj/default/lwip/src/netif/ppp/vj.o
 .debug_abbrev  0x00002c70       0x26 obj/default/lwip/src/netif/slipif.o
 .debug_abbrev  0x00002c96      0x23c obj/default/main.o
 .debug_abbrev  0x00002ed2      0x162 c:/altera/13.1/nios2eds/bin/gnu/h-i686-mingw32/bin/../lib/gcc/nios2-elf/4.7.3/../../../../../H-i686-mingw32/nios2-elf/lib\libc.a(lib_a-impure.o)
 .debug_abbrev  0x00003034       0x9c c:/altera/13.1/nios2eds/bin/gnu/h-i686-mingw32/bin/../lib/gcc/nios2-elf/4.7.3/../../../../../H-i686-mingw32/nios2-elf/lib\libc.a(lib_a-memcpy.o)
 .debug_abbrev  0x000030d0       0xac c:/altera/13.1/nios2eds/bin/gnu/h-i686-mingw32/bin/../lib/gcc/nios2-elf/4.7.3/../../../../../H-i686-mingw32/nios2-elf/lib\libc.a(lib_a-memset.o)
 .debug_abbrev  0x0000317c      0x209 c:/altera/13.1/nios2eds/bin/gnu/h-i686-mingw32/bin/../lib/gcc/nios2-elf/4.7.3/../../../../../H-i686-mingw32/nios2-elf/lib\libc.a(lib_a-printf.o)
 .debug_abbrev  0x00003385      0x1f8 c:/altera/13.1/nios2eds/bin/gnu/h-i686-mingw32/bin/../lib/gcc/nios2-elf/4.7.3/../../../../../H-i686-mingw32/nios2-elf/lib\libc.a(lib_a-putc.o)
 .debug_abbrev  0x0000357d      0x1cd c:/altera/13.1/nios2eds/bin/gnu/h-i686-mingw32/bin/../lib/gcc/nios2-elf/4.7.3/../../../../../H-i686-mingw32/nios2-elf/lib\libc.a(lib_a-putchar.o)
 .debug_abbrev  0x0000374a      0x208 c:/altera/13.1/nios2eds/bin/gnu/h-i686-mingw32/bin/../lib/gcc/nios2-elf/4.7.3/../../../../../H-i686-mingw32/nios2-elf/lib\libc.a(lib_a-puts.o)
 .debug_abbrev  0x00003952       0x74 c:/altera/13.1/nios2eds/bin/gnu/h-i686-mingw32/bin/../lib/gcc/nios2-elf/4.7.3/../../../../../H-i686-mingw32/nios2-elf/lib\libc.a(lib_a-strcmp.o)
 .debug_abbrev  0x000039c6       0x90 c:/altera/13.1/nios2eds/bin/gnu/h-i686-mingw32/bin/../lib/gcc/nios2-elf/4.7.3/../../../../../H-i686-mingw32/nios2-elf/lib\libc.a(lib_a-strlen.o)
 .debug_abbrev  0x00003a56       0x81 c:/altera/13.1/nios2eds/bin/gnu/h-i686-mingw32/bin/../lib/gcc/nios2-elf/4.7.3/../../../../../H-i686-mingw32/nios2-elf/lib\libc.a(lib_a-strncmp.o)
 .debug_abbrev  0x00003ad7      0x3d9 c:/altera/13.1/nios2eds/bin/gnu/h-i686-mingw32/bin/../lib/gcc/nios2-elf/4.7.3/../../../../../H-i686-mingw32/nios2-elf/lib\libc.a(lib_a-vfprintf.o)
 .debug_abbrev  0x00003eb0      0x21a c:/altera/13.1/nios2eds/bin/gnu/h-i686-mingw32/bin/../lib/gcc/nios2-elf/4.7.3/../../../../../H-i686-mingw32/nios2-elf/lib\libc.a(lib_a-wbuf.o)
 .debug_abbrev  0x000040ca      0x1d5 c:/altera/13.1/nios2eds/bin/gnu/h-i686-mingw32/bin/../lib/gcc/nios2-elf/4.7.3/../../../../../H-i686-mingw32/nios2-elf/lib\libc.a(lib_a-wsetup.o)
 .debug_abbrev  0x0000429f      0x2ab c:/altera/13.1/nios2eds/bin/gnu/h-i686-mingw32/bin/../lib/gcc/nios2-elf/4.7.3/../../../../../H-i686-mingw32/nios2-elf/lib\libc.a(lib_a-dtoa.o)
 .debug_abbrev  0x0000454a      0x259 c:/altera/13.1/nios2eds/bin/gnu/h-i686-mingw32/bin/../lib/gcc/nios2-elf/4.7.3/../../../../../H-i686-mingw32/nios2-elf/lib\libc.a(lib_a-fflush.o)
 .debug_abbrev  0x000047a3      0x317 c:/altera/13.1/nios2eds/bin/gnu/h-i686-mingw32/bin/../lib/gcc/nios2-elf/4.7.3/../../../../../H-i686-mingw32/nios2-elf/lib\libc.a(lib_a-findfp.o)
 .debug_abbrev  0x00004aba      0x25d c:/altera/13.1/nios2eds/bin/gnu/h-i686-mingw32/bin/../lib/gcc/nios2-elf/4.7.3/../../../../../H-i686-mingw32/nios2-elf/lib\libc.a(lib_a-freer.o)
 .debug_abbrev  0x00004d17      0x234 c:/altera/13.1/nios2eds/bin/gnu/h-i686-mingw32/bin/../lib/gcc/nios2-elf/4.7.3/../../../../../H-i686-mingw32/nios2-elf/lib\libc.a(lib_a-fvwrite.o)
 .debug_abbrev  0x00004f4b      0x224 c:/altera/13.1/nios2eds/bin/gnu/h-i686-mingw32/bin/../lib/gcc/nios2-elf/4.7.3/../../../../../H-i686-mingw32/nios2-elf/lib\libc.a(lib_a-fwalk.o)
 .debug_abbrev  0x0000516f      0x29f c:/altera/13.1/nios2eds/bin/gnu/h-i686-mingw32/bin/../lib/gcc/nios2-elf/4.7.3/../../../../../H-i686-mingw32/nios2-elf/lib\libc.a(lib_a-locale.o)
 .debug_abbrev  0x0000540e      0x1e8 c:/altera/13.1/nios2eds/bin/gnu/h-i686-mingw32/bin/../lib/gcc/nios2-elf/4.7.3/../../../../../H-i686-mingw32/nios2-elf/lib\libc.a(lib_a-makebuf.o)
 .debug_abbrev  0x000055f6      0x284 c:/altera/13.1/nios2eds/bin/gnu/h-i686-mingw32/bin/../lib/gcc/nios2-elf/4.7.3/../../../../../H-i686-mingw32/nios2-elf/lib\libc.a(lib_a-mallocr.o)
 .debug_abbrev  0x0000587a       0xab c:/altera/13.1/nios2eds/bin/gnu/h-i686-mingw32/bin/../lib/gcc/nios2-elf/4.7.3/../../../../../H-i686-mingw32/nios2-elf/lib\libc.a(lib_a-memchr.o)
 .debug_abbrev  0x00005925       0x9c c:/altera/13.1/nios2eds/bin/gnu/h-i686-mingw32/bin/../lib/gcc/nios2-elf/4.7.3/../../../../../H-i686-mingw32/nios2-elf/lib\libc.a(lib_a-memmove.o)
 .debug_abbrev  0x000059c1      0x394 c:/altera/13.1/nios2eds/bin/gnu/h-i686-mingw32/bin/../lib/gcc/nios2-elf/4.7.3/../../../../../H-i686-mingw32/nios2-elf/lib\libc.a(lib_a-mprec.o)
 .debug_abbrev  0x00005d55      0x242 c:/altera/13.1/nios2eds/bin/gnu/h-i686-mingw32/bin/../lib/gcc/nios2-elf/4.7.3/../../../../../H-i686-mingw32/nios2-elf/lib\libc.a(lib_a-reallocr.o)
 .debug_abbrev  0x00005f97       0x6f c:/altera/13.1/nios2eds/bin/gnu/h-i686-mingw32/bin/../lib/gcc/nios2-elf/4.7.3/../../../../../H-i686-mingw32/nios2-elf/lib\libc.a(lib_a-s_isinfd.o)
 .debug_abbrev  0x00006006       0x6f c:/altera/13.1/nios2eds/bin/gnu/h-i686-mingw32/bin/../lib/gcc/nios2-elf/4.7.3/../../../../../H-i686-mingw32/nios2-elf/lib\libc.a(lib_a-s_isnand.o)
 .debug_abbrev  0x00006075      0x1df c:/altera/13.1/nios2eds/bin/gnu/h-i686-mingw32/bin/../lib/gcc/nios2-elf/4.7.3/../../../../../H-i686-mingw32/nios2-elf/lib\libc.a(lib_a-sbrkr.o)
 .debug_abbrev  0x00006254      0x226 c:/altera/13.1/nios2eds/bin/gnu/h-i686-mingw32/bin/../lib/gcc/nios2-elf/4.7.3/../../../../../H-i686-mingw32/nios2-elf/lib\libc.a(lib_a-stdio.o)
 .debug_abbrev  0x0000647a      0x1c0 c:/altera/13.1/nios2eds/bin/gnu/h-i686-mingw32/bin/../lib/gcc/nios2-elf/4.7.3/../../../../../H-i686-mingw32/nios2-elf/lib\libc.a(lib_a-writer.o)
 .debug_abbrev  0x0000663a      0x1f5 c:/altera/13.1/nios2eds/bin/gnu/h-i686-mingw32/bin/../lib/gcc/nios2-elf/4.7.3/../../../../../H-i686-mingw32/nios2-elf/lib\libc.a(lib_a-callocr.o)
 .debug_abbrev  0x0000682f      0x1bb c:/altera/13.1/nios2eds/bin/gnu/h-i686-mingw32/bin/../lib/gcc/nios2-elf/4.7.3/../../../../../H-i686-mingw32/nios2-elf/lib\libc.a(lib_a-closer.o)
 .debug_abbrev  0x000069ea      0x24e c:/altera/13.1/nios2eds/bin/gnu/h-i686-mingw32/bin/../lib/gcc/nios2-elf/4.7.3/../../../../../H-i686-mingw32/nios2-elf/lib\libc.a(lib_a-fclose.o)
 .debug_abbrev  0x00006c38      0x1ca c:/altera/13.1/nios2eds/bin/gnu/h-i686-mingw32/bin/../lib/gcc/nios2-elf/4.7.3/../../../../../H-i686-mingw32/nios2-elf/lib\libc.a(lib_a-fstatr.o)
 .debug_abbrev  0x00006e02       0x37 c:/altera/13.1/nios2eds/bin/gnu/h-i686-mingw32/bin/../lib/gcc/nios2-elf/4.7.3/../../../../../H-i686-mingw32/nios2-elf/lib\libc.a(lib_a-int_errno.o)
 .debug_abbrev  0x00006e39      0x1bb c:/altera/13.1/nios2eds/bin/gnu/h-i686-mingw32/bin/../lib/gcc/nios2-elf/4.7.3/../../../../../H-i686-mingw32/nios2-elf/lib\libc.a(lib_a-isattyr.o)
 .debug_abbrev  0x00006ff4      0x1ca c:/altera/13.1/nios2eds/bin/gnu/h-i686-mingw32/bin/../lib/gcc/nios2-elf/4.7.3/../../../../../H-i686-mingw32/nios2-elf/lib\libc.a(lib_a-lseekr.o)
 .debug_abbrev  0x000071be      0x1bb c:/altera/13.1/nios2eds/bin/gnu/h-i686-mingw32/bin/../lib/gcc/nios2-elf/4.7.3/../../../../../H-i686-mingw32/nios2-elf/lib\libc.a(lib_a-readr.o)
 .debug_abbrev  0x00007379      0x170 c:/altera/13.1/nios2eds/bin/gnu/h-i686-mingw32/bin/../lib/gcc/nios2-elf/4.7.3\libgcc.a(_udivdi3.o)
 .debug_abbrev  0x000074e9      0x193 c:/altera/13.1/nios2eds/bin/gnu/h-i686-mingw32/bin/../lib/gcc/nios2-elf/4.7.3\libgcc.a(_umoddi3.o)
 .debug_abbrev  0x0000767c      0x22d c:/altera/13.1/nios2eds/bin/gnu/h-i686-mingw32/bin/../lib/gcc/nios2-elf/4.7.3\libgcc.a(_addsub_df.o)
 .debug_abbrev  0x000078a9      0x240 c:/altera/13.1/nios2eds/bin/gnu/h-i686-mingw32/bin/../lib/gcc/nios2-elf/4.7.3\libgcc.a(_mul_df.o)
 .debug_abbrev  0x00007ae9      0x245 c:/altera/13.1/nios2eds/bin/gnu/h-i686-mingw32/bin/../lib/gcc/nios2-elf/4.7.3\libgcc.a(_div_df.o)
 .debug_abbrev  0x00007d2e      0x1a5 c:/altera/13.1/nios2eds/bin/gnu/h-i686-mingw32/bin/../lib/gcc/nios2-elf/4.7.3\libgcc.a(_eq_df.o)
 .debug_abbrev  0x00007ed3      0x1a5 c:/altera/13.1/nios2eds/bin/gnu/h-i686-mingw32/bin/../lib/gcc/nios2-elf/4.7.3\libgcc.a(_ne_df.o)
 .debug_abbrev  0x00008078      0x1a5 c:/altera/13.1/nios2eds/bin/gnu/h-i686-mingw32/bin/../lib/gcc/nios2-elf/4.7.3\libgcc.a(_gt_df.o)
 .debug_abbrev  0x0000821d      0x1a5 c:/altera/13.1/nios2eds/bin/gnu/h-i686-mingw32/bin/../lib/gcc/nios2-elf/4.7.3\libgcc.a(_ge_df.o)
 .debug_abbrev  0x000083c2      0x1a5 c:/altera/13.1/nios2eds/bin/gnu/h-i686-mingw32/bin/../lib/gcc/nios2-elf/4.7.3\libgcc.a(_lt_df.o)
 .debug_abbrev  0x00008567      0x19c c:/altera/13.1/nios2eds/bin/gnu/h-i686-mingw32/bin/../lib/gcc/nios2-elf/4.7.3\libgcc.a(_si_to_df.o)
 .debug_abbrev  0x00008703      0x1ae c:/altera/13.1/nios2eds/bin/gnu/h-i686-mingw32/bin/../lib/gcc/nios2-elf/4.7.3\libgcc.a(_df_to_si.o)
 .debug_abbrev  0x000088b1       0xb6 c:/altera/13.1/nios2eds/bin/gnu/h-i686-mingw32/bin/../lib/gcc/nios2-elf/4.7.3\libgcc.a(_thenan_df.o)
 .debug_abbrev  0x00008967      0x1bf c:/altera/13.1/nios2eds/bin/gnu/h-i686-mingw32/bin/../lib/gcc/nios2-elf/4.7.3\libgcc.a(_usi_to_df.o)
 .debug_abbrev  0x00008b26      0x112 c:/altera/13.1/nios2eds/bin/gnu/h-i686-mingw32/bin/../lib/gcc/nios2-elf/4.7.3\libgcc.a(lib2-divmod.o)
 .debug_abbrev  0x00008c38       0xe0 c:/altera/13.1/nios2eds/bin/gnu/h-i686-mingw32/bin/../lib/gcc/nios2-elf/4.7.3\libgcc.a(_muldi3.o)
 .debug_abbrev  0x00008d18       0x5d c:/altera/13.1/nios2eds/bin/gnu/h-i686-mingw32/bin/../lib/gcc/nios2-elf/4.7.3\libgcc.a(_clz.o)
 .debug_abbrev  0x00008d75       0xbe c:/altera/13.1/nios2eds/bin/gnu/h-i686-mingw32/bin/../lib/gcc/nios2-elf/4.7.3\libgcc.a(_clzsi2.o)
 .debug_abbrev  0x00008e33      0x1b6 c:/altera/13.1/nios2eds/bin/gnu/h-i686-mingw32/bin/../lib/gcc/nios2-elf/4.7.3\libgcc.a(_pack_df.o)
 .debug_abbrev  0x00008fe9      0x15d c:/altera/13.1/nios2eds/bin/gnu/h-i686-mingw32/bin/../lib/gcc/nios2-elf/4.7.3\libgcc.a(_unpack_df.o)
 .debug_abbrev  0x00009146      0x146 c:/altera/13.1/nios2eds/bin/gnu/h-i686-mingw32/bin/../lib/gcc/nios2-elf/4.7.3\libgcc.a(_fpcmp_parts_df.o)
 .debug_abbrev  0x0000928c       0xf1 c:/altera/13.1/nios2eds/bin/gnu/h-i686-mingw32/bin/../lib/gcc/nios2-elf/4.7.3\libgcc.a(_lshrdi3.o)
 .debug_abbrev  0x0000937d       0xf1 c:/altera/13.1/nios2eds/bin/gnu/h-i686-mingw32/bin/../lib/gcc/nios2-elf/4.7.3\libgcc.a(_ashldi3.o)
 .debug_abbrev  0x0000946e      0x162 ../lwIP_NIOS_II_Example_bsp\libhal_bsp.a(alt_alarm_start.o)
 .debug_abbrev  0x000095d0      0x11f ../lwIP_NIOS_II_Example_bsp\libhal_bsp.a(alt_close.o)
 .debug_abbrev  0x000096ef       0xd9 ../lwIP_NIOS_II_Example_bsp\libhal_bsp.a(alt_dev.o)
 .debug_abbrev  0x000097c8       0x5a ../lwIP_NIOS_II_Example_bsp\libhal_bsp.a(alt_errno.o)
 .debug_abbrev  0x00009822      0x11f ../lwIP_NIOS_II_Example_bsp\libhal_bsp.a(alt_fstat.o)
 .debug_abbrev  0x00009941      0x11f ../lwIP_NIOS_II_Example_bsp\libhal_bsp.a(alt_isatty.o)
 .debug_abbrev  0x00009a60       0x9d ../lwIP_NIOS_II_Example_bsp\libhal_bsp.a(alt_load.o)
 .debug_abbrev  0x00009afd      0x11f ../lwIP_NIOS_II_Example_bsp\libhal_bsp.a(alt_lseek.o)
 .debug_abbrev  0x00009c1c       0xba ../lwIP_NIOS_II_Example_bsp\libhal_bsp.a(alt_main.o)
 .debug_abbrev  0x00009cd6      0x187 ../lwIP_NIOS_II_Example_bsp\libhal_bsp.a(alt_malloc_lock.o)
 .debug_abbrev  0x00009e5d      0x12e ../lwIP_NIOS_II_Example_bsp\libhal_bsp.a(alt_read.o)
 .debug_abbrev  0x00009f8b       0xde ../lwIP_NIOS_II_Example_bsp\libhal_bsp.a(alt_release_fd.o)
 .debug_abbrev  0x0000a069       0x77 ../lwIP_NIOS_II_Example_bsp\libhal_bsp.a(alt_remap_uncached.o)
 .debug_abbrev  0x0000a0e0      0x112 ../lwIP_NIOS_II_Example_bsp\libhal_bsp.a(alt_sbrk.o)
 .debug_abbrev  0x0000a1f2      0x15a ../lwIP_NIOS_II_Example_bsp\libhal_bsp.a(alt_tick.o)
 .debug_abbrev  0x0000a34c       0x86 ../lwIP_NIOS_II_Example_bsp\libhal_bsp.a(alt_uncached_malloc.o)
 .debug_abbrev  0x0000a3d2       0x60 ../lwIP_NIOS_II_Example_bsp\libhal_bsp.a(alt_usleep.o)
 .debug_abbrev  0x0000a432      0x133 ../lwIP_NIOS_II_Example_bsp\libhal_bsp.a(alt_write.o)
 .debug_abbrev  0x0000a565      0x197 ../lwIP_NIOS_II_Example_bsp\libhal_bsp.a(alt_sys_init.o)
 .debug_abbrev  0x0000a6fc      0x1c9 ../lwIP_NIOS_II_Example_bsp\libhal_bsp.a(altera_avalon_cfi_flash.o)
 .debug_abbrev  0x0000a8c5      0x175 ../lwIP_NIOS_II_Example_bsp\libhal_bsp.a(altera_avalon_cfi_flash_table.o)
 .debug_abbrev  0x0000aa3a      0x118 ../lwIP_NIOS_II_Example_bsp\libhal_bsp.a(altera_avalon_jtag_uart_fd.o)
 .debug_abbrev  0x0000ab52      0x18f ../lwIP_NIOS_II_Example_bsp\libhal_bsp.a(altera_avalon_jtag_uart_init.o)
 .debug_abbrev  0x0000ace1      0x102 ../lwIP_NIOS_II_Example_bsp\libhal_bsp.a(altera_avalon_jtag_uart_ioctl.o)
 .debug_abbrev  0x0000ade3      0x19b ../lwIP_NIOS_II_Example_bsp\libhal_bsp.a(altera_avalon_jtag_uart_read.o)
 .debug_abbrev  0x0000af7e      0x199 ../lwIP_NIOS_II_Example_bsp\libhal_bsp.a(altera_avalon_jtag_uart_write.o)
 .debug_abbrev  0x0000b117      0x20d ../lwIP_NIOS_II_Example_bsp\libhal_bsp.a(altera_avalon_lcd_16207.o)
 .debug_abbrev  0x0000b324      0x125 ../lwIP_NIOS_II_Example_bsp\libhal_bsp.a(altera_avalon_lcd_16207_fd.o)
 .debug_abbrev  0x0000b449      0x279 ../lwIP_NIOS_II_Example_bsp\libhal_bsp.a(altera_avalon_sgdma.o)
 .debug_abbrev  0x0000b6c2      0x155 ../lwIP_NIOS_II_Example_bsp\libhal_bsp.a(altera_avalon_timer_sc.o)
 .debug_abbrev  0x0000b817      0x256 ../lwIP_NIOS_II_Example_bsp\libhal_bsp.a(altera_avalon_tse.o)
 .debug_abbrev  0x0000ba6d      0x109 ../lwIP_NIOS_II_Example_bsp\libhal_bsp.a(altera_avalon_uart_fd.o)
 .debug_abbrev  0x0000bb76      0x178 ../lwIP_NIOS_II_Example_bsp\libhal_bsp.a(altera_avalon_uart_init.o)
 .debug_abbrev  0x0000bcee      0x183 ../lwIP_NIOS_II_Example_bsp\libhal_bsp.a(altera_avalon_uart_read.o)
 .debug_abbrev  0x0000be71      0x18a ../lwIP_NIOS_II_Example_bsp\libhal_bsp.a(altera_avalon_uart_write.o)
 .debug_abbrev  0x0000bffb       0x14 ../lwIP_NIOS_II_Example_bsp\libhal_bsp.a(altera_vic_0_vector_tbl.o)
 .debug_abbrev  0x0000c00f       0x14 ../lwIP_NIOS_II_Example_bsp\libhal_bsp.a(altera_vic_funnel_non_preemptive.o)
 .debug_abbrev  0x0000c023       0xd4 ../lwIP_NIOS_II_Example_bsp\libhal_bsp.a(altera_vic_irq_init.o)
 .debug_abbrev  0x0000c0f7      0x158 ../lwIP_NIOS_II_Example_bsp\libhal_bsp.a(altera_vic_isr_register.o)
 .debug_abbrev  0x0000c24f       0x7e ../lwIP_NIOS_II_Example_bsp\libhal_bsp.a(alt_busy_sleep.o)
 .debug_abbrev  0x0000c2cd       0x74 ../lwIP_NIOS_II_Example_bsp\libhal_bsp.a(alt_dcache_flush.o)
 .debug_abbrev  0x0000c341       0x42 ../lwIP_NIOS_II_Example_bsp\libhal_bsp.a(alt_dcache_flush_all.o)
 .debug_abbrev  0x0000c383      0x114 ../lwIP_NIOS_II_Example_bsp\libhal_bsp.a(alt_dev_llist_insert.o)
 .debug_abbrev  0x0000c497       0x79 ../lwIP_NIOS_II_Example_bsp\libhal_bsp.a(alt_do_ctors.o)
 .debug_abbrev  0x0000c510       0x79 ../lwIP_NIOS_II_Example_bsp\libhal_bsp.a(alt_do_dtors.o)
 .debug_abbrev  0x0000c589       0xf0 ../lwIP_NIOS_II_Example_bsp\libhal_bsp.a(alt_find_dev.o)
 .debug_abbrev  0x0000c679      0x11a ../lwIP_NIOS_II_Example_bsp\libhal_bsp.a(alt_flash_dev.o)
 .debug_abbrev  0x0000c793       0x42 ../lwIP_NIOS_II_Example_bsp\libhal_bsp.a(alt_icache_flush_all.o)
 .debug_abbrev  0x0000c7d5      0x114 ../lwIP_NIOS_II_Example_bsp\libhal_bsp.a(alt_io_redirect.o)
 .debug_abbrev  0x0000c8e9      0x148 ../lwIP_NIOS_II_Example_bsp\libhal_bsp.a(alt_open.o)
 .debug_abbrev  0x0000ca31      0x119 ../lwIP_NIOS_II_Example_bsp\libhal_bsp.a(altera_avalon_cfi_flash_amd.o)
 .debug_abbrev  0x0000cb4a      0x119 ../lwIP_NIOS_II_Example_bsp\libhal_bsp.a(altera_avalon_cfi_flash_intel.o)
 .debug_abbrev  0x0000cc63       0xf0 ../lwIP_NIOS_II_Example_bsp\libhal_bsp.a(alt_find_file.o)
 .debug_abbrev  0x0000cd53      0x10d ../lwIP_NIOS_II_Example_bsp\libhal_bsp.a(alt_get_fd.o)
 .debug_abbrev  0x0000ce60       0x8c ../lwIP_NIOS_II_Example_bsp\libhal_bsp.a(alt_icache_flush.o)
 .debug_abbrev  0x0000ceec      0x106 c:/altera/13.1/nios2eds/bin/gnu/h-i686-mingw32/bin/../lib/gcc/nios2-elf/4.7.3/../../../../../H-i686-mingw32/nios2-elf/lib\libc.a(lib_a-atexit.o)
 .debug_abbrev  0x0000cff2       0x5d c:/altera/13.1/nios2eds/bin/gnu/h-i686-mingw32/bin/../lib/gcc/nios2-elf/4.7.3/../../../../../H-i686-mingw32/nios2-elf/lib\libc.a(lib_a-ctype_.o)
 .debug_abbrev  0x0000d04f      0x1c8 c:/altera/13.1/nios2eds/bin/gnu/h-i686-mingw32/bin/../lib/gcc/nios2-elf/4.7.3/../../../../../H-i686-mingw32/nios2-elf/lib\libc.a(lib_a-exit.o)
 .debug_abbrev  0x0000d217      0x1dc c:/altera/13.1/nios2eds/bin/gnu/h-i686-mingw32/bin/../lib/gcc/nios2-elf/4.7.3/../../../../../H-i686-mingw32/nios2-elf/lib\libc.a(lib_a-malloc.o)
 .debug_abbrev  0x0000d3f3       0x7f c:/altera/13.1/nios2eds/bin/gnu/h-i686-mingw32/bin/../lib/gcc/nios2-elf/4.7.3/../../../../../H-i686-mingw32/nios2-elf/lib\libc.a(lib_a-memcmp.o)
 .debug_abbrev  0x0000d472       0x83 c:/altera/13.1/nios2eds/bin/gnu/h-i686-mingw32/bin/../lib/gcc/nios2-elf/4.7.3/../../../../../H-i686-mingw32/nios2-elf/lib\libc.a(lib_a-strcpy.o)
 .debug_abbrev  0x0000d4f5      0x211 c:/altera/13.1/nios2eds/bin/gnu/h-i686-mingw32/bin/../lib/gcc/nios2-elf/4.7.3/../../../../../H-i686-mingw32/nios2-elf/lib\libc.a(lib_a-__atexit.o)
 .debug_abbrev  0x0000d706      0x203 c:/altera/13.1/nios2eds/bin/gnu/h-i686-mingw32/bin/../lib/gcc/nios2-elf/4.7.3/../../../../../H-i686-mingw32/nios2-elf/lib\libc.a(lib_a-__call_atexit.o)
 .debug_abbrev  0x0000d909       0xa6 ../lwIP_NIOS_II_Example_bsp\libhal_bsp.a(alt_exit.o)

.debug_line     0x00000000    0x124d1
 *(.debug_line)
 .debug_line    0x00000000       0x81 ../lwIP_NIOS_II_Example_bsp/obj/HAL/src/crt0.o
 .debug_line    0x00000081      0x1fa obj/default/drivers/alteraTseEthernetif.o
 .debug_line    0x0000027b       0x6d obj/default/drivers/fs.o
 .debug_line    0x000002e8        0x0 obj/default/drivers/fsdata.o
 .debug_line    0x000002e8      0x175 obj/default/drivers/httpd.o
 .debug_line    0x0000045d      0x3c6 obj/default/drivers/lwip_tse_mac.o
 .debug_line    0x00000823      0x107 obj/default/drivers/tse_my_system.o
 .debug_line    0x0000092a       0x1d obj/default/lwip/src/api/api_lib.o
 .debug_line    0x00000947       0x1d obj/default/lwip/src/api/api_msg.o
 .debug_line    0x00000964       0x7b obj/default/lwip/src/api/err.o
 .debug_line    0x000009df       0x1d obj/default/lwip/src/api/netbuf.o
 .debug_line    0x000009fc       0x1d obj/default/lwip/src/api/netdb.o
 .debug_line    0x00000a19       0x1d obj/default/lwip/src/api/netifapi.o
 .debug_line    0x00000a36       0x1d obj/default/lwip/src/api/sockets.o
 .debug_line    0x00000a53       0x1d obj/default/lwip/src/api/tcpip.o
 .debug_line    0x00000a70      0x84e obj/default/lwip/src/core/dhcp.o
 .debug_line    0x000012be       0x1d obj/default/lwip/src/core/dns.o
 .debug_line    0x000012db       0x51 obj/default/lwip/src/core/init.o
 .debug_line    0x0000132c       0x1d obj/default/lwip/src/core/ipv4/autoip.o
 .debug_line    0x00001349      0x2aa obj/default/lwip/src/core/ipv4/icmp.o
 .debug_line    0x000015f3       0x1d obj/default/lwip/src/core/ipv4/igmp.o
 .debug_line    0x00001610      0x171 obj/default/lwip/src/core/ipv4/inet.o
 .debug_line    0x00001781      0x132 obj/default/lwip/src/core/ipv4/inet_chksum.o
 .debug_line    0x000018b3      0x28f obj/default/lwip/src/core/ipv4/ip.o
 .debug_line    0x00001b42       0xd8 obj/default/lwip/src/core/ipv4/ip_addr.o
 .debug_line    0x00001c1a      0x399 obj/default/lwip/src/core/ipv4/ip_frag.o
 .debug_line    0x00001fb3      0x26d obj/default/lwip/src/core/mem.o
 .debug_line    0x00002220      0x146 obj/default/lwip/src/core/memp.o
 .debug_line    0x00002366      0x1fb obj/default/lwip/src/core/netif.o
 .debug_line    0x00002561      0x4e3 obj/default/lwip/src/core/pbuf.o
 .debug_line    0x00002a44      0x1a9 obj/default/lwip/src/core/raw.o
 .debug_line    0x00002bed       0x1d obj/default/lwip/src/core/snmp/asn1_dec.o
 .debug_line    0x00002c0a       0x1d obj/default/lwip/src/core/snmp/asn1_enc.o
 .debug_line    0x00002c27       0x1d obj/default/lwip/src/core/snmp/mib2.o
 .debug_line    0x00002c44       0x1d obj/default/lwip/src/core/snmp/mib_structs.o
 .debug_line    0x00002c61       0x1d obj/default/lwip/src/core/snmp/msg_in.o
 .debug_line    0x00002c7e       0x1d obj/default/lwip/src/core/snmp/msg_out.o
 .debug_line    0x00002c9b       0x7f obj/default/lwip/src/core/stats.o
 .debug_line    0x00002d1a       0x1d obj/default/lwip/src/core/sys.o
 .debug_line    0x00002d37      0x844 obj/default/lwip/src/core/tcp.o
 .debug_line    0x0000357b      0x9e7 obj/default/lwip/src/core/tcp_in.o
 .debug_line    0x00003f62      0x5c8 obj/default/lwip/src/core/tcp_out.o
 .debug_line    0x0000452a      0x33e obj/default/lwip/src/core/udp.o
 .debug_line    0x00004868      0x4c4 obj/default/lwip/src/netif/etharp.o
 .debug_line    0x00004d2c       0x1d obj/default/lwip/src/netif/ethernetif.o
 .debug_line    0x00004d49       0x1d obj/default/lwip/src/netif/loopif.o
 .debug_line    0x00004d66       0x1d obj/default/lwip/src/netif/ppp/auth.o
 .debug_line    0x00004d83       0x1d obj/default/lwip/src/netif/ppp/chap.o
 .debug_line    0x00004da0       0x1d obj/default/lwip/src/netif/ppp/chpms.o
 .debug_line    0x00004dbd       0x1d obj/default/lwip/src/netif/ppp/fsm.o
 .debug_line    0x00004dda       0x1d obj/default/lwip/src/netif/ppp/ipcp.o
 .debug_line    0x00004df7       0x1d obj/default/lwip/src/netif/ppp/lcp.o
 .debug_line    0x00004e14       0x1d obj/default/lwip/src/netif/ppp/magic.o
 .debug_line    0x00004e31       0x1d obj/default/lwip/src/netif/ppp/md5.o
 .debug_line    0x00004e4e       0x1d obj/default/lwip/src/netif/ppp/pap.o
 .debug_line    0x00004e6b       0x1d obj/default/lwip/src/netif/ppp/ppp.o
 .debug_line    0x00004e88       0x1d obj/default/lwip/src/netif/ppp/ppp_oe.o
 .debug_line    0x00004ea5       0x1d obj/default/lwip/src/netif/ppp/randm.o
 .debug_line    0x00004ec2       0x1d obj/default/lwip/src/netif/ppp/vj.o
 .debug_line    0x00004edf       0x1d obj/default/lwip/src/netif/slipif.o
 .debug_line    0x00004efc      0x33d obj/default/main.o
 .debug_line    0x00005239      0x173 c:/altera/13.1/nios2eds/bin/gnu/h-i686-mingw32/bin/../lib/gcc/nios2-elf/4.7.3/../../../../../H-i686-mingw32/nios2-elf/lib\libc.a(lib_a-impure.o)
 .debug_line    0x000053ac      0x13d c:/altera/13.1/nios2eds/bin/gnu/h-i686-mingw32/bin/../lib/gcc/nios2-elf/4.7.3/../../../../../H-i686-mingw32/nios2-elf/lib\libc.a(lib_a-memcpy.o)
 .debug_line    0x000054e9      0x1f1 c:/altera/13.1/nios2eds/bin/gnu/h-i686-mingw32/bin/../lib/gcc/nios2-elf/4.7.3/../../../../../H-i686-mingw32/nios2-elf/lib\libc.a(lib_a-memset.o)
 .debug_line    0x000056da      0x218 c:/altera/13.1/nios2eds/bin/gnu/h-i686-mingw32/bin/../lib/gcc/nios2-elf/4.7.3/../../../../../H-i686-mingw32/nios2-elf/lib\libc.a(lib_a-printf.o)
 .debug_line    0x000058f2      0x29c c:/altera/13.1/nios2eds/bin/gnu/h-i686-mingw32/bin/../lib/gcc/nios2-elf/4.7.3/../../../../../H-i686-mingw32/nios2-elf/lib\libc.a(lib_a-putc.o)
 .debug_line    0x00005b8e      0x203 c:/altera/13.1/nios2eds/bin/gnu/h-i686-mingw32/bin/../lib/gcc/nios2-elf/4.7.3/../../../../../H-i686-mingw32/nios2-elf/lib\libc.a(lib_a-putchar.o)
 .debug_line    0x00005d91      0x235 c:/altera/13.1/nios2eds/bin/gnu/h-i686-mingw32/bin/../lib/gcc/nios2-elf/4.7.3/../../../../../H-i686-mingw32/nios2-elf/lib\libc.a(lib_a-puts.o)
 .debug_line    0x00005fc6      0x110 c:/altera/13.1/nios2eds/bin/gnu/h-i686-mingw32/bin/../lib/gcc/nios2-elf/4.7.3/../../../../../H-i686-mingw32/nios2-elf/lib\libc.a(lib_a-strcmp.o)
 .debug_line    0x000060d6      0x182 c:/altera/13.1/nios2eds/bin/gnu/h-i686-mingw32/bin/../lib/gcc/nios2-elf/4.7.3/../../../../../H-i686-mingw32/nios2-elf/lib\libc.a(lib_a-strlen.o)
 .debug_line    0x00006258      0x1c8 c:/altera/13.1/nios2eds/bin/gnu/h-i686-mingw32/bin/../lib/gcc/nios2-elf/4.7.3/../../../../../H-i686-mingw32/nios2-elf/lib\libc.a(lib_a-strncmp.o)
 .debug_line    0x00006420      0xaf9 c:/altera/13.1/nios2eds/bin/gnu/h-i686-mingw32/bin/../lib/gcc/nios2-elf/4.7.3/../../../../../H-i686-mingw32/nios2-elf/lib\libc.a(lib_a-vfprintf.o)
 .debug_line    0x00006f19      0x272 c:/altera/13.1/nios2eds/bin/gnu/h-i686-mingw32/bin/../lib/gcc/nios2-elf/4.7.3/../../../../../H-i686-mingw32/nios2-elf/lib\libc.a(lib_a-wbuf.o)
 .debug_line    0x0000718b      0x26b c:/altera/13.1/nios2eds/bin/gnu/h-i686-mingw32/bin/../lib/gcc/nios2-elf/4.7.3/../../../../../H-i686-mingw32/nios2-elf/lib\libc.a(lib_a-wsetup.o)
 .debug_line    0x000073f6      0x876 c:/altera/13.1/nios2eds/bin/gnu/h-i686-mingw32/bin/../lib/gcc/nios2-elf/4.7.3/../../../../../H-i686-mingw32/nios2-elf/lib\libc.a(lib_a-dtoa.o)
 .debug_line    0x00007c6c      0x29c c:/altera/13.1/nios2eds/bin/gnu/h-i686-mingw32/bin/../lib/gcc/nios2-elf/4.7.3/../../../../../H-i686-mingw32/nios2-elf/lib\libc.a(lib_a-fflush.o)
 .debug_line    0x00007f08      0x2e6 c:/altera/13.1/nios2eds/bin/gnu/h-i686-mingw32/bin/../lib/gcc/nios2-elf/4.7.3/../../../../../H-i686-mingw32/nios2-elf/lib\libc.a(lib_a-findfp.o)
 .debug_line    0x000081ee      0x311 c:/altera/13.1/nios2eds/bin/gnu/h-i686-mingw32/bin/../lib/gcc/nios2-elf/4.7.3/../../../../../H-i686-mingw32/nios2-elf/lib\libc.a(lib_a-freer.o)
 .debug_line    0x000084ff      0x360 c:/altera/13.1/nios2eds/bin/gnu/h-i686-mingw32/bin/../lib/gcc/nios2-elf/4.7.3/../../../../../H-i686-mingw32/nios2-elf/lib\libc.a(lib_a-fvwrite.o)
 .debug_line    0x0000885f      0x259 c:/altera/13.1/nios2eds/bin/gnu/h-i686-mingw32/bin/../lib/gcc/nios2-elf/4.7.3/../../../../../H-i686-mingw32/nios2-elf/lib\libc.a(lib_a-fwalk.o)
 .debug_line    0x00008ab8      0x231 c:/altera/13.1/nios2eds/bin/gnu/h-i686-mingw32/bin/../lib/gcc/nios2-elf/4.7.3/../../../../../H-i686-mingw32/nios2-elf/lib\libc.a(lib_a-locale.o)
 .debug_line    0x00008ce9      0x293 c:/altera/13.1/nios2eds/bin/gnu/h-i686-mingw32/bin/../lib/gcc/nios2-elf/4.7.3/../../../../../H-i686-mingw32/nios2-elf/lib\libc.a(lib_a-makebuf.o)
 .debug_line    0x00008f7c      0x421 c:/altera/13.1/nios2eds/bin/gnu/h-i686-mingw32/bin/../lib/gcc/nios2-elf/4.7.3/../../../../../H-i686-mingw32/nios2-elf/lib\libc.a(lib_a-mallocr.o)
 .debug_line    0x0000939d      0x1f1 c:/altera/13.1/nios2eds/bin/gnu/h-i686-mingw32/bin/../lib/gcc/nios2-elf/4.7.3/../../../../../H-i686-mingw32/nios2-elf/lib\libc.a(lib_a-memchr.o)
 .debug_line    0x0000958e      0x1ed c:/altera/13.1/nios2eds/bin/gnu/h-i686-mingw32/bin/../lib/gcc/nios2-elf/4.7.3/../../../../../H-i686-mingw32/nios2-elf/lib\libc.a(lib_a-memmove.o)
 .debug_line    0x0000977b      0x725 c:/altera/13.1/nios2eds/bin/gnu/h-i686-mingw32/bin/../lib/gcc/nios2-elf/4.7.3/../../../../../H-i686-mingw32/nios2-elf/lib\libc.a(lib_a-mprec.o)
 .debug_line    0x00009ea0      0x330 c:/altera/13.1/nios2eds/bin/gnu/h-i686-mingw32/bin/../lib/gcc/nios2-elf/4.7.3/../../../../../H-i686-mingw32/nios2-elf/lib\libc.a(lib_a-reallocr.o)
 .debug_line    0x0000a1d0      0x170 c:/altera/13.1/nios2eds/bin/gnu/h-i686-mingw32/bin/../lib/gcc/nios2-elf/4.7.3/../../../../../H-i686-mingw32/nios2-elf/lib\libc.a(lib_a-s_isinfd.o)
 .debug_line    0x0000a340      0x170 c:/altera/13.1/nios2eds/bin/gnu/h-i686-mingw32/bin/../lib/gcc/nios2-elf/4.7.3/../../../../../H-i686-mingw32/nios2-elf/lib\libc.a(lib_a-s_isnand.o)
 .debug_line    0x0000a4b0      0x212 c:/altera/13.1/nios2eds/bin/gnu/h-i686-mingw32/bin/../lib/gcc/nios2-elf/4.7.3/../../../../../H-i686-mingw32/nios2-elf/lib\libc.a(lib_a-sbrkr.o)
 .debug_line    0x0000a6c2      0x245 c:/altera/13.1/nios2eds/bin/gnu/h-i686-mingw32/bin/../lib/gcc/nios2-elf/4.7.3/../../../../../H-i686-mingw32/nios2-elf/lib\libc.a(lib_a-stdio.o)
 .debug_line    0x0000a907      0x213 c:/altera/13.1/nios2eds/bin/gnu/h-i686-mingw32/bin/../lib/gcc/nios2-elf/4.7.3/../../../../../H-i686-mingw32/nios2-elf/lib\libc.a(lib_a-writer.o)
 .debug_line    0x0000ab1a      0x1c9 c:/altera/13.1/nios2eds/bin/gnu/h-i686-mingw32/bin/../lib/gcc/nios2-elf/4.7.3/../../../../../H-i686-mingw32/nios2-elf/lib\libc.a(lib_a-callocr.o)
 .debug_line    0x0000ace3      0x213 c:/altera/13.1/nios2eds/bin/gnu/h-i686-mingw32/bin/../lib/gcc/nios2-elf/4.7.3/../../../../../H-i686-mingw32/nios2-elf/lib\libc.a(lib_a-closer.o)
 .debug_line    0x0000aef6      0x266 c:/altera/13.1/nios2eds/bin/gnu/h-i686-mingw32/bin/../lib/gcc/nios2-elf/4.7.3/../../../../../H-i686-mingw32/nios2-elf/lib\libc.a(lib_a-fclose.o)
 .debug_line    0x0000b15c      0x21c c:/altera/13.1/nios2eds/bin/gnu/h-i686-mingw32/bin/../lib/gcc/nios2-elf/4.7.3/../../../../../H-i686-mingw32/nios2-elf/lib\libc.a(lib_a-fstatr.o)
 .debug_line    0x0000b378       0x5d c:/altera/13.1/nios2eds/bin/gnu/h-i686-mingw32/bin/../lib/gcc/nios2-elf/4.7.3/../../../../../H-i686-mingw32/nios2-elf/lib\libc.a(lib_a-int_errno.o)
 .debug_line    0x0000b3d5      0x214 c:/altera/13.1/nios2eds/bin/gnu/h-i686-mingw32/bin/../lib/gcc/nios2-elf/4.7.3/../../../../../H-i686-mingw32/nios2-elf/lib\libc.a(lib_a-isattyr.o)
 .debug_line    0x0000b5e9      0x21e c:/altera/13.1/nios2eds/bin/gnu/h-i686-mingw32/bin/../lib/gcc/nios2-elf/4.7.3/../../../../../H-i686-mingw32/nios2-elf/lib\libc.a(lib_a-lseekr.o)
 .debug_line    0x0000b807      0x212 c:/altera/13.1/nios2eds/bin/gnu/h-i686-mingw32/bin/../lib/gcc/nios2-elf/4.7.3/../../../../../H-i686-mingw32/nios2-elf/lib\libc.a(lib_a-readr.o)
 .debug_line    0x0000ba19      0x119 c:/altera/13.1/nios2eds/bin/gnu/h-i686-mingw32/bin/../lib/gcc/nios2-elf/4.7.3\libgcc.a(_udivdi3.o)
 .debug_line    0x0000bb32      0x121 c:/altera/13.1/nios2eds/bin/gnu/h-i686-mingw32/bin/../lib/gcc/nios2-elf/4.7.3\libgcc.a(_umoddi3.o)
 .debug_line    0x0000bc53      0x131 c:/altera/13.1/nios2eds/bin/gnu/h-i686-mingw32/bin/../lib/gcc/nios2-elf/4.7.3\libgcc.a(_addsub_df.o)
 .debug_line    0x0000bd84      0x114 c:/altera/13.1/nios2eds/bin/gnu/h-i686-mingw32/bin/../lib/gcc/nios2-elf/4.7.3\libgcc.a(_mul_df.o)
 .debug_line    0x0000be98       0xce c:/altera/13.1/nios2eds/bin/gnu/h-i686-mingw32/bin/../lib/gcc/nios2-elf/4.7.3\libgcc.a(_div_df.o)
 .debug_line    0x0000bf66       0x6d c:/altera/13.1/nios2eds/bin/gnu/h-i686-mingw32/bin/../lib/gcc/nios2-elf/4.7.3\libgcc.a(_eq_df.o)
 .debug_line    0x0000bfd3       0x6d c:/altera/13.1/nios2eds/bin/gnu/h-i686-mingw32/bin/../lib/gcc/nios2-elf/4.7.3\libgcc.a(_ne_df.o)
 .debug_line    0x0000c040       0x6e c:/altera/13.1/nios2eds/bin/gnu/h-i686-mingw32/bin/../lib/gcc/nios2-elf/4.7.3\libgcc.a(_gt_df.o)
 .debug_line    0x0000c0ae       0x6e c:/altera/13.1/nios2eds/bin/gnu/h-i686-mingw32/bin/../lib/gcc/nios2-elf/4.7.3\libgcc.a(_ge_df.o)
 .debug_line    0x0000c11c       0x6d c:/altera/13.1/nios2eds/bin/gnu/h-i686-mingw32/bin/../lib/gcc/nios2-elf/4.7.3\libgcc.a(_lt_df.o)
 .debug_line    0x0000c189       0x94 c:/altera/13.1/nios2eds/bin/gnu/h-i686-mingw32/bin/../lib/gcc/nios2-elf/4.7.3\libgcc.a(_si_to_df.o)
 .debug_line    0x0000c21d       0x8d c:/altera/13.1/nios2eds/bin/gnu/h-i686-mingw32/bin/../lib/gcc/nios2-elf/4.7.3\libgcc.a(_df_to_si.o)
 .debug_line    0x0000c2aa       0x51 c:/altera/13.1/nios2eds/bin/gnu/h-i686-mingw32/bin/../lib/gcc/nios2-elf/4.7.3\libgcc.a(_thenan_df.o)
 .debug_line    0x0000c2fb       0x9e c:/altera/13.1/nios2eds/bin/gnu/h-i686-mingw32/bin/../lib/gcc/nios2-elf/4.7.3\libgcc.a(_usi_to_df.o)
 .debug_line    0x0000c399       0xd3 c:/altera/13.1/nios2eds/bin/gnu/h-i686-mingw32/bin/../lib/gcc/nios2-elf/4.7.3\libgcc.a(lib2-divmod.o)
 .debug_line    0x0000c46c       0x8b c:/altera/13.1/nios2eds/bin/gnu/h-i686-mingw32/bin/../lib/gcc/nios2-elf/4.7.3\libgcc.a(_muldi3.o)
 .debug_line    0x0000c4f7       0x53 c:/altera/13.1/nios2eds/bin/gnu/h-i686-mingw32/bin/../lib/gcc/nios2-elf/4.7.3\libgcc.a(_clz.o)
 .debug_line    0x0000c54a       0x8c c:/altera/13.1/nios2eds/bin/gnu/h-i686-mingw32/bin/../lib/gcc/nios2-elf/4.7.3\libgcc.a(_clzsi2.o)
 .debug_line    0x0000c5d6       0xc7 c:/altera/13.1/nios2eds/bin/gnu/h-i686-mingw32/bin/../lib/gcc/nios2-elf/4.7.3\libgcc.a(_pack_df.o)
 .debug_line    0x0000c69d       0xa2 c:/altera/13.1/nios2eds/bin/gnu/h-i686-mingw32/bin/../lib/gcc/nios2-elf/4.7.3\libgcc.a(_unpack_df.o)
 .debug_line    0x0000c73f       0x96 c:/altera/13.1/nios2eds/bin/gnu/h-i686-mingw32/bin/../lib/gcc/nios2-elf/4.7.3\libgcc.a(_fpcmp_parts_df.o)
 .debug_line    0x0000c7d5       0x77 c:/altera/13.1/nios2eds/bin/gnu/h-i686-mingw32/bin/../lib/gcc/nios2-elf/4.7.3\libgcc.a(_lshrdi3.o)
 .debug_line    0x0000c84c       0x75 c:/altera/13.1/nios2eds/bin/gnu/h-i686-mingw32/bin/../lib/gcc/nios2-elf/4.7.3\libgcc.a(_ashldi3.o)
 .debug_line    0x0000c8c1       0xfe ../lwIP_NIOS_II_Example_bsp\libhal_bsp.a(alt_alarm_start.o)
 .debug_line    0x0000c9bf      0x186 ../lwIP_NIOS_II_Example_bsp\libhal_bsp.a(alt_close.o)
 .debug_line    0x0000cb45      0x119 ../lwIP_NIOS_II_Example_bsp\libhal_bsp.a(alt_dev.o)
 .debug_line    0x0000cc5e       0x51 ../lwIP_NIOS_II_Example_bsp\libhal_bsp.a(alt_errno.o)
 .debug_line    0x0000ccaf      0x180 ../lwIP_NIOS_II_Example_bsp\libhal_bsp.a(alt_fstat.o)
 .debug_line    0x0000ce2f      0x180 ../lwIP_NIOS_II_Example_bsp\libhal_bsp.a(alt_isatty.o)
 .debug_line    0x0000cfaf       0x92 ../lwIP_NIOS_II_Example_bsp\libhal_bsp.a(alt_load.o)
 .debug_line    0x0000d041      0x184 ../lwIP_NIOS_II_Example_bsp\libhal_bsp.a(alt_lseek.o)
 .debug_line    0x0000d1c5       0xa4 ../lwIP_NIOS_II_Example_bsp\libhal_bsp.a(alt_main.o)
 .debug_line    0x0000d269      0x13f ../lwIP_NIOS_II_Example_bsp\libhal_bsp.a(alt_malloc_lock.o)
 .debug_line    0x0000d3a8      0x1f9 ../lwIP_NIOS_II_Example_bsp\libhal_bsp.a(alt_read.o)
 .debug_line    0x0000d5a1       0xae ../lwIP_NIOS_II_Example_bsp\libhal_bsp.a(alt_release_fd.o)
 .debug_line    0x0000d64f       0x69 ../lwIP_NIOS_II_Example_bsp\libhal_bsp.a(alt_remap_uncached.o)
 .debug_line    0x0000d6b8      0x11b ../lwIP_NIOS_II_Example_bsp\libhal_bsp.a(alt_sbrk.o)
 .debug_line    0x0000d7d3      0x106 ../lwIP_NIOS_II_Example_bsp\libhal_bsp.a(alt_tick.o)
 .debug_line    0x0000d8d9       0xdd ../lwIP_NIOS_II_Example_bsp\libhal_bsp.a(alt_uncached_malloc.o)
 .debug_line    0x0000d9b6       0xce ../lwIP_NIOS_II_Example_bsp\libhal_bsp.a(alt_usleep.o)
 .debug_line    0x0000da84      0x1f8 ../lwIP_NIOS_II_Example_bsp\libhal_bsp.a(alt_write.o)
 .debug_line    0x0000dc7c      0x265 ../lwIP_NIOS_II_Example_bsp\libhal_bsp.a(alt_sys_init.o)
 .debug_line    0x0000dee1      0x24c ../lwIP_NIOS_II_Example_bsp\libhal_bsp.a(altera_avalon_cfi_flash.o)
 .debug_line    0x0000e12d      0x3da ../lwIP_NIOS_II_Example_bsp\libhal_bsp.a(altera_avalon_cfi_flash_table.o)
 .debug_line    0x0000e507      0x131 ../lwIP_NIOS_II_Example_bsp\libhal_bsp.a(altera_avalon_jtag_uart_fd.o)
 .debug_line    0x0000e638      0x199 ../lwIP_NIOS_II_Example_bsp\libhal_bsp.a(altera_avalon_jtag_uart_init.o)
 .debug_line    0x0000e7d1      0x129 ../lwIP_NIOS_II_Example_bsp\libhal_bsp.a(altera_avalon_jtag_uart_ioctl.o)
 .debug_line    0x0000e8fa      0x178 ../lwIP_NIOS_II_Example_bsp\libhal_bsp.a(altera_avalon_jtag_uart_read.o)
 .debug_line    0x0000ea72      0x177 ../lwIP_NIOS_II_Example_bsp\libhal_bsp.a(altera_avalon_jtag_uart_write.o)
 .debug_line    0x0000ebe9      0x357 ../lwIP_NIOS_II_Example_bsp\libhal_bsp.a(altera_avalon_lcd_16207.o)
 .debug_line    0x0000ef40      0x11a ../lwIP_NIOS_II_Example_bsp\libhal_bsp.a(altera_avalon_lcd_16207_fd.o)
 .debug_line    0x0000f05a      0x2b5 ../lwIP_NIOS_II_Example_bsp\libhal_bsp.a(altera_avalon_sgdma.o)
 .debug_line    0x0000f30f      0x101 ../lwIP_NIOS_II_Example_bsp\libhal_bsp.a(altera_avalon_timer_sc.o)
 .debug_line    0x0000f410      0xebe ../lwIP_NIOS_II_Example_bsp\libhal_bsp.a(altera_avalon_tse.o)
 .debug_line    0x000102ce       0xf0 ../lwIP_NIOS_II_Example_bsp\libhal_bsp.a(altera_avalon_uart_fd.o)
 .debug_line    0x000103be      0x182 ../lwIP_NIOS_II_Example_bsp\libhal_bsp.a(altera_avalon_uart_init.o)
 .debug_line    0x00010540      0x191 ../lwIP_NIOS_II_Example_bsp\libhal_bsp.a(altera_avalon_uart_read.o)
 .debug_line    0x000106d1      0x16e ../lwIP_NIOS_II_Example_bsp\libhal_bsp.a(altera_avalon_uart_write.o)
 .debug_line    0x0001083f       0x74 ../lwIP_NIOS_II_Example_bsp\libhal_bsp.a(altera_vic_0_vector_tbl.o)
 .debug_line    0x000108b3       0x67 ../lwIP_NIOS_II_Example_bsp\libhal_bsp.a(altera_vic_funnel_non_preemptive.o)
 .debug_line    0x0001091a       0xbb ../lwIP_NIOS_II_Example_bsp\libhal_bsp.a(altera_vic_irq_init.o)
 .debug_line    0x000109d5       0xd7 ../lwIP_NIOS_II_Example_bsp\libhal_bsp.a(altera_vic_isr_register.o)
 .debug_line    0x00010aac       0x9f ../lwIP_NIOS_II_Example_bsp\libhal_bsp.a(alt_busy_sleep.o)
 .debug_line    0x00010b4b       0x67 ../lwIP_NIOS_II_Example_bsp\libhal_bsp.a(alt_dcache_flush.o)
 .debug_line    0x00010bb2       0x51 ../lwIP_NIOS_II_Example_bsp\libhal_bsp.a(alt_dcache_flush_all.o)
 .debug_line    0x00010c03       0xd0 ../lwIP_NIOS_II_Example_bsp\libhal_bsp.a(alt_dev_llist_insert.o)
 .debug_line    0x00010cd3       0x59 ../lwIP_NIOS_II_Example_bsp\libhal_bsp.a(alt_do_ctors.o)
 .debug_line    0x00010d2c       0x59 ../lwIP_NIOS_II_Example_bsp\libhal_bsp.a(alt_do_dtors.o)
 .debug_line    0x00010d85       0xb9 ../lwIP_NIOS_II_Example_bsp\libhal_bsp.a(alt_find_dev.o)
 .debug_line    0x00010e3e       0xc5 ../lwIP_NIOS_II_Example_bsp\libhal_bsp.a(alt_flash_dev.o)
 .debug_line    0x00010f03       0x50 ../lwIP_NIOS_II_Example_bsp\libhal_bsp.a(alt_icache_flush_all.o)
 .debug_line    0x00010f53      0x154 ../lwIP_NIOS_II_Example_bsp\libhal_bsp.a(alt_io_redirect.o)
 .debug_line    0x000110a7      0x125 ../lwIP_NIOS_II_Example_bsp\libhal_bsp.a(alt_open.o)
 .debug_line    0x000111cc      0x174 ../lwIP_NIOS_II_Example_bsp\libhal_bsp.a(altera_avalon_cfi_flash_amd.o)
 .debug_line    0x00011340      0x14f ../lwIP_NIOS_II_Example_bsp\libhal_bsp.a(altera_avalon_cfi_flash_intel.o)
 .debug_line    0x0001148f       0xd5 ../lwIP_NIOS_II_Example_bsp\libhal_bsp.a(alt_find_file.o)
 .debug_line    0x00011564       0xd1 ../lwIP_NIOS_II_Example_bsp\libhal_bsp.a(alt_get_fd.o)
 .debug_line    0x00011635       0x81 ../lwIP_NIOS_II_Example_bsp\libhal_bsp.a(alt_icache_flush.o)
 .debug_line    0x000116b6      0x16d c:/altera/13.1/nios2eds/bin/gnu/h-i686-mingw32/bin/../lib/gcc/nios2-elf/4.7.3/../../../../../H-i686-mingw32/nios2-elf/lib\libc.a(lib_a-atexit.o)
 .debug_line    0x00011823       0xd1 c:/altera/13.1/nios2eds/bin/gnu/h-i686-mingw32/bin/../lib/gcc/nios2-elf/4.7.3/../../../../../H-i686-mingw32/nios2-elf/lib\libc.a(lib_a-ctype_.o)
 .debug_line    0x000118f4      0x219 c:/altera/13.1/nios2eds/bin/gnu/h-i686-mingw32/bin/../lib/gcc/nios2-elf/4.7.3/../../../../../H-i686-mingw32/nios2-elf/lib\libc.a(lib_a-exit.o)
 .debug_line    0x00011b0d      0x207 c:/altera/13.1/nios2eds/bin/gnu/h-i686-mingw32/bin/../lib/gcc/nios2-elf/4.7.3/../../../../../H-i686-mingw32/nios2-elf/lib\libc.a(lib_a-malloc.o)
 .debug_line    0x00011d14      0x18d c:/altera/13.1/nios2eds/bin/gnu/h-i686-mingw32/bin/../lib/gcc/nios2-elf/4.7.3/../../../../../H-i686-mingw32/nios2-elf/lib\libc.a(lib_a-memcmp.o)
 .debug_line    0x00011ea1      0x10b c:/altera/13.1/nios2eds/bin/gnu/h-i686-mingw32/bin/../lib/gcc/nios2-elf/4.7.3/../../../../../H-i686-mingw32/nios2-elf/lib\libc.a(lib_a-strcpy.o)
 .debug_line    0x00011fac      0x250 c:/altera/13.1/nios2eds/bin/gnu/h-i686-mingw32/bin/../lib/gcc/nios2-elf/4.7.3/../../../../../H-i686-mingw32/nios2-elf/lib\libc.a(lib_a-__atexit.o)
 .debug_line    0x000121fc      0x264 c:/altera/13.1/nios2eds/bin/gnu/h-i686-mingw32/bin/../lib/gcc/nios2-elf/4.7.3/../../../../../H-i686-mingw32/nios2-elf/lib\libc.a(lib_a-__call_atexit.o)
 .debug_line    0x00012460       0x71 ../lwIP_NIOS_II_Example_bsp\libhal_bsp.a(alt_exit.o)

.debug_frame    0x00000000     0x3eb0
 *(.debug_frame)
 .debug_frame   0x00000000       0x80 obj/default/drivers/alteraTseEthernetif.o
 .debug_frame   0x00000080       0x2c obj/default/drivers/fs.o
 .debug_frame   0x000000ac       0xf0 obj/default/drivers/httpd.o
 .debug_frame   0x0000019c       0xa0 obj/default/drivers/lwip_tse_mac.o
 .debug_frame   0x0000023c       0x2c obj/default/lwip/src/api/err.o
 .debug_frame   0x00000268      0x408 obj/default/lwip/src/core/dhcp.o
 .debug_frame   0x00000670       0x48 obj/default/lwip/src/core/init.o
 .debug_frame   0x000006b8       0x80 obj/default/lwip/src/core/ipv4/icmp.o
 .debug_frame   0x00000738       0x64 obj/default/lwip/src/core/ipv4/inet.o
 .debug_frame   0x0000079c       0x80 obj/default/lwip/src/core/ipv4/inet_chksum.o
 .debug_frame   0x0000081c       0x80 obj/default/lwip/src/core/ipv4/ip.o
 .debug_frame   0x0000089c       0x2c obj/default/lwip/src/core/ipv4/ip_addr.o
 .debug_frame   0x000008c8       0xf8 obj/default/lwip/src/core/ipv4/ip_frag.o
 .debug_frame   0x000009c0       0xb8 obj/default/lwip/src/core/mem.o
 .debug_frame   0x00000a78       0x64 obj/default/lwip/src/core/memp.o
 .debug_frame   0x00000adc      0x144 obj/default/lwip/src/core/netif.o
 .debug_frame   0x00000c20      0x17c obj/default/lwip/src/core/pbuf.o
 .debug_frame   0x00000d9c       0xf0 obj/default/lwip/src/core/raw.o
 .debug_frame   0x00000e8c      0x41c obj/default/lwip/src/core/tcp.o
 .debug_frame   0x000012a8       0xd8 obj/default/lwip/src/core/tcp_in.o
 .debug_frame   0x00001380      0x180 obj/default/lwip/src/core/tcp_out.o
 .debug_frame   0x00001500      0x128 obj/default/lwip/src/core/udp.o
 .debug_frame   0x00001628      0x17c obj/default/lwip/src/netif/etharp.o
 .debug_frame   0x000017a4       0x64 obj/default/main.o
 .debug_frame   0x00001808       0x20 c:/altera/13.1/nios2eds/bin/gnu/h-i686-mingw32/bin/../lib/gcc/nios2-elf/4.7.3/../../../../../H-i686-mingw32/nios2-elf/lib\libc.a(lib_a-memcpy.o)
 .debug_frame   0x00001828       0x20 c:/altera/13.1/nios2eds/bin/gnu/h-i686-mingw32/bin/../lib/gcc/nios2-elf/4.7.3/../../../../../H-i686-mingw32/nios2-elf/lib\libc.a(lib_a-memset.o)
 .debug_frame   0x00001848       0x40 c:/altera/13.1/nios2eds/bin/gnu/h-i686-mingw32/bin/../lib/gcc/nios2-elf/4.7.3/../../../../../H-i686-mingw32/nios2-elf/lib\libc.a(lib_a-printf.o)
 .debug_frame   0x00001888       0x48 c:/altera/13.1/nios2eds/bin/gnu/h-i686-mingw32/bin/../lib/gcc/nios2-elf/4.7.3/../../../../../H-i686-mingw32/nios2-elf/lib\libc.a(lib_a-putc.o)
 .debug_frame   0x000018d0       0x30 c:/altera/13.1/nios2eds/bin/gnu/h-i686-mingw32/bin/../lib/gcc/nios2-elf/4.7.3/../../../../../H-i686-mingw32/nios2-elf/lib\libc.a(lib_a-putchar.o)
 .debug_frame   0x00001900       0x3c c:/altera/13.1/nios2eds/bin/gnu/h-i686-mingw32/bin/../lib/gcc/nios2-elf/4.7.3/../../../../../H-i686-mingw32/nios2-elf/lib\libc.a(lib_a-puts.o)
 .debug_frame   0x0000193c       0x20 c:/altera/13.1/nios2eds/bin/gnu/h-i686-mingw32/bin/../lib/gcc/nios2-elf/4.7.3/../../../../../H-i686-mingw32/nios2-elf/lib\libc.a(lib_a-strcmp.o)
 .debug_frame   0x0000195c       0x20 c:/altera/13.1/nios2eds/bin/gnu/h-i686-mingw32/bin/../lib/gcc/nios2-elf/4.7.3/../../../../../H-i686-mingw32/nios2-elf/lib\libc.a(lib_a-strlen.o)
 .debug_frame   0x0000197c       0x20 c:/altera/13.1/nios2eds/bin/gnu/h-i686-mingw32/bin/../lib/gcc/nios2-elf/4.7.3/../../../../../H-i686-mingw32/nios2-elf/lib\libc.a(lib_a-strncmp.o)
 .debug_frame   0x0000199c       0x64 c:/altera/13.1/nios2eds/bin/gnu/h-i686-mingw32/bin/../lib/gcc/nios2-elf/4.7.3/../../../../../H-i686-mingw32/nios2-elf/lib\libc.a(lib_a-vfprintf.o)
 .debug_frame   0x00001a00       0x3c c:/altera/13.1/nios2eds/bin/gnu/h-i686-mingw32/bin/../lib/gcc/nios2-elf/4.7.3/../../../../../H-i686-mingw32/nios2-elf/lib\libc.a(lib_a-wbuf.o)
 .debug_frame   0x00001a3c       0x2c c:/altera/13.1/nios2eds/bin/gnu/h-i686-mingw32/bin/../lib/gcc/nios2-elf/4.7.3/../../../../../H-i686-mingw32/nios2-elf/lib\libc.a(lib_a-wsetup.o)
 .debug_frame   0x00001a68       0x64 c:/altera/13.1/nios2eds/bin/gnu/h-i686-mingw32/bin/../lib/gcc/nios2-elf/4.7.3/../../../../../H-i686-mingw32/nios2-elf/lib\libc.a(lib_a-dtoa.o)
 .debug_frame   0x00001acc       0x40 c:/altera/13.1/nios2eds/bin/gnu/h-i686-mingw32/bin/../lib/gcc/nios2-elf/4.7.3/../../../../../H-i686-mingw32/nios2-elf/lib\libc.a(lib_a-fflush.o)
 .debug_frame   0x00001b0c      0x100 c:/altera/13.1/nios2eds/bin/gnu/h-i686-mingw32/bin/../lib/gcc/nios2-elf/4.7.3/../../../../../H-i686-mingw32/nios2-elf/lib\libc.a(lib_a-findfp.o)
 .debug_frame   0x00001c0c       0x4c c:/altera/13.1/nios2eds/bin/gnu/h-i686-mingw32/bin/../lib/gcc/nios2-elf/4.7.3/../../../../../H-i686-mingw32/nios2-elf/lib\libc.a(lib_a-freer.o)
 .debug_frame   0x00001c58       0x38 c:/altera/13.1/nios2eds/bin/gnu/h-i686-mingw32/bin/../lib/gcc/nios2-elf/4.7.3/../../../../../H-i686-mingw32/nios2-elf/lib\libc.a(lib_a-fvwrite.o)
 .debug_frame   0x00001c90       0x5c c:/altera/13.1/nios2eds/bin/gnu/h-i686-mingw32/bin/../lib/gcc/nios2-elf/4.7.3/../../../../../H-i686-mingw32/nios2-elf/lib\libc.a(lib_a-fwalk.o)
 .debug_frame   0x00001cec       0x6c c:/altera/13.1/nios2eds/bin/gnu/h-i686-mingw32/bin/../lib/gcc/nios2-elf/4.7.3/../../../../../H-i686-mingw32/nios2-elf/lib\libc.a(lib_a-locale.o)
 .debug_frame   0x00001d58       0x2c c:/altera/13.1/nios2eds/bin/gnu/h-i686-mingw32/bin/../lib/gcc/nios2-elf/4.7.3/../../../../../H-i686-mingw32/nios2-elf/lib\libc.a(lib_a-makebuf.o)
 .debug_frame   0x00001d84       0x38 c:/altera/13.1/nios2eds/bin/gnu/h-i686-mingw32/bin/../lib/gcc/nios2-elf/4.7.3/../../../../../H-i686-mingw32/nios2-elf/lib\libc.a(lib_a-mallocr.o)
 .debug_frame   0x00001dbc       0x20 c:/altera/13.1/nios2eds/bin/gnu/h-i686-mingw32/bin/../lib/gcc/nios2-elf/4.7.3/../../../../../H-i686-mingw32/nios2-elf/lib\libc.a(lib_a-memchr.o)
 .debug_frame   0x00001ddc       0x20 c:/altera/13.1/nios2eds/bin/gnu/h-i686-mingw32/bin/../lib/gcc/nios2-elf/4.7.3/../../../../../H-i686-mingw32/nios2-elf/lib\libc.a(lib_a-memmove.o)
 .debug_frame   0x00001dfc      0x204 c:/altera/13.1/nios2eds/bin/gnu/h-i686-mingw32/bin/../lib/gcc/nios2-elf/4.7.3/../../../../../H-i686-mingw32/nios2-elf/lib\libc.a(lib_a-mprec.o)
 .debug_frame   0x00002000       0x38 c:/altera/13.1/nios2eds/bin/gnu/h-i686-mingw32/bin/../lib/gcc/nios2-elf/4.7.3/../../../../../H-i686-mingw32/nios2-elf/lib\libc.a(lib_a-reallocr.o)
 .debug_frame   0x00002038       0x20 c:/altera/13.1/nios2eds/bin/gnu/h-i686-mingw32/bin/../lib/gcc/nios2-elf/4.7.3/../../../../../H-i686-mingw32/nios2-elf/lib\libc.a(lib_a-s_isinfd.o)
 .debug_frame   0x00002058       0x20 c:/altera/13.1/nios2eds/bin/gnu/h-i686-mingw32/bin/../lib/gcc/nios2-elf/4.7.3/../../../../../H-i686-mingw32/nios2-elf/lib\libc.a(lib_a-s_isnand.o)
 .debug_frame   0x00002078       0x2c c:/altera/13.1/nios2eds/bin/gnu/h-i686-mingw32/bin/../lib/gcc/nios2-elf/4.7.3/../../../../../H-i686-mingw32/nios2-elf/lib\libc.a(lib_a-sbrkr.o)
 .debug_frame   0x000020a4       0x78 c:/altera/13.1/nios2eds/bin/gnu/h-i686-mingw32/bin/../lib/gcc/nios2-elf/4.7.3/../../../../../H-i686-mingw32/nios2-elf/lib\libc.a(lib_a-stdio.o)
 .debug_frame   0x0000211c       0x2c c:/altera/13.1/nios2eds/bin/gnu/h-i686-mingw32/bin/../lib/gcc/nios2-elf/4.7.3/../../../../../H-i686-mingw32/nios2-elf/lib\libc.a(lib_a-writer.o)
 .debug_frame   0x00002148       0x28 c:/altera/13.1/nios2eds/bin/gnu/h-i686-mingw32/bin/../lib/gcc/nios2-elf/4.7.3/../../../../../H-i686-mingw32/nios2-elf/lib\libc.a(lib_a-callocr.o)
 .debug_frame   0x00002170       0x2c c:/altera/13.1/nios2eds/bin/gnu/h-i686-mingw32/bin/../lib/gcc/nios2-elf/4.7.3/../../../../../H-i686-mingw32/nios2-elf/lib\libc.a(lib_a-closer.o)
 .debug_frame   0x0000219c       0x3c c:/altera/13.1/nios2eds/bin/gnu/h-i686-mingw32/bin/../lib/gcc/nios2-elf/4.7.3/../../../../../H-i686-mingw32/nios2-elf/lib\libc.a(lib_a-fclose.o)
 .debug_frame   0x000021d8       0x2c c:/altera/13.1/nios2eds/bin/gnu/h-i686-mingw32/bin/../lib/gcc/nios2-elf/4.7.3/../../../../../H-i686-mingw32/nios2-elf/lib\libc.a(lib_a-fstatr.o)
 .debug_frame   0x00002204       0x2c c:/altera/13.1/nios2eds/bin/gnu/h-i686-mingw32/bin/../lib/gcc/nios2-elf/4.7.3/../../../../../H-i686-mingw32/nios2-elf/lib\libc.a(lib_a-isattyr.o)
 .debug_frame   0x00002230       0x2c c:/altera/13.1/nios2eds/bin/gnu/h-i686-mingw32/bin/../lib/gcc/nios2-elf/4.7.3/../../../../../H-i686-mingw32/nios2-elf/lib\libc.a(lib_a-lseekr.o)
 .debug_frame   0x0000225c       0x2c c:/altera/13.1/nios2eds/bin/gnu/h-i686-mingw32/bin/../lib/gcc/nios2-elf/4.7.3/../../../../../H-i686-mingw32/nios2-elf/lib\libc.a(lib_a-readr.o)
 .debug_frame   0x00002288       0x38 c:/altera/13.1/nios2eds/bin/gnu/h-i686-mingw32/bin/../lib/gcc/nios2-elf/4.7.3\libgcc.a(_udivdi3.o)
 .debug_frame   0x000022c0       0x38 c:/altera/13.1/nios2eds/bin/gnu/h-i686-mingw32/bin/../lib/gcc/nios2-elf/4.7.3\libgcc.a(_umoddi3.o)
 .debug_frame   0x000022f8       0x50 c:/altera/13.1/nios2eds/bin/gnu/h-i686-mingw32/bin/../lib/gcc/nios2-elf/4.7.3\libgcc.a(_addsub_df.o)
 .debug_frame   0x00002348       0x38 c:/altera/13.1/nios2eds/bin/gnu/h-i686-mingw32/bin/../lib/gcc/nios2-elf/4.7.3\libgcc.a(_mul_df.o)
 .debug_frame   0x00002380       0x28 c:/altera/13.1/nios2eds/bin/gnu/h-i686-mingw32/bin/../lib/gcc/nios2-elf/4.7.3\libgcc.a(_div_df.o)
 .debug_frame   0x000023a8       0x28 c:/altera/13.1/nios2eds/bin/gnu/h-i686-mingw32/bin/../lib/gcc/nios2-elf/4.7.3\libgcc.a(_eq_df.o)
 .debug_frame   0x000023d0       0x28 c:/altera/13.1/nios2eds/bin/gnu/h-i686-mingw32/bin/../lib/gcc/nios2-elf/4.7.3\libgcc.a(_ne_df.o)
 .debug_frame   0x000023f8       0x28 c:/altera/13.1/nios2eds/bin/gnu/h-i686-mingw32/bin/../lib/gcc/nios2-elf/4.7.3\libgcc.a(_gt_df.o)
 .debug_frame   0x00002420       0x28 c:/altera/13.1/nios2eds/bin/gnu/h-i686-mingw32/bin/../lib/gcc/nios2-elf/4.7.3\libgcc.a(_ge_df.o)
 .debug_frame   0x00002448       0x28 c:/altera/13.1/nios2eds/bin/gnu/h-i686-mingw32/bin/../lib/gcc/nios2-elf/4.7.3\libgcc.a(_lt_df.o)
 .debug_frame   0x00002470       0x28 c:/altera/13.1/nios2eds/bin/gnu/h-i686-mingw32/bin/../lib/gcc/nios2-elf/4.7.3\libgcc.a(_si_to_df.o)
 .debug_frame   0x00002498       0x28 c:/altera/13.1/nios2eds/bin/gnu/h-i686-mingw32/bin/../lib/gcc/nios2-elf/4.7.3\libgcc.a(_df_to_si.o)
 .debug_frame   0x000024c0       0x28 c:/altera/13.1/nios2eds/bin/gnu/h-i686-mingw32/bin/../lib/gcc/nios2-elf/4.7.3\libgcc.a(_usi_to_df.o)
 .debug_frame   0x000024e8       0x70 c:/altera/13.1/nios2eds/bin/gnu/h-i686-mingw32/bin/../lib/gcc/nios2-elf/4.7.3\libgcc.a(lib2-divmod.o)
 .debug_frame   0x00002558       0x20 c:/altera/13.1/nios2eds/bin/gnu/h-i686-mingw32/bin/../lib/gcc/nios2-elf/4.7.3\libgcc.a(_muldi3.o)
 .debug_frame   0x00002578       0x20 c:/altera/13.1/nios2eds/bin/gnu/h-i686-mingw32/bin/../lib/gcc/nios2-elf/4.7.3\libgcc.a(_clzsi2.o)
 .debug_frame   0x00002598       0x34 c:/altera/13.1/nios2eds/bin/gnu/h-i686-mingw32/bin/../lib/gcc/nios2-elf/4.7.3\libgcc.a(_pack_df.o)
 .debug_frame   0x000025cc       0x20 c:/altera/13.1/nios2eds/bin/gnu/h-i686-mingw32/bin/../lib/gcc/nios2-elf/4.7.3\libgcc.a(_unpack_df.o)
 .debug_frame   0x000025ec       0x20 c:/altera/13.1/nios2eds/bin/gnu/h-i686-mingw32/bin/../lib/gcc/nios2-elf/4.7.3\libgcc.a(_fpcmp_parts_df.o)
 .debug_frame   0x0000260c       0x20 c:/altera/13.1/nios2eds/bin/gnu/h-i686-mingw32/bin/../lib/gcc/nios2-elf/4.7.3\libgcc.a(_lshrdi3.o)
 .debug_frame   0x0000262c       0x20 c:/altera/13.1/nios2eds/bin/gnu/h-i686-mingw32/bin/../lib/gcc/nios2-elf/4.7.3\libgcc.a(_ashldi3.o)
 .debug_frame   0x0000264c       0x2c ../lwIP_NIOS_II_Example_bsp\libhal_bsp.a(alt_alarm_start.o)
 .debug_frame   0x00002678       0x48 ../lwIP_NIOS_II_Example_bsp\libhal_bsp.a(alt_close.o)
 .debug_frame   0x000026c0       0x2c ../lwIP_NIOS_II_Example_bsp\libhal_bsp.a(alt_dev.o)
 .debug_frame   0x000026ec       0x48 ../lwIP_NIOS_II_Example_bsp\libhal_bsp.a(alt_fstat.o)
 .debug_frame   0x00002734       0x48 ../lwIP_NIOS_II_Example_bsp\libhal_bsp.a(alt_isatty.o)
 .debug_frame   0x0000277c       0x48 ../lwIP_NIOS_II_Example_bsp\libhal_bsp.a(alt_load.o)
 .debug_frame   0x000027c4       0x48 ../lwIP_NIOS_II_Example_bsp\libhal_bsp.a(alt_lseek.o)
 .debug_frame   0x0000280c       0x2c ../lwIP_NIOS_II_Example_bsp\libhal_bsp.a(alt_main.o)
 .debug_frame   0x00002838       0x48 ../lwIP_NIOS_II_Example_bsp\libhal_bsp.a(alt_malloc_lock.o)
 .debug_frame   0x00002880       0x48 ../lwIP_NIOS_II_Example_bsp\libhal_bsp.a(alt_read.o)
 .debug_frame   0x000028c8       0x2c ../lwIP_NIOS_II_Example_bsp\libhal_bsp.a(alt_release_fd.o)
 .debug_frame   0x000028f4       0x2c ../lwIP_NIOS_II_Example_bsp\libhal_bsp.a(alt_remap_uncached.o)
 .debug_frame   0x00002920       0x2c ../lwIP_NIOS_II_Example_bsp\libhal_bsp.a(alt_sbrk.o)
 .debug_frame   0x0000294c       0x48 ../lwIP_NIOS_II_Example_bsp\libhal_bsp.a(alt_tick.o)
 .debug_frame   0x00002994       0x2c ../lwIP_NIOS_II_Example_bsp\libhal_bsp.a(alt_uncached_malloc.o)
 .debug_frame   0x000029c0       0x2c ../lwIP_NIOS_II_Example_bsp\libhal_bsp.a(alt_usleep.o)
 .debug_frame   0x000029ec       0x48 ../lwIP_NIOS_II_Example_bsp\libhal_bsp.a(alt_write.o)
 .debug_frame   0x00002a34       0x64 ../lwIP_NIOS_II_Example_bsp\libhal_bsp.a(alt_sys_init.o)
 .debug_frame   0x00002a98       0xd4 ../lwIP_NIOS_II_Example_bsp\libhal_bsp.a(altera_avalon_cfi_flash.o)
 .debug_frame   0x00002b6c      0x208 ../lwIP_NIOS_II_Example_bsp\libhal_bsp.a(altera_avalon_cfi_flash_table.o)
 .debug_frame   0x00002d74       0x80 ../lwIP_NIOS_II_Example_bsp\libhal_bsp.a(altera_avalon_jtag_uart_fd.o)
 .debug_frame   0x00002df4       0x80 ../lwIP_NIOS_II_Example_bsp\libhal_bsp.a(altera_avalon_jtag_uart_init.o)
 .debug_frame   0x00002e74       0x2c ../lwIP_NIOS_II_Example_bsp\libhal_bsp.a(altera_avalon_jtag_uart_ioctl.o)
 .debug_frame   0x00002ea0       0x2c ../lwIP_NIOS_II_Example_bsp\libhal_bsp.a(altera_avalon_jtag_uart_read.o)
 .debug_frame   0x00002ecc       0x2c ../lwIP_NIOS_II_Example_bsp\libhal_bsp.a(altera_avalon_jtag_uart_write.o)
 .debug_frame   0x00002ef8      0x10c ../lwIP_NIOS_II_Example_bsp\libhal_bsp.a(altera_avalon_lcd_16207.o)
 .debug_frame   0x00003004       0x2c ../lwIP_NIOS_II_Example_bsp\libhal_bsp.a(altera_avalon_lcd_16207_fd.o)
 .debug_frame   0x00003030      0x240 ../lwIP_NIOS_II_Example_bsp\libhal_bsp.a(altera_avalon_sgdma.o)
 .debug_frame   0x00003270       0x48 ../lwIP_NIOS_II_Example_bsp\libhal_bsp.a(altera_avalon_timer_sc.o)
 .debug_frame   0x000032b8      0x4d4 ../lwIP_NIOS_II_Example_bsp\libhal_bsp.a(altera_avalon_tse.o)
 .debug_frame   0x0000378c       0x64 ../lwIP_NIOS_II_Example_bsp\libhal_bsp.a(altera_avalon_uart_fd.o)
 .debug_frame   0x000037f0       0x9c ../lwIP_NIOS_II_Example_bsp\libhal_bsp.a(altera_avalon_uart_init.o)
 .debug_frame   0x0000388c       0x48 ../lwIP_NIOS_II_Example_bsp\libhal_bsp.a(altera_avalon_uart_read.o)
 .debug_frame   0x000038d4       0x48 ../lwIP_NIOS_II_Example_bsp\libhal_bsp.a(altera_avalon_uart_write.o)
 .debug_frame   0x0000391c       0x2c ../lwIP_NIOS_II_Example_bsp\libhal_bsp.a(altera_vic_irq_init.o)
 .debug_frame   0x00003948       0x2c ../lwIP_NIOS_II_Example_bsp\libhal_bsp.a(altera_vic_isr_register.o)
 .debug_frame   0x00003974       0x2c ../lwIP_NIOS_II_Example_bsp\libhal_bsp.a(alt_busy_sleep.o)
 .debug_frame   0x000039a0       0x2c ../lwIP_NIOS_II_Example_bsp\libhal_bsp.a(alt_dcache_flush.o)
 .debug_frame   0x000039cc       0x2c ../lwIP_NIOS_II_Example_bsp\libhal_bsp.a(alt_dcache_flush_all.o)
 .debug_frame   0x000039f8       0x48 ../lwIP_NIOS_II_Example_bsp\libhal_bsp.a(alt_dev_llist_insert.o)
 .debug_frame   0x00003a40       0x2c ../lwIP_NIOS_II_Example_bsp\libhal_bsp.a(alt_do_ctors.o)
 .debug_frame   0x00003a6c       0x2c ../lwIP_NIOS_II_Example_bsp\libhal_bsp.a(alt_do_dtors.o)
 .debug_frame   0x00003a98       0x2c ../lwIP_NIOS_II_Example_bsp\libhal_bsp.a(alt_find_dev.o)
 .debug_frame   0x00003ac4       0x48 ../lwIP_NIOS_II_Example_bsp\libhal_bsp.a(alt_flash_dev.o)
 .debug_frame   0x00003b0c       0x2c ../lwIP_NIOS_II_Example_bsp\libhal_bsp.a(alt_icache_flush_all.o)
 .debug_frame   0x00003b38       0x48 ../lwIP_NIOS_II_Example_bsp\libhal_bsp.a(alt_io_redirect.o)
 .debug_frame   0x00003b80       0x64 ../lwIP_NIOS_II_Example_bsp\libhal_bsp.a(alt_open.o)
 .debug_frame   0x00003be4       0x80 ../lwIP_NIOS_II_Example_bsp\libhal_bsp.a(altera_avalon_cfi_flash_amd.o)
 .debug_frame   0x00003c64       0x80 ../lwIP_NIOS_II_Example_bsp\libhal_bsp.a(altera_avalon_cfi_flash_intel.o)
 .debug_frame   0x00003ce4       0x2c ../lwIP_NIOS_II_Example_bsp\libhal_bsp.a(alt_find_file.o)
 .debug_frame   0x00003d10       0x2c ../lwIP_NIOS_II_Example_bsp\libhal_bsp.a(alt_get_fd.o)
 .debug_frame   0x00003d3c       0x2c ../lwIP_NIOS_II_Example_bsp\libhal_bsp.a(alt_icache_flush.o)
 .debug_frame   0x00003d68       0x20 c:/altera/13.1/nios2eds/bin/gnu/h-i686-mingw32/bin/../lib/gcc/nios2-elf/4.7.3/../../../../../H-i686-mingw32/nios2-elf/lib\libc.a(lib_a-atexit.o)
 .debug_frame   0x00003d88       0x28 c:/altera/13.1/nios2eds/bin/gnu/h-i686-mingw32/bin/../lib/gcc/nios2-elf/4.7.3/../../../../../H-i686-mingw32/nios2-elf/lib\libc.a(lib_a-exit.o)
 .debug_frame   0x00003db0       0x30 c:/altera/13.1/nios2eds/bin/gnu/h-i686-mingw32/bin/../lib/gcc/nios2-elf/4.7.3/../../../../../H-i686-mingw32/nios2-elf/lib\libc.a(lib_a-malloc.o)
 .debug_frame   0x00003de0       0x20 c:/altera/13.1/nios2eds/bin/gnu/h-i686-mingw32/bin/../lib/gcc/nios2-elf/4.7.3/../../../../../H-i686-mingw32/nios2-elf/lib\libc.a(lib_a-memcmp.o)
 .debug_frame   0x00003e00       0x20 c:/altera/13.1/nios2eds/bin/gnu/h-i686-mingw32/bin/../lib/gcc/nios2-elf/4.7.3/../../../../../H-i686-mingw32/nios2-elf/lib\libc.a(lib_a-strcpy.o)
 .debug_frame   0x00003e20       0x2c c:/altera/13.1/nios2eds/bin/gnu/h-i686-mingw32/bin/../lib/gcc/nios2-elf/4.7.3/../../../../../H-i686-mingw32/nios2-elf/lib\libc.a(lib_a-__atexit.o)
 .debug_frame   0x00003e4c       0x38 c:/altera/13.1/nios2eds/bin/gnu/h-i686-mingw32/bin/../lib/gcc/nios2-elf/4.7.3/../../../../../H-i686-mingw32/nios2-elf/lib\libc.a(lib_a-__call_atexit.o)
 .debug_frame   0x00003e84       0x2c ../lwIP_NIOS_II_Example_bsp\libhal_bsp.a(alt_exit.o)

.debug_str      0x00000000     0x7e3a
 *(.debug_str)
 .debug_str     0x00000000      0x345 obj/default/drivers/alteraTseEthernetif.o
                                0x41d (size before relaxing)
 .debug_str     0x00000345       0x89 obj/default/drivers/fs.o
                                0x188 (size before relaxing)
 .debug_str     0x000003ce      0x288 obj/default/drivers/httpd.o
                                0x43a (size before relaxing)
 .debug_str     0x00000656     0x14a9 obj/default/drivers/lwip_tse_mac.o
                               0x1885 (size before relaxing)
 .debug_str     0x00001aff       0x18 obj/default/drivers/tse_my_system.o
                                0x8c2 (size before relaxing)
 .debug_str     0x00001b17       0x17 obj/default/lwip/src/api/api_lib.o
                                0x102 (size before relaxing)
 .debug_str     0x00001b2e       0x17 obj/default/lwip/src/api/api_msg.o
                                0x102 (size before relaxing)
 .debug_str     0x00001b45       0x2a obj/default/lwip/src/api/err.o
                                0x120 (size before relaxing)
 .debug_str     0x00001b6f       0x16 obj/default/lwip/src/api/netbuf.o
                                0x101 (size before relaxing)
 .debug_str     0x00001b85       0x15 obj/default/lwip/src/api/netdb.o
                                0x100 (size before relaxing)
 .debug_str     0x00001b9a       0x18 obj/default/lwip/src/api/netifapi.o
                                0x103 (size before relaxing)
 .debug_str     0x00001bb2       0x17 obj/default/lwip/src/api/sockets.o
                                0x102 (size before relaxing)
 .debug_str     0x00001bc9       0x15 obj/default/lwip/src/api/tcpip.o
                                0x100 (size before relaxing)
 .debug_str     0x00001bde      0x428 obj/default/lwip/src/core/dhcp.o
                                0x6ba (size before relaxing)
 .debug_str     0x00002006       0x14 obj/default/lwip/src/core/dns.o
                                 0xff (size before relaxing)
 .debug_str     0x0000201a       0x31 obj/default/lwip/src/core/init.o
                                0x11c (size before relaxing)
 .debug_str     0x0000204b       0x1c obj/default/lwip/src/core/ipv4/autoip.o
                                0x107 (size before relaxing)
 .debug_str     0x00002067      0x132 obj/default/lwip/src/core/ipv4/icmp.o
                                0x3fc (size before relaxing)
 .debug_str     0x00002199       0x1a obj/default/lwip/src/core/ipv4/igmp.o
                                0x105 (size before relaxing)
 .debug_str     0x000021b3       0x40 obj/default/lwip/src/core/ipv4/inet.o
                                0x14d (size before relaxing)
 .debug_str     0x000021f3       0x81 obj/default/lwip/src/core/ipv4/inet_chksum.o
                                0x1c8 (size before relaxing)
 .debug_str     0x00002274       0xa1 obj/default/lwip/src/core/ipv4/ip.o
                                0x5da (size before relaxing)
 .debug_str     0x00002315       0x3b obj/default/lwip/src/core/ipv4/ip_addr.o
                                0x1da (size before relaxing)
 .debug_str     0x00002350      0x1d8 obj/default/lwip/src/core/ipv4/ip_frag.o
                                0x589 (size before relaxing)
 .debug_str     0x00002528       0x9d obj/default/lwip/src/core/mem.o
                                0x309 (size before relaxing)
 .debug_str     0x000025c5       0x6f obj/default/lwip/src/core/memp.o
                                0x2d0 (size before relaxing)
 .debug_str     0x00002634       0xf5 obj/default/lwip/src/core/netif.o
                                0x683 (size before relaxing)
 .debug_str     0x00002729      0x15a obj/default/lwip/src/core/pbuf.o
                                0x394 (size before relaxing)
 .debug_str     0x00002883       0x86 obj/default/lwip/src/core/raw.o
                                0x367 (size before relaxing)
 .debug_str     0x00002909       0x1e obj/default/lwip/src/core/snmp/asn1_dec.o
                                0x109 (size before relaxing)
 .debug_str     0x00002927       0x1e obj/default/lwip/src/core/snmp/asn1_enc.o
                                0x109 (size before relaxing)
 .debug_str     0x00002945       0x1a obj/default/lwip/src/core/snmp/mib2.o
                                0x105 (size before relaxing)
 .debug_str     0x0000295f       0x21 obj/default/lwip/src/core/snmp/mib_structs.o
                                0x10c (size before relaxing)
 .debug_str     0x00002980       0x1c obj/default/lwip/src/core/snmp/msg_in.o
                                0x107 (size before relaxing)
 .debug_str     0x0000299c       0x1d obj/default/lwip/src/core/snmp/msg_out.o
                                0x108 (size before relaxing)
 .debug_str     0x000029b9       0x16 obj/default/lwip/src/core/stats.o
                                0x252 (size before relaxing)
 .debug_str     0x000029cf       0x14 obj/default/lwip/src/core/sys.o
                                 0xff (size before relaxing)
 .debug_str     0x000029e3      0x2ec obj/default/lwip/src/core/tcp.o
                                0x8a5 (size before relaxing)
 .debug_str     0x00002ccf      0x124 obj/default/lwip/src/core/tcp_in.o
                                0x6f9 (size before relaxing)
 .debug_str     0x00002df3      0x11c obj/default/lwip/src/core/tcp_out.o
                                0x6bc (size before relaxing)
 .debug_str     0x00002f0f       0xbb obj/default/lwip/src/core/udp.o
                                0x66b (size before relaxing)
 .debug_str     0x00002fca      0x28c obj/default/lwip/src/netif/etharp.o
                                0x7d5 (size before relaxing)
 .debug_str     0x00003256       0x1c obj/default/lwip/src/netif/ethernetif.o
                                0x107 (size before relaxing)
 .debug_str     0x00003272       0x18 obj/default/lwip/src/netif/loopif.o
                                0x103 (size before relaxing)
 .debug_str     0x0000328a       0x1a obj/default/lwip/src/netif/ppp/auth.o
                                0x105 (size before relaxing)
 .debug_str     0x000032a4       0x1a obj/default/lwip/src/netif/ppp/chap.o
                                0x105 (size before relaxing)
 .debug_str     0x000032be       0x1b obj/default/lwip/src/netif/ppp/chpms.o
                                0x106 (size before relaxing)
 .debug_str     0x000032d9       0x19 obj/default/lwip/src/netif/ppp/fsm.o
                                0x104 (size before relaxing)
 .debug_str     0x000032f2       0x1a obj/default/lwip/src/netif/ppp/ipcp.o
                                0x105 (size before relaxing)
 .debug_str     0x0000330c       0x19 obj/default/lwip/src/netif/ppp/lcp.o
                                0x104 (size before relaxing)
 .debug_str     0x00003325       0x1b obj/default/lwip/src/netif/ppp/magic.o
                                0x106 (size before relaxing)
 .debug_str     0x00003340       0x19 obj/default/lwip/src/netif/ppp/md5.o
                                0x104 (size before relaxing)
 .debug_str     0x00003359       0x19 obj/default/lwip/src/netif/ppp/pap.o
                                0x104 (size before relaxing)
 .debug_str     0x00003372       0x19 obj/default/lwip/src/netif/ppp/ppp.o
                                0x104 (size before relaxing)
 .debug_str     0x0000338b       0x1c obj/default/lwip/src/netif/ppp/ppp_oe.o
                                0x107 (size before relaxing)
 .debug_str     0x000033a7       0x1b obj/default/lwip/src/netif/ppp/randm.o
                                0x106 (size before relaxing)
 .debug_str     0x000033c2       0x18 obj/default/lwip/src/netif/ppp/vj.o
                                0x103 (size before relaxing)
 .debug_str     0x000033da       0x18 obj/default/lwip/src/netif/slipif.o
                                0x103 (size before relaxing)
 .debug_str     0x000033f2      0x3f6 obj/default/main.o
                                0x951 (size before relaxing)
 .debug_str     0x000037e8       0xe7 c:/altera/13.1/nios2eds/bin/gnu/h-i686-mingw32/bin/../lib/gcc/nios2-elf/4.7.3/../../../../../H-i686-mingw32/nios2-elf/lib\libc.a(lib_a-impure.o)
                                0x526 (size before relaxing)
 .debug_str     0x000038cf       0xf8 c:/altera/13.1/nios2eds/bin/gnu/h-i686-mingw32/bin/../lib/gcc/nios2-elf/4.7.3/../../../../../H-i686-mingw32/nios2-elf/lib\libc.a(lib_a-memcpy.o)
                                0x126 (size before relaxing)
 .debug_str     0x000039c7       0x56 c:/altera/13.1/nios2eds/bin/gnu/h-i686-mingw32/bin/../lib/gcc/nios2-elf/4.7.3/../../../../../H-i686-mingw32/nios2-elf/lib\libc.a(lib_a-memset.o)
                                0x18a (size before relaxing)
 .debug_str     0x00003a1d      0x11e c:/altera/13.1/nios2eds/bin/gnu/h-i686-mingw32/bin/../lib/gcc/nios2-elf/4.7.3/../../../../../H-i686-mingw32/nios2-elf/lib\libc.a(lib_a-printf.o)
                                0x571 (size before relaxing)
 .debug_str     0x00003b3b       0x57 c:/altera/13.1/nios2eds/bin/gnu/h-i686-mingw32/bin/../lib/gcc/nios2-elf/4.7.3/../../../../../H-i686-mingw32/nios2-elf/lib\libc.a(lib_a-putc.o)
                                0x530 (size before relaxing)
 .debug_str     0x00003b92       0x4e c:/altera/13.1/nios2eds/bin/gnu/h-i686-mingw32/bin/../lib/gcc/nios2-elf/4.7.3/../../../../../H-i686-mingw32/nios2-elf/lib\libc.a(lib_a-putchar.o)
                                0x528 (size before relaxing)
 .debug_str     0x00003be0       0x95 c:/altera/13.1/nios2eds/bin/gnu/h-i686-mingw32/bin/../lib/gcc/nios2-elf/4.7.3/../../../../../H-i686-mingw32/nios2-elf/lib\libc.a(lib_a-puts.o)
                                0x56e (size before relaxing)
 .debug_str     0x00003c75       0x42 c:/altera/13.1/nios2eds/bin/gnu/h-i686-mingw32/bin/../lib/gcc/nios2-elf/4.7.3/../../../../../H-i686-mingw32/nios2-elf/lib\libc.a(lib_a-strcmp.o)
                                0x16f (size before relaxing)
 .debug_str     0x00003cb7       0x3b c:/altera/13.1/nios2eds/bin/gnu/h-i686-mingw32/bin/../lib/gcc/nios2-elf/4.7.3/../../../../../H-i686-mingw32/nios2-elf/lib\libc.a(lib_a-strlen.o)
                                0x189 (size before relaxing)
 .debug_str     0x00003cf2       0x44 c:/altera/13.1/nios2eds/bin/gnu/h-i686-mingw32/bin/../lib/gcc/nios2-elf/4.7.3/../../../../../H-i686-mingw32/nios2-elf/lib\libc.a(lib_a-strncmp.o)
                                0x178 (size before relaxing)
 .debug_str     0x00003d36      0x267 c:/altera/13.1/nios2eds/bin/gnu/h-i686-mingw32/bin/../lib/gcc/nios2-elf/4.7.3/../../../../../H-i686-mingw32/nios2-elf/lib\libc.a(lib_a-vfprintf.o)
                                0x888 (size before relaxing)
 .debug_str     0x00003f9d       0x40 c:/altera/13.1/nios2eds/bin/gnu/h-i686-mingw32/bin/../lib/gcc/nios2-elf/4.7.3/../../../../../H-i686-mingw32/nios2-elf/lib\libc.a(lib_a-wbuf.o)
                                0x53a (size before relaxing)
 .debug_str     0x00003fdd       0x4f c:/altera/13.1/nios2eds/bin/gnu/h-i686-mingw32/bin/../lib/gcc/nios2-elf/4.7.3/../../../../../H-i686-mingw32/nios2-elf/lib\libc.a(lib_a-wsetup.o)
                                0x535 (size before relaxing)
 .debug_str     0x0000402c      0x1e6 c:/altera/13.1/nios2eds/bin/gnu/h-i686-mingw32/bin/../lib/gcc/nios2-elf/4.7.3/../../../../../H-i686-mingw32/nios2-elf/lib\libc.a(lib_a-dtoa.o)
                                0x678 (size before relaxing)
 .debug_str     0x00004212       0x48 c:/altera/13.1/nios2eds/bin/gnu/h-i686-mingw32/bin/../lib/gcc/nios2-elf/4.7.3/../../../../../H-i686-mingw32/nios2-elf/lib\libc.a(lib_a-fflush.o)
                                0x553 (size before relaxing)
 .debug_str     0x0000425a      0x104 c:/altera/13.1/nios2eds/bin/gnu/h-i686-mingw32/bin/../lib/gcc/nios2-elf/4.7.3/../../../../../H-i686-mingw32/nios2-elf/lib\libc.a(lib_a-findfp.o)
                                0x61f (size before relaxing)
 .debug_str     0x0000435e      0x183 c:/altera/13.1/nios2eds/bin/gnu/h-i686-mingw32/bin/../lib/gcc/nios2-elf/4.7.3/../../../../../H-i686-mingw32/nios2-elf/lib\libc.a(lib_a-freer.o)
                                0x67f (size before relaxing)
 .debug_str     0x000044e1       0x64 c:/altera/13.1/nios2eds/bin/gnu/h-i686-mingw32/bin/../lib/gcc/nios2-elf/4.7.3/../../../../../H-i686-mingw32/nios2-elf/lib\libc.a(lib_a-fvwrite.o)
                                0x5b8 (size before relaxing)
 .debug_str     0x00004545       0x5e c:/altera/13.1/nios2eds/bin/gnu/h-i686-mingw32/bin/../lib/gcc/nios2-elf/4.7.3/../../../../../H-i686-mingw32/nios2-elf/lib\libc.a(lib_a-fwalk.o)
                                0x567 (size before relaxing)
 .debug_str     0x000045a3      0x145 c:/altera/13.1/nios2eds/bin/gnu/h-i686-mingw32/bin/../lib/gcc/nios2-elf/4.7.3/../../../../../H-i686-mingw32/nios2-elf/lib\libc.a(lib_a-locale.o)
                                0x6bc (size before relaxing)
 .debug_str     0x000046e8      0x129 c:/altera/13.1/nios2eds/bin/gnu/h-i686-mingw32/bin/../lib/gcc/nios2-elf/4.7.3/../../../../../H-i686-mingw32/nios2-elf/lib\libc.a(lib_a-makebuf.o)
                                0x62f (size before relaxing)
 .debug_str     0x00004811       0xd9 c:/altera/13.1/nios2eds/bin/gnu/h-i686-mingw32/bin/../lib/gcc/nios2-elf/4.7.3/../../../../../H-i686-mingw32/nios2-elf/lib\libc.a(lib_a-mallocr.o)
                                0x735 (size before relaxing)
 .debug_str     0x000048ea       0x49 c:/altera/13.1/nios2eds/bin/gnu/h-i686-mingw32/bin/../lib/gcc/nios2-elf/4.7.3/../../../../../H-i686-mingw32/nios2-elf/lib\libc.a(lib_a-memchr.o)
                                0x197 (size before relaxing)
 .debug_str     0x00004933       0x45 c:/altera/13.1/nios2eds/bin/gnu/h-i686-mingw32/bin/../lib/gcc/nios2-elf/4.7.3/../../../../../H-i686-mingw32/nios2-elf/lib\libc.a(lib_a-memmove.o)
                                0x1a9 (size before relaxing)
 .debug_str     0x00004978       0xa5 c:/altera/13.1/nios2eds/bin/gnu/h-i686-mingw32/bin/../lib/gcc/nios2-elf/4.7.3/../../../../../H-i686-mingw32/nios2-elf/lib\libc.a(lib_a-mprec.o)
                                0x632 (size before relaxing)
 .debug_str     0x00004a1d       0x49 c:/altera/13.1/nios2eds/bin/gnu/h-i686-mingw32/bin/../lib/gcc/nios2-elf/4.7.3/../../../../../H-i686-mingw32/nios2-elf/lib\libc.a(lib_a-reallocr.o)
                                0x607 (size before relaxing)
 .debug_str     0x00004a66       0xd6 c:/altera/13.1/nios2eds/bin/gnu/h-i686-mingw32/bin/../lib/gcc/nios2-elf/4.7.3/../../../../../H-i686-mingw32/nios2-elf/lib\libc.a(lib_a-s_isinfd.o)
                                0x1a1 (size before relaxing)
 .debug_str     0x00004b3c       0x3d c:/altera/13.1/nios2eds/bin/gnu/h-i686-mingw32/bin/../lib/gcc/nios2-elf/4.7.3/../../../../../H-i686-mingw32/nios2-elf/lib\libc.a(lib_a-s_isnand.o)
                                0x1a1 (size before relaxing)
 .debug_str     0x00004b79       0x43 c:/altera/13.1/nios2eds/bin/gnu/h-i686-mingw32/bin/../lib/gcc/nios2-elf/4.7.3/../../../../../H-i686-mingw32/nios2-elf/lib\libc.a(lib_a-sbrkr.o)
                                0x51c (size before relaxing)
 .debug_str     0x00004bbc       0x8e c:/altera/13.1/nios2eds/bin/gnu/h-i686-mingw32/bin/../lib/gcc/nios2-elf/4.7.3/../../../../../H-i686-mingw32/nios2-elf/lib\libc.a(lib_a-stdio.o)
                                0x570 (size before relaxing)
 .debug_str     0x00004c4a       0x3a c:/altera/13.1/nios2eds/bin/gnu/h-i686-mingw32/bin/../lib/gcc/nios2-elf/4.7.3/../../../../../H-i686-mingw32/nios2-elf/lib\libc.a(lib_a-writer.o)
                                0x520 (size before relaxing)
 .debug_str     0x00004c84        0xf c:/altera/13.1/nios2eds/bin/gnu/h-i686-mingw32/bin/../lib/gcc/nios2-elf/4.7.3/../../../../../H-i686-mingw32/nios2-elf/lib\libc.a(lib_a-callocr.o)
                                0x55f (size before relaxing)
 .debug_str     0x00004c93       0x3a c:/altera/13.1/nios2eds/bin/gnu/h-i686-mingw32/bin/../lib/gcc/nios2-elf/4.7.3/../../../../../H-i686-mingw32/nios2-elf/lib\libc.a(lib_a-closer.o)
                                0x510 (size before relaxing)
 .debug_str     0x00004ccd       0x4b c:/altera/13.1/nios2eds/bin/gnu/h-i686-mingw32/bin/../lib/gcc/nios2-elf/4.7.3/../../../../../H-i686-mingw32/nios2-elf/lib\libc.a(lib_a-fclose.o)
                                0x562 (size before relaxing)
 .debug_str     0x00004d18       0x46 c:/altera/13.1/nios2eds/bin/gnu/h-i686-mingw32/bin/../lib/gcc/nios2-elf/4.7.3/../../../../../H-i686-mingw32/nios2-elf/lib\libc.a(lib_a-fstatr.o)
                                0x603 (size before relaxing)
 .debug_str     0x00004d5e       0x3d c:/altera/13.1/nios2eds/bin/gnu/h-i686-mingw32/bin/../lib/gcc/nios2-elf/4.7.3/../../../../../H-i686-mingw32/nios2-elf/lib\libc.a(lib_a-int_errno.o)
                                0x16f (size before relaxing)
 .debug_str     0x00004d9b       0x42 c:/altera/13.1/nios2eds/bin/gnu/h-i686-mingw32/bin/../lib/gcc/nios2-elf/4.7.3/../../../../../H-i686-mingw32/nios2-elf/lib\libc.a(lib_a-isattyr.o)
                                0x513 (size before relaxing)
 .debug_str     0x00004ddd       0x40 c:/altera/13.1/nios2eds/bin/gnu/h-i686-mingw32/bin/../lib/gcc/nios2-elf/4.7.3/../../../../../H-i686-mingw32/nios2-elf/lib\libc.a(lib_a-lseekr.o)
                                0x524 (size before relaxing)
 .debug_str     0x00004e1d       0x39 c:/altera/13.1/nios2eds/bin/gnu/h-i686-mingw32/bin/../lib/gcc/nios2-elf/4.7.3/../../../../../H-i686-mingw32/nios2-elf/lib\libc.a(lib_a-readr.o)
                                0x51d (size before relaxing)
 .debug_str     0x00004e56      0x15d c:/altera/13.1/nios2eds/bin/gnu/h-i686-mingw32/bin/../lib/gcc/nios2-elf/4.7.3\libgcc.a(_udivdi3.o)
                                0x1f6 (size before relaxing)
 .debug_str     0x00004fb3        0xa c:/altera/13.1/nios2eds/bin/gnu/h-i686-mingw32/bin/../lib/gcc/nios2-elf/4.7.3\libgcc.a(_umoddi3.o)
                                0x1f6 (size before relaxing)
 .debug_str     0x00004fbd      0x16f c:/altera/13.1/nios2eds/bin/gnu/h-i686-mingw32/bin/../lib/gcc/nios2-elf/4.7.3\libgcc.a(_addsub_df.o)
                                0x2a9 (size before relaxing)
 .debug_str     0x0000512c       0x40 c:/altera/13.1/nios2eds/bin/gnu/h-i686-mingw32/bin/../lib/gcc/nios2-elf/4.7.3\libgcc.a(_mul_df.o)
                                0x27b (size before relaxing)
 .debug_str     0x0000516c       0x35 c:/altera/13.1/nios2eds/bin/gnu/h-i686-mingw32/bin/../lib/gcc/nios2-elf/4.7.3\libgcc.a(_div_df.o)
                                0x26b (size before relaxing)
 .debug_str     0x000051a1       0x20 c:/altera/13.1/nios2eds/bin/gnu/h-i686-mingw32/bin/../lib/gcc/nios2-elf/4.7.3\libgcc.a(_eq_df.o)
                                0x238 (size before relaxing)
 .debug_str     0x000051c1        0x8 c:/altera/13.1/nios2eds/bin/gnu/h-i686-mingw32/bin/../lib/gcc/nios2-elf/4.7.3\libgcc.a(_ne_df.o)
                                0x238 (size before relaxing)
 .debug_str     0x000051c9        0x8 c:/altera/13.1/nios2eds/bin/gnu/h-i686-mingw32/bin/../lib/gcc/nios2-elf/4.7.3\libgcc.a(_gt_df.o)
                                0x238 (size before relaxing)
 .debug_str     0x000051d1        0x8 c:/altera/13.1/nios2eds/bin/gnu/h-i686-mingw32/bin/../lib/gcc/nios2-elf/4.7.3\libgcc.a(_ge_df.o)
                                0x238 (size before relaxing)
 .debug_str     0x000051d9        0x8 c:/altera/13.1/nios2eds/bin/gnu/h-i686-mingw32/bin/../lib/gcc/nios2-elf/4.7.3\libgcc.a(_lt_df.o)
                                0x238 (size before relaxing)
 .debug_str     0x000051e1       0x21 c:/altera/13.1/nios2eds/bin/gnu/h-i686-mingw32/bin/../lib/gcc/nios2-elf/4.7.3\libgcc.a(_si_to_df.o)
                                0x20e (size before relaxing)
 .debug_str     0x00005202        0xa c:/altera/13.1/nios2eds/bin/gnu/h-i686-mingw32/bin/../lib/gcc/nios2-elf/4.7.3\libgcc.a(_df_to_si.o)
                                0x230 (size before relaxing)
 .debug_str     0x00000000      0x1c1 c:/altera/13.1/nios2eds/bin/gnu/h-i686-mingw32/bin/../lib/gcc/nios2-elf/4.7.3\libgcc.a(_thenan_df.o)
 .debug_str     0x0000520c       0x14 c:/altera/13.1/nios2eds/bin/gnu/h-i686-mingw32/bin/../lib/gcc/nios2-elf/4.7.3\libgcc.a(_usi_to_df.o)
                                0x20a (size before relaxing)
 .debug_str     0x00005220       0x7c c:/altera/13.1/nios2eds/bin/gnu/h-i686-mingw32/bin/../lib/gcc/nios2-elf/4.7.3\libgcc.a(lib2-divmod.o)
                                0x15b (size before relaxing)
 .debug_str     0x0000529c        0x9 c:/altera/13.1/nios2eds/bin/gnu/h-i686-mingw32/bin/../lib/gcc/nios2-elf/4.7.3\libgcc.a(_muldi3.o)
                                0x1a2 (size before relaxing)
 .debug_str     0x00000000      0x160 c:/altera/13.1/nios2eds/bin/gnu/h-i686-mingw32/bin/../lib/gcc/nios2-elf/4.7.3\libgcc.a(_clz.o)
 .debug_str     0x00000000      0x17d c:/altera/13.1/nios2eds/bin/gnu/h-i686-mingw32/bin/../lib/gcc/nios2-elf/4.7.3\libgcc.a(_clzsi2.o)
 .debug_str     0x000052a5        0x7 c:/altera/13.1/nios2eds/bin/gnu/h-i686-mingw32/bin/../lib/gcc/nios2-elf/4.7.3\libgcc.a(_pack_df.o)
                                0x224 (size before relaxing)
 .debug_str     0x00000000      0x206 c:/altera/13.1/nios2eds/bin/gnu/h-i686-mingw32/bin/../lib/gcc/nios2-elf/4.7.3\libgcc.a(_unpack_df.o)
 .debug_str     0x00000000      0x1e4 c:/altera/13.1/nios2eds/bin/gnu/h-i686-mingw32/bin/../lib/gcc/nios2-elf/4.7.3\libgcc.a(_fpcmp_parts_df.o)
 .debug_str     0x000052ac       0x23 c:/altera/13.1/nios2eds/bin/gnu/h-i686-mingw32/bin/../lib/gcc/nios2-elf/4.7.3\libgcc.a(_lshrdi3.o)
                                0x194 (size before relaxing)
 .debug_str     0x000052cf        0xa c:/altera/13.1/nios2eds/bin/gnu/h-i686-mingw32/bin/../lib/gcc/nios2-elf/4.7.3\libgcc.a(_ashldi3.o)
                                0x194 (size before relaxing)
 .debug_str     0x000052d9       0xaa ../lwIP_NIOS_II_Example_bsp\libhal_bsp.a(alt_alarm_start.o)
                                0x253 (size before relaxing)
 .debug_str     0x00005383       0x6f ../lwIP_NIOS_II_Example_bsp\libhal_bsp.a(alt_close.o)
                                0x1d9 (size before relaxing)
 .debug_str     0x000053f2       0x49 ../lwIP_NIOS_II_Example_bsp\libhal_bsp.a(alt_dev.o)
                                0x2d3 (size before relaxing)
 .debug_str     0x0000543b       0x48 ../lwIP_NIOS_II_Example_bsp\libhal_bsp.a(alt_errno.o)
                                 0xf6 (size before relaxing)
 .debug_str     0x00005483       0x14 ../lwIP_NIOS_II_Example_bsp\libhal_bsp.a(alt_fstat.o)
                                0x2ba (size before relaxing)
 .debug_str     0x00005497       0x15 ../lwIP_NIOS_II_Example_bsp\libhal_bsp.a(alt_isatty.o)
                                0x2c2 (size before relaxing)
 .debug_str     0x000054ac       0xe4 ../lwIP_NIOS_II_Example_bsp\libhal_bsp.a(alt_load.o)
                                0x1c3 (size before relaxing)
 .debug_str     0x00005590       0x14 ../lwIP_NIOS_II_Example_bsp\libhal_bsp.a(alt_lseek.o)
                                0x1df (size before relaxing)
 .debug_str     0x000055a4       0x44 ../lwIP_NIOS_II_Example_bsp\libhal_bsp.a(alt_main.o)
                                0x16b (size before relaxing)
 .debug_str     0x000055e8       0x1a ../lwIP_NIOS_II_Example_bsp\libhal_bsp.a(alt_malloc_lock.o)
                                0x49f (size before relaxing)
 .debug_str     0x00005602       0x13 ../lwIP_NIOS_II_Example_bsp\libhal_bsp.a(alt_read.o)
                                0x2c5 (size before relaxing)
 .debug_str     0x00005615       0x28 ../lwIP_NIOS_II_Example_bsp\libhal_bsp.a(alt_release_fd.o)
                                0x1ad (size before relaxing)
 .debug_str     0x0000563d       0x30 ../lwIP_NIOS_II_Example_bsp\libhal_bsp.a(alt_remap_uncached.o)
                                0x127 (size before relaxing)
 .debug_str     0x0000566d       0x61 ../lwIP_NIOS_II_Example_bsp\libhal_bsp.a(alt_sbrk.o)
                                0x1a9 (size before relaxing)
 .debug_str     0x000056ce       0x4a ../lwIP_NIOS_II_Example_bsp\libhal_bsp.a(alt_tick.o)
                                0x227 (size before relaxing)
 .debug_str     0x00005718       0x32 ../lwIP_NIOS_II_Example_bsp\libhal_bsp.a(alt_uncached_malloc.o)
                                0x135 (size before relaxing)
 .debug_str     0x0000574a       0x27 ../lwIP_NIOS_II_Example_bsp\libhal_bsp.a(alt_usleep.o)
                                 0xf9 (size before relaxing)
 .debug_str     0x00005771       0x14 ../lwIP_NIOS_II_Example_bsp\libhal_bsp.a(alt_write.o)
                                0x2c6 (size before relaxing)
 .debug_str     0x00005785      0x4c5 ../lwIP_NIOS_II_Example_bsp\libhal_bsp.a(alt_sys_init.o)
                                0x893 (size before relaxing)
 .debug_str     0x00005c4a      0x197 ../lwIP_NIOS_II_Example_bsp\libhal_bsp.a(altera_avalon_cfi_flash.o)
                                0x4ee (size before relaxing)
 .debug_str     0x00005de1      0x2bf ../lwIP_NIOS_II_Example_bsp\libhal_bsp.a(altera_avalon_cfi_flash_table.o)
                                0x606 (size before relaxing)
 .debug_str     0x000060a0       0xac ../lwIP_NIOS_II_Example_bsp\libhal_bsp.a(altera_avalon_jtag_uart_fd.o)
                                0x372 (size before relaxing)
 .debug_str     0x0000614c       0xb4 ../lwIP_NIOS_II_Example_bsp\libhal_bsp.a(altera_avalon_jtag_uart_init.o)
                                0x306 (size before relaxing)
 .debug_str     0x00006200       0x4a ../lwIP_NIOS_II_Example_bsp\libhal_bsp.a(altera_avalon_jtag_uart_ioctl.o)
                                0x261 (size before relaxing)
 .debug_str     0x0000624a       0x48 ../lwIP_NIOS_II_Example_bsp\libhal_bsp.a(altera_avalon_jtag_uart_read.o)
                                0x2bd (size before relaxing)
 .debug_str     0x00006292       0x4a ../lwIP_NIOS_II_Example_bsp\libhal_bsp.a(altera_avalon_jtag_uart_write.o)
                                0x2be (size before relaxing)
 .debug_str     0x000062dc      0x1f7 ../lwIP_NIOS_II_Example_bsp\libhal_bsp.a(altera_avalon_lcd_16207.o)
                                0x45b (size before relaxing)
 .debug_str     0x000064d3       0x4a ../lwIP_NIOS_II_Example_bsp\libhal_bsp.a(altera_avalon_lcd_16207_fd.o)
                                0x326 (size before relaxing)
 .debug_str     0x0000651d      0x35a ../lwIP_NIOS_II_Example_bsp\libhal_bsp.a(altera_avalon_sgdma.o)
                                0x65e (size before relaxing)
 .debug_str     0x00006877       0x66 ../lwIP_NIOS_II_Example_bsp\libhal_bsp.a(altera_avalon_timer_sc.o)
                                0x220 (size before relaxing)
 .debug_str     0x000068dd      0xbcb ../lwIP_NIOS_II_Example_bsp\libhal_bsp.a(altera_avalon_tse.o)
                               0x1c99 (size before relaxing)
 .debug_str     0x000074a8       0x77 ../lwIP_NIOS_II_Example_bsp\libhal_bsp.a(altera_avalon_uart_fd.o)
                                0x2c3 (size before relaxing)
 .debug_str     0x0000751f       0xa0 ../lwIP_NIOS_II_Example_bsp\libhal_bsp.a(altera_avalon_uart_init.o)
                                0x285 (size before relaxing)
 .debug_str     0x000075bf       0x4f ../lwIP_NIOS_II_Example_bsp\libhal_bsp.a(altera_avalon_uart_read.o)
                                0x26d (size before relaxing)
 .debug_str     0x0000760e       0x49 ../lwIP_NIOS_II_Example_bsp\libhal_bsp.a(altera_avalon_uart_write.o)
                                0x261 (size before relaxing)
 .debug_str     0x00007657       0x58 ../lwIP_NIOS_II_Example_bsp\libhal_bsp.a(altera_vic_irq_init.o)
                                0x1c7 (size before relaxing)
 .debug_str     0x000076af       0x53 ../lwIP_NIOS_II_Example_bsp\libhal_bsp.a(altera_vic_isr_register.o)
                                0x231 (size before relaxing)
 .debug_str     0x00007702       0x42 ../lwIP_NIOS_II_Example_bsp\libhal_bsp.a(alt_busy_sleep.o)
                                0x139 (size before relaxing)
 .debug_str     0x00007744       0x2c ../lwIP_NIOS_II_Example_bsp\libhal_bsp.a(alt_dcache_flush.o)
                                0x129 (size before relaxing)
 .debug_str     0x00007770       0x34 ../lwIP_NIOS_II_Example_bsp\libhal_bsp.a(alt_dcache_flush_all.o)
                                0x123 (size before relaxing)
 .debug_str     0x000077a4       0x34 ../lwIP_NIOS_II_Example_bsp\libhal_bsp.a(alt_dev_llist_insert.o)
                                0x17d (size before relaxing)
 .debug_str     0x000077d8       0x48 ../lwIP_NIOS_II_Example_bsp\libhal_bsp.a(alt_do_ctors.o)
                                 0x8d (size before relaxing)
 .debug_str     0x00007820       0x4c ../lwIP_NIOS_II_Example_bsp\libhal_bsp.a(alt_do_dtors.o)
                                 0x8c (size before relaxing)
 .debug_str     0x0000786c       0x24 ../lwIP_NIOS_II_Example_bsp\libhal_bsp.a(alt_find_dev.o)
                                0x1ba (size before relaxing)
 .debug_str     0x00007890       0x3f ../lwIP_NIOS_II_Example_bsp\libhal_bsp.a(alt_flash_dev.o)
                                0x2bd (size before relaxing)
 .debug_str     0x000078cf       0x34 ../lwIP_NIOS_II_Example_bsp\libhal_bsp.a(alt_icache_flush_all.o)
                                0x123 (size before relaxing)
 .debug_str     0x00007903       0x56 ../lwIP_NIOS_II_Example_bsp\libhal_bsp.a(alt_io_redirect.o)
                                0x2e4 (size before relaxing)
 .debug_str     0x00007959       0x29 ../lwIP_NIOS_II_Example_bsp\libhal_bsp.a(alt_open.o)
                                0x219 (size before relaxing)
 .debug_str     0x00007982       0x93 ../lwIP_NIOS_II_Example_bsp\libhal_bsp.a(altera_avalon_cfi_flash_amd.o)
                                0x3e0 (size before relaxing)
 .debug_str     0x00007a15       0x80 ../lwIP_NIOS_II_Example_bsp\libhal_bsp.a(altera_avalon_cfi_flash_intel.o)
                                0x3dd (size before relaxing)
 .debug_str     0x00007a95       0x26 ../lwIP_NIOS_II_Example_bsp\libhal_bsp.a(alt_find_file.o)
                                0x1c8 (size before relaxing)
 .debug_str     0x00007abb       0x30 ../lwIP_NIOS_II_Example_bsp\libhal_bsp.a(alt_get_fd.o)
                                0x1ea (size before relaxing)
 .debug_str     0x00007aeb       0x2c ../lwIP_NIOS_II_Example_bsp\libhal_bsp.a(alt_icache_flush.o)
                                0x129 (size before relaxing)
 .debug_str     0x00007b17       0x7f c:/altera/13.1/nios2eds/bin/gnu/h-i686-mingw32/bin/../lib/gcc/nios2-elf/4.7.3/../../../../../H-i686-mingw32/nios2-elf/lib\libc.a(lib_a-atexit.o)
                                0x20f (size before relaxing)
 .debug_str     0x00007b96       0xd9 c:/altera/13.1/nios2eds/bin/gnu/h-i686-mingw32/bin/../lib/gcc/nios2-elf/4.7.3/../../../../../H-i686-mingw32/nios2-elf/lib\libc.a(lib_a-ctype_.o)
                                 0xff (size before relaxing)
 .debug_str     0x00007c6f       0x4a c:/altera/13.1/nios2eds/bin/gnu/h-i686-mingw32/bin/../lib/gcc/nios2-elf/4.7.3/../../../../../H-i686-mingw32/nios2-elf/lib\libc.a(lib_a-exit.o)
                                0x52f (size before relaxing)
 .debug_str     0x00007cb9       0x42 c:/altera/13.1/nios2eds/bin/gnu/h-i686-mingw32/bin/../lib/gcc/nios2-elf/4.7.3/../../../../../H-i686-mingw32/nios2-elf/lib\libc.a(lib_a-malloc.o)
                                0x53a (size before relaxing)
 .debug_str     0x00007cfb       0x42 c:/altera/13.1/nios2eds/bin/gnu/h-i686-mingw32/bin/../lib/gcc/nios2-elf/4.7.3/../../../../../H-i686-mingw32/nios2-elf/lib\libc.a(lib_a-memcmp.o)
                                0x176 (size before relaxing)
 .debug_str     0x00007d3d       0x42 c:/altera/13.1/nios2eds/bin/gnu/h-i686-mingw32/bin/../lib/gcc/nios2-elf/4.7.3/../../../../../H-i686-mingw32/nios2-elf/lib\libc.a(lib_a-strcpy.o)
                                0x191 (size before relaxing)
 .debug_str     0x00007d7f       0x3d c:/altera/13.1/nios2eds/bin/gnu/h-i686-mingw32/bin/../lib/gcc/nios2-elf/4.7.3/../../../../../H-i686-mingw32/nios2-elf/lib\libc.a(lib_a-__atexit.o)
                                0x573 (size before relaxing)
 .debug_str     0x00007dbc       0x54 c:/altera/13.1/nios2eds/bin/gnu/h-i686-mingw32/bin/../lib/gcc/nios2-elf/4.7.3/../../../../../H-i686-mingw32/nios2-elf/lib\libc.a(lib_a-__call_atexit.o)
                                0x551 (size before relaxing)
 .debug_str     0x00007e10       0x2a ../lwIP_NIOS_II_Example_bsp\libhal_bsp.a(alt_exit.o)
                                0x11f (size before relaxing)

.debug_loc      0x00000000    0x143c5
 *(.debug_loc)
 .debug_loc     0x00000000       0xb0 obj/default/drivers/alteraTseEthernetif.o
 .debug_loc     0x000000b0       0x2c obj/default/drivers/fs.o
 .debug_loc     0x000000dc      0x160 obj/default/drivers/httpd.o
 .debug_loc     0x0000023c       0xde obj/default/drivers/lwip_tse_mac.o
 .debug_loc     0x0000031a       0x2c obj/default/lwip/src/api/err.o
 .debug_loc     0x00000346      0x630 obj/default/lwip/src/core/dhcp.o
 .debug_loc     0x00000976       0x58 obj/default/lwip/src/core/init.o
 .debug_loc     0x000009ce       0xb0 obj/default/lwip/src/core/ipv4/icmp.o
 .debug_loc     0x00000a7e       0x84 obj/default/lwip/src/core/ipv4/inet.o
 .debug_loc     0x00000b02       0xb0 obj/default/lwip/src/core/ipv4/inet_chksum.o
 .debug_loc     0x00000bb2       0xb0 obj/default/lwip/src/core/ipv4/ip.o
 .debug_loc     0x00000c62       0x2c obj/default/lwip/src/core/ipv4/ip_addr.o
 .debug_loc     0x00000c8e      0x160 obj/default/lwip/src/core/ipv4/ip_frag.o
 .debug_loc     0x00000dee      0x108 obj/default/lwip/src/core/mem.o
 .debug_loc     0x00000ef6       0x84 obj/default/lwip/src/core/memp.o
 .debug_loc     0x00000f7a      0x1e4 obj/default/lwip/src/core/netif.o
 .debug_loc     0x0000115e      0x23c obj/default/lwip/src/core/pbuf.o
 .debug_loc     0x0000139a      0x160 obj/default/lwip/src/core/raw.o
 .debug_loc     0x000014fa      0x65c obj/default/lwip/src/core/tcp.o
 .debug_loc     0x00001b56      0x135 obj/default/lwip/src/core/tcp_in.o
 .debug_loc     0x00001c8b      0x23d obj/default/lwip/src/core/tcp_out.o
 .debug_loc     0x00001ec8      0x1b8 obj/default/lwip/src/core/udp.o
 .debug_loc     0x00002080      0x23c obj/default/lwip/src/netif/etharp.o
 .debug_loc     0x000022bc       0x84 obj/default/main.o
 .debug_loc     0x00002340      0x1f2 c:/altera/13.1/nios2eds/bin/gnu/h-i686-mingw32/bin/../lib/gcc/nios2-elf/4.7.3/../../../../../H-i686-mingw32/nios2-elf/lib\libc.a(lib_a-memcpy.o)
 .debug_loc     0x00002532      0x1b7 c:/altera/13.1/nios2eds/bin/gnu/h-i686-mingw32/bin/../lib/gcc/nios2-elf/4.7.3/../../../../../H-i686-mingw32/nios2-elf/lib\libc.a(lib_a-memset.o)
 .debug_loc     0x000026e9      0x132 c:/altera/13.1/nios2eds/bin/gnu/h-i686-mingw32/bin/../lib/gcc/nios2-elf/4.7.3/../../../../../H-i686-mingw32/nios2-elf/lib\libc.a(lib_a-printf.o)
 .debug_loc     0x0000281b      0x257 c:/altera/13.1/nios2eds/bin/gnu/h-i686-mingw32/bin/../lib/gcc/nios2-elf/4.7.3/../../../../../H-i686-mingw32/nios2-elf/lib\libc.a(lib_a-putc.o)
 .debug_loc     0x00002a72       0x6e c:/altera/13.1/nios2eds/bin/gnu/h-i686-mingw32/bin/../lib/gcc/nios2-elf/4.7.3/../../../../../H-i686-mingw32/nios2-elf/lib\libc.a(lib_a-putchar.o)
 .debug_loc     0x00002ae0       0xd9 c:/altera/13.1/nios2eds/bin/gnu/h-i686-mingw32/bin/../lib/gcc/nios2-elf/4.7.3/../../../../../H-i686-mingw32/nios2-elf/lib\libc.a(lib_a-puts.o)
 .debug_loc     0x00002bb9       0xb0 c:/altera/13.1/nios2eds/bin/gnu/h-i686-mingw32/bin/../lib/gcc/nios2-elf/4.7.3/../../../../../H-i686-mingw32/nios2-elf/lib\libc.a(lib_a-strcmp.o)
 .debug_loc     0x00002c69       0x52 c:/altera/13.1/nios2eds/bin/gnu/h-i686-mingw32/bin/../lib/gcc/nios2-elf/4.7.3/../../../../../H-i686-mingw32/nios2-elf/lib\libc.a(lib_a-strlen.o)
 .debug_loc     0x00002cbb      0x122 c:/altera/13.1/nios2eds/bin/gnu/h-i686-mingw32/bin/../lib/gcc/nios2-elf/4.7.3/../../../../../H-i686-mingw32/nios2-elf/lib\libc.a(lib_a-strncmp.o)
 .debug_loc     0x00002ddd     0x2b6b c:/altera/13.1/nios2eds/bin/gnu/h-i686-mingw32/bin/../lib/gcc/nios2-elf/4.7.3/../../../../../H-i686-mingw32/nios2-elf/lib\libc.a(lib_a-vfprintf.o)
 .debug_loc     0x00005948      0x193 c:/altera/13.1/nios2eds/bin/gnu/h-i686-mingw32/bin/../lib/gcc/nios2-elf/4.7.3/../../../../../H-i686-mingw32/nios2-elf/lib\libc.a(lib_a-wbuf.o)
 .debug_loc     0x00005adb       0xba c:/altera/13.1/nios2eds/bin/gnu/h-i686-mingw32/bin/../lib/gcc/nios2-elf/4.7.3/../../../../../H-i686-mingw32/nios2-elf/lib\libc.a(lib_a-wsetup.o)
 .debug_loc     0x00005b95     0x2286 c:/altera/13.1/nios2eds/bin/gnu/h-i686-mingw32/bin/../lib/gcc/nios2-elf/4.7.3/../../../../../H-i686-mingw32/nios2-elf/lib\libc.a(lib_a-dtoa.o)
 .debug_loc     0x00007e1b      0x259 c:/altera/13.1/nios2eds/bin/gnu/h-i686-mingw32/bin/../lib/gcc/nios2-elf/4.7.3/../../../../../H-i686-mingw32/nios2-elf/lib\libc.a(lib_a-fflush.o)
 .debug_loc     0x00008074      0x29c c:/altera/13.1/nios2eds/bin/gnu/h-i686-mingw32/bin/../lib/gcc/nios2-elf/4.7.3/../../../../../H-i686-mingw32/nios2-elf/lib\libc.a(lib_a-findfp.o)
 .debug_loc     0x00008310      0x668 c:/altera/13.1/nios2eds/bin/gnu/h-i686-mingw32/bin/../lib/gcc/nios2-elf/4.7.3/../../../../../H-i686-mingw32/nios2-elf/lib\libc.a(lib_a-freer.o)
 .debug_loc     0x00008978      0x50c c:/altera/13.1/nios2eds/bin/gnu/h-i686-mingw32/bin/../lib/gcc/nios2-elf/4.7.3/../../../../../H-i686-mingw32/nios2-elf/lib\libc.a(lib_a-fvwrite.o)
 .debug_loc     0x00008e84      0x2ae c:/altera/13.1/nios2eds/bin/gnu/h-i686-mingw32/bin/../lib/gcc/nios2-elf/4.7.3/../../../../../H-i686-mingw32/nios2-elf/lib\libc.a(lib_a-fwalk.o)
 .debug_loc     0x00009132      0x13e c:/altera/13.1/nios2eds/bin/gnu/h-i686-mingw32/bin/../lib/gcc/nios2-elf/4.7.3/../../../../../H-i686-mingw32/nios2-elf/lib\libc.a(lib_a-locale.o)
 .debug_loc     0x00009270      0x16a c:/altera/13.1/nios2eds/bin/gnu/h-i686-mingw32/bin/../lib/gcc/nios2-elf/4.7.3/../../../../../H-i686-mingw32/nios2-elf/lib\libc.a(lib_a-makebuf.o)
 .debug_loc     0x000093da      0xb50 c:/altera/13.1/nios2eds/bin/gnu/h-i686-mingw32/bin/../lib/gcc/nios2-elf/4.7.3/../../../../../H-i686-mingw32/nios2-elf/lib\libc.a(lib_a-mallocr.o)
 .debug_loc     0x00009f2a      0x239 c:/altera/13.1/nios2eds/bin/gnu/h-i686-mingw32/bin/../lib/gcc/nios2-elf/4.7.3/../../../../../H-i686-mingw32/nios2-elf/lib\libc.a(lib_a-memchr.o)
 .debug_loc     0x0000a163      0x240 c:/altera/13.1/nios2eds/bin/gnu/h-i686-mingw32/bin/../lib/gcc/nios2-elf/4.7.3/../../../../../H-i686-mingw32/nios2-elf/lib\libc.a(lib_a-memmove.o)
 .debug_loc     0x0000a3a3     0x1b23 c:/altera/13.1/nios2eds/bin/gnu/h-i686-mingw32/bin/../lib/gcc/nios2-elf/4.7.3/../../../../../H-i686-mingw32/nios2-elf/lib\libc.a(lib_a-mprec.o)
 .debug_loc     0x0000bec6     0x1136 c:/altera/13.1/nios2eds/bin/gnu/h-i686-mingw32/bin/../lib/gcc/nios2-elf/4.7.3/../../../../../H-i686-mingw32/nios2-elf/lib\libc.a(lib_a-reallocr.o)
 .debug_loc     0x0000cffc       0x88 c:/altera/13.1/nios2eds/bin/gnu/h-i686-mingw32/bin/../lib/gcc/nios2-elf/4.7.3/../../../../../H-i686-mingw32/nios2-elf/lib\libc.a(lib_a-s_isinfd.o)
 .debug_loc     0x0000d084       0xa5 c:/altera/13.1/nios2eds/bin/gnu/h-i686-mingw32/bin/../lib/gcc/nios2-elf/4.7.3/../../../../../H-i686-mingw32/nios2-elf/lib\libc.a(lib_a-s_isnand.o)
 .debug_loc     0x0000d129       0x86 c:/altera/13.1/nios2eds/bin/gnu/h-i686-mingw32/bin/../lib/gcc/nios2-elf/4.7.3/../../../../../H-i686-mingw32/nios2-elf/lib\libc.a(lib_a-sbrkr.o)
 .debug_loc     0x0000d1af      0x379 c:/altera/13.1/nios2eds/bin/gnu/h-i686-mingw32/bin/../lib/gcc/nios2-elf/4.7.3/../../../../../H-i686-mingw32/nios2-elf/lib\libc.a(lib_a-stdio.o)
 .debug_loc     0x0000d528       0xde c:/altera/13.1/nios2eds/bin/gnu/h-i686-mingw32/bin/../lib/gcc/nios2-elf/4.7.3/../../../../../H-i686-mingw32/nios2-elf/lib\libc.a(lib_a-writer.o)
 .debug_loc     0x0000d606      0x283 c:/altera/13.1/nios2eds/bin/gnu/h-i686-mingw32/bin/../lib/gcc/nios2-elf/4.7.3/../../../../../H-i686-mingw32/nios2-elf/lib\libc.a(lib_a-callocr.o)
 .debug_loc     0x0000d889       0x86 c:/altera/13.1/nios2eds/bin/gnu/h-i686-mingw32/bin/../lib/gcc/nios2-elf/4.7.3/../../../../../H-i686-mingw32/nios2-elf/lib\libc.a(lib_a-closer.o)
 .debug_loc     0x0000d90f      0x136 c:/altera/13.1/nios2eds/bin/gnu/h-i686-mingw32/bin/../lib/gcc/nios2-elf/4.7.3/../../../../../H-i686-mingw32/nios2-elf/lib\libc.a(lib_a-fclose.o)
 .debug_loc     0x0000da45       0xb2 c:/altera/13.1/nios2eds/bin/gnu/h-i686-mingw32/bin/../lib/gcc/nios2-elf/4.7.3/../../../../../H-i686-mingw32/nios2-elf/lib\libc.a(lib_a-fstatr.o)
 .debug_loc     0x0000daf7       0x86 c:/altera/13.1/nios2eds/bin/gnu/h-i686-mingw32/bin/../lib/gcc/nios2-elf/4.7.3/../../../../../H-i686-mingw32/nios2-elf/lib\libc.a(lib_a-isattyr.o)
 .debug_loc     0x0000db7d       0xde c:/altera/13.1/nios2eds/bin/gnu/h-i686-mingw32/bin/../lib/gcc/nios2-elf/4.7.3/../../../../../H-i686-mingw32/nios2-elf/lib\libc.a(lib_a-lseekr.o)
 .debug_loc     0x0000dc5b       0xde c:/altera/13.1/nios2eds/bin/gnu/h-i686-mingw32/bin/../lib/gcc/nios2-elf/4.7.3/../../../../../H-i686-mingw32/nios2-elf/lib\libc.a(lib_a-readr.o)
 .debug_loc     0x0000dd39     0x10da c:/altera/13.1/nios2eds/bin/gnu/h-i686-mingw32/bin/../lib/gcc/nios2-elf/4.7.3\libgcc.a(_udivdi3.o)
 .debug_loc     0x0000ee13     0x104d c:/altera/13.1/nios2eds/bin/gnu/h-i686-mingw32/bin/../lib/gcc/nios2-elf/4.7.3\libgcc.a(_umoddi3.o)
 .debug_loc     0x0000fe60      0x7a1 c:/altera/13.1/nios2eds/bin/gnu/h-i686-mingw32/bin/../lib/gcc/nios2-elf/4.7.3\libgcc.a(_addsub_df.o)
 .debug_loc     0x00010601      0x3ba c:/altera/13.1/nios2eds/bin/gnu/h-i686-mingw32/bin/../lib/gcc/nios2-elf/4.7.3\libgcc.a(_mul_df.o)
 .debug_loc     0x000109bb      0x25e c:/altera/13.1/nios2eds/bin/gnu/h-i686-mingw32/bin/../lib/gcc/nios2-elf/4.7.3\libgcc.a(_div_df.o)
 .debug_loc     0x00010c19       0x70 c:/altera/13.1/nios2eds/bin/gnu/h-i686-mingw32/bin/../lib/gcc/nios2-elf/4.7.3\libgcc.a(_eq_df.o)
 .debug_loc     0x00010c89       0x70 c:/altera/13.1/nios2eds/bin/gnu/h-i686-mingw32/bin/../lib/gcc/nios2-elf/4.7.3\libgcc.a(_ne_df.o)
 .debug_loc     0x00010cf9       0x70 c:/altera/13.1/nios2eds/bin/gnu/h-i686-mingw32/bin/../lib/gcc/nios2-elf/4.7.3\libgcc.a(_gt_df.o)
 .debug_loc     0x00010d69       0x70 c:/altera/13.1/nios2eds/bin/gnu/h-i686-mingw32/bin/../lib/gcc/nios2-elf/4.7.3\libgcc.a(_ge_df.o)
 .debug_loc     0x00010dd9       0x70 c:/altera/13.1/nios2eds/bin/gnu/h-i686-mingw32/bin/../lib/gcc/nios2-elf/4.7.3\libgcc.a(_lt_df.o)
 .debug_loc     0x00010e49       0xd3 c:/altera/13.1/nios2eds/bin/gnu/h-i686-mingw32/bin/../lib/gcc/nios2-elf/4.7.3\libgcc.a(_si_to_df.o)
 .debug_loc     0x00010f1c       0xce c:/altera/13.1/nios2eds/bin/gnu/h-i686-mingw32/bin/../lib/gcc/nios2-elf/4.7.3\libgcc.a(_df_to_si.o)
 .debug_loc     0x00010fea      0x168 c:/altera/13.1/nios2eds/bin/gnu/h-i686-mingw32/bin/../lib/gcc/nios2-elf/4.7.3\libgcc.a(_usi_to_df.o)
 .debug_loc     0x00011152      0x338 c:/altera/13.1/nios2eds/bin/gnu/h-i686-mingw32/bin/../lib/gcc/nios2-elf/4.7.3\libgcc.a(lib2-divmod.o)
 .debug_loc     0x0001148a      0x15d c:/altera/13.1/nios2eds/bin/gnu/h-i686-mingw32/bin/../lib/gcc/nios2-elf/4.7.3\libgcc.a(_muldi3.o)
 .debug_loc     0x000115e7      0x19a c:/altera/13.1/nios2eds/bin/gnu/h-i686-mingw32/bin/../lib/gcc/nios2-elf/4.7.3\libgcc.a(_clzsi2.o)
 .debug_loc     0x00011781      0x2ae c:/altera/13.1/nios2eds/bin/gnu/h-i686-mingw32/bin/../lib/gcc/nios2-elf/4.7.3\libgcc.a(_pack_df.o)
 .debug_loc     0x00011a2f      0x179 c:/altera/13.1/nios2eds/bin/gnu/h-i686-mingw32/bin/../lib/gcc/nios2-elf/4.7.3\libgcc.a(_unpack_df.o)
 .debug_loc     0x00011ba8       0x7c c:/altera/13.1/nios2eds/bin/gnu/h-i686-mingw32/bin/../lib/gcc/nios2-elf/4.7.3\libgcc.a(_fpcmp_parts_df.o)
 .debug_loc     0x00011c24       0xc4 c:/altera/13.1/nios2eds/bin/gnu/h-i686-mingw32/bin/../lib/gcc/nios2-elf/4.7.3\libgcc.a(_lshrdi3.o)
 .debug_loc     0x00011ce8       0xc4 c:/altera/13.1/nios2eds/bin/gnu/h-i686-mingw32/bin/../lib/gcc/nios2-elf/4.7.3\libgcc.a(_ashldi3.o)
 .debug_loc     0x00011dac       0x2c ../lwIP_NIOS_II_Example_bsp\libhal_bsp.a(alt_alarm_start.o)
 .debug_loc     0x00011dd8       0x58 ../lwIP_NIOS_II_Example_bsp\libhal_bsp.a(alt_close.o)
 .debug_loc     0x00011e30       0x2c ../lwIP_NIOS_II_Example_bsp\libhal_bsp.a(alt_dev.o)
 .debug_loc     0x00011e5c       0x58 ../lwIP_NIOS_II_Example_bsp\libhal_bsp.a(alt_fstat.o)
 .debug_loc     0x00011eb4       0x59 ../lwIP_NIOS_II_Example_bsp\libhal_bsp.a(alt_isatty.o)
 .debug_loc     0x00011f0d       0x58 ../lwIP_NIOS_II_Example_bsp\libhal_bsp.a(alt_load.o)
 .debug_loc     0x00011f65       0x58 ../lwIP_NIOS_II_Example_bsp\libhal_bsp.a(alt_lseek.o)
 .debug_loc     0x00011fbd       0x2c ../lwIP_NIOS_II_Example_bsp\libhal_bsp.a(alt_main.o)
 .debug_loc     0x00011fe9       0x58 ../lwIP_NIOS_II_Example_bsp\libhal_bsp.a(alt_malloc_lock.o)
 .debug_loc     0x00012041       0x58 ../lwIP_NIOS_II_Example_bsp\libhal_bsp.a(alt_read.o)
 .debug_loc     0x00012099       0x2c ../lwIP_NIOS_II_Example_bsp\libhal_bsp.a(alt_release_fd.o)
 .debug_loc     0x000120c5       0x2c ../lwIP_NIOS_II_Example_bsp\libhal_bsp.a(alt_remap_uncached.o)
 .debug_loc     0x000120f1       0x2c ../lwIP_NIOS_II_Example_bsp\libhal_bsp.a(alt_sbrk.o)
 .debug_loc     0x0001211d       0x58 ../lwIP_NIOS_II_Example_bsp\libhal_bsp.a(alt_tick.o)
 .debug_loc     0x00012175       0x2c ../lwIP_NIOS_II_Example_bsp\libhal_bsp.a(alt_uncached_malloc.o)
 .debug_loc     0x000121a1       0x2c ../lwIP_NIOS_II_Example_bsp\libhal_bsp.a(alt_usleep.o)
 .debug_loc     0x000121cd       0x58 ../lwIP_NIOS_II_Example_bsp\libhal_bsp.a(alt_write.o)
 .debug_loc     0x00012225       0x84 ../lwIP_NIOS_II_Example_bsp\libhal_bsp.a(alt_sys_init.o)
 .debug_loc     0x000122a9      0x134 ../lwIP_NIOS_II_Example_bsp\libhal_bsp.a(altera_avalon_cfi_flash.o)
 .debug_loc     0x000123dd      0x318 ../lwIP_NIOS_II_Example_bsp\libhal_bsp.a(altera_avalon_cfi_flash_table.o)
 .debug_loc     0x000126f5       0xb0 ../lwIP_NIOS_II_Example_bsp\libhal_bsp.a(altera_avalon_jtag_uart_fd.o)
 .debug_loc     0x000127a5       0xb0 ../lwIP_NIOS_II_Example_bsp\libhal_bsp.a(altera_avalon_jtag_uart_init.o)
 .debug_loc     0x00012855       0x2c ../lwIP_NIOS_II_Example_bsp\libhal_bsp.a(altera_avalon_jtag_uart_ioctl.o)
 .debug_loc     0x00012881       0x2c ../lwIP_NIOS_II_Example_bsp\libhal_bsp.a(altera_avalon_jtag_uart_read.o)
 .debug_loc     0x000128ad       0x2c ../lwIP_NIOS_II_Example_bsp\libhal_bsp.a(altera_avalon_jtag_uart_write.o)
 .debug_loc     0x000128d9      0x18c ../lwIP_NIOS_II_Example_bsp\libhal_bsp.a(altera_avalon_lcd_16207.o)
 .debug_loc     0x00012a65       0x2c ../lwIP_NIOS_II_Example_bsp\libhal_bsp.a(altera_avalon_lcd_16207_fd.o)
 .debug_loc     0x00012a91      0x370 ../lwIP_NIOS_II_Example_bsp\libhal_bsp.a(altera_avalon_sgdma.o)
 .debug_loc     0x00012e01       0x58 ../lwIP_NIOS_II_Example_bsp\libhal_bsp.a(altera_avalon_timer_sc.o)
 .debug_loc     0x00012e59      0x767 ../lwIP_NIOS_II_Example_bsp\libhal_bsp.a(altera_avalon_tse.o)
 .debug_loc     0x000135c0       0x84 ../lwIP_NIOS_II_Example_bsp\libhal_bsp.a(altera_avalon_uart_fd.o)
 .debug_loc     0x00013644       0xdc ../lwIP_NIOS_II_Example_bsp\libhal_bsp.a(altera_avalon_uart_init.o)
 .debug_loc     0x00013720       0x59 ../lwIP_NIOS_II_Example_bsp\libhal_bsp.a(altera_avalon_uart_read.o)
 .debug_loc     0x00013779       0x59 ../lwIP_NIOS_II_Example_bsp\libhal_bsp.a(altera_avalon_uart_write.o)
 .debug_loc     0x000137d2       0x2c ../lwIP_NIOS_II_Example_bsp\libhal_bsp.a(altera_vic_irq_init.o)
 .debug_loc     0x000137fe       0x2c ../lwIP_NIOS_II_Example_bsp\libhal_bsp.a(altera_vic_isr_register.o)
 .debug_loc     0x0001382a       0x2c ../lwIP_NIOS_II_Example_bsp\libhal_bsp.a(alt_busy_sleep.o)
 .debug_loc     0x00013856       0x2c ../lwIP_NIOS_II_Example_bsp\libhal_bsp.a(alt_dcache_flush.o)
 .debug_loc     0x00013882       0x2c ../lwIP_NIOS_II_Example_bsp\libhal_bsp.a(alt_dcache_flush_all.o)
 .debug_loc     0x000138ae       0x58 ../lwIP_NIOS_II_Example_bsp\libhal_bsp.a(alt_dev_llist_insert.o)
 .debug_loc     0x00013906       0x2c ../lwIP_NIOS_II_Example_bsp\libhal_bsp.a(alt_do_ctors.o)
 .debug_loc     0x00013932       0x2c ../lwIP_NIOS_II_Example_bsp\libhal_bsp.a(alt_do_dtors.o)
 .debug_loc     0x0001395e       0x2c ../lwIP_NIOS_II_Example_bsp\libhal_bsp.a(alt_find_dev.o)
 .debug_loc     0x0001398a       0x58 ../lwIP_NIOS_II_Example_bsp\libhal_bsp.a(alt_flash_dev.o)
 .debug_loc     0x000139e2       0x2c ../lwIP_NIOS_II_Example_bsp\libhal_bsp.a(alt_icache_flush_all.o)
 .debug_loc     0x00013a0e       0x58 ../lwIP_NIOS_II_Example_bsp\libhal_bsp.a(alt_io_redirect.o)
 .debug_loc     0x00013a66       0x84 ../lwIP_NIOS_II_Example_bsp\libhal_bsp.a(alt_open.o)
 .debug_loc     0x00013aea       0xb0 ../lwIP_NIOS_II_Example_bsp\libhal_bsp.a(altera_avalon_cfi_flash_amd.o)
 .debug_loc     0x00013b9a       0xb0 ../lwIP_NIOS_II_Example_bsp\libhal_bsp.a(altera_avalon_cfi_flash_intel.o)
 .debug_loc     0x00013c4a       0x2c ../lwIP_NIOS_II_Example_bsp\libhal_bsp.a(alt_find_file.o)
 .debug_loc     0x00013c76       0x2c ../lwIP_NIOS_II_Example_bsp\libhal_bsp.a(alt_get_fd.o)
 .debug_loc     0x00013ca2       0x2c ../lwIP_NIOS_II_Example_bsp\libhal_bsp.a(alt_icache_flush.o)
 .debug_loc     0x00013cce       0x2c c:/altera/13.1/nios2eds/bin/gnu/h-i686-mingw32/bin/../lib/gcc/nios2-elf/4.7.3/../../../../../H-i686-mingw32/nios2-elf/lib\libc.a(lib_a-atexit.o)
 .debug_loc     0x00013cfa       0x3e c:/altera/13.1/nios2eds/bin/gnu/h-i686-mingw32/bin/../lib/gcc/nios2-elf/4.7.3/../../../../../H-i686-mingw32/nios2-elf/lib\libc.a(lib_a-exit.o)
 .debug_loc     0x00013d38       0x58 c:/altera/13.1/nios2eds/bin/gnu/h-i686-mingw32/bin/../lib/gcc/nios2-elf/4.7.3/../../../../../H-i686-mingw32/nios2-elf/lib\libc.a(lib_a-malloc.o)
 .debug_loc     0x00013d90      0x103 c:/altera/13.1/nios2eds/bin/gnu/h-i686-mingw32/bin/../lib/gcc/nios2-elf/4.7.3/../../../../../H-i686-mingw32/nios2-elf/lib\libc.a(lib_a-memcmp.o)
 .debug_loc     0x00013e93      0x191 c:/altera/13.1/nios2eds/bin/gnu/h-i686-mingw32/bin/../lib/gcc/nios2-elf/4.7.3/../../../../../H-i686-mingw32/nios2-elf/lib\libc.a(lib_a-strcpy.o)
 .debug_loc     0x00014024      0x194 c:/altera/13.1/nios2eds/bin/gnu/h-i686-mingw32/bin/../lib/gcc/nios2-elf/4.7.3/../../../../../H-i686-mingw32/nios2-elf/lib\libc.a(lib_a-__atexit.o)
 .debug_loc     0x000141b8      0x1e1 c:/altera/13.1/nios2eds/bin/gnu/h-i686-mingw32/bin/../lib/gcc/nios2-elf/4.7.3/../../../../../H-i686-mingw32/nios2-elf/lib\libc.a(lib_a-__call_atexit.o)
 .debug_loc     0x00014399       0x2c ../lwIP_NIOS_II_Example_bsp\libhal_bsp.a(alt_exit.o)

.debug_macinfo
 *(.debug_macinfo)

.debug_weaknames
 *(.debug_weaknames)

.debug_funcnames
 *(.debug_funcnames)

.debug_typenames
 *(.debug_typenames)

.debug_varnames
 *(.debug_varnames)

.debug_alt_sim_info
                0x00000000       0x50
 *(.debug_alt_sim_info)
 .debug_alt_sim_info
                0x00000000       0x20 ../lwIP_NIOS_II_Example_bsp/obj/HAL/src/crt0.o
 .debug_alt_sim_info
                0x00000020       0x30 ../lwIP_NIOS_II_Example_bsp\libhal_bsp.a(alt_busy_sleep.o)
                0x02000000                __alt_data_end = 0x2000000
                0x02000000                PROVIDE (__alt_stack_pointer, __alt_data_end)
                0x000448a0                PROVIDE (__alt_stack_limit, __alt_stack_base)
                0x000448a0                PROVIDE (__alt_heap_start, end)
                0x02000000                PROVIDE (__alt_heap_limit, 0x2000000)
OUTPUT(lwIP_NIOS_II_Example.elf elf32-littlenios2)

.debug_ranges   0x00000000      0xa20
 .debug_ranges  0x00000000       0x20 ../lwIP_NIOS_II_Example_bsp/obj/HAL/src/crt0.o
 .debug_ranges  0x00000020       0x18 obj/default/lwip/src/core/ipv4/icmp.o
 .debug_ranges  0x00000038       0x18 obj/default/lwip/src/core/netif.o
 .debug_ranges  0x00000050      0x150 c:/altera/13.1/nios2eds/bin/gnu/h-i686-mingw32/bin/../lib/gcc/nios2-elf/4.7.3/../../../../../H-i686-mingw32/nios2-elf/lib\libc.a(lib_a-vfprintf.o)
 .debug_ranges  0x000001a0       0x20 c:/altera/13.1/nios2eds/bin/gnu/h-i686-mingw32/bin/../lib/gcc/nios2-elf/4.7.3/../../../../../H-i686-mingw32/nios2-elf/lib\libc.a(lib_a-fflush.o)
 .debug_ranges  0x000001c0       0x18 c:/altera/13.1/nios2eds/bin/gnu/h-i686-mingw32/bin/../lib/gcc/nios2-elf/4.7.3/../../../../../H-i686-mingw32/nios2-elf/lib\libc.a(lib_a-fvwrite.o)
 .debug_ranges  0x000001d8       0x80 c:/altera/13.1/nios2eds/bin/gnu/h-i686-mingw32/bin/../lib/gcc/nios2-elf/4.7.3/../../../../../H-i686-mingw32/nios2-elf/lib\libc.a(lib_a-fwalk.o)
 .debug_ranges  0x00000258       0x70 c:/altera/13.1/nios2eds/bin/gnu/h-i686-mingw32/bin/../lib/gcc/nios2-elf/4.7.3/../../../../../H-i686-mingw32/nios2-elf/lib\libc.a(lib_a-mallocr.o)
 .debug_ranges  0x000002c8       0x40 c:/altera/13.1/nios2eds/bin/gnu/h-i686-mingw32/bin/../lib/gcc/nios2-elf/4.7.3/../../../../../H-i686-mingw32/nios2-elf/lib\libc.a(lib_a-mprec.o)
 .debug_ranges  0x00000308      0x158 c:/altera/13.1/nios2eds/bin/gnu/h-i686-mingw32/bin/../lib/gcc/nios2-elf/4.7.3/../../../../../H-i686-mingw32/nios2-elf/lib\libc.a(lib_a-reallocr.o)
 .debug_ranges  0x00000460       0x48 c:/altera/13.1/nios2eds/bin/gnu/h-i686-mingw32/bin/../lib/gcc/nios2-elf/4.7.3/../../../../../H-i686-mingw32/nios2-elf/lib\libc.a(lib_a-callocr.o)
 .debug_ranges  0x000004a8      0x1a0 c:/altera/13.1/nios2eds/bin/gnu/h-i686-mingw32/bin/../lib/gcc/nios2-elf/4.7.3\libgcc.a(_udivdi3.o)
 .debug_ranges  0x00000648      0x160 c:/altera/13.1/nios2eds/bin/gnu/h-i686-mingw32/bin/../lib/gcc/nios2-elf/4.7.3\libgcc.a(_umoddi3.o)
 .debug_ranges  0x000007a8       0x38 c:/altera/13.1/nios2eds/bin/gnu/h-i686-mingw32/bin/../lib/gcc/nios2-elf/4.7.3\libgcc.a(_addsub_df.o)
 .debug_ranges  0x000007e0       0x78 c:/altera/13.1/nios2eds/bin/gnu/h-i686-mingw32/bin/../lib/gcc/nios2-elf/4.7.3\libgcc.a(_mul_df.o)
 .debug_ranges  0x00000858       0x50 c:/altera/13.1/nios2eds/bin/gnu/h-i686-mingw32/bin/../lib/gcc/nios2-elf/4.7.3\libgcc.a(_div_df.o)
 .debug_ranges  0x000008a8       0x30 c:/altera/13.1/nios2eds/bin/gnu/h-i686-mingw32/bin/../lib/gcc/nios2-elf/4.7.3\libgcc.a(_si_to_df.o)
 .debug_ranges  0x000008d8       0x48 c:/altera/13.1/nios2eds/bin/gnu/h-i686-mingw32/bin/../lib/gcc/nios2-elf/4.7.3\libgcc.a(_usi_to_df.o)
 .debug_ranges  0x00000920       0x30 c:/altera/13.1/nios2eds/bin/gnu/h-i686-mingw32/bin/../lib/gcc/nios2-elf/4.7.3\libgcc.a(_muldi3.o)
 .debug_ranges  0x00000950       0x28 c:/altera/13.1/nios2eds/bin/gnu/h-i686-mingw32/bin/../lib/gcc/nios2-elf/4.7.3\libgcc.a(_clzsi2.o)
 .debug_ranges  0x00000978       0x18 c:/altera/13.1/nios2eds/bin/gnu/h-i686-mingw32/bin/../lib/gcc/nios2-elf/4.7.3\libgcc.a(_pack_df.o)
 .debug_ranges  0x00000990       0x30 ../lwIP_NIOS_II_Example_bsp\libhal_bsp.a(altera_avalon_jtag_uart_init.o)
 .debug_ranges  0x000009c0       0x18 ../lwIP_NIOS_II_Example_bsp\libhal_bsp.a(altera_avalon_jtag_uart_read.o)
 .debug_ranges  0x000009d8       0x30 ../lwIP_NIOS_II_Example_bsp\libhal_bsp.a(altera_avalon_lcd_16207.o)
 .debug_ranges  0x00000a08       0x18 c:/altera/13.1/nios2eds/bin/gnu/h-i686-mingw32/bin/../lib/gcc/nios2-elf/4.7.3/../../../../../H-i686-mingw32/nios2-elf/lib\libc.a(lib_a-__call_atexit.o)
