Archive member included because of file (symbol)

c:/altera/13.1/nios2eds/bin/gnu/h-i686-mingw32/bin/../lib/gcc/nios2-elf/4.7.3/../../../../../H-i686-mingw32/nios2-elf/lib\libc.a(lib_a-impure.o)
                              obj/default/main.o (_impure_ptr)
c:/altera/13.1/nios2eds/bin/gnu/h-i686-mingw32/bin/../lib/gcc/nios2-elf/4.7.3/../../../../../H-i686-mingw32/nios2-elf/lib\libc.a(lib_a-memcpy.o)
                              obj/default/driver/lwip_tse_mac.o (memcpy)
c:/altera/13.1/nios2eds/bin/gnu/h-i686-mingw32/bin/../lib/gcc/nios2-elf/4.7.3/../../../../../H-i686-mingw32/nios2-elf/lib\libc.a(lib_a-memset.o)
                              obj/default/src/core/dhcp.o (memset)
c:/altera/13.1/nios2eds/bin/gnu/h-i686-mingw32/bin/../lib/gcc/nios2-elf/4.7.3/../../../../../H-i686-mingw32/nios2-elf/lib\libc.a(lib_a-printf.o)
                              obj/default/alteraTseEthernetif.o (printf)
c:/altera/13.1/nios2eds/bin/gnu/h-i686-mingw32/bin/../lib/gcc/nios2-elf/4.7.3/../../../../../H-i686-mingw32/nios2-elf/lib\libc.a(lib_a-putc.o)
                              obj/default/main.o (putc)
c:/altera/13.1/nios2eds/bin/gnu/h-i686-mingw32/bin/../lib/gcc/nios2-elf/4.7.3/../../../../../H-i686-mingw32/nios2-elf/lib\libc.a(lib_a-puts.o)
                              obj/default/driver/httpd.o (puts)
c:/altera/13.1/nios2eds/bin/gnu/h-i686-mingw32/bin/../lib/gcc/nios2-elf/4.7.3/../../../../../H-i686-mingw32/nios2-elf/lib\libc.a(lib_a-strcmp.o)
                              obj/default/driver/fs.o (strcmp)
c:/altera/13.1/nios2eds/bin/gnu/h-i686-mingw32/bin/../lib/gcc/nios2-elf/4.7.3/../../../../../H-i686-mingw32/nios2-elf/lib\libc.a(lib_a-strlen.o)
                              c:/altera/13.1/nios2eds/bin/gnu/h-i686-mingw32/bin/../lib/gcc/nios2-elf/4.7.3/../../../../../H-i686-mingw32/nios2-elf/lib\libc.a(lib_a-puts.o) (strlen)
c:/altera/13.1/nios2eds/bin/gnu/h-i686-mingw32/bin/../lib/gcc/nios2-elf/4.7.3/../../../../../H-i686-mingw32/nios2-elf/lib\libc.a(lib_a-strncmp.o)
                              obj/default/driver/httpd.o (strncmp)
c:/altera/13.1/nios2eds/bin/gnu/h-i686-mingw32/bin/../lib/gcc/nios2-elf/4.7.3/../../../../../H-i686-mingw32/nios2-elf/lib\libc.a(lib_a-vfprintf.o)
                              c:/altera/13.1/nios2eds/bin/gnu/h-i686-mingw32/bin/../lib/gcc/nios2-elf/4.7.3/../../../../../H-i686-mingw32/nios2-elf/lib\libc.a(lib_a-printf.o) (___vfprintf_internal_r)
c:/altera/13.1/nios2eds/bin/gnu/h-i686-mingw32/bin/../lib/gcc/nios2-elf/4.7.3/../../../../../H-i686-mingw32/nios2-elf/lib\libc.a(lib_a-wbuf.o)
                              c:/altera/13.1/nios2eds/bin/gnu/h-i686-mingw32/bin/../lib/gcc/nios2-elf/4.7.3/../../../../../H-i686-mingw32/nios2-elf/lib\libc.a(lib_a-putc.o) (__swbuf_r)
c:/altera/13.1/nios2eds/bin/gnu/h-i686-mingw32/bin/../lib/gcc/nios2-elf/4.7.3/../../../../../H-i686-mingw32/nios2-elf/lib\libc.a(lib_a-wsetup.o)
                              c:/altera/13.1/nios2eds/bin/gnu/h-i686-mingw32/bin/../lib/gcc/nios2-elf/4.7.3/../../../../../H-i686-mingw32/nios2-elf/lib\libc.a(lib_a-vfprintf.o) (__swsetup_r)
c:/altera/13.1/nios2eds/bin/gnu/h-i686-mingw32/bin/../lib/gcc/nios2-elf/4.7.3/../../../../../H-i686-mingw32/nios2-elf/lib\libc.a(lib_a-dtoa.o)
                              c:/altera/13.1/nios2eds/bin/gnu/h-i686-mingw32/bin/../lib/gcc/nios2-elf/4.7.3/../../../../../H-i686-mingw32/nios2-elf/lib\libc.a(lib_a-vfprintf.o) (_dtoa_r)
c:/altera/13.1/nios2eds/bin/gnu/h-i686-mingw32/bin/../lib/gcc/nios2-elf/4.7.3/../../../../../H-i686-mingw32/nios2-elf/lib\libc.a(lib_a-fflush.o)
                              c:/altera/13.1/nios2eds/bin/gnu/h-i686-mingw32/bin/../lib/gcc/nios2-elf/4.7.3/../../../../../H-i686-mingw32/nios2-elf/lib\libc.a(lib_a-vfprintf.o) (_fflush_r)
c:/altera/13.1/nios2eds/bin/gnu/h-i686-mingw32/bin/../lib/gcc/nios2-elf/4.7.3/../../../../../H-i686-mingw32/nios2-elf/lib\libc.a(lib_a-findfp.o)
                              c:/altera/13.1/nios2eds/bin/gnu/h-i686-mingw32/bin/../lib/gcc/nios2-elf/4.7.3/../../../../../H-i686-mingw32/nios2-elf/lib\libc.a(lib_a-putc.o) (__sinit)
c:/altera/13.1/nios2eds/bin/gnu/h-i686-mingw32/bin/../lib/gcc/nios2-elf/4.7.3/../../../../../H-i686-mingw32/nios2-elf/lib\libc.a(lib_a-freer.o)
                              c:/altera/13.1/nios2eds/bin/gnu/h-i686-mingw32/bin/../lib/gcc/nios2-elf/4.7.3/../../../../../H-i686-mingw32/nios2-elf/lib\libc.a(lib_a-wsetup.o) (_free_r)
c:/altera/13.1/nios2eds/bin/gnu/h-i686-mingw32/bin/../lib/gcc/nios2-elf/4.7.3/../../../../../H-i686-mingw32/nios2-elf/lib\libc.a(lib_a-fvwrite.o)
                              c:/altera/13.1/nios2eds/bin/gnu/h-i686-mingw32/bin/../lib/gcc/nios2-elf/4.7.3/../../../../../H-i686-mingw32/nios2-elf/lib\libc.a(lib_a-puts.o) (__sfvwrite_r)
c:/altera/13.1/nios2eds/bin/gnu/h-i686-mingw32/bin/../lib/gcc/nios2-elf/4.7.3/../../../../../H-i686-mingw32/nios2-elf/lib\libc.a(lib_a-fwalk.o)
                              c:/altera/13.1/nios2eds/bin/gnu/h-i686-mingw32/bin/../lib/gcc/nios2-elf/4.7.3/../../../../../H-i686-mingw32/nios2-elf/lib\libc.a(lib_a-findfp.o) (_fwalk)
c:/altera/13.1/nios2eds/bin/gnu/h-i686-mingw32/bin/../lib/gcc/nios2-elf/4.7.3/../../../../../H-i686-mingw32/nios2-elf/lib\libc.a(lib_a-locale.o)
                              c:/altera/13.1/nios2eds/bin/gnu/h-i686-mingw32/bin/../lib/gcc/nios2-elf/4.7.3/../../../../../H-i686-mingw32/nios2-elf/lib\libc.a(lib_a-vfprintf.o) (_localeconv_r)
c:/altera/13.1/nios2eds/bin/gnu/h-i686-mingw32/bin/../lib/gcc/nios2-elf/4.7.3/../../../../../H-i686-mingw32/nios2-elf/lib\libc.a(lib_a-makebuf.o)
                              c:/altera/13.1/nios2eds/bin/gnu/h-i686-mingw32/bin/../lib/gcc/nios2-elf/4.7.3/../../../../../H-i686-mingw32/nios2-elf/lib\libc.a(lib_a-wsetup.o) (__smakebuf_r)
c:/altera/13.1/nios2eds/bin/gnu/h-i686-mingw32/bin/../lib/gcc/nios2-elf/4.7.3/../../../../../H-i686-mingw32/nios2-elf/lib\libc.a(lib_a-mallocr.o)
                              c:/altera/13.1/nios2eds/bin/gnu/h-i686-mingw32/bin/../lib/gcc/nios2-elf/4.7.3/../../../../../H-i686-mingw32/nios2-elf/lib\libc.a(lib_a-findfp.o) (_malloc_r)
c:/altera/13.1/nios2eds/bin/gnu/h-i686-mingw32/bin/../lib/gcc/nios2-elf/4.7.3/../../../../../H-i686-mingw32/nios2-elf/lib\libc.a(lib_a-memchr.o)
                              c:/altera/13.1/nios2eds/bin/gnu/h-i686-mingw32/bin/../lib/gcc/nios2-elf/4.7.3/../../../../../H-i686-mingw32/nios2-elf/lib\libc.a(lib_a-vfprintf.o) (memchr)
c:/altera/13.1/nios2eds/bin/gnu/h-i686-mingw32/bin/../lib/gcc/nios2-elf/4.7.3/../../../../../H-i686-mingw32/nios2-elf/lib\libc.a(lib_a-memmove.o)
                              c:/altera/13.1/nios2eds/bin/gnu/h-i686-mingw32/bin/../lib/gcc/nios2-elf/4.7.3/../../../../../H-i686-mingw32/nios2-elf/lib\libc.a(lib_a-fvwrite.o) (memmove)
c:/altera/13.1/nios2eds/bin/gnu/h-i686-mingw32/bin/../lib/gcc/nios2-elf/4.7.3/../../../../../H-i686-mingw32/nios2-elf/lib\libc.a(lib_a-mprec.o)
                              c:/altera/13.1/nios2eds/bin/gnu/h-i686-mingw32/bin/../lib/gcc/nios2-elf/4.7.3/../../../../../H-i686-mingw32/nios2-elf/lib\libc.a(lib_a-dtoa.o) (_Balloc)
c:/altera/13.1/nios2eds/bin/gnu/h-i686-mingw32/bin/../lib/gcc/nios2-elf/4.7.3/../../../../../H-i686-mingw32/nios2-elf/lib\libc.a(lib_a-reallocr.o)
                              c:/altera/13.1/nios2eds/bin/gnu/h-i686-mingw32/bin/../lib/gcc/nios2-elf/4.7.3/../../../../../H-i686-mingw32/nios2-elf/lib\libc.a(lib_a-fvwrite.o) (_realloc_r)
c:/altera/13.1/nios2eds/bin/gnu/h-i686-mingw32/bin/../lib/gcc/nios2-elf/4.7.3/../../../../../H-i686-mingw32/nios2-elf/lib\libc.a(lib_a-s_isinfd.o)
                              c:/altera/13.1/nios2eds/bin/gnu/h-i686-mingw32/bin/../lib/gcc/nios2-elf/4.7.3/../../../../../H-i686-mingw32/nios2-elf/lib\libc.a(lib_a-vfprintf.o) (__isinfd)
c:/altera/13.1/nios2eds/bin/gnu/h-i686-mingw32/bin/../lib/gcc/nios2-elf/4.7.3/../../../../../H-i686-mingw32/nios2-elf/lib\libc.a(lib_a-s_isnand.o)
                              c:/altera/13.1/nios2eds/bin/gnu/h-i686-mingw32/bin/../lib/gcc/nios2-elf/4.7.3/../../../../../H-i686-mingw32/nios2-elf/lib\libc.a(lib_a-vfprintf.o) (__isnand)
c:/altera/13.1/nios2eds/bin/gnu/h-i686-mingw32/bin/../lib/gcc/nios2-elf/4.7.3/../../../../../H-i686-mingw32/nios2-elf/lib\libc.a(lib_a-sbrkr.o)
                              c:/altera/13.1/nios2eds/bin/gnu/h-i686-mingw32/bin/../lib/gcc/nios2-elf/4.7.3/../../../../../H-i686-mingw32/nios2-elf/lib\libc.a(lib_a-freer.o) (_sbrk_r)
c:/altera/13.1/nios2eds/bin/gnu/h-i686-mingw32/bin/../lib/gcc/nios2-elf/4.7.3/../../../../../H-i686-mingw32/nios2-elf/lib\libc.a(lib_a-stdio.o)
                              c:/altera/13.1/nios2eds/bin/gnu/h-i686-mingw32/bin/../lib/gcc/nios2-elf/4.7.3/../../../../../H-i686-mingw32/nios2-elf/lib\libc.a(lib_a-findfp.o) (__sread)
c:/altera/13.1/nios2eds/bin/gnu/h-i686-mingw32/bin/../lib/gcc/nios2-elf/4.7.3/../../../../../H-i686-mingw32/nios2-elf/lib\libc.a(lib_a-writer.o)
                              c:/altera/13.1/nios2eds/bin/gnu/h-i686-mingw32/bin/../lib/gcc/nios2-elf/4.7.3/../../../../../H-i686-mingw32/nios2-elf/lib\libc.a(lib_a-stdio.o) (_write_r)
c:/altera/13.1/nios2eds/bin/gnu/h-i686-mingw32/bin/../lib/gcc/nios2-elf/4.7.3/../../../../../H-i686-mingw32/nios2-elf/lib\libc.a(lib_a-callocr.o)
                              c:/altera/13.1/nios2eds/bin/gnu/h-i686-mingw32/bin/../lib/gcc/nios2-elf/4.7.3/../../../../../H-i686-mingw32/nios2-elf/lib\libc.a(lib_a-mprec.o) (_calloc_r)
c:/altera/13.1/nios2eds/bin/gnu/h-i686-mingw32/bin/../lib/gcc/nios2-elf/4.7.3/../../../../../H-i686-mingw32/nios2-elf/lib\libc.a(lib_a-closer.o)
                              c:/altera/13.1/nios2eds/bin/gnu/h-i686-mingw32/bin/../lib/gcc/nios2-elf/4.7.3/../../../../../H-i686-mingw32/nios2-elf/lib\libc.a(lib_a-stdio.o) (_close_r)
c:/altera/13.1/nios2eds/bin/gnu/h-i686-mingw32/bin/../lib/gcc/nios2-elf/4.7.3/../../../../../H-i686-mingw32/nios2-elf/lib\libc.a(lib_a-fclose.o)
                              c:/altera/13.1/nios2eds/bin/gnu/h-i686-mingw32/bin/../lib/gcc/nios2-elf/4.7.3/../../../../../H-i686-mingw32/nios2-elf/lib\libc.a(lib_a-findfp.o) (fclose)
c:/altera/13.1/nios2eds/bin/gnu/h-i686-mingw32/bin/../lib/gcc/nios2-elf/4.7.3/../../../../../H-i686-mingw32/nios2-elf/lib\libc.a(lib_a-fstatr.o)
                              c:/altera/13.1/nios2eds/bin/gnu/h-i686-mingw32/bin/../lib/gcc/nios2-elf/4.7.3/../../../../../H-i686-mingw32/nios2-elf/lib\libc.a(lib_a-makebuf.o) (_fstat_r)
c:/altera/13.1/nios2eds/bin/gnu/h-i686-mingw32/bin/../lib/gcc/nios2-elf/4.7.3/../../../../../H-i686-mingw32/nios2-elf/lib\libc.a(lib_a-int_errno.o)
                              c:/altera/13.1/nios2eds/bin/gnu/h-i686-mingw32/bin/../lib/gcc/nios2-elf/4.7.3/../../../../../H-i686-mingw32/nios2-elf/lib\libc.a(lib_a-sbrkr.o) (errno)
c:/altera/13.1/nios2eds/bin/gnu/h-i686-mingw32/bin/../lib/gcc/nios2-elf/4.7.3/../../../../../H-i686-mingw32/nios2-elf/lib\libc.a(lib_a-isattyr.o)
                              c:/altera/13.1/nios2eds/bin/gnu/h-i686-mingw32/bin/../lib/gcc/nios2-elf/4.7.3/../../../../../H-i686-mingw32/nios2-elf/lib\libc.a(lib_a-makebuf.o) (_isatty_r)
c:/altera/13.1/nios2eds/bin/gnu/h-i686-mingw32/bin/../lib/gcc/nios2-elf/4.7.3/../../../../../H-i686-mingw32/nios2-elf/lib\libc.a(lib_a-lseekr.o)
                              c:/altera/13.1/nios2eds/bin/gnu/h-i686-mingw32/bin/../lib/gcc/nios2-elf/4.7.3/../../../../../H-i686-mingw32/nios2-elf/lib\libc.a(lib_a-stdio.o) (_lseek_r)
c:/altera/13.1/nios2eds/bin/gnu/h-i686-mingw32/bin/../lib/gcc/nios2-elf/4.7.3/../../../../../H-i686-mingw32/nios2-elf/lib\libc.a(lib_a-readr.o)
                              c:/altera/13.1/nios2eds/bin/gnu/h-i686-mingw32/bin/../lib/gcc/nios2-elf/4.7.3/../../../../../H-i686-mingw32/nios2-elf/lib\libc.a(lib_a-stdio.o) (_read_r)
c:/altera/13.1/nios2eds/bin/gnu/h-i686-mingw32/bin/../lib/gcc/nios2-elf/4.7.3\libgcc.a(_udivdi3.o)
                              c:/altera/13.1/nios2eds/bin/gnu/h-i686-mingw32/bin/../lib/gcc/nios2-elf/4.7.3/../../../../../H-i686-mingw32/nios2-elf/lib\libc.a(lib_a-vfprintf.o) (__udivdi3)
c:/altera/13.1/nios2eds/bin/gnu/h-i686-mingw32/bin/../lib/gcc/nios2-elf/4.7.3\libgcc.a(_umoddi3.o)
                              c:/altera/13.1/nios2eds/bin/gnu/h-i686-mingw32/bin/../lib/gcc/nios2-elf/4.7.3/../../../../../H-i686-mingw32/nios2-elf/lib\libc.a(lib_a-vfprintf.o) (__umoddi3)
c:/altera/13.1/nios2eds/bin/gnu/h-i686-mingw32/bin/../lib/gcc/nios2-elf/4.7.3\libgcc.a(_addsub_df.o)
                              c:/altera/13.1/nios2eds/bin/gnu/h-i686-mingw32/bin/../lib/gcc/nios2-elf/4.7.3/../../../../../H-i686-mingw32/nios2-elf/lib\libc.a(lib_a-dtoa.o) (__adddf3)
c:/altera/13.1/nios2eds/bin/gnu/h-i686-mingw32/bin/../lib/gcc/nios2-elf/4.7.3\libgcc.a(_mul_df.o)
                              c:/altera/13.1/nios2eds/bin/gnu/h-i686-mingw32/bin/../lib/gcc/nios2-elf/4.7.3/../../../../../H-i686-mingw32/nios2-elf/lib\libc.a(lib_a-dtoa.o) (__muldf3)
c:/altera/13.1/nios2eds/bin/gnu/h-i686-mingw32/bin/../lib/gcc/nios2-elf/4.7.3\libgcc.a(_div_df.o)
                              c:/altera/13.1/nios2eds/bin/gnu/h-i686-mingw32/bin/../lib/gcc/nios2-elf/4.7.3/../../../../../H-i686-mingw32/nios2-elf/lib\libc.a(lib_a-dtoa.o) (__divdf3)
c:/altera/13.1/nios2eds/bin/gnu/h-i686-mingw32/bin/../lib/gcc/nios2-elf/4.7.3\libgcc.a(_eq_df.o)
                              c:/altera/13.1/nios2eds/bin/gnu/h-i686-mingw32/bin/../lib/gcc/nios2-elf/4.7.3/../../../../../H-i686-mingw32/nios2-elf/lib\libc.a(lib_a-vfprintf.o) (__eqdf2)
c:/altera/13.1/nios2eds/bin/gnu/h-i686-mingw32/bin/../lib/gcc/nios2-elf/4.7.3\libgcc.a(_ne_df.o)
                              c:/altera/13.1/nios2eds/bin/gnu/h-i686-mingw32/bin/../lib/gcc/nios2-elf/4.7.3/../../../../../H-i686-mingw32/nios2-elf/lib\libc.a(lib_a-vfprintf.o) (__nedf2)
c:/altera/13.1/nios2eds/bin/gnu/h-i686-mingw32/bin/../lib/gcc/nios2-elf/4.7.3\libgcc.a(_gt_df.o)
                              c:/altera/13.1/nios2eds/bin/gnu/h-i686-mingw32/bin/../lib/gcc/nios2-elf/4.7.3/../../../../../H-i686-mingw32/nios2-elf/lib\libc.a(lib_a-dtoa.o) (__gtdf2)
c:/altera/13.1/nios2eds/bin/gnu/h-i686-mingw32/bin/../lib/gcc/nios2-elf/4.7.3\libgcc.a(_ge_df.o)
                              c:/altera/13.1/nios2eds/bin/gnu/h-i686-mingw32/bin/../lib/gcc/nios2-elf/4.7.3/../../../../../H-i686-mingw32/nios2-elf/lib\libc.a(lib_a-dtoa.o) (__gedf2)
c:/altera/13.1/nios2eds/bin/gnu/h-i686-mingw32/bin/../lib/gcc/nios2-elf/4.7.3\libgcc.a(_lt_df.o)
                              c:/altera/13.1/nios2eds/bin/gnu/h-i686-mingw32/bin/../lib/gcc/nios2-elf/4.7.3/../../../../../H-i686-mingw32/nios2-elf/lib\libc.a(lib_a-vfprintf.o) (__ltdf2)
c:/altera/13.1/nios2eds/bin/gnu/h-i686-mingw32/bin/../lib/gcc/nios2-elf/4.7.3\libgcc.a(_si_to_df.o)
                              c:/altera/13.1/nios2eds/bin/gnu/h-i686-mingw32/bin/../lib/gcc/nios2-elf/4.7.3/../../../../../H-i686-mingw32/nios2-elf/lib\libc.a(lib_a-dtoa.o) (__floatsidf)
c:/altera/13.1/nios2eds/bin/gnu/h-i686-mingw32/bin/../lib/gcc/nios2-elf/4.7.3\libgcc.a(_df_to_si.o)
                              c:/altera/13.1/nios2eds/bin/gnu/h-i686-mingw32/bin/../lib/gcc/nios2-elf/4.7.3/../../../../../H-i686-mingw32/nios2-elf/lib\libc.a(lib_a-dtoa.o) (__fixdfsi)
c:/altera/13.1/nios2eds/bin/gnu/h-i686-mingw32/bin/../lib/gcc/nios2-elf/4.7.3\libgcc.a(_thenan_df.o)
                              c:/altera/13.1/nios2eds/bin/gnu/h-i686-mingw32/bin/../lib/gcc/nios2-elf/4.7.3\libgcc.a(_addsub_df.o) (__thenan_df)
c:/altera/13.1/nios2eds/bin/gnu/h-i686-mingw32/bin/../lib/gcc/nios2-elf/4.7.3\libgcc.a(_usi_to_df.o)
                              c:/altera/13.1/nios2eds/bin/gnu/h-i686-mingw32/bin/../lib/gcc/nios2-elf/4.7.3/../../../../../H-i686-mingw32/nios2-elf/lib\libc.a(lib_a-dtoa.o) (__floatunsidf)
c:/altera/13.1/nios2eds/bin/gnu/h-i686-mingw32/bin/../lib/gcc/nios2-elf/4.7.3\libgcc.a(lib2-divmod.o)
                              c:/altera/13.1/nios2eds/bin/gnu/h-i686-mingw32/bin/../lib/gcc/nios2-elf/4.7.3/../../../../../H-i686-mingw32/nios2-elf/lib\libc.a(lib_a-vfprintf.o) (__divsi3)
c:/altera/13.1/nios2eds/bin/gnu/h-i686-mingw32/bin/../lib/gcc/nios2-elf/4.7.3\libgcc.a(_muldi3.o)
                              c:/altera/13.1/nios2eds/bin/gnu/h-i686-mingw32/bin/../lib/gcc/nios2-elf/4.7.3\libgcc.a(_mul_df.o) (__muldi3)
c:/altera/13.1/nios2eds/bin/gnu/h-i686-mingw32/bin/../lib/gcc/nios2-elf/4.7.3\libgcc.a(_clz.o)
                              c:/altera/13.1/nios2eds/bin/gnu/h-i686-mingw32/bin/../lib/gcc/nios2-elf/4.7.3\libgcc.a(_udivdi3.o) (__clz_tab)
c:/altera/13.1/nios2eds/bin/gnu/h-i686-mingw32/bin/../lib/gcc/nios2-elf/4.7.3\libgcc.a(_clzsi2.o)
                              c:/altera/13.1/nios2eds/bin/gnu/h-i686-mingw32/bin/../lib/gcc/nios2-elf/4.7.3\libgcc.a(_si_to_df.o) (__clzsi2)
c:/altera/13.1/nios2eds/bin/gnu/h-i686-mingw32/bin/../lib/gcc/nios2-elf/4.7.3\libgcc.a(_pack_df.o)
                              c:/altera/13.1/nios2eds/bin/gnu/h-i686-mingw32/bin/../lib/gcc/nios2-elf/4.7.3\libgcc.a(_addsub_df.o) (__pack_d)
c:/altera/13.1/nios2eds/bin/gnu/h-i686-mingw32/bin/../lib/gcc/nios2-elf/4.7.3\libgcc.a(_unpack_df.o)
                              c:/altera/13.1/nios2eds/bin/gnu/h-i686-mingw32/bin/../lib/gcc/nios2-elf/4.7.3\libgcc.a(_addsub_df.o) (__unpack_d)
c:/altera/13.1/nios2eds/bin/gnu/h-i686-mingw32/bin/../lib/gcc/nios2-elf/4.7.3\libgcc.a(_fpcmp_parts_df.o)
                              c:/altera/13.1/nios2eds/bin/gnu/h-i686-mingw32/bin/../lib/gcc/nios2-elf/4.7.3\libgcc.a(_eq_df.o) (__fpcmp_parts_d)
c:/altera/13.1/nios2eds/bin/gnu/h-i686-mingw32/bin/../lib/gcc/nios2-elf/4.7.3\libgcc.a(_lshrdi3.o)
                              c:/altera/13.1/nios2eds/bin/gnu/h-i686-mingw32/bin/../lib/gcc/nios2-elf/4.7.3\libgcc.a(_pack_df.o) (__lshrdi3)
c:/altera/13.1/nios2eds/bin/gnu/h-i686-mingw32/bin/../lib/gcc/nios2-elf/4.7.3\libgcc.a(_ashldi3.o)
                              c:/altera/13.1/nios2eds/bin/gnu/h-i686-mingw32/bin/../lib/gcc/nios2-elf/4.7.3\libgcc.a(_pack_df.o) (__ashldi3)
../lwIP_NIOS_II_Example_bsp/\libhal_bsp.a(alt_alarm_start.o)
                              obj/default/main.o (alt_alarm_start)
../lwIP_NIOS_II_Example_bsp/\libhal_bsp.a(alt_close.o)
                              c:/altera/13.1/nios2eds/bin/gnu/h-i686-mingw32/bin/../lib/gcc/nios2-elf/4.7.3/../../../../../H-i686-mingw32/nios2-elf/lib\libc.a(lib_a-closer.o) (close)
../lwIP_NIOS_II_Example_bsp/\libhal_bsp.a(alt_dev.o)
                              ../lwIP_NIOS_II_Example_bsp/\libhal_bsp.a(alt_close.o) (alt_fd_list)
../lwIP_NIOS_II_Example_bsp/\libhal_bsp.a(alt_errno.o)
                              ../lwIP_NIOS_II_Example_bsp/\libhal_bsp.a(alt_close.o) (alt_errno)
../lwIP_NIOS_II_Example_bsp/\libhal_bsp.a(alt_fstat.o)
                              c:/altera/13.1/nios2eds/bin/gnu/h-i686-mingw32/bin/../lib/gcc/nios2-elf/4.7.3/../../../../../H-i686-mingw32/nios2-elf/lib\libc.a(lib_a-fstatr.o) (fstat)
../lwIP_NIOS_II_Example_bsp/\libhal_bsp.a(alt_isatty.o)
                              c:/altera/13.1/nios2eds/bin/gnu/h-i686-mingw32/bin/../lib/gcc/nios2-elf/4.7.3/../../../../../H-i686-mingw32/nios2-elf/lib\libc.a(lib_a-isattyr.o) (isatty)
../lwIP_NIOS_II_Example_bsp/\libhal_bsp.a(alt_load.o)
                              ../lwIP_NIOS_II_Example_bsp//obj/HAL/src/crt0.o (alt_load)
../lwIP_NIOS_II_Example_bsp/\libhal_bsp.a(alt_lseek.o)
                              c:/altera/13.1/nios2eds/bin/gnu/h-i686-mingw32/bin/../lib/gcc/nios2-elf/4.7.3/../../../../../H-i686-mingw32/nios2-elf/lib\libc.a(lib_a-lseekr.o) (lseek)
../lwIP_NIOS_II_Example_bsp/\libhal_bsp.a(alt_main.o)
                              ../lwIP_NIOS_II_Example_bsp//obj/HAL/src/crt0.o (alt_main)
../lwIP_NIOS_II_Example_bsp/\libhal_bsp.a(alt_malloc_lock.o)
                              c:/altera/13.1/nios2eds/bin/gnu/h-i686-mingw32/bin/../lib/gcc/nios2-elf/4.7.3/../../../../../H-i686-mingw32/nios2-elf/lib\libc.a(lib_a-freer.o) (__malloc_lock)
../lwIP_NIOS_II_Example_bsp/\libhal_bsp.a(alt_read.o)
                              c:/altera/13.1/nios2eds/bin/gnu/h-i686-mingw32/bin/../lib/gcc/nios2-elf/4.7.3/../../../../../H-i686-mingw32/nios2-elf/lib\libc.a(lib_a-readr.o) (read)
../lwIP_NIOS_II_Example_bsp/\libhal_bsp.a(alt_release_fd.o)
                              ../lwIP_NIOS_II_Example_bsp/\libhal_bsp.a(alt_close.o) (alt_release_fd)
../lwIP_NIOS_II_Example_bsp/\libhal_bsp.a(alt_remap_uncached.o)
                              obj/default/alteraTseEthernetif.o (alt_remap_uncached)
../lwIP_NIOS_II_Example_bsp/\libhal_bsp.a(alt_sbrk.o)
                              c:/altera/13.1/nios2eds/bin/gnu/h-i686-mingw32/bin/../lib/gcc/nios2-elf/4.7.3/../../../../../H-i686-mingw32/nios2-elf/lib\libc.a(lib_a-sbrkr.o) (sbrk)
../lwIP_NIOS_II_Example_bsp/\libhal_bsp.a(alt_tick.o)
                              obj/default/main.o (_alt_tick_rate)
../lwIP_NIOS_II_Example_bsp/\libhal_bsp.a(alt_uncached_malloc.o)
                              obj/default/driver/lwip_tse_mac.o (alt_uncached_malloc)
../lwIP_NIOS_II_Example_bsp/\libhal_bsp.a(alt_usleep.o)
                              obj/default/main.o (usleep)
../lwIP_NIOS_II_Example_bsp/\libhal_bsp.a(alt_write.o)
                              c:/altera/13.1/nios2eds/bin/gnu/h-i686-mingw32/bin/../lib/gcc/nios2-elf/4.7.3/../../../../../H-i686-mingw32/nios2-elf/lib\libc.a(lib_a-writer.o) (write)
../lwIP_NIOS_II_Example_bsp/\libhal_bsp.a(alt_sys_init.o)
                              ../lwIP_NIOS_II_Example_bsp/\libhal_bsp.a(alt_main.o) (alt_irq_init)
../lwIP_NIOS_II_Example_bsp/\libhal_bsp.a(altera_avalon_cfi_flash.o)
                              ../lwIP_NIOS_II_Example_bsp/\libhal_bsp.a(alt_sys_init.o) (alt_flash_cfi_init)
../lwIP_NIOS_II_Example_bsp/\libhal_bsp.a(altera_avalon_cfi_flash_table.o)
                              ../lwIP_NIOS_II_Example_bsp/\libhal_bsp.a(altera_avalon_cfi_flash.o) (alt_set_flash_width_func)
../lwIP_NIOS_II_Example_bsp/\libhal_bsp.a(altera_avalon_jtag_uart_fd.o)
                              ../lwIP_NIOS_II_Example_bsp/\libhal_bsp.a(alt_sys_init.o) (altera_avalon_jtag_uart_read_fd)
../lwIP_NIOS_II_Example_bsp/\libhal_bsp.a(altera_avalon_jtag_uart_init.o)
                              ../lwIP_NIOS_II_Example_bsp/\libhal_bsp.a(alt_sys_init.o) (altera_avalon_jtag_uart_init)
../lwIP_NIOS_II_Example_bsp/\libhal_bsp.a(altera_avalon_jtag_uart_ioctl.o)
                              ../lwIP_NIOS_II_Example_bsp/\libhal_bsp.a(altera_avalon_jtag_uart_fd.o) (altera_avalon_jtag_uart_ioctl)
../lwIP_NIOS_II_Example_bsp/\libhal_bsp.a(altera_avalon_jtag_uart_read.o)
                              ../lwIP_NIOS_II_Example_bsp/\libhal_bsp.a(altera_avalon_jtag_uart_fd.o) (altera_avalon_jtag_uart_read)
../lwIP_NIOS_II_Example_bsp/\libhal_bsp.a(altera_avalon_jtag_uart_write.o)
                              ../lwIP_NIOS_II_Example_bsp/\libhal_bsp.a(altera_avalon_jtag_uart_fd.o) (altera_avalon_jtag_uart_write)
../lwIP_NIOS_II_Example_bsp/\libhal_bsp.a(altera_avalon_lcd_16207.o)
                              ../lwIP_NIOS_II_Example_bsp/\libhal_bsp.a(alt_sys_init.o) (altera_avalon_lcd_16207_init)
../lwIP_NIOS_II_Example_bsp/\libhal_bsp.a(altera_avalon_lcd_16207_fd.o)
                              ../lwIP_NIOS_II_Example_bsp/\libhal_bsp.a(alt_sys_init.o) (altera_avalon_lcd_16207_write_fd)
../lwIP_NIOS_II_Example_bsp/\libhal_bsp.a(altera_avalon_sgdma.o)
                              obj/default/driver/lwip_tse_mac.o (alt_avalon_sgdma_construct_stream_to_mem_desc)
../lwIP_NIOS_II_Example_bsp/\libhal_bsp.a(altera_avalon_timer_sc.o)
                              ../lwIP_NIOS_II_Example_bsp/\libhal_bsp.a(alt_sys_init.o) (alt_avalon_timer_sc_init)
../lwIP_NIOS_II_Example_bsp/\libhal_bsp.a(altera_avalon_tse.o)
                              obj/default/driver/lwip_tse_mac.o (tse_mac_initTransInfo2)
../lwIP_NIOS_II_Example_bsp/\libhal_bsp.a(altera_avalon_tse_system_info.o)
                              obj/default/driver/lwip_tse_mac.o (tse_mac_device)
../lwIP_NIOS_II_Example_bsp/\libhal_bsp.a(altera_avalon_uart_fd.o)
                              ../lwIP_NIOS_II_Example_bsp/\libhal_bsp.a(alt_sys_init.o) (altera_avalon_uart_read_fd)
../lwIP_NIOS_II_Example_bsp/\libhal_bsp.a(altera_avalon_uart_init.o)
                              ../lwIP_NIOS_II_Example_bsp/\libhal_bsp.a(alt_sys_init.o) (altera_avalon_uart_init)
../lwIP_NIOS_II_Example_bsp/\libhal_bsp.a(altera_avalon_uart_read.o)
                              ../lwIP_NIOS_II_Example_bsp/\libhal_bsp.a(altera_avalon_uart_fd.o) (altera_avalon_uart_read)
../lwIP_NIOS_II_Example_bsp/\libhal_bsp.a(altera_avalon_uart_write.o)
                              ../lwIP_NIOS_II_Example_bsp/\libhal_bsp.a(altera_avalon_uart_fd.o) (altera_avalon_uart_write)
../lwIP_NIOS_II_Example_bsp/\libhal_bsp.a(altera_vic_0_vector_tbl.o)
                              ../lwIP_NIOS_II_Example_bsp/\libhal_bsp.a(alt_sys_init.o) (VIC_0_VECTOR_TABLE)
../lwIP_NIOS_II_Example_bsp/\libhal_bsp.a(altera_vic_funnel_non_preemptive.o)
                              ../lwIP_NIOS_II_Example_bsp/\libhal_bsp.a(altera_vic_0_vector_tbl.o) (alt_shadow_non_preemptive_interrupt)
../lwIP_NIOS_II_Example_bsp/\libhal_bsp.a(altera_vic_irq_init.o)
                              ../lwIP_NIOS_II_Example_bsp/\libhal_bsp.a(alt_sys_init.o) (alt_vic_irq_init)
../lwIP_NIOS_II_Example_bsp/\libhal_bsp.a(altera_vic_isr_register.o)
                              ../lwIP_NIOS_II_Example_bsp/\libhal_bsp.a(altera_avalon_jtag_uart_init.o) (alt_ic_isr_register)
../lwIP_NIOS_II_Example_bsp/\libhal_bsp.a(alt_busy_sleep.o)
                              ../lwIP_NIOS_II_Example_bsp/\libhal_bsp.a(alt_usleep.o) (alt_busy_sleep)
../lwIP_NIOS_II_Example_bsp/\libhal_bsp.a(alt_dcache_flush.o)
                              ../lwIP_NIOS_II_Example_bsp/\libhal_bsp.a(alt_remap_uncached.o) (alt_dcache_flush)
../lwIP_NIOS_II_Example_bsp/\libhal_bsp.a(alt_dcache_flush_all.o)
                              ../lwIP_NIOS_II_Example_bsp/\libhal_bsp.a(alt_load.o) (alt_dcache_flush_all)
../lwIP_NIOS_II_Example_bsp/\libhal_bsp.a(alt_dev_llist_insert.o)
                              ../lwIP_NIOS_II_Example_bsp/\libhal_bsp.a(alt_sys_init.o) (alt_dev_llist_insert)
../lwIP_NIOS_II_Example_bsp/\libhal_bsp.a(alt_do_ctors.o)
                              ../lwIP_NIOS_II_Example_bsp/\libhal_bsp.a(alt_main.o) (_do_ctors)
../lwIP_NIOS_II_Example_bsp/\libhal_bsp.a(alt_do_dtors.o)
                              ../lwIP_NIOS_II_Example_bsp/\libhal_bsp.a(alt_main.o) (_do_dtors)
../lwIP_NIOS_II_Example_bsp/\libhal_bsp.a(alt_find_dev.o)
                              ../lwIP_NIOS_II_Example_bsp/\libhal_bsp.a(altera_avalon_sgdma.o) (alt_find_dev)
../lwIP_NIOS_II_Example_bsp/\libhal_bsp.a(alt_flash_dev.o)
                              ../lwIP_NIOS_II_Example_bsp/\libhal_bsp.a(altera_avalon_cfi_flash.o) (alt_flash_dev_list)
../lwIP_NIOS_II_Example_bsp/\libhal_bsp.a(alt_icache_flush_all.o)
                              ../lwIP_NIOS_II_Example_bsp/\libhal_bsp.a(alt_load.o) (alt_icache_flush_all)
../lwIP_NIOS_II_Example_bsp/\libhal_bsp.a(alt_io_redirect.o)
                              ../lwIP_NIOS_II_Example_bsp/\libhal_bsp.a(alt_main.o) (alt_io_redirect)
../lwIP_NIOS_II_Example_bsp/\libhal_bsp.a(alt_open.o)
                              ../lwIP_NIOS_II_Example_bsp/\libhal_bsp.a(alt_io_redirect.o) (open)
../lwIP_NIOS_II_Example_bsp/\libhal_bsp.a(altera_avalon_cfi_flash_amd.o)
                              ../lwIP_NIOS_II_Example_bsp/\libhal_bsp.a(altera_avalon_cfi_flash_table.o) (alt_program_amd)
../lwIP_NIOS_II_Example_bsp/\libhal_bsp.a(altera_avalon_cfi_flash_intel.o)
                              ../lwIP_NIOS_II_Example_bsp/\libhal_bsp.a(altera_avalon_cfi_flash_table.o) (alt_program_intel)
../lwIP_NIOS_II_Example_bsp/\libhal_bsp.a(alt_find_file.o)
                              ../lwIP_NIOS_II_Example_bsp/\libhal_bsp.a(alt_open.o) (alt_find_file)
../lwIP_NIOS_II_Example_bsp/\libhal_bsp.a(alt_get_fd.o)
                              ../lwIP_NIOS_II_Example_bsp/\libhal_bsp.a(alt_open.o) (alt_get_fd)
../lwIP_NIOS_II_Example_bsp/\libhal_bsp.a(alt_icache_flush.o)
                              ../lwIP_NIOS_II_Example_bsp/\libhal_bsp.a(alt_icache_flush_all.o) (alt_icache_flush)
c:/altera/13.1/nios2eds/bin/gnu/h-i686-mingw32/bin/../lib/gcc/nios2-elf/4.7.3/../../../../../H-i686-mingw32/nios2-elf/lib\libc.a(lib_a-atexit.o)
                              ../lwIP_NIOS_II_Example_bsp/\libhal_bsp.a(alt_main.o) (atexit)
c:/altera/13.1/nios2eds/bin/gnu/h-i686-mingw32/bin/../lib/gcc/nios2-elf/4.7.3/../../../../../H-i686-mingw32/nios2-elf/lib\libc.a(lib_a-ctype_.o)
                              ../lwIP_NIOS_II_Example_bsp/\libhal_bsp.a(altera_avalon_lcd_16207.o) (__ctype_ptr)
c:/altera/13.1/nios2eds/bin/gnu/h-i686-mingw32/bin/../lib/gcc/nios2-elf/4.7.3/../../../../../H-i686-mingw32/nios2-elf/lib\libc.a(lib_a-exit.o)
                              ../lwIP_NIOS_II_Example_bsp/\libhal_bsp.a(alt_main.o) (exit)
c:/altera/13.1/nios2eds/bin/gnu/h-i686-mingw32/bin/../lib/gcc/nios2-elf/4.7.3/../../../../../H-i686-mingw32/nios2-elf/lib\libc.a(lib_a-malloc.o)
                              ../lwIP_NIOS_II_Example_bsp/\libhal_bsp.a(alt_uncached_malloc.o) (malloc)
c:/altera/13.1/nios2eds/bin/gnu/h-i686-mingw32/bin/../lib/gcc/nios2-elf/4.7.3/../../../../../H-i686-mingw32/nios2-elf/lib\libc.a(lib_a-memcmp.o)
                              ../lwIP_NIOS_II_Example_bsp/\libhal_bsp.a(altera_avalon_cfi_flash.o) (memcmp)
c:/altera/13.1/nios2eds/bin/gnu/h-i686-mingw32/bin/../lib/gcc/nios2-elf/4.7.3/../../../../../H-i686-mingw32/nios2-elf/lib\libc.a(lib_a-strcpy.o)
                              ../lwIP_NIOS_II_Example_bsp/\libhal_bsp.a(altera_avalon_tse.o) (strcpy)
c:/altera/13.1/nios2eds/bin/gnu/h-i686-mingw32/bin/../lib/gcc/nios2-elf/4.7.3/../../../../../H-i686-mingw32/nios2-elf/lib\libc.a(lib_a-__atexit.o)
                              c:/altera/13.1/nios2eds/bin/gnu/h-i686-mingw32/bin/../lib/gcc/nios2-elf/4.7.3/../../../../../H-i686-mingw32/nios2-elf/lib\libc.a(lib_a-atexit.o) (__register_exitproc)
c:/altera/13.1/nios2eds/bin/gnu/h-i686-mingw32/bin/../lib/gcc/nios2-elf/4.7.3/../../../../../H-i686-mingw32/nios2-elf/lib\libc.a(lib_a-__call_atexit.o)
                              c:/altera/13.1/nios2eds/bin/gnu/h-i686-mingw32/bin/../lib/gcc/nios2-elf/4.7.3/../../../../../H-i686-mingw32/nios2-elf/lib\libc.a(lib_a-exit.o) (__call_exitprocs)
../lwIP_NIOS_II_Example_bsp/\libhal_bsp.a(alt_exit.o)
                              c:/altera/13.1/nios2eds/bin/gnu/h-i686-mingw32/bin/../lib/gcc/nios2-elf/4.7.3/../../../../../H-i686-mingw32/nios2-elf/lib\libc.a(lib_a-exit.o) (_exit)

Allocating common symbols
Common symbol       size              file

netif_list          0x4               obj/default/src/core/netif.o
alteraTseNetif      0x34              obj/default/main.o
tcp_active_pcbs     0x4               obj/default/src/core/tcp.o
udp_pcbs            0x4               obj/default/src/core/udp.o
errno               0x4               c:/altera/13.1/nios2eds/bin/gnu/h-i686-mingw32/bin/../lib/gcc/nios2-elf/4.7.3/../../../../../H-i686-mingw32/nios2-elf/lib\libc.a(lib_a-int_errno.o)
pmac_groups         0x20              ../lwIP_NIOS_II_Example_bsp/\libhal_bsp.a(altera_avalon_tse.o)
current_netif       0x4               obj/default/src/core/ipv4/ip.o
tcp_ticks           0x4               obj/default/src/core/tcp.o
tcp_listen_pcbs     0x4               obj/default/src/core/tcp.o
tse                 0x100             obj/default/driver/lwip_tse_mac.o
pphy_profiles       0x20              ../lwIP_NIOS_II_Example_bsp/\libhal_bsp.a(altera_avalon_tse.o)
tcp_tmp_pcb         0x4               obj/default/src/core/tcp.o
tcp_input_pcb       0x4               obj/default/src/core/tcp_in.o
current_header      0x4               obj/default/src/core/ipv4/ip.o
tcp_bound_pcbs      0x4               obj/default/src/core/tcp.o
_atexit0            0x190             c:/altera/13.1/nios2eds/bin/gnu/h-i686-mingw32/bin/../lib/gcc/nios2-elf/4.7.3/../../../../../H-i686-mingw32/nios2-elf/lib\libc.a(lib_a-atexit.o)
alt_vic_dev_list    0x4               ../lwIP_NIOS_II_Example_bsp/\libhal_bsp.a(altera_vic_irq_init.o)
tcp_tw_pcbs         0x4               obj/default/src/core/tcp.o
lwip_stats          0x118             obj/default/src/core/stats.o
netif_default       0x4               obj/default/src/core/netif.o

Memory Configuration

Name             Origin             Length             Attributes
sdram_BEFORE_EXCEPTION 0x00000000         0x00000020
sdram            0x00000020         0x01ffffe0
descriptor_memory 0x02001000         0x00001000
cfi_flash        0x04000000         0x00800000
reset            0x05000000         0x00000020
sram             0x05000020         0x001fffe0
onchip_memory2   0x0a000000         0x00020000
*default*        0x00000000         0xffffffff

Linker script and memory map

LOAD ../lwIP_NIOS_II_Example_bsp//obj/HAL/src/crt0.o
LOAD obj/default/alteraTseEthernetif.o
LOAD obj/default/driver/alteraTseEthernetif.o
LOAD obj/default/driver/fs.o
LOAD obj/default/driver/fsdata.o
LOAD obj/default/driver/httpd.o
LOAD obj/default/driver/lwip_tse_mac.o
LOAD obj/default/fs.o
LOAD obj/default/fsdata.o
LOAD obj/default/httpd.o
LOAD obj/default/lwip_tse_mac.o
LOAD obj/default/main.o
LOAD obj/default/src/api/api_lib.o
LOAD obj/default/src/api/api_msg.o
LOAD obj/default/src/api/err.o
LOAD obj/default/src/api/netbuf.o
LOAD obj/default/src/api/netdb.o
LOAD obj/default/src/api/netifapi.o
LOAD obj/default/src/api/sockets.o
LOAD obj/default/src/api/tcpip.o
LOAD obj/default/src/core/dhcp.o
LOAD obj/default/src/core/dns.o
LOAD obj/default/src/core/init.o
LOAD obj/default/src/core/ipv4/autoip.o
LOAD obj/default/src/core/ipv4/icmp.o
LOAD obj/default/src/core/ipv4/igmp.o
LOAD obj/default/src/core/ipv4/inet.o
LOAD obj/default/src/core/ipv4/inet_chksum.o
LOAD obj/default/src/core/ipv4/ip.o
LOAD obj/default/src/core/ipv4/ip_addr.o
LOAD obj/default/src/core/ipv4/ip_frag.o
LOAD obj/default/src/core/mem.o
LOAD obj/default/src/core/memp.o
LOAD obj/default/src/core/netif.o
LOAD obj/default/src/core/pbuf.o
LOAD obj/default/src/core/raw.o
LOAD obj/default/src/core/snmp/asn1_dec.o
LOAD obj/default/src/core/snmp/asn1_enc.o
LOAD obj/default/src/core/snmp/mib2.o
LOAD obj/default/src/core/snmp/mib_structs.o
LOAD obj/default/src/core/snmp/msg_in.o
LOAD obj/default/src/core/snmp/msg_out.o
LOAD obj/default/src/core/stats.o
LOAD obj/default/src/core/sys.o
LOAD obj/default/src/core/tcp.o
LOAD obj/default/src/core/tcp_in.o
LOAD obj/default/src/core/tcp_out.o
LOAD obj/default/src/core/udp.o
LOAD obj/default/src/netif/etharp.o
LOAD obj/default/src/netif/ethernetif.o
LOAD obj/default/src/netif/loopif.o
LOAD obj/default/src/netif/ppp/auth.o
LOAD obj/default/src/netif/ppp/chap.o
LOAD obj/default/src/netif/ppp/chpms.o
LOAD obj/default/src/netif/ppp/fsm.o
LOAD obj/default/src/netif/ppp/ipcp.o
LOAD obj/default/src/netif/ppp/lcp.o
LOAD obj/default/src/netif/ppp/magic.o
LOAD obj/default/src/netif/ppp/md5.o
LOAD obj/default/src/netif/ppp/pap.o
LOAD obj/default/src/netif/ppp/ppp.o
LOAD obj/default/src/netif/ppp/ppp_oe.o
LOAD obj/default/src/netif/ppp/randm.o
LOAD obj/default/src/netif/ppp/vj.o
LOAD obj/default/src/netif/slipif.o
LOAD c:/altera/13.1/nios2eds/bin/gnu/h-i686-mingw32/bin/../lib/gcc/nios2-elf/4.7.3/../../../../../H-i686-mingw32/nios2-elf/lib\libstdc++.a
LOAD c:/altera/13.1/nios2eds/bin/gnu/h-i686-mingw32/bin/../lib/gcc/nios2-elf/4.7.3/../../../../../H-i686-mingw32/nios2-elf/lib\libm.a
LOAD c:/altera/13.1/nios2eds/bin/gnu/h-i686-mingw32/bin/../lib/gcc/nios2-elf/4.7.3\libgcc.a
START GROUP
LOAD c:/altera/13.1/nios2eds/bin/gnu/h-i686-mingw32/bin/../lib/gcc/nios2-elf/4.7.3/../../../../../H-i686-mingw32/nios2-elf/lib\libc.a
LOAD c:/altera/13.1/nios2eds/bin/gnu/h-i686-mingw32/bin/../lib/gcc/nios2-elf/4.7.3\libgcc.a
LOAD ../lwIP_NIOS_II_Example_bsp/\libhal_bsp.a
END GROUP
LOAD c:/altera/13.1/nios2eds/bin/gnu/h-i686-mingw32/bin/../lib/gcc/nios2-elf/4.7.3\libgcc.a
                0x00000000                __alt_mem_sdram = 0x0
                0x02001000                __alt_mem_descriptor_memory = 0x2001000
                0x04000000                __alt_mem_cfi_flash = 0x4000000
                0x05000000                __alt_mem_sram = 0x5000000
                0x0a000000                __alt_mem_onchip_memory2 = 0xa000000

.entry          0x05000000       0x20
 *(.entry)
 .entry         0x05000000       0x20 ../lwIP_NIOS_II_Example_bsp//obj/HAL/src/crt0.o
                0x05000000                __reset

.exceptions     0x00000020        0x0
                0x00000020                PROVIDE (__ram_exceptions_start, ABSOLUTE (.))
                0x00000020                . = ALIGN (0x20)
 *(.irq)
 *(.exceptions.entry.label)
 *(.exceptions.entry.user)
 *(.exceptions.entry.ecc_fatal)
 *(.exceptions.entry)
 *(.exceptions.irqtest.user)
 *(.exceptions.irqtest)
 *(.exceptions.irqhandler.user)
 *(.exceptions.irqhandler)
 *(.exceptions.irqreturn.user)
 *(.exceptions.irqreturn)
 *(.exceptions.notirq.label)
 *(.exceptions.notirq.user)
 *(.exceptions.notirq)
 *(.exceptions.soft.user)
 *(.exceptions.soft)
 *(.exceptions.unknown.user)
 *(.exceptions.unknown)
 *(.exceptions.exit.label)
 *(.exceptions.exit.user)
 *(.exceptions.exit)
 *(.exceptions)
                0x00000020                PROVIDE (__ram_exceptions_end, ABSOLUTE (.))
                0x00000020                PROVIDE (__flash_exceptions_start, LOADADDR (.exceptions))

.text           0x00000020    0x2da70
                0x00000020                PROVIDE (stext, ABSOLUTE (.))
 *(.interp)
 *(.hash)
 *(.dynsym)
 *(.dynstr)
 *(.gnu.version)
 *(.gnu.version_d)
 *(.gnu.version_r)
 *(.rel.init)
 *(.rela.init)
 *(.rel.text .rel.text.* .rel.gnu.linkonce.t.*)
 *(.rela.text .rela.text.* .rela.gnu.linkonce.t.*)
 *(.rel.fini)
 *(.rela.fini)
 *(.rel.rodata .rel.rodata.* .rel.gnu.linkonce.r.*)
 *(.rela.rodata .rela.rodata.* .rela.gnu.linkonce.r.*)
 *(.rel.data .rel.data.* .rel.gnu.linkonce.d.*)
 *(.rela.data .rela.data.* .rela.gnu.linkonce.d.*)
 *(.rel.tdata .rel.tdata.* .rel.gnu.linkonce.td.*)
 *(.rela.tdata .rela.tdata.* .rela.gnu.linkonce.td.*)
 *(.rel.tbss .rel.tbss.* .rel.gnu.linkonce.tb.*)
 *(.rela.tbss .rela.tbss.* .rela.gnu.linkonce.tb.*)
 *(.rel.ctors)
 *(.rela.ctors)
 *(.rel.dtors)
 *(.rela.dtors)
 *(.rel.got)
 *(.rela.got)
 *(.rel.sdata .rel.sdata.* .rel.gnu.linkonce.s.*)
 *(.rela.sdata .rela.sdata.* .rela.gnu.linkonce.s.*)
 *(.rel.sbss .rel.sbss.* .rel.gnu.linkonce.sb.*)
 *(.rela.sbss .rela.sbss.* .rela.gnu.linkonce.sb.*)
 *(.rel.sdata2 .rel.sdata2.* .rel.gnu.linkonce.s2.*)
 *(.rela.sdata2 .rela.sdata2.* .rela.gnu.linkonce.s2.*)
 *(.rel.sbss2 .rel.sbss2.* .rel.gnu.linkonce.sb2.*)
 *(.rela.sbss2 .rela.sbss2.* .rela.gnu.linkonce.sb2.*)
 *(.rel.bss .rel.bss.* .rel.gnu.linkonce.b.*)
 *(.rela.bss .rela.bss.* .rela.gnu.linkonce.b.*)
 *(.rel.plt)
 *(.rela.plt)
 *(.rel.dyn)
 *(.init)
 *(.plt)
 *(.text .stub .text.* .gnu.linkonce.t.*)
 .text          0x00000020       0x7c ../lwIP_NIOS_II_Example_bsp//obj/HAL/src/crt0.o
                0x00000020                _start
 .text          0x0000009c      0x4f4 obj/default/alteraTseEthernetif.o
                0x00000334                ethernetif_input
                0x00000418                ethernetif_init
 .text          0x00000590      0x4f4 obj/default/driver/alteraTseEthernetif.o
 .text          0x00000a84       0x94 obj/default/driver/fs.o
                0x00000a84                fs_open
 .text          0x00000b18        0x0 obj/default/driver/fsdata.o
 .text          0x00000b18      0x654 obj/default/driver/httpd.o
                0x00001100                httpd_init
 .text          0x0000116c      0xbfc obj/default/driver/lwip_tse_mac.o
                0x0000116c                tse_mac_init
                0x00001924                tse_sgdma_read_init
                0x000019cc                tse_sgdmaRx_isr
                0x00001a60                tse_mac_raw_send
                0x00001bd0                tse_mac_rcv
 .text          0x00001d68       0x94 obj/default/fs.o
 .text          0x00001dfc        0x0 obj/default/fsdata.o
 .text          0x00001dfc      0x654 obj/default/httpd.o
 .text          0x00002450      0xbfc obj/default/lwip_tse_mac.o
 .text          0x0000304c      0x31c obj/default/main.o
                0x0000304c                lwipAlarmCallback
                0x00003078                main
                0x000032a4                lwipProcessTimers
 .text          0x00003368        0x0 obj/default/src/api/api_lib.o
 .text          0x00003368        0x0 obj/default/src/api/api_msg.o
 .text          0x00003368        0x0 obj/default/src/api/err.o
 .text          0x00003368        0x0 obj/default/src/api/netbuf.o
 .text          0x00003368        0x0 obj/default/src/api/netdb.o
 .text          0x00003368        0x0 obj/default/src/api/netifapi.o
 .text          0x00003368        0x0 obj/default/src/api/sockets.o
 .text          0x00003368        0x0 obj/default/src/api/tcpip.o
 .text          0x00003368     0x3420 obj/default/src/core/dhcp.o
                0x000037e8                dhcp_coarse_tmr
                0x0000389c                dhcp_fine_tmr
                0x00003ff4                dhcp_start
                0x00004238                dhcp_inform
                0x000043cc                dhcp_network_changed
                0x00004480                dhcp_arp_reply
                0x00004c34                dhcp_renew
                0x000050b4                dhcp_release
                0x00005290                dhcp_stop
 .text          0x00006788        0x0 obj/default/src/core/dns.o
 .text          0x00006788       0x2c obj/default/src/core/init.o
                0x00006788                lwip_init
 .text          0x000067b4        0x0 obj/default/src/core/ipv4/autoip.o
 .text          0x000067b4      0x804 obj/default/src/core/ipv4/icmp.o
                0x000067b4                icmp_input
                0x00006dc0                icmp_dest_unreach
                0x00006e04                icmp_time_exceeded
 .text          0x00006fb8        0x0 obj/default/src/core/ipv4/igmp.o
 .text          0x00006fb8      0x594 obj/default/src/core/ipv4/inet.o
                0x00006fb8                inet_addr
                0x00006ffc                inet_aton
                0x000073f4                inet_ntoa
 .text          0x0000754c      0x49c obj/default/src/core/ipv4/inet_chksum.o
                0x00007678                inet_chksum_pseudo
                0x00007898                inet_chksum
                0x000078dc                inet_chksum_pbuf
 .text          0x000079e8      0xc14 obj/default/src/core/ipv4/ip.o
                0x000079e8                ip_route
                0x00007ae4                ip_input
                0x000080ac                ip_output_if
                0x00008548                ip_output
 .text          0x000085fc       0xf0 obj/default/src/core/ipv4/ip_addr.o
                0x000085fc                ip_addr_isbroadcast
 .text          0x000086ec     0x12ec obj/default/src/core/ipv4/ip_frag.o
                0x000086ec                ip_reass_tmr
                0x000091b4                ip_reass
                0x000096d4                ip_frag
 .text          0x000099d8      0xba8 obj/default/src/core/mem.o
                0x00009bd0                mem_init
                0x00009c78                mem_free
                0x00009df8                mem_realloc
                0x0000a11c                mem_malloc
                0x0000a508                mem_calloc
 .text          0x0000a580      0x490 obj/default/src/core/memp.o
                0x0000a580                memp_init
                0x0000a73c                memp_malloc
                0x0000a918                memp_free
 .text          0x0000aa10      0x5ec obj/default/src/core/netif.o
                0x0000aa10                netif_add
                0x0000aae8                netif_set_addr
                0x0000ab40                netif_remove
                0x0000abfc                netif_find
                0x0000acdc                netif_set_ipaddr
                0x0000ae34                netif_set_gw
                0x0000ae84                netif_set_netmask
                0x0000aed4                netif_set_default
                0x0000aefc                netif_set_up
                0x0000af78                netif_set_down
                0x0000afc8                netif_is_up
 .text          0x0000affc     0x1590 obj/default/src/core/pbuf.o
                0x0000affc                pbuf_alloc
                0x0000b53c                pbuf_realloc
                0x0000b7c0                pbuf_header
                0x0000b9b8                pbuf_free
                0x0000bb84                pbuf_clen
                0x0000bbd0                pbuf_ref
                0x0000bc10                pbuf_cat
                0x0000bd50                pbuf_chain
                0x0000bd90                pbuf_dechain
                0x0000bebc                pbuf_copy
                0x0000c180                pbuf_copy_partial
                0x0000c31c                pbuf_take
                0x0000c4d4                pbuf_coalesce
 .text          0x0000c58c      0x4f0 obj/default/src/core/raw.o
                0x0000c58c                raw_input
                0x0000c6bc                raw_bind
                0x0000c710                raw_connect
                0x0000c764                raw_recv
                0x0000c7a4                raw_sendto
                0x0000c91c                raw_send
                0x0000c960                raw_remove
                0x0000c9fc                raw_new
 .text          0x0000ca7c        0x0 obj/default/src/core/snmp/asn1_dec.o
 .text          0x0000ca7c        0x0 obj/default/src/core/snmp/asn1_enc.o
 .text          0x0000ca7c        0x0 obj/default/src/core/snmp/mib2.o
 .text          0x0000ca7c        0x0 obj/default/src/core/snmp/mib_structs.o
 .text          0x0000ca7c        0x0 obj/default/src/core/snmp/msg_in.o
 .text          0x0000ca7c        0x0 obj/default/src/core/snmp/msg_out.o
 .text          0x0000ca7c        0x0 obj/default/src/core/stats.o
 .text          0x0000ca7c        0x0 obj/default/src/core/sys.o
 .text          0x0000ca7c     0x20e0 obj/default/src/core/tcp.o
                0x0000ca7c                tcp_tmr
                0x0000cac4                tcp_close
                0x0000ccb4                tcp_abandon
                0x0000ce48                tcp_bind
                0x0000d154                tcp_listen_with_backlog
                0x0000d318                tcp_update_rcv_ann_wnd
                0x0000d404                tcp_recved
                0x0000d5f0                tcp_connect
                0x0000d838                tcp_slowtmr
                0x0000e054                tcp_fasttmr
                0x0000e164                tcp_segs_free
                0x0000e1c8                tcp_seg_free
                0x0000e22c                tcp_setprio
                0x0000e260                tcp_seg_copy
                0x0000e2c8                tcp_recv_null
                0x0000e4b0                tcp_alloc
                0x0000e690                tcp_new
                0x0000e6bc                tcp_arg
                0x0000e6ec                tcp_recv
                0x0000e71c                tcp_sent
                0x0000e74c                tcp_err
                0x0000e77c                tcp_accept
                0x0000e7ac                tcp_poll
                0x0000e7f0                tcp_pcb_purge
                0x0000e8c4                tcp_pcb_remove
                0x0000ea6c                tcp_next_iss
                0x0000ea9c                tcp_eff_send_mss
                0x0000eb20                tcp_debug_state_str
 .text          0x0000eb5c     0x3ce4 obj/default/src/core/tcp_in.o
                0x0000eb5c                tcp_input
 .text          0x00012840     0x286c obj/default/src/core/tcp_out.o
                0x00012ac8                tcp_send_ctrl
                0x00012b1c                tcp_write
                0x00012bd4                tcp_enqueue
                0x00013920                tcp_send_empty_ack
                0x00013a7c                tcp_output
                0x000146a0                tcp_rst
                0x00014944                tcp_rexmit_rto
                0x000149f8                tcp_rexmit
                0x00014bcc                tcp_rexmit_fast
                0x00014cf0                tcp_keepalive
                0x00014e74                tcp_zero_window_probe
 .text          0x000150ac      0xe24 obj/default/src/core/udp.o
                0x000150ac                udp_input
                0x000156f0                udp_send
                0x00015744                udp_sendto
                0x000157d8                udp_sendto_if
                0x00015ab8                udp_bind
                0x00015c20                udp_connect
                0x00015d34                udp_disconnect
                0x00015d9c                udp_recv
                0x00015ddc                udp_remove
                0x00015e78                udp_new
 .text          0x00015ed0     0x1b20 obj/default/src/netif/etharp.o
                0x00015fbc                etharp_tmr
                0x00016984                etharp_find_addr
                0x00016a40                etharp_ip_input
                0x00016b10                etharp_arp_input
                0x00016f10                etharp_output
                0x00017180                etharp_query
                0x0001783c                etharp_request
                0x000178b0                ethernet_input
 .text          0x000179f0        0x0 obj/default/src/netif/ethernetif.o
 .text          0x000179f0        0x0 obj/default/src/netif/loopif.o
 .text          0x000179f0        0x0 obj/default/src/netif/ppp/auth.o
 .text          0x000179f0        0x0 obj/default/src/netif/ppp/chap.o
 .text          0x000179f0        0x0 obj/default/src/netif/ppp/chpms.o
 .text          0x000179f0        0x0 obj/default/src/netif/ppp/fsm.o
 .text          0x000179f0        0x0 obj/default/src/netif/ppp/ipcp.o
 .text          0x000179f0        0x0 obj/default/src/netif/ppp/lcp.o
 .text          0x000179f0        0x0 obj/default/src/netif/ppp/magic.o
 .text          0x000179f0        0x0 obj/default/src/netif/ppp/md5.o
 .text          0x000179f0        0x0 obj/default/src/netif/ppp/pap.o
 .text          0x000179f0        0x0 obj/default/src/netif/ppp/ppp.o
 .text          0x000179f0        0x0 obj/default/src/netif/ppp/ppp_oe.o
 .text          0x000179f0        0x0 obj/default/src/netif/ppp/randm.o
 .text          0x000179f0        0x0 obj/default/src/netif/ppp/vj.o
 .text          0x000179f0        0x0 obj/default/src/netif/slipif.o
 .text          0x000179f0        0x0 c:/altera/13.1/nios2eds/bin/gnu/h-i686-mingw32/bin/../lib/gcc/nios2-elf/4.7.3/../../../../../H-i686-mingw32/nios2-elf/lib\libc.a(lib_a-impure.o)
 .text          0x000179f0       0xf8 c:/altera/13.1/nios2eds/bin/gnu/h-i686-mingw32/bin/../lib/gcc/nios2-elf/4.7.3/../../../../../H-i686-mingw32/nios2-elf/lib\libc.a(lib_a-memcpy.o)
                0x000179f0                memcpy
 .text          0x00017ae8       0xdc c:/altera/13.1/nios2eds/bin/gnu/h-i686-mingw32/bin/../lib/gcc/nios2-elf/4.7.3/../../../../../H-i686-mingw32/nios2-elf/lib\libc.a(lib_a-memset.o)
                0x00017ae8                memset
 .text          0x00017bc4       0x68 c:/altera/13.1/nios2eds/bin/gnu/h-i686-mingw32/bin/../lib/gcc/nios2-elf/4.7.3/../../../../../H-i686-mingw32/nios2-elf/lib\libc.a(lib_a-printf.o)
                0x00017bc4                _printf_r
                0x00017bf0                printf
 .text          0x00017c2c      0x1ac c:/altera/13.1/nios2eds/bin/gnu/h-i686-mingw32/bin/../lib/gcc/nios2-elf/4.7.3/../../../../../H-i686-mingw32/nios2-elf/lib\libc.a(lib_a-putc.o)
                0x00017c2c                _putc_r
                0x00017ce8                putc
 .text          0x00017dd8       0x98 c:/altera/13.1/nios2eds/bin/gnu/h-i686-mingw32/bin/../lib/gcc/nios2-elf/4.7.3/../../../../../H-i686-mingw32/nios2-elf/lib\libc.a(lib_a-puts.o)
                0x00017dd8                _puts_r
                0x00017e5c                puts
 .text          0x00017e70       0xa4 c:/altera/13.1/nios2eds/bin/gnu/h-i686-mingw32/bin/../lib/gcc/nios2-elf/4.7.3/../../../../../H-i686-mingw32/nios2-elf/lib\libc.a(lib_a-strcmp.o)
                0x00017e70                strcmp
 .text          0x00017f14       0x8c c:/altera/13.1/nios2eds/bin/gnu/h-i686-mingw32/bin/../lib/gcc/nios2-elf/4.7.3/../../../../../H-i686-mingw32/nios2-elf/lib\libc.a(lib_a-strlen.o)
                0x00017f14                strlen
 .text          0x00017fa0       0xfc c:/altera/13.1/nios2eds/bin/gnu/h-i686-mingw32/bin/../lib/gcc/nios2-elf/4.7.3/../../../../../H-i686-mingw32/nios2-elf/lib\libc.a(lib_a-strncmp.o)
                0x00017fa0                strncmp
 .text          0x0001809c     0x1e50 c:/altera/13.1/nios2eds/bin/gnu/h-i686-mingw32/bin/../lib/gcc/nios2-elf/4.7.3/../../../../../H-i686-mingw32/nios2-elf/lib\libc.a(lib_a-vfprintf.o)
                0x000180d0                ___vfprintf_internal_r
                0x00019ec8                __vfprintf_internal
 .text          0x00019eec      0x158 c:/altera/13.1/nios2eds/bin/gnu/h-i686-mingw32/bin/../lib/gcc/nios2-elf/4.7.3/../../../../../H-i686-mingw32/nios2-elf/lib\libc.a(lib_a-wbuf.o)
                0x00019eec                __swbuf_r
                0x0001a028                __swbuf
 .text          0x0001a044      0x174 c:/altera/13.1/nios2eds/bin/gnu/h-i686-mingw32/bin/../lib/gcc/nios2-elf/4.7.3/../../../../../H-i686-mingw32/nios2-elf/lib\libc.a(lib_a-wsetup.o)
                0x0001a044                __swsetup_r
 .text          0x0001a1b8     0x1824 c:/altera/13.1/nios2eds/bin/gnu/h-i686-mingw32/bin/../lib/gcc/nios2-elf/4.7.3/../../../../../H-i686-mingw32/nios2-elf/lib\libc.a(lib_a-dtoa.o)
                0x0001a3c0                _dtoa_r
 .text          0x0001b9dc      0x218 c:/altera/13.1/nios2eds/bin/gnu/h-i686-mingw32/bin/../lib/gcc/nios2-elf/4.7.3/../../../../../H-i686-mingw32/nios2-elf/lib\libc.a(lib_a-fflush.o)
                0x0001b9dc                _fflush_r
                0x0001bbc4                fflush
 .text          0x0001bbf4      0x2d8 c:/altera/13.1/nios2eds/bin/gnu/h-i686-mingw32/bin/../lib/gcc/nios2-elf/4.7.3/../../../../../H-i686-mingw32/nios2-elf/lib\libc.a(lib_a-findfp.o)
                0x0001bc04                _cleanup_r
                0x0001bc10                __sfmoreglue
                0x0001bc74                _cleanup
                0x0001bc84                __sinit
                0x0001bd90                __sfp
                0x0001be8c                __sfp_lock_acquire
                0x0001be90                __sfp_lock_release
                0x0001be94                __sinit_lock_acquire
                0x0001be98                __sinit_lock_release
                0x0001be9c                __fp_lock_all
                0x0001beb4                __fp_unlock_all
 .text          0x0001becc      0x40c c:/altera/13.1/nios2eds/bin/gnu/h-i686-mingw32/bin/../lib/gcc/nios2-elf/4.7.3/../../../../../H-i686-mingw32/nios2-elf/lib\libc.a(lib_a-freer.o)
                0x0001becc                _malloc_trim_r
                0x0001c008                _free_r
 .text          0x0001c2d8      0x4e4 c:/altera/13.1/nios2eds/bin/gnu/h-i686-mingw32/bin/../lib/gcc/nios2-elf/4.7.3/../../../../../H-i686-mingw32/nios2-elf/lib\libc.a(lib_a-fvwrite.o)
                0x0001c2d8                __sfvwrite_r
 .text          0x0001c7bc      0x160 c:/altera/13.1/nios2eds/bin/gnu/h-i686-mingw32/bin/../lib/gcc/nios2-elf/4.7.3/../../../../../H-i686-mingw32/nios2-elf/lib\libc.a(lib_a-fwalk.o)
                0x0001c7bc                _fwalk
                0x0001c864                _fwalk_reent
 .text          0x0001c91c       0xdc c:/altera/13.1/nios2eds/bin/gnu/h-i686-mingw32/bin/../lib/gcc/nios2-elf/4.7.3/../../../../../H-i686-mingw32/nios2-elf/lib\libc.a(lib_a-locale.o)
                0x0001c91c                _setlocale_r
                0x0001c9b8                __locale_charset
                0x0001c9c4                _localeconv_r
                0x0001c9d0                setlocale
                0x0001c9ec                localeconv
 .text          0x0001c9f8      0x1a8 c:/altera/13.1/nios2eds/bin/gnu/h-i686-mingw32/bin/../lib/gcc/nios2-elf/4.7.3/../../../../../H-i686-mingw32/nios2-elf/lib\libc.a(lib_a-makebuf.o)
                0x0001c9f8                __smakebuf_r
 .text          0x0001cba0      0x784 c:/altera/13.1/nios2eds/bin/gnu/h-i686-mingw32/bin/../lib/gcc/nios2-elf/4.7.3/../../../../../H-i686-mingw32/nios2-elf/lib\libc.a(lib_a-mallocr.o)
                0x0001cba0                _malloc_r
 .text          0x0001d324       0xf8 c:/altera/13.1/nios2eds/bin/gnu/h-i686-mingw32/bin/../lib/gcc/nios2-elf/4.7.3/../../../../../H-i686-mingw32/nios2-elf/lib\libc.a(lib_a-memchr.o)
                0x0001d324                memchr
 .text          0x0001d41c      0x128 c:/altera/13.1/nios2eds/bin/gnu/h-i686-mingw32/bin/../lib/gcc/nios2-elf/4.7.3/../../../../../H-i686-mingw32/nios2-elf/lib\libc.a(lib_a-memmove.o)
                0x0001d41c                memmove
 .text          0x0001d544      0xfa8 c:/altera/13.1/nios2eds/bin/gnu/h-i686-mingw32/bin/../lib/gcc/nios2-elf/4.7.3/../../../../../H-i686-mingw32/nios2-elf/lib\libc.a(lib_a-mprec.o)
                0x0001d544                _Balloc
                0x0001d5ec                _Bfree
                0x0001d614                __multadd
                0x0001d728                __s2b
                0x0001d82c                __hi0bits
                0x0001d894                __lo0bits
                0x0001d944                __i2b
                0x0001d980                __multiply
                0x0001db60                __pow5mult
                0x0001dc8c                __lshift
                0x0001dde8                __mcmp
                0x0001de40                __mdiff
                0x0001dfe8                __ulp
                0x0001e048                __b2d
                0x0001e190                __d2b
                0x0001e2d4                __ratio
                0x0001e378                _mprec_log10
                0x0001e3ec                __copybits
                0x0001e468                __any_on
 .text          0x0001e4ec      0x5fc c:/altera/13.1/nios2eds/bin/gnu/h-i686-mingw32/bin/../lib/gcc/nios2-elf/4.7.3/../../../../../H-i686-mingw32/nios2-elf/lib\libc.a(lib_a-reallocr.o)
                0x0001e4ec                _realloc_r
 .text          0x0001eae8       0x38 c:/altera/13.1/nios2eds/bin/gnu/h-i686-mingw32/bin/../lib/gcc/nios2-elf/4.7.3/../../../../../H-i686-mingw32/nios2-elf/lib\libc.a(lib_a-s_isinfd.o)
                0x0001eae8                __isinfd
 .text          0x0001eb20       0x2c c:/altera/13.1/nios2eds/bin/gnu/h-i686-mingw32/bin/../lib/gcc/nios2-elf/4.7.3/../../../../../H-i686-mingw32/nios2-elf/lib\libc.a(lib_a-s_isnand.o)
                0x0001eb20                __isnand
 .text          0x0001eb4c       0x64 c:/altera/13.1/nios2eds/bin/gnu/h-i686-mingw32/bin/../lib/gcc/nios2-elf/4.7.3/../../../../../H-i686-mingw32/nios2-elf/lib\libc.a(lib_a-sbrkr.o)
                0x0001eb4c                _sbrk_r
 .text          0x0001ebb0      0x140 c:/altera/13.1/nios2eds/bin/gnu/h-i686-mingw32/bin/../lib/gcc/nios2-elf/4.7.3/../../../../../H-i686-mingw32/nios2-elf/lib\libc.a(lib_a-stdio.o)
                0x0001ebb0                __sread
                0x0001ec04                __swrite
                0x0001ec8c                __sseek
                0x0001ece8                __sclose
 .text          0x0001ecf0       0x6c c:/altera/13.1/nios2eds/bin/gnu/h-i686-mingw32/bin/../lib/gcc/nios2-elf/4.7.3/../../../../../H-i686-mingw32/nios2-elf/lib\libc.a(lib_a-writer.o)
                0x0001ecf0                _write_r
 .text          0x0001ed5c       0xbc c:/altera/13.1/nios2eds/bin/gnu/h-i686-mingw32/bin/../lib/gcc/nios2-elf/4.7.3/../../../../../H-i686-mingw32/nios2-elf/lib\libc.a(lib_a-callocr.o)
                0x0001ed5c                _calloc_r
 .text          0x0001ee18       0x64 c:/altera/13.1/nios2eds/bin/gnu/h-i686-mingw32/bin/../lib/gcc/nios2-elf/4.7.3/../../../../../H-i686-mingw32/nios2-elf/lib\libc.a(lib_a-closer.o)
                0x0001ee18                _close_r
 .text          0x0001ee7c      0x150 c:/altera/13.1/nios2eds/bin/gnu/h-i686-mingw32/bin/../lib/gcc/nios2-elf/4.7.3/../../../../../H-i686-mingw32/nios2-elf/lib\libc.a(lib_a-fclose.o)
                0x0001ee7c                _fclose_r
                0x0001efb8                fclose
 .text          0x0001efcc       0x68 c:/altera/13.1/nios2eds/bin/gnu/h-i686-mingw32/bin/../lib/gcc/nios2-elf/4.7.3/../../../../../H-i686-mingw32/nios2-elf/lib\libc.a(lib_a-fstatr.o)
                0x0001efcc                _fstat_r
 .text          0x0001f034        0x0 c:/altera/13.1/nios2eds/bin/gnu/h-i686-mingw32/bin/../lib/gcc/nios2-elf/4.7.3/../../../../../H-i686-mingw32/nios2-elf/lib\libc.a(lib_a-int_errno.o)
 .text          0x0001f034       0x64 c:/altera/13.1/nios2eds/bin/gnu/h-i686-mingw32/bin/../lib/gcc/nios2-elf/4.7.3/../../../../../H-i686-mingw32/nios2-elf/lib\libc.a(lib_a-isattyr.o)
                0x0001f034                _isatty_r
 .text          0x0001f098       0x6c c:/altera/13.1/nios2eds/bin/gnu/h-i686-mingw32/bin/../lib/gcc/nios2-elf/4.7.3/../../../../../H-i686-mingw32/nios2-elf/lib\libc.a(lib_a-lseekr.o)
                0x0001f098                _lseek_r
 .text          0x0001f104       0x6c c:/altera/13.1/nios2eds/bin/gnu/h-i686-mingw32/bin/../lib/gcc/nios2-elf/4.7.3/../../../../../H-i686-mingw32/nios2-elf/lib\libc.a(lib_a-readr.o)
                0x0001f104                _read_r
 .text          0x0001f170      0x5c8 c:/altera/13.1/nios2eds/bin/gnu/h-i686-mingw32/bin/../lib/gcc/nios2-elf/4.7.3\libgcc.a(_udivdi3.o)
                0x0001f170                __udivdi3
 .text          0x0001f738      0x58c c:/altera/13.1/nios2eds/bin/gnu/h-i686-mingw32/bin/../lib/gcc/nios2-elf/4.7.3\libgcc.a(_umoddi3.o)
                0x0001f738                __umoddi3
 .text          0x0001fcc4      0x408 c:/altera/13.1/nios2eds/bin/gnu/h-i686-mingw32/bin/../lib/gcc/nios2-elf/4.7.3\libgcc.a(_addsub_df.o)
                0x00020018                __adddf3
                0x0002006c                __subdf3
 .text          0x000200cc      0x2e4 c:/altera/13.1/nios2eds/bin/gnu/h-i686-mingw32/bin/../lib/gcc/nios2-elf/4.7.3\libgcc.a(_mul_df.o)
                0x000200cc                __muldf3
 .text          0x000203b0      0x1b4 c:/altera/13.1/nios2eds/bin/gnu/h-i686-mingw32/bin/../lib/gcc/nios2-elf/4.7.3\libgcc.a(_div_df.o)
                0x000203b0                __divdf3
 .text          0x00020564       0x5c c:/altera/13.1/nios2eds/bin/gnu/h-i686-mingw32/bin/../lib/gcc/nios2-elf/4.7.3\libgcc.a(_eq_df.o)
                0x00020564                __eqdf2
 .text          0x000205c0       0x5c c:/altera/13.1/nios2eds/bin/gnu/h-i686-mingw32/bin/../lib/gcc/nios2-elf/4.7.3\libgcc.a(_ne_df.o)
                0x000205c0                __nedf2
 .text          0x0002061c       0x64 c:/altera/13.1/nios2eds/bin/gnu/h-i686-mingw32/bin/../lib/gcc/nios2-elf/4.7.3\libgcc.a(_gt_df.o)
                0x0002061c                __gtdf2
 .text          0x00020680       0x64 c:/altera/13.1/nios2eds/bin/gnu/h-i686-mingw32/bin/../lib/gcc/nios2-elf/4.7.3\libgcc.a(_ge_df.o)
                0x00020680                __gedf2
 .text          0x000206e4       0x5c c:/altera/13.1/nios2eds/bin/gnu/h-i686-mingw32/bin/../lib/gcc/nios2-elf/4.7.3\libgcc.a(_lt_df.o)
                0x000206e4                __ltdf2
 .text          0x00020740       0xd4 c:/altera/13.1/nios2eds/bin/gnu/h-i686-mingw32/bin/../lib/gcc/nios2-elf/4.7.3\libgcc.a(_si_to_df.o)
                0x00020740                __floatsidf
 .text          0x00020814       0xd4 c:/altera/13.1/nios2eds/bin/gnu/h-i686-mingw32/bin/../lib/gcc/nios2-elf/4.7.3\libgcc.a(_df_to_si.o)
                0x00020814                __fixdfsi
 .text          0x000208e8        0x0 c:/altera/13.1/nios2eds/bin/gnu/h-i686-mingw32/bin/../lib/gcc/nios2-elf/4.7.3\libgcc.a(_thenan_df.o)
 .text          0x000208e8      0x11c c:/altera/13.1/nios2eds/bin/gnu/h-i686-mingw32/bin/../lib/gcc/nios2-elf/4.7.3\libgcc.a(_usi_to_df.o)
                0x000208e8                __floatunsidf
 .text          0x00020a04      0x130 c:/altera/13.1/nios2eds/bin/gnu/h-i686-mingw32/bin/../lib/gcc/nios2-elf/4.7.3\libgcc.a(lib2-divmod.o)
                0x00020a78                __divsi3
                0x00020ac8                __modsi3
                0x00020b24                __udivsi3
                0x00020b2c                __umodsi3
 .text          0x00020b34       0x60 c:/altera/13.1/nios2eds/bin/gnu/h-i686-mingw32/bin/../lib/gcc/nios2-elf/4.7.3\libgcc.a(_muldi3.o)
                0x00020b34                __muldi3
 .text          0x00020b94        0x0 c:/altera/13.1/nios2eds/bin/gnu/h-i686-mingw32/bin/../lib/gcc/nios2-elf/4.7.3\libgcc.a(_clz.o)
 .text          0x00020b94       0xac c:/altera/13.1/nios2eds/bin/gnu/h-i686-mingw32/bin/../lib/gcc/nios2-elf/4.7.3\libgcc.a(_clzsi2.o)
                0x00020b94                __clzsi2
 .text          0x00020c40      0x224 c:/altera/13.1/nios2eds/bin/gnu/h-i686-mingw32/bin/../lib/gcc/nios2-elf/4.7.3\libgcc.a(_pack_df.o)
                0x00020c40                __pack_d
 .text          0x00020e64      0x104 c:/altera/13.1/nios2eds/bin/gnu/h-i686-mingw32/bin/../lib/gcc/nios2-elf/4.7.3\libgcc.a(_unpack_df.o)
                0x00020e64                __unpack_d
 .text          0x00020f68       0xd0 c:/altera/13.1/nios2eds/bin/gnu/h-i686-mingw32/bin/../lib/gcc/nios2-elf/4.7.3\libgcc.a(_fpcmp_parts_df.o)
                0x00020f68                __fpcmp_parts_d
 .text          0x00021038       0x44 c:/altera/13.1/nios2eds/bin/gnu/h-i686-mingw32/bin/../lib/gcc/nios2-elf/4.7.3\libgcc.a(_lshrdi3.o)
                0x00021038                __lshrdi3
 .text          0x0002107c       0x44 c:/altera/13.1/nios2eds/bin/gnu/h-i686-mingw32/bin/../lib/gcc/nios2-elf/4.7.3\libgcc.a(_ashldi3.o)
                0x0002107c                __ashldi3
 .text          0x000210c0      0x16c ../lwIP_NIOS_II_Example_bsp/\libhal_bsp.a(alt_alarm_start.o)
                0x000210c0                alt_alarm_start
 .text          0x0002122c      0x118 ../lwIP_NIOS_II_Example_bsp/\libhal_bsp.a(alt_close.o)
                0x0002127c                close
 .text          0x00021344       0x2c ../lwIP_NIOS_II_Example_bsp/\libhal_bsp.a(alt_dev.o)
 .text          0x00021370        0x0 ../lwIP_NIOS_II_Example_bsp/\libhal_bsp.a(alt_errno.o)
 .text          0x00021370       0xfc ../lwIP_NIOS_II_Example_bsp/\libhal_bsp.a(alt_fstat.o)
                0x000213c0                fstat
 .text          0x0002146c       0xf0 ../lwIP_NIOS_II_Example_bsp/\libhal_bsp.a(alt_isatty.o)
                0x000214bc                isatty
 .text          0x0002155c       0xec ../lwIP_NIOS_II_Example_bsp/\libhal_bsp.a(alt_load.o)
                0x000215c8                alt_load
 .text          0x00021648      0x120 ../lwIP_NIOS_II_Example_bsp/\libhal_bsp.a(alt_lseek.o)
                0x00021698                lseek
 .text          0x00021768       0x78 ../lwIP_NIOS_II_Example_bsp/\libhal_bsp.a(alt_main.o)
                0x00021768                alt_main
 .text          0x000217e0       0x40 ../lwIP_NIOS_II_Example_bsp/\libhal_bsp.a(alt_malloc_lock.o)
                0x000217e0                __malloc_lock
                0x00021800                __malloc_unlock
 .text          0x00021820      0x140 ../lwIP_NIOS_II_Example_bsp/\libhal_bsp.a(alt_read.o)
                0x00021870                read
 .text          0x00021960       0x60 ../lwIP_NIOS_II_Example_bsp/\libhal_bsp.a(alt_release_fd.o)
                0x00021960                alt_release_fd
 .text          0x000219c0       0x40 ../lwIP_NIOS_II_Example_bsp/\libhal_bsp.a(alt_remap_uncached.o)
                0x000219c0                alt_remap_uncached
 .text          0x00021a00      0x108 ../lwIP_NIOS_II_Example_bsp/\libhal_bsp.a(alt_sbrk.o)
                0x00021a00                sbrk
 .text          0x00021b08      0x1c8 ../lwIP_NIOS_II_Example_bsp/\libhal_bsp.a(alt_tick.o)
                0x00021b08                alt_alarm_stop
                0x00021bcc                alt_tick
 .text          0x00021cd0       0x58 ../lwIP_NIOS_II_Example_bsp/\libhal_bsp.a(alt_uncached_malloc.o)
                0x00021cd0                alt_uncached_malloc
 .text          0x00021d28       0x30 ../lwIP_NIOS_II_Example_bsp/\libhal_bsp.a(alt_usleep.o)
                0x00021d28                usleep
 .text          0x00021d58      0x13c ../lwIP_NIOS_II_Example_bsp/\libhal_bsp.a(alt_write.o)
                0x00021da8                write
 .text          0x00021e94      0x188 ../lwIP_NIOS_II_Example_bsp/\libhal_bsp.a(alt_sys_init.o)
                0x00021ecc                alt_irq_init
                0x00021f0c                alt_sys_init
 .text          0x0002201c      0x894 ../lwIP_NIOS_II_Example_bsp/\libhal_bsp.a(altera_avalon_cfi_flash.o)
                0x00022054                alt_flash_cfi_init
                0x000220e4                alt_flash_cfi_write
                0x00022390                alt_flash_cfi_get_info
                0x0002241c                alt_flash_cfi_read
                0x00022480                alt_write_value_to_flash
                0x000225d8                alt_flash_program_block
 .text          0x000228b0     0x1430 ../lwIP_NIOS_II_Example_bsp/\libhal_bsp.a(altera_avalon_cfi_flash_table.o)
                0x000228b0                alt_read_query_entry_8bit
                0x000228ec                alt_read_query_entry_16bit
                0x0002292c                alt_read_query_entry_32bit
                0x0002296c                alt_write_flash_command_8bit_device_8bit_mode
                0x000229b0                alt_write_flash_command_16bit_device_8bit_mode
                0x00022a24                alt_write_flash_command_32bit_device_8bit_mode
                0x00022a70                alt_write_flash_command_16bit_device_16bit_mode
                0x00022ab8                alt_write_flash_command_32bit_device_16bit_mode
                0x00022b04                alt_write_flash_command_32bit_device_32bit_mode
                0x00022b50                alt_write_native_8bit
                0x00022b88                alt_write_native_16bit
                0x00022bc0                alt_write_native_32bit
                0x00022bf4                alt_set_flash_width_func
                0x00022db8                alt_set_flash_algorithm_func
                0x00022ed4                alt_read_cfi_table
                0x0002349c                alt_read_cfi_width
                0x00023c0c                alt_check_primary_table
 .text          0x00023ce0      0x164 ../lwIP_NIOS_II_Example_bsp/\libhal_bsp.a(altera_avalon_jtag_uart_fd.o)
                0x00023ce0                altera_avalon_jtag_uart_read_fd
                0x00023d40                altera_avalon_jtag_uart_write_fd
                0x00023da0                altera_avalon_jtag_uart_close_fd
                0x00023df0                altera_avalon_jtag_uart_ioctl_fd
 .text          0x00023e44      0x3d0 ../lwIP_NIOS_II_Example_bsp/\libhal_bsp.a(altera_avalon_jtag_uart_init.o)
                0x00023e44                altera_avalon_jtag_uart_init
                0x000241ac                altera_avalon_jtag_uart_close
 .text          0x00024214       0xf4 ../lwIP_NIOS_II_Example_bsp/\libhal_bsp.a(altera_avalon_jtag_uart_ioctl.o)
                0x00024214                altera_avalon_jtag_uart_ioctl
 .text          0x00024308      0x244 ../lwIP_NIOS_II_Example_bsp/\libhal_bsp.a(altera_avalon_jtag_uart_read.o)
                0x00024308                altera_avalon_jtag_uart_read
 .text          0x0002454c      0x250 ../lwIP_NIOS_II_Example_bsp/\libhal_bsp.a(altera_avalon_jtag_uart_write.o)
                0x0002454c                altera_avalon_jtag_uart_write
 .text          0x0002479c      0xe8c ../lwIP_NIOS_II_Example_bsp/\libhal_bsp.a(altera_avalon_lcd_16207.o)
                0x00024f60                altera_avalon_lcd_16207_write
                0x000254f0                altera_avalon_lcd_16207_init
 .text          0x00025628       0x60 ../lwIP_NIOS_II_Example_bsp/\libhal_bsp.a(altera_avalon_lcd_16207_fd.o)
                0x00025628                altera_avalon_lcd_16207_write_fd
 .text          0x00025688      0xd2c ../lwIP_NIOS_II_Example_bsp/\libhal_bsp.a(altera_avalon_sgdma.o)
                0x000256d8                alt_avalon_sgdma_do_async_transfer
                0x000257fc                alt_avalon_sgdma_do_sync_transfer
                0x0002590c                alt_avalon_sgdma_construct_mem_to_mem_desc
                0x0002597c                alt_avalon_sgdma_construct_mem_to_mem_desc_burst
                0x000259fc                alt_avalon_sgdma_construct_stream_to_mem_desc
                0x00025a58                alt_avalon_sgdma_construct_stream_to_mem_desc_burst
                0x00025acc                alt_avalon_sgdma_construct_mem_to_stream_desc
                0x00025b48                alt_avalon_sgdma_construct_mem_to_stream_desc_burst
                0x00025bd0                alt_avalon_sgdma_register_callback
                0x00025c20                alt_avalon_sgdma_start
                0x00025c74                alt_avalon_sgdma_stop
                0x00025ccc                alt_avalon_sgdma_check_descriptor_status
                0x00025d30                alt_avalon_sgdma_open
                0x00025d80                alt_avalon_sgdma_construct_descriptor
                0x00025e08                alt_avalon_sgdma_enable_desc_poll
                0x00025e88                alt_avalon_sgdma_disable_desc_poll
                0x00025ee8                alt_avalon_sgdma_construct_descriptor_burst
                0x00026310                alt_avalon_sgdma_init
 .text          0x000263b4      0x128 ../lwIP_NIOS_II_Example_bsp/\libhal_bsp.a(altera_avalon_timer_sc.o)
                0x00026454                alt_avalon_timer_sc_init
 .text          0x000264dc     0x4fa8 ../lwIP_NIOS_II_Example_bsp/\libhal_bsp.a(altera_avalon_tse.o)
                0x000264dc                no_printf
                0x00026508                tse_mac_initTransInfo2
                0x00026568                tse_mac_sTxWrite
                0x00026648                tse_mac_aRxRead
                0x000266ec                tse_mac_SwReset
                0x00026774                tse_mac_setMIImode
                0x000267c8                tse_mac_setGMIImode
                0x00026818                alt_tse_phy_add_profile
                0x000269fc                alt_tse_system_add_sys
                0x000273f8                alt_tse_sys_enable_mdio_sharing
                0x0002755c                alt_tse_mac_get_common_speed
                0x0002759c                alt_tse_mac_set_common_speed
                0x000275e4                alt_tse_get_system_index
                0x00027650                alt_tse_get_mac_group_index
                0x000276c4                alt_tse_get_mac_info_index
                0x00027744                alt_tse_get_mac_info
                0x0002781c                alt_tse_mac_set_speed
                0x000278fc                alt_tse_mac_set_duplex
                0x00027988                getPHYSpeed
                0x000283fc                alt_tse_phy_rd_mdio_addr
                0x00028444                alt_tse_phy_wr_mdio_addr
                0x0002849c                alt_tse_phy_wr_mdio_reg
                0x000285c8                alt_tse_phy_rd_mdio_reg
                0x00028694                alt_tse_phy_add_profile_default
                0x0002892c                alt_tse_phy_print_profile
                0x00028b3c                alt_tse_mac_group_init
                0x000291d8                alt_tse_mac_get_phy
                0x000295f4                alt_tse_mac_associate_phy
                0x00029834                alt_tse_phy_cfg_pcs
                0x0002995c                alt_tse_phy_init
                0x00029a74                alt_tse_phy_restart_an
                0x00029c38                alt_tse_phy_check_link
                0x00029d98                alt_tse_phy_get_cap
                0x0002a330                alt_tse_phy_set_adv_1000
                0x0002a4ec                alt_tse_phy_set_adv_100
                0x0002a734                alt_tse_phy_set_adv_10
                0x0002a8dc                alt_tse_phy_get_common_speed
                0x0002ac04                alt_tse_phy_set_common_speed
                0x0002b0bc                marvell_phy_cfg
                0x0002b154                marvell_cfg_gmii
                0x0002b238                marvell_cfg_sgmii
                0x0002b31c                marvell_cfg_rgmii
                0x0002b40c                DP83848C_link_status_read
 .text          0x0002b484        0x0 ../lwIP_NIOS_II_Example_bsp/\libhal_bsp.a(altera_avalon_tse_system_info.o)
 .text          0x0002b484      0x110 ../lwIP_NIOS_II_Example_bsp/\libhal_bsp.a(altera_avalon_uart_fd.o)
                0x0002b484                altera_avalon_uart_read_fd
                0x0002b4e4                altera_avalon_uart_write_fd
                0x0002b544                altera_avalon_uart_close_fd
 .text          0x0002b594      0x3a8 ../lwIP_NIOS_II_Example_bsp/\libhal_bsp.a(altera_avalon_uart_init.o)
                0x0002b594                altera_avalon_uart_init
                0x0002b8e8                altera_avalon_uart_close
 .text          0x0002b93c      0x2ac ../lwIP_NIOS_II_Example_bsp/\libhal_bsp.a(altera_avalon_uart_read.o)
                0x0002b98c                altera_avalon_uart_read
 .text          0x0002bbe8      0x250 ../lwIP_NIOS_II_Example_bsp/\libhal_bsp.a(altera_avalon_uart_write.o)
                0x0002bc38                altera_avalon_uart_write
 .text          0x0002be38      0x200 ../lwIP_NIOS_II_Example_bsp/\libhal_bsp.a(altera_vic_0_vector_tbl.o)
                0x0002be38                VIC_0_VECTOR_TABLE
 .text          0x0002c038       0x18 ../lwIP_NIOS_II_Example_bsp/\libhal_bsp.a(altera_vic_funnel_non_preemptive.o)
                0x0002c038                alt_shadow_non_preemptive_interrupt
 .text          0x0002c050      0x13c ../lwIP_NIOS_II_Example_bsp/\libhal_bsp.a(altera_vic_irq_init.o)
                0x0002c050                alt_vic_irq_init
 .text          0x0002c18c      0x158 ../lwIP_NIOS_II_Example_bsp/\libhal_bsp.a(altera_vic_isr_register.o)
                0x0002c18c                alt_ic_isr_register
 .text          0x0002c2e4      0x128 ../lwIP_NIOS_II_Example_bsp/\libhal_bsp.a(alt_busy_sleep.o)
                0x0002c2e4                alt_busy_sleep
 .text          0x0002c40c       0x24 ../lwIP_NIOS_II_Example_bsp/\libhal_bsp.a(alt_dcache_flush.o)
                0x0002c40c                alt_dcache_flush
 .text          0x0002c430       0x1c ../lwIP_NIOS_II_Example_bsp/\libhal_bsp.a(alt_dcache_flush_all.o)
                0x0002c430                alt_dcache_flush_all
 .text          0x0002c44c       0xf0 ../lwIP_NIOS_II_Example_bsp/\libhal_bsp.a(alt_dev_llist_insert.o)
                0x0002c49c                alt_dev_llist_insert
 .text          0x0002c53c       0x5c ../lwIP_NIOS_II_Example_bsp/\libhal_bsp.a(alt_do_ctors.o)
                0x0002c53c                _do_ctors
 .text          0x0002c598       0x5c ../lwIP_NIOS_II_Example_bsp/\libhal_bsp.a(alt_do_dtors.o)
                0x0002c598                _do_dtors
 .text          0x0002c5f4       0x90 ../lwIP_NIOS_II_Example_bsp/\libhal_bsp.a(alt_find_dev.o)
                0x0002c5f4                alt_find_dev
 .text          0x0002c684       0xb8 ../lwIP_NIOS_II_Example_bsp/\libhal_bsp.a(alt_flash_dev.o)
                0x0002c684                alt_flash_open_dev
                0x0002c6ec                alt_flash_close_dev
 .text          0x0002c73c       0x30 ../lwIP_NIOS_II_Example_bsp/\libhal_bsp.a(alt_icache_flush_all.o)
                0x0002c73c                alt_icache_flush_all
 .text          0x0002c76c      0x138 ../lwIP_NIOS_II_Example_bsp/\libhal_bsp.a(alt_io_redirect.o)
                0x0002c82c                alt_io_redirect
 .text          0x0002c8a4      0x270 ../lwIP_NIOS_II_Example_bsp/\libhal_bsp.a(alt_open.o)
                0x0002c9c0                open
 .text          0x0002cb14      0x460 ../lwIP_NIOS_II_Example_bsp/\libhal_bsp.a(altera_avalon_cfi_flash_amd.o)
                0x0002cb14                alt_program_amd
                0x0002cb7c                alt_erase_block_amd
 .text          0x0002cf74      0x438 ../lwIP_NIOS_II_Example_bsp/\libhal_bsp.a(altera_avalon_cfi_flash_intel.o)
                0x0002cf74                alt_program_intel
                0x0002cff4                alt_erase_block_intel
 .text          0x0002d3ac      0x114 ../lwIP_NIOS_II_Example_bsp/\libhal_bsp.a(alt_find_file.o)
                0x0002d3ac                alt_find_file
 .text          0x0002d4c0       0xb4 ../lwIP_NIOS_II_Example_bsp/\libhal_bsp.a(alt_get_fd.o)
                0x0002d4c0                alt_get_fd
 .text          0x0002d574       0x8c ../lwIP_NIOS_II_Example_bsp/\libhal_bsp.a(alt_icache_flush.o)
                0x0002d574                alt_icache_flush
 .text          0x0002d600       0x14 c:/altera/13.1/nios2eds/bin/gnu/h-i686-mingw32/bin/../lib/gcc/nios2-elf/4.7.3/../../../../../H-i686-mingw32/nios2-elf/lib\libc.a(lib_a-atexit.o)
                0x0002d600                atexit
 .text          0x0002d614        0x0 c:/altera/13.1/nios2eds/bin/gnu/h-i686-mingw32/bin/../lib/gcc/nios2-elf/4.7.3/../../../../../H-i686-mingw32/nios2-elf/lib\libc.a(lib_a-ctype_.o)
 .text          0x0002d614       0x38 c:/altera/13.1/nios2eds/bin/gnu/h-i686-mingw32/bin/../lib/gcc/nios2-elf/4.7.3/../../../../../H-i686-mingw32/nios2-elf/lib\libc.a(lib_a-exit.o)
                0x0002d614                exit
 .text          0x0002d64c       0x28 c:/altera/13.1/nios2eds/bin/gnu/h-i686-mingw32/bin/../lib/gcc/nios2-elf/4.7.3/../../../../../H-i686-mingw32/nios2-elf/lib\libc.a(lib_a-malloc.o)
                0x0002d64c                malloc
                0x0002d660                free
 .text          0x0002d674       0x7c c:/altera/13.1/nios2eds/bin/gnu/h-i686-mingw32/bin/../lib/gcc/nios2-elf/4.7.3/../../../../../H-i686-mingw32/nios2-elf/lib\libc.a(lib_a-memcmp.o)
                0x0002d674                memcmp
 .text          0x0002d6f0       0x94 c:/altera/13.1/nios2eds/bin/gnu/h-i686-mingw32/bin/../lib/gcc/nios2-elf/4.7.3/../../../../../H-i686-mingw32/nios2-elf/lib\libc.a(lib_a-strcpy.o)
                0x0002d6f0                strcpy
 .text          0x0002d784      0x130 c:/altera/13.1/nios2eds/bin/gnu/h-i686-mingw32/bin/../lib/gcc/nios2-elf/4.7.3/../../../../../H-i686-mingw32/nios2-elf/lib\libc.a(lib_a-__atexit.o)
                0x0002d784                __register_exitproc
 .text          0x0002d8b4      0x1a0 c:/altera/13.1/nios2eds/bin/gnu/h-i686-mingw32/bin/../lib/gcc/nios2-elf/4.7.3/../../../../../H-i686-mingw32/nios2-elf/lib\libc.a(lib_a-__call_atexit.o)
                0x0002d8b4                __call_exitprocs
 .text          0x0002da54       0x3c ../lwIP_NIOS_II_Example_bsp/\libhal_bsp.a(alt_exit.o)
                0x0002da54                _exit
 *(.gnu.warning.*)
 *(.fini)
                0x0002da90                PROVIDE (__etext, ABSOLUTE (.))
                0x0002da90                PROVIDE (_etext, ABSOLUTE (.))
                0x0002da90                PROVIDE (etext, ABSOLUTE (.))
 *(.eh_frame_hdr)
                0x0002da90                . = ALIGN (0x4)
                0x0002da90                PROVIDE (__preinit_array_start, ABSOLUTE (.))
 *(.preinit_array)
                0x0002da90                PROVIDE (__preinit_array_end, ABSOLUTE (.))
                0x0002da90                PROVIDE (__init_array_start, ABSOLUTE (.))
 *(.init_array)
                0x0002da90                PROVIDE (__init_array_end, ABSOLUTE (.))
                0x0002da90                PROVIDE (__fini_array_start, ABSOLUTE (.))
 *(.fini_array)
                0x0002da90                PROVIDE (__fini_array_end, ABSOLUTE (.))
 *(.eh_frame)
 *(.gcc_except_table .gcc_except_table.*)
 *(.dynamic)
                0x0002da90                PROVIDE (__CTOR_LIST__, ABSOLUTE (.))
 *(.ctors)
 *(SORT(.ctors.*))
                0x0002da90                PROVIDE (__CTOR_END__, ABSOLUTE (.))
                0x0002da90                PROVIDE (__DTOR_LIST__, ABSOLUTE (.))
 *(.dtors)
 *(SORT(.dtors.*))
                0x0002da90                PROVIDE (__DTOR_END__, ABSOLUTE (.))
 *(.jcr)
                0x0002da90                . = ALIGN (0x4)

.rodata         0x0002da90     0x56a0
                0x0002da90                PROVIDE (__ram_rodata_start, ABSOLUTE (.))
                0x0002da90                . = ALIGN (0x4)
 *(.rodata .rodata.* .gnu.linkonce.r.*)
 .rodata        0x0002da90       0xac obj/default/alteraTseEthernetif.o
 .rodata        0x0002db3c       0xb4 obj/default/driver/alteraTseEthernetif.o
 .rodata        0x0002dbf0      0xc80 obj/default/driver/fs.o
                0x0002e840                file_img_sics_gif
                0x0002e850                file_404_html
                0x0002e860                file_index_html
 .rodata        0x0002e870       0x3c obj/default/driver/httpd.o
 .rodata        0x0002e8ac      0xc80 obj/default/fs.o
 .rodata        0x0002f52c       0x3c obj/default/httpd.o
 .rodata        0x0002f568       0x8c obj/default/main.o
 .rodata        0x0002f5f4      0x440 obj/default/src/core/dhcp.o
 .rodata        0x0002fa34      0x158 obj/default/src/core/ipv4/icmp.o
 .rodata        0x0002fb8c       0x6c obj/default/src/core/ipv4/ip.o
 .rodata        0x0002fbf8      0x154 obj/default/src/core/ipv4/ip_frag.o
 .rodata        0x0002fd4c      0x1e4 obj/default/src/core/mem.o
 .rodata        0x0002ff30       0xc0 obj/default/src/core/memp.o
 .rodata        0x0002fff0      0x470 obj/default/src/core/pbuf.o
 .rodata        0x00030460       0x60 obj/default/src/core/raw.o
 .rodata        0x000304c0      0x30c obj/default/src/core/tcp.o
                0x00030536                tcp_backoff
 .rodata        0x000307cc      0x2d4 obj/default/src/core/tcp_in.o
 .rodata        0x00030aa0      0x234 obj/default/src/core/tcp_out.o
 .rodata        0x00030cd4       0x9c obj/default/src/core/udp.o
 .rodata        0x00030d70      0x1ac obj/default/src/netif/etharp.o
 .rodata.str1.4
                0x00030f1c        0x2 c:/altera/13.1/nios2eds/bin/gnu/h-i686-mingw32/bin/../lib/gcc/nios2-elf/4.7.3/../../../../../H-i686-mingw32/nios2-elf/lib\libc.a(lib_a-impure.o)
                                  0x4 (size before relaxing)
 *fill*         0x00030f1e        0x2 
 .rodata.str1.4
                0x00030f20        0x2 c:/altera/13.1/nios2eds/bin/gnu/h-i686-mingw32/bin/../lib/gcc/nios2-elf/4.7.3/../../../../../H-i686-mingw32/nios2-elf/lib\libc.a(lib_a-puts.o)
                                  0x4 (size before relaxing)
 *fill*         0x00030f22        0x2 
 .rodata.str1.4
                0x00030f24       0x42 c:/altera/13.1/nios2eds/bin/gnu/h-i686-mingw32/bin/../lib/gcc/nios2-elf/4.7.3/../../../../../H-i686-mingw32/nios2-elf/lib\libc.a(lib_a-vfprintf.o)
                                 0x44 (size before relaxing)
 .rodata        0x00030f66       0x20 c:/altera/13.1/nios2eds/bin/gnu/h-i686-mingw32/bin/../lib/gcc/nios2-elf/4.7.3/../../../../../H-i686-mingw32/nios2-elf/lib\libc.a(lib_a-vfprintf.o)
 *fill*         0x00030f86        0x2 
 .rodata.str1.4
                0x00030f88       0x10 c:/altera/13.1/nios2eds/bin/gnu/h-i686-mingw32/bin/../lib/gcc/nios2-elf/4.7.3/../../../../../H-i686-mingw32/nios2-elf/lib\libc.a(lib_a-dtoa.o)
                                 0x14 (size before relaxing)
 .rodata.str1.4
                0x00030f98       0x10 c:/altera/13.1/nios2eds/bin/gnu/h-i686-mingw32/bin/../lib/gcc/nios2-elf/4.7.3/../../../../../H-i686-mingw32/nios2-elf/lib\libc.a(lib_a-locale.o)
                                 0x18 (size before relaxing)
 .rodata        0x00030fa8       0x30 c:/altera/13.1/nios2eds/bin/gnu/h-i686-mingw32/bin/../lib/gcc/nios2-elf/4.7.3/../../../../../H-i686-mingw32/nios2-elf/lib\libc.a(lib_a-locale.o)
 .rodata        0x00030fd8      0x124 c:/altera/13.1/nios2eds/bin/gnu/h-i686-mingw32/bin/../lib/gcc/nios2-elf/4.7.3/../../../../../H-i686-mingw32/nios2-elf/lib\libc.a(lib_a-mprec.o)
                0x00030fd8                __mprec_tinytens
                0x00031000                __mprec_bigtens
                0x00031028                __mprec_tens
 .rodata        0x000310fc       0x14 c:/altera/13.1/nios2eds/bin/gnu/h-i686-mingw32/bin/../lib/gcc/nios2-elf/4.7.3\libgcc.a(_thenan_df.o)
                0x000310fc                __thenan_df
 .rodata        0x00031110      0x100 c:/altera/13.1/nios2eds/bin/gnu/h-i686-mingw32/bin/../lib/gcc/nios2-elf/4.7.3\libgcc.a(_clz.o)
                0x00031110                __clz_tab
 .rodata        0x00031210        0xc ../lwIP_NIOS_II_Example_bsp/\libhal_bsp.a(alt_dev.o)
 .rodata        0x0003121c       0x10 ../lwIP_NIOS_II_Example_bsp/\libhal_bsp.a(alt_main.o)
 .rodata        0x0003122c       0x70 ../lwIP_NIOS_II_Example_bsp/\libhal_bsp.a(alt_sys_init.o)
 .rodata        0x0003129c     0x1bf0 ../lwIP_NIOS_II_Example_bsp/\libhal_bsp.a(altera_avalon_tse.o)
 .rodata        0x00032e8c       0x20 ../lwIP_NIOS_II_Example_bsp/\libhal_bsp.a(altera_vic_irq_init.o)
 .rodata        0x00032eac      0x281 c:/altera/13.1/nios2eds/bin/gnu/h-i686-mingw32/bin/../lib/gcc/nios2-elf/4.7.3/../../../../../H-i686-mingw32/nios2-elf/lib\libc.a(lib_a-ctype_.o)
                0x00032eac                _ctype_
 *(.rodata1)
                0x00033130                . = ALIGN (0x4)
 *fill*         0x0003312d        0x3 
                0x00033130                PROVIDE (__ram_rodata_end, ABSOLUTE (.))
                0x0002da90                PROVIDE (__flash_rodata_start, LOADADDR (.rodata))

.rwdata         0x00033130     0x2004 load address 0x00035134
                0x00033130                PROVIDE (__ram_rwdata_start, ABSOLUTE (.))
                0x00033130                . = ALIGN (0x4)
 *(.got.plt)
 *(.got)
 *(.data1)
 *(.data .data.* .gnu.linkonce.d.*)
 .data          0x00033130        0x0 ../lwIP_NIOS_II_Example_bsp//obj/HAL/src/crt0.o
 .data          0x00033130        0x0 obj/default/alteraTseEthernetif.o
 .data          0x00033130        0x0 obj/default/driver/alteraTseEthernetif.o
 .data          0x00033130        0x0 obj/default/driver/fs.o
 .data          0x00033130        0x0 obj/default/driver/fsdata.o
 .data          0x00033130        0x0 obj/default/driver/httpd.o
 .data          0x00033130        0x0 obj/default/driver/lwip_tse_mac.o
 .data          0x00033130        0x0 obj/default/fs.o
 .data          0x00033130        0x0 obj/default/fsdata.o
 .data          0x00033130        0x0 obj/default/httpd.o
 .data          0x00033130        0x0 obj/default/lwip_tse_mac.o
 .data          0x00033130        0x0 obj/default/main.o
 .data          0x00033130        0x0 obj/default/src/api/api_lib.o
 .data          0x00033130        0x0 obj/default/src/api/api_msg.o
 .data          0x00033130        0x0 obj/default/src/api/err.o
 .data          0x00033130        0x0 obj/default/src/api/netbuf.o
 .data          0x00033130        0x0 obj/default/src/api/netdb.o
 .data          0x00033130        0x0 obj/default/src/api/netifapi.o
 .data          0x00033130        0x0 obj/default/src/api/sockets.o
 .data          0x00033130        0x0 obj/default/src/api/tcpip.o
 .data          0x00033130        0x0 obj/default/src/core/dhcp.o
 .data          0x00033130        0x0 obj/default/src/core/dns.o
 .data          0x00033130        0x0 obj/default/src/core/init.o
 .data          0x00033130        0x0 obj/default/src/core/ipv4/autoip.o
 .data          0x00033130        0x0 obj/default/src/core/ipv4/icmp.o
 .data          0x00033130        0x0 obj/default/src/core/ipv4/igmp.o
 .data          0x00033130        0x0 obj/default/src/core/ipv4/inet.o
 .data          0x00033130        0x0 obj/default/src/core/ipv4/inet_chksum.o
 .data          0x00033130        0x0 obj/default/src/core/ipv4/ip.o
 .data          0x00033130        0x0 obj/default/src/core/ipv4/ip_addr.o
 .data          0x00033130        0x0 obj/default/src/core/ipv4/ip_frag.o
 .data          0x00033130        0x0 obj/default/src/core/mem.o
 .data          0x00033130        0x0 obj/default/src/core/memp.o
 .data          0x00033130        0x0 obj/default/src/core/netif.o
 .data          0x00033130        0x0 obj/default/src/core/pbuf.o
 .data          0x00033130        0x0 obj/default/src/core/raw.o
 .data          0x00033130        0x0 obj/default/src/core/snmp/asn1_dec.o
 .data          0x00033130        0x0 obj/default/src/core/snmp/asn1_enc.o
 .data          0x00033130        0x0 obj/default/src/core/snmp/mib2.o
 .data          0x00033130        0x0 obj/default/src/core/snmp/mib_structs.o
 .data          0x00033130        0x0 obj/default/src/core/snmp/msg_in.o
 .data          0x00033130        0x0 obj/default/src/core/snmp/msg_out.o
 .data          0x00033130        0x0 obj/default/src/core/stats.o
 .data          0x00033130        0x0 obj/default/src/core/sys.o
 .data          0x00033130       0x2c obj/default/src/core/tcp.o
                0x00033130                tcp_state_str
 .data          0x0003315c        0x0 obj/default/src/core/tcp_in.o
 .data          0x0003315c        0x0 obj/default/src/core/tcp_out.o
 .data          0x0003315c        0x0 obj/default/src/core/udp.o
 .data          0x0003315c        0x0 obj/default/src/netif/etharp.o
 .data          0x0003315c        0x0 obj/default/src/netif/ethernetif.o
 .data          0x0003315c        0x0 obj/default/src/netif/loopif.o
 .data          0x0003315c        0x0 obj/default/src/netif/ppp/auth.o
 .data          0x0003315c        0x0 obj/default/src/netif/ppp/chap.o
 .data          0x0003315c        0x0 obj/default/src/netif/ppp/chpms.o
 .data          0x0003315c        0x0 obj/default/src/netif/ppp/fsm.o
 .data          0x0003315c        0x0 obj/default/src/netif/ppp/ipcp.o
 .data          0x0003315c        0x0 obj/default/src/netif/ppp/lcp.o
 .data          0x0003315c        0x0 obj/default/src/netif/ppp/magic.o
 .data          0x0003315c        0x0 obj/default/src/netif/ppp/md5.o
 .data          0x0003315c        0x0 obj/default/src/netif/ppp/pap.o
 .data          0x0003315c        0x0 obj/default/src/netif/ppp/ppp.o
 .data          0x0003315c        0x0 obj/default/src/netif/ppp/ppp_oe.o
 .data          0x0003315c        0x0 obj/default/src/netif/ppp/randm.o
 .data          0x0003315c        0x0 obj/default/src/netif/ppp/vj.o
 .data          0x0003315c        0x0 obj/default/src/netif/slipif.o
 .data          0x0003315c      0x400 c:/altera/13.1/nios2eds/bin/gnu/h-i686-mingw32/bin/../lib/gcc/nios2-elf/4.7.3/../../../../../H-i686-mingw32/nios2-elf/lib\libc.a(lib_a-impure.o)
 .data          0x0003355c        0x0 c:/altera/13.1/nios2eds/bin/gnu/h-i686-mingw32/bin/../lib/gcc/nios2-elf/4.7.3/../../../../../H-i686-mingw32/nios2-elf/lib\libc.a(lib_a-memcpy.o)
 .data          0x0003355c        0x0 c:/altera/13.1/nios2eds/bin/gnu/h-i686-mingw32/bin/../lib/gcc/nios2-elf/4.7.3/../../../../../H-i686-mingw32/nios2-elf/lib\libc.a(lib_a-memset.o)
 .data          0x0003355c        0x0 c:/altera/13.1/nios2eds/bin/gnu/h-i686-mingw32/bin/../lib/gcc/nios2-elf/4.7.3/../../../../../H-i686-mingw32/nios2-elf/lib\libc.a(lib_a-printf.o)
 .data          0x0003355c        0x0 c:/altera/13.1/nios2eds/bin/gnu/h-i686-mingw32/bin/../lib/gcc/nios2-elf/4.7.3/../../../../../H-i686-mingw32/nios2-elf/lib\libc.a(lib_a-putc.o)
 .data          0x0003355c        0x0 c:/altera/13.1/nios2eds/bin/gnu/h-i686-mingw32/bin/../lib/gcc/nios2-elf/4.7.3/../../../../../H-i686-mingw32/nios2-elf/lib\libc.a(lib_a-puts.o)
 .data          0x0003355c        0x0 c:/altera/13.1/nios2eds/bin/gnu/h-i686-mingw32/bin/../lib/gcc/nios2-elf/4.7.3/../../../../../H-i686-mingw32/nios2-elf/lib\libc.a(lib_a-strcmp.o)
 .data          0x0003355c        0x0 c:/altera/13.1/nios2eds/bin/gnu/h-i686-mingw32/bin/../lib/gcc/nios2-elf/4.7.3/../../../../../H-i686-mingw32/nios2-elf/lib\libc.a(lib_a-strlen.o)
 .data          0x0003355c        0x0 c:/altera/13.1/nios2eds/bin/gnu/h-i686-mingw32/bin/../lib/gcc/nios2-elf/4.7.3/../../../../../H-i686-mingw32/nios2-elf/lib\libc.a(lib_a-strncmp.o)
 .data          0x0003355c        0x0 c:/altera/13.1/nios2eds/bin/gnu/h-i686-mingw32/bin/../lib/gcc/nios2-elf/4.7.3/../../../../../H-i686-mingw32/nios2-elf/lib\libc.a(lib_a-vfprintf.o)
 .data          0x0003355c        0x0 c:/altera/13.1/nios2eds/bin/gnu/h-i686-mingw32/bin/../lib/gcc/nios2-elf/4.7.3/../../../../../H-i686-mingw32/nios2-elf/lib\libc.a(lib_a-wbuf.o)
 .data          0x0003355c        0x0 c:/altera/13.1/nios2eds/bin/gnu/h-i686-mingw32/bin/../lib/gcc/nios2-elf/4.7.3/../../../../../H-i686-mingw32/nios2-elf/lib\libc.a(lib_a-wsetup.o)
 .data          0x0003355c        0x0 c:/altera/13.1/nios2eds/bin/gnu/h-i686-mingw32/bin/../lib/gcc/nios2-elf/4.7.3/../../../../../H-i686-mingw32/nios2-elf/lib\libc.a(lib_a-dtoa.o)
 .data          0x0003355c        0x0 c:/altera/13.1/nios2eds/bin/gnu/h-i686-mingw32/bin/../lib/gcc/nios2-elf/4.7.3/../../../../../H-i686-mingw32/nios2-elf/lib\libc.a(lib_a-fflush.o)
 .data          0x0003355c        0x0 c:/altera/13.1/nios2eds/bin/gnu/h-i686-mingw32/bin/../lib/gcc/nios2-elf/4.7.3/../../../../../H-i686-mingw32/nios2-elf/lib\libc.a(lib_a-findfp.o)
 .data          0x0003355c        0x0 c:/altera/13.1/nios2eds/bin/gnu/h-i686-mingw32/bin/../lib/gcc/nios2-elf/4.7.3/../../../../../H-i686-mingw32/nios2-elf/lib\libc.a(lib_a-freer.o)
 .data          0x0003355c        0x0 c:/altera/13.1/nios2eds/bin/gnu/h-i686-mingw32/bin/../lib/gcc/nios2-elf/4.7.3/../../../../../H-i686-mingw32/nios2-elf/lib\libc.a(lib_a-fvwrite.o)
 .data          0x0003355c        0x0 c:/altera/13.1/nios2eds/bin/gnu/h-i686-mingw32/bin/../lib/gcc/nios2-elf/4.7.3/../../../../../H-i686-mingw32/nios2-elf/lib\libc.a(lib_a-fwalk.o)
 .data          0x0003355c        0xc c:/altera/13.1/nios2eds/bin/gnu/h-i686-mingw32/bin/../lib/gcc/nios2-elf/4.7.3/../../../../../H-i686-mingw32/nios2-elf/lib\libc.a(lib_a-locale.o)
                0x0003355c                __lc_ctype
 .data          0x00033568        0x0 c:/altera/13.1/nios2eds/bin/gnu/h-i686-mingw32/bin/../lib/gcc/nios2-elf/4.7.3/../../../../../H-i686-mingw32/nios2-elf/lib\libc.a(lib_a-makebuf.o)
 .data          0x00033568      0x408 c:/altera/13.1/nios2eds/bin/gnu/h-i686-mingw32/bin/../lib/gcc/nios2-elf/4.7.3/../../../../../H-i686-mingw32/nios2-elf/lib\libc.a(lib_a-mallocr.o)
                0x00033568                __malloc_av_
 .data          0x00033970        0x0 c:/altera/13.1/nios2eds/bin/gnu/h-i686-mingw32/bin/../lib/gcc/nios2-elf/4.7.3/../../../../../H-i686-mingw32/nios2-elf/lib\libc.a(lib_a-memchr.o)
 .data          0x00033970        0x0 c:/altera/13.1/nios2eds/bin/gnu/h-i686-mingw32/bin/../lib/gcc/nios2-elf/4.7.3/../../../../../H-i686-mingw32/nios2-elf/lib\libc.a(lib_a-memmove.o)
 .data          0x00033970        0x0 c:/altera/13.1/nios2eds/bin/gnu/h-i686-mingw32/bin/../lib/gcc/nios2-elf/4.7.3/../../../../../H-i686-mingw32/nios2-elf/lib\libc.a(lib_a-mprec.o)
 .data          0x00033970        0x0 c:/altera/13.1/nios2eds/bin/gnu/h-i686-mingw32/bin/../lib/gcc/nios2-elf/4.7.3/../../../../../H-i686-mingw32/nios2-elf/lib\libc.a(lib_a-reallocr.o)
 .data          0x00033970        0x0 c:/altera/13.1/nios2eds/bin/gnu/h-i686-mingw32/bin/../lib/gcc/nios2-elf/4.7.3/../../../../../H-i686-mingw32/nios2-elf/lib\libc.a(lib_a-s_isinfd.o)
 .data          0x00033970        0x0 c:/altera/13.1/nios2eds/bin/gnu/h-i686-mingw32/bin/../lib/gcc/nios2-elf/4.7.3/../../../../../H-i686-mingw32/nios2-elf/lib\libc.a(lib_a-s_isnand.o)
 .data          0x00033970        0x0 c:/altera/13.1/nios2eds/bin/gnu/h-i686-mingw32/bin/../lib/gcc/nios2-elf/4.7.3/../../../../../H-i686-mingw32/nios2-elf/lib\libc.a(lib_a-sbrkr.o)
 .data          0x00033970        0x0 c:/altera/13.1/nios2eds/bin/gnu/h-i686-mingw32/bin/../lib/gcc/nios2-elf/4.7.3/../../../../../H-i686-mingw32/nios2-elf/lib\libc.a(lib_a-stdio.o)
 .data          0x00033970        0x0 c:/altera/13.1/nios2eds/bin/gnu/h-i686-mingw32/bin/../lib/gcc/nios2-elf/4.7.3/../../../../../H-i686-mingw32/nios2-elf/lib\libc.a(lib_a-writer.o)
 .data          0x00033970        0x0 c:/altera/13.1/nios2eds/bin/gnu/h-i686-mingw32/bin/../lib/gcc/nios2-elf/4.7.3/../../../../../H-i686-mingw32/nios2-elf/lib\libc.a(lib_a-callocr.o)
 .data          0x00033970        0x0 c:/altera/13.1/nios2eds/bin/gnu/h-i686-mingw32/bin/../lib/gcc/nios2-elf/4.7.3/../../../../../H-i686-mingw32/nios2-elf/lib\libc.a(lib_a-closer.o)
 .data          0x00033970        0x0 c:/altera/13.1/nios2eds/bin/gnu/h-i686-mingw32/bin/../lib/gcc/nios2-elf/4.7.3/../../../../../H-i686-mingw32/nios2-elf/lib\libc.a(lib_a-fclose.o)
 .data          0x00033970        0x0 c:/altera/13.1/nios2eds/bin/gnu/h-i686-mingw32/bin/../lib/gcc/nios2-elf/4.7.3/../../../../../H-i686-mingw32/nios2-elf/lib\libc.a(lib_a-fstatr.o)
 .data          0x00033970        0x0 c:/altera/13.1/nios2eds/bin/gnu/h-i686-mingw32/bin/../lib/gcc/nios2-elf/4.7.3/../../../../../H-i686-mingw32/nios2-elf/lib\libc.a(lib_a-int_errno.o)
 .data          0x00033970        0x0 c:/altera/13.1/nios2eds/bin/gnu/h-i686-mingw32/bin/../lib/gcc/nios2-elf/4.7.3/../../../../../H-i686-mingw32/nios2-elf/lib\libc.a(lib_a-isattyr.o)
 .data          0x00033970        0x0 c:/altera/13.1/nios2eds/bin/gnu/h-i686-mingw32/bin/../lib/gcc/nios2-elf/4.7.3/../../../../../H-i686-mingw32/nios2-elf/lib\libc.a(lib_a-lseekr.o)
 .data          0x00033970        0x0 c:/altera/13.1/nios2eds/bin/gnu/h-i686-mingw32/bin/../lib/gcc/nios2-elf/4.7.3/../../../../../H-i686-mingw32/nios2-elf/lib\libc.a(lib_a-readr.o)
 .data          0x00033970        0x0 c:/altera/13.1/nios2eds/bin/gnu/h-i686-mingw32/bin/../lib/gcc/nios2-elf/4.7.3\libgcc.a(_udivdi3.o)
 .data          0x00033970        0x0 c:/altera/13.1/nios2eds/bin/gnu/h-i686-mingw32/bin/../lib/gcc/nios2-elf/4.7.3\libgcc.a(_umoddi3.o)
 .data          0x00033970        0x0 c:/altera/13.1/nios2eds/bin/gnu/h-i686-mingw32/bin/../lib/gcc/nios2-elf/4.7.3\libgcc.a(_addsub_df.o)
 .data          0x00033970        0x0 c:/altera/13.1/nios2eds/bin/gnu/h-i686-mingw32/bin/../lib/gcc/nios2-elf/4.7.3\libgcc.a(_mul_df.o)
 .data          0x00033970        0x0 c:/altera/13.1/nios2eds/bin/gnu/h-i686-mingw32/bin/../lib/gcc/nios2-elf/4.7.3\libgcc.a(_div_df.o)
 .data          0x00033970        0x0 c:/altera/13.1/nios2eds/bin/gnu/h-i686-mingw32/bin/../lib/gcc/nios2-elf/4.7.3\libgcc.a(_eq_df.o)
 .data          0x00033970        0x0 c:/altera/13.1/nios2eds/bin/gnu/h-i686-mingw32/bin/../lib/gcc/nios2-elf/4.7.3\libgcc.a(_ne_df.o)
 .data          0x00033970        0x0 c:/altera/13.1/nios2eds/bin/gnu/h-i686-mingw32/bin/../lib/gcc/nios2-elf/4.7.3\libgcc.a(_gt_df.o)
 .data          0x00033970        0x0 c:/altera/13.1/nios2eds/bin/gnu/h-i686-mingw32/bin/../lib/gcc/nios2-elf/4.7.3\libgcc.a(_ge_df.o)
 .data          0x00033970        0x0 c:/altera/13.1/nios2eds/bin/gnu/h-i686-mingw32/bin/../lib/gcc/nios2-elf/4.7.3\libgcc.a(_lt_df.o)
 .data          0x00033970        0x0 c:/altera/13.1/nios2eds/bin/gnu/h-i686-mingw32/bin/../lib/gcc/nios2-elf/4.7.3\libgcc.a(_si_to_df.o)
 .data          0x00033970        0x0 c:/altera/13.1/nios2eds/bin/gnu/h-i686-mingw32/bin/../lib/gcc/nios2-elf/4.7.3\libgcc.a(_df_to_si.o)
 .data          0x00033970        0x0 c:/altera/13.1/nios2eds/bin/gnu/h-i686-mingw32/bin/../lib/gcc/nios2-elf/4.7.3\libgcc.a(_thenan_df.o)
 .data          0x00033970        0x0 c:/altera/13.1/nios2eds/bin/gnu/h-i686-mingw32/bin/../lib/gcc/nios2-elf/4.7.3\libgcc.a(_usi_to_df.o)
 .data          0x00033970        0x0 c:/altera/13.1/nios2eds/bin/gnu/h-i686-mingw32/bin/../lib/gcc/nios2-elf/4.7.3\libgcc.a(lib2-divmod.o)
 .data          0x00033970        0x0 c:/altera/13.1/nios2eds/bin/gnu/h-i686-mingw32/bin/../lib/gcc/nios2-elf/4.7.3\libgcc.a(_muldi3.o)
 .data          0x00033970        0x0 c:/altera/13.1/nios2eds/bin/gnu/h-i686-mingw32/bin/../lib/gcc/nios2-elf/4.7.3\libgcc.a(_clz.o)
 .data          0x00033970        0x0 c:/altera/13.1/nios2eds/bin/gnu/h-i686-mingw32/bin/../lib/gcc/nios2-elf/4.7.3\libgcc.a(_clzsi2.o)
 .data          0x00033970        0x0 c:/altera/13.1/nios2eds/bin/gnu/h-i686-mingw32/bin/../lib/gcc/nios2-elf/4.7.3\libgcc.a(_pack_df.o)
 .data          0x00033970        0x0 c:/altera/13.1/nios2eds/bin/gnu/h-i686-mingw32/bin/../lib/gcc/nios2-elf/4.7.3\libgcc.a(_unpack_df.o)
 .data          0x00033970        0x0 c:/altera/13.1/nios2eds/bin/gnu/h-i686-mingw32/bin/../lib/gcc/nios2-elf/4.7.3\libgcc.a(_fpcmp_parts_df.o)
 .data          0x00033970        0x0 c:/altera/13.1/nios2eds/bin/gnu/h-i686-mingw32/bin/../lib/gcc/nios2-elf/4.7.3\libgcc.a(_lshrdi3.o)
 .data          0x00033970        0x0 c:/altera/13.1/nios2eds/bin/gnu/h-i686-mingw32/bin/../lib/gcc/nios2-elf/4.7.3\libgcc.a(_ashldi3.o)
 .data          0x00033970        0x0 ../lwIP_NIOS_II_Example_bsp/\libhal_bsp.a(alt_alarm_start.o)
 .data          0x00033970        0x0 ../lwIP_NIOS_II_Example_bsp/\libhal_bsp.a(alt_close.o)
 .data          0x00033970      0x1a8 ../lwIP_NIOS_II_Example_bsp/\libhal_bsp.a(alt_dev.o)
                0x00033970                alt_dev_null
                0x00033998                alt_fd_list
 .data          0x00033b18        0x0 ../lwIP_NIOS_II_Example_bsp/\libhal_bsp.a(alt_errno.o)
 .data          0x00033b18        0x0 ../lwIP_NIOS_II_Example_bsp/\libhal_bsp.a(alt_fstat.o)
 .data          0x00033b18        0x0 ../lwIP_NIOS_II_Example_bsp/\libhal_bsp.a(alt_isatty.o)
 .data          0x00033b18        0x0 ../lwIP_NIOS_II_Example_bsp/\libhal_bsp.a(alt_load.o)
 .data          0x00033b18        0x0 ../lwIP_NIOS_II_Example_bsp/\libhal_bsp.a(alt_lseek.o)
 .data          0x00033b18        0x0 ../lwIP_NIOS_II_Example_bsp/\libhal_bsp.a(alt_main.o)
 .data          0x00033b18        0x0 ../lwIP_NIOS_II_Example_bsp/\libhal_bsp.a(alt_malloc_lock.o)
 .data          0x00033b18        0x0 ../lwIP_NIOS_II_Example_bsp/\libhal_bsp.a(alt_read.o)
 .data          0x00033b18        0x0 ../lwIP_NIOS_II_Example_bsp/\libhal_bsp.a(alt_release_fd.o)
 .data          0x00033b18        0x0 ../lwIP_NIOS_II_Example_bsp/\libhal_bsp.a(alt_remap_uncached.o)
 .data          0x00033b18        0x0 ../lwIP_NIOS_II_Example_bsp/\libhal_bsp.a(alt_sbrk.o)
 .data          0x00033b18        0x0 ../lwIP_NIOS_II_Example_bsp/\libhal_bsp.a(alt_tick.o)
 .data          0x00033b18        0x0 ../lwIP_NIOS_II_Example_bsp/\libhal_bsp.a(alt_uncached_malloc.o)
 .data          0x00033b18        0x0 ../lwIP_NIOS_II_Example_bsp/\libhal_bsp.a(alt_usleep.o)
 .data          0x00033b18        0x0 ../lwIP_NIOS_II_Example_bsp/\libhal_bsp.a(alt_write.o)
 .data          0x00033b18     0x15a0 ../lwIP_NIOS_II_Example_bsp/\libhal_bsp.a(alt_sys_init.o)
 .data          0x000350b8        0x0 ../lwIP_NIOS_II_Example_bsp/\libhal_bsp.a(altera_avalon_cfi_flash.o)
 .data          0x000350b8        0x0 ../lwIP_NIOS_II_Example_bsp/\libhal_bsp.a(altera_avalon_cfi_flash_table.o)
 .data          0x000350b8        0x0 ../lwIP_NIOS_II_Example_bsp/\libhal_bsp.a(altera_avalon_jtag_uart_fd.o)
 .data          0x000350b8        0x0 ../lwIP_NIOS_II_Example_bsp/\libhal_bsp.a(altera_avalon_jtag_uart_init.o)
 .data          0x000350b8        0x0 ../lwIP_NIOS_II_Example_bsp/\libhal_bsp.a(altera_avalon_jtag_uart_ioctl.o)
 .data          0x000350b8        0x0 ../lwIP_NIOS_II_Example_bsp/\libhal_bsp.a(altera_avalon_jtag_uart_read.o)
 .data          0x000350b8        0x0 ../lwIP_NIOS_II_Example_bsp/\libhal_bsp.a(altera_avalon_jtag_uart_write.o)
 .data          0x000350b8        0x0 ../lwIP_NIOS_II_Example_bsp/\libhal_bsp.a(altera_avalon_lcd_16207.o)
 .data          0x000350b8        0x0 ../lwIP_NIOS_II_Example_bsp/\libhal_bsp.a(altera_avalon_lcd_16207_fd.o)
 .data          0x000350b8        0x0 ../lwIP_NIOS_II_Example_bsp/\libhal_bsp.a(altera_avalon_sgdma.o)
 .data          0x000350b8        0x0 ../lwIP_NIOS_II_Example_bsp/\libhal_bsp.a(altera_avalon_timer_sc.o)
 .data          0x000350b8        0x0 ../lwIP_NIOS_II_Example_bsp/\libhal_bsp.a(altera_avalon_tse.o)
 .data          0x000350b8        0x0 ../lwIP_NIOS_II_Example_bsp/\libhal_bsp.a(altera_avalon_tse_system_info.o)
 .data          0x000350b8        0x0 ../lwIP_NIOS_II_Example_bsp/\libhal_bsp.a(altera_avalon_uart_fd.o)
 .data          0x000350b8        0x0 ../lwIP_NIOS_II_Example_bsp/\libhal_bsp.a(altera_avalon_uart_init.o)
 .data          0x000350b8        0x0 ../lwIP_NIOS_II_Example_bsp/\libhal_bsp.a(altera_avalon_uart_read.o)
 .data          0x000350b8        0x0 ../lwIP_NIOS_II_Example_bsp/\libhal_bsp.a(altera_avalon_uart_write.o)
 .data          0x000350b8        0x0 ../lwIP_NIOS_II_Example_bsp/\libhal_bsp.a(altera_vic_0_vector_tbl.o)
 .data          0x000350b8        0x0 ../lwIP_NIOS_II_Example_bsp/\libhal_bsp.a(altera_vic_funnel_non_preemptive.o)
 .data          0x000350b8        0x0 ../lwIP_NIOS_II_Example_bsp/\libhal_bsp.a(altera_vic_irq_init.o)
 .data          0x000350b8        0x0 ../lwIP_NIOS_II_Example_bsp/\libhal_bsp.a(altera_vic_isr_register.o)
 .data          0x000350b8        0x0 ../lwIP_NIOS_II_Example_bsp/\libhal_bsp.a(alt_busy_sleep.o)
 .data          0x000350b8        0x0 ../lwIP_NIOS_II_Example_bsp/\libhal_bsp.a(alt_dcache_flush.o)
 .data          0x000350b8        0x0 ../lwIP_NIOS_II_Example_bsp/\libhal_bsp.a(alt_dcache_flush_all.o)
 .data          0x000350b8        0x0 ../lwIP_NIOS_II_Example_bsp/\libhal_bsp.a(alt_dev_llist_insert.o)
 .data          0x000350b8        0x0 ../lwIP_NIOS_II_Example_bsp/\libhal_bsp.a(alt_do_ctors.o)
 .data          0x000350b8        0x0 ../lwIP_NIOS_II_Example_bsp/\libhal_bsp.a(alt_do_dtors.o)
 .data          0x000350b8        0x0 ../lwIP_NIOS_II_Example_bsp/\libhal_bsp.a(alt_find_dev.o)
 .data          0x000350b8        0x0 ../lwIP_NIOS_II_Example_bsp/\libhal_bsp.a(alt_flash_dev.o)
 .data          0x000350b8        0x0 ../lwIP_NIOS_II_Example_bsp/\libhal_bsp.a(alt_icache_flush_all.o)
 .data          0x000350b8        0x0 ../lwIP_NIOS_II_Example_bsp/\libhal_bsp.a(alt_io_redirect.o)
 .data          0x000350b8        0x0 ../lwIP_NIOS_II_Example_bsp/\libhal_bsp.a(alt_open.o)
 .data          0x000350b8        0x0 ../lwIP_NIOS_II_Example_bsp/\libhal_bsp.a(altera_avalon_cfi_flash_amd.o)
 .data          0x000350b8        0x0 ../lwIP_NIOS_II_Example_bsp/\libhal_bsp.a(altera_avalon_cfi_flash_intel.o)
 .data          0x000350b8        0x0 ../lwIP_NIOS_II_Example_bsp/\libhal_bsp.a(alt_find_file.o)
 .data          0x000350b8        0x0 ../lwIP_NIOS_II_Example_bsp/\libhal_bsp.a(alt_get_fd.o)
 .data          0x000350b8        0x0 ../lwIP_NIOS_II_Example_bsp/\libhal_bsp.a(alt_icache_flush.o)
 .data          0x000350b8        0x0 c:/altera/13.1/nios2eds/bin/gnu/h-i686-mingw32/bin/../lib/gcc/nios2-elf/4.7.3/../../../../../H-i686-mingw32/nios2-elf/lib\libc.a(lib_a-atexit.o)
 .data          0x000350b8        0x0 c:/altera/13.1/nios2eds/bin/gnu/h-i686-mingw32/bin/../lib/gcc/nios2-elf/4.7.3/../../../../../H-i686-mingw32/nios2-elf/lib\libc.a(lib_a-ctype_.o)
 .data          0x000350b8        0x0 c:/altera/13.1/nios2eds/bin/gnu/h-i686-mingw32/bin/../lib/gcc/nios2-elf/4.7.3/../../../../../H-i686-mingw32/nios2-elf/lib\libc.a(lib_a-exit.o)
 .data          0x000350b8        0x0 c:/altera/13.1/nios2eds/bin/gnu/h-i686-mingw32/bin/../lib/gcc/nios2-elf/4.7.3/../../../../../H-i686-mingw32/nios2-elf/lib\libc.a(lib_a-malloc.o)
 .data          0x000350b8        0x0 c:/altera/13.1/nios2eds/bin/gnu/h-i686-mingw32/bin/../lib/gcc/nios2-elf/4.7.3/../../../../../H-i686-mingw32/nios2-elf/lib\libc.a(lib_a-memcmp.o)
 .data          0x000350b8        0x0 c:/altera/13.1/nios2eds/bin/gnu/h-i686-mingw32/bin/../lib/gcc/nios2-elf/4.7.3/../../../../../H-i686-mingw32/nios2-elf/lib\libc.a(lib_a-strcpy.o)
 .data          0x000350b8        0x0 c:/altera/13.1/nios2eds/bin/gnu/h-i686-mingw32/bin/../lib/gcc/nios2-elf/4.7.3/../../../../../H-i686-mingw32/nios2-elf/lib\libc.a(lib_a-__atexit.o)
 .data          0x000350b8        0x0 c:/altera/13.1/nios2eds/bin/gnu/h-i686-mingw32/bin/../lib/gcc/nios2-elf/4.7.3/../../../../../H-i686-mingw32/nios2-elf/lib\libc.a(lib_a-__call_atexit.o)
 .data          0x000350b8        0x0 ../lwIP_NIOS_II_Example_bsp/\libhal_bsp.a(alt_exit.o)
                0x0003d0b8                _gp = ABSOLUTE ((. + 0x8000))
                0x0003d0b8                PROVIDE (gp, _gp)
 *(.rwdata .rwdata.*)
 *(.sdata .sdata.* .gnu.linkonce.s.*)
 .sdata         0x000350b8        0x4 obj/default/src/core/dhcp.o
 .sdata         0x000350bc        0x8 obj/default/src/core/ipv4/ip_addr.o
                0x000350bc                ip_addr_any
                0x000350c0                ip_addr_broadcast
 .sdata         0x000350c4       0x10 obj/default/src/core/tcp.o
                0x000350c4                tcp_persist_backoff
 .sdata         0x000350d4        0xc obj/default/src/netif/etharp.o
                0x000350d4                ethbroadcast
                0x000350da                ethzero
 .sdata         0x000350e0        0x8 c:/altera/13.1/nios2eds/bin/gnu/h-i686-mingw32/bin/../lib/gcc/nios2-elf/4.7.3/../../../../../H-i686-mingw32/nios2-elf/lib\libc.a(lib_a-impure.o)
                0x000350e0                _global_impure_ptr
                0x000350e4                _impure_ptr
 .sdata         0x000350e8        0x4 c:/altera/13.1/nios2eds/bin/gnu/h-i686-mingw32/bin/../lib/gcc/nios2-elf/4.7.3/../../../../../H-i686-mingw32/nios2-elf/lib\libc.a(lib_a-locale.o)
                0x000350e8                __mb_cur_max
 .sdata         0x000350ec        0x8 c:/altera/13.1/nios2eds/bin/gnu/h-i686-mingw32/bin/../lib/gcc/nios2-elf/4.7.3/../../../../../H-i686-mingw32/nios2-elf/lib\libc.a(lib_a-mallocr.o)
                0x000350ec                __malloc_sbrk_base
                0x000350f0                __malloc_trim_threshold
 .sdata         0x000350f4       0x14 ../lwIP_NIOS_II_Example_bsp/\libhal_bsp.a(alt_dev.o)
                0x000350f4                alt_fs_list
                0x000350fc                alt_dev_list
                0x00035104                alt_max_fd
 .sdata         0x00035108        0x4 ../lwIP_NIOS_II_Example_bsp/\libhal_bsp.a(alt_errno.o)
                0x00035108                alt_errno
 .sdata         0x0003510c        0x4 ../lwIP_NIOS_II_Example_bsp/\libhal_bsp.a(alt_sbrk.o)
 .sdata         0x00035110        0x8 ../lwIP_NIOS_II_Example_bsp/\libhal_bsp.a(alt_tick.o)
                0x00035110                alt_alarm_list
 .sdata         0x00035118        0x4 ../lwIP_NIOS_II_Example_bsp/\libhal_bsp.a(altera_avalon_lcd_16207.o)
 .sdata         0x0003511c        0x8 ../lwIP_NIOS_II_Example_bsp/\libhal_bsp.a(altera_avalon_sgdma.o)
                0x0003511c                alt_sgdma_list
 .sdata         0x00035124        0x1 ../lwIP_NIOS_II_Example_bsp/\libhal_bsp.a(altera_avalon_tse.o)
                0x00035124                max_mac_system
 *fill*         0x00035125        0x3 
 .sdata         0x00035128        0x8 ../lwIP_NIOS_II_Example_bsp/\libhal_bsp.a(alt_flash_dev.o)
                0x00035128                alt_flash_dev_list
 .sdata         0x00035130        0x4 c:/altera/13.1/nios2eds/bin/gnu/h-i686-mingw32/bin/../lib/gcc/nios2-elf/4.7.3/../../../../../H-i686-mingw32/nios2-elf/lib\libc.a(lib_a-ctype_.o)
                0x00035130                __ctype_ptr
 *(.sdata2 .sdata2.* .gnu.linkonce.s2.*)
                0x00035134                . = ALIGN (0x4)
                0x00035134                _edata = ABSOLUTE (.)
                0x00035134                PROVIDE (edata, ABSOLUTE (.))
                0x00035134                PROVIDE (__ram_rwdata_end, ABSOLUTE (.))
                0x00035134                PROVIDE (__flash_rwdata_start, LOADADDR (.rwdata))

.bss            0x00037138     0xe09c
                0x00037138                __bss_start = ABSOLUTE (.)
                0x00037138                PROVIDE (__sbss_start, ABSOLUTE (.))
                0x00037138                PROVIDE (___sbss_start, ABSOLUTE (.))
 *(.dynsbss)
 *(.sbss .sbss.* .gnu.linkonce.sb.*)
 .sbss          0x00037138       0x10 obj/default/main.o
 .sbss          0x00037148        0x2 obj/default/src/core/ipv4/ip.o
 *fill*         0x0003714a        0x2 
 .sbss          0x0003714c        0x8 obj/default/src/core/ipv4/ip.o
                0x0003714c                current_netif
                0x00037150                current_header
 .sbss          0x00037154        0x8 obj/default/src/core/ipv4/ip_frag.o
 .sbss          0x0003715c       0x10 obj/default/src/core/mem.o
 .sbss          0x0003716c        0xc obj/default/src/core/netif.o
                0x00037170                netif_list
                0x00037174                netif_default
 .sbss          0x00037178        0x4 obj/default/src/core/raw.o
 .sbss          0x0003717c       0x1c obj/default/src/core/tcp.o
                0x00037180                tcp_active_pcbs
                0x00037184                tcp_ticks
                0x00037188                tcp_listen_pcbs
                0x0003718c                tcp_tmp_pcb
                0x00037190                tcp_bound_pcbs
                0x00037194                tcp_tw_pcbs
 .sbss          0x00037198       0x20 obj/default/src/core/tcp_in.o
                0x000371b4                tcp_input_pcb
 .sbss          0x000371b8        0x4 obj/default/src/core/udp.o
                0x000371b8                udp_pcbs
 .sbss          0x000371bc        0x1 obj/default/src/netif/etharp.o
 *fill*         0x000371bd        0x3 
 .sbss          0x000371c0        0xc c:/altera/13.1/nios2eds/bin/gnu/h-i686-mingw32/bin/../lib/gcc/nios2-elf/4.7.3/../../../../../H-i686-mingw32/nios2-elf/lib\libc.a(lib_a-locale.o)
                0x000371c0                _PathLocale
                0x000371c4                __mlocale_changed
                0x000371c8                __nlocale_changed
 .sbss          0x000371cc        0xc c:/altera/13.1/nios2eds/bin/gnu/h-i686-mingw32/bin/../lib/gcc/nios2-elf/4.7.3/../../../../../H-i686-mingw32/nios2-elf/lib\libc.a(lib_a-mallocr.o)
                0x000371cc                __malloc_max_total_mem
                0x000371d0                __malloc_max_sbrked_mem
                0x000371d4                __malloc_top_pad
 .sbss          0x000371d8        0x4 c:/altera/13.1/nios2eds/bin/gnu/h-i686-mingw32/bin/../lib/gcc/nios2-elf/4.7.3/../../../../../H-i686-mingw32/nios2-elf/lib\libc.a(lib_a-int_errno.o)
                0x000371d8                errno
 .sbss          0x000371dc        0xc ../lwIP_NIOS_II_Example_bsp/\libhal_bsp.a(alt_main.o)
                0x000371dc                alt_argc
                0x000371e0                alt_argv
                0x000371e4                alt_envp
 .sbss          0x000371e8        0x8 ../lwIP_NIOS_II_Example_bsp/\libhal_bsp.a(alt_tick.o)
                0x000371e8                _alt_tick_rate
                0x000371ec                _alt_nticks
 .sbss          0x000371f0        0x4 ../lwIP_NIOS_II_Example_bsp/\libhal_bsp.a(altera_avalon_tse.o)
                0x000371f0                phy_profile_count
                0x000371f1                mac_group_count
 .sbss          0x000371f4        0x4 ../lwIP_NIOS_II_Example_bsp/\libhal_bsp.a(altera_vic_irq_init.o)
                0x000371f4                alt_vic_dev_list
 *(.sbss2 .sbss2.* .gnu.linkonce.sb2.*)
 *(.scommon)
                0x000371f8                PROVIDE (__sbss_end, ABSOLUTE (.))
                0x000371f8                PROVIDE (___sbss_end, ABSOLUTE (.))
 *(.dynbss)
 *(.bss .bss.* .gnu.linkonce.b.*)
 .bss           0x000371f8        0x0 ../lwIP_NIOS_II_Example_bsp//obj/HAL/src/crt0.o
 .bss           0x000371f8        0x0 obj/default/alteraTseEthernetif.o
 .bss           0x000371f8        0x0 obj/default/driver/alteraTseEthernetif.o
 .bss           0x000371f8        0x0 obj/default/driver/fs.o
 .bss           0x000371f8        0x0 obj/default/driver/fsdata.o
 .bss           0x000371f8        0x0 obj/default/driver/httpd.o
 .bss           0x000371f8        0x0 obj/default/driver/lwip_tse_mac.o
 .bss           0x000371f8        0x0 obj/default/fs.o
 .bss           0x000371f8        0x0 obj/default/fsdata.o
 .bss           0x000371f8        0x0 obj/default/httpd.o
 .bss           0x000371f8        0x0 obj/default/lwip_tse_mac.o
 .bss           0x000371f8       0x18 obj/default/main.o
 .bss           0x00037210        0x0 obj/default/src/api/api_lib.o
 .bss           0x00037210        0x0 obj/default/src/api/api_msg.o
 .bss           0x00037210        0x0 obj/default/src/api/err.o
 .bss           0x00037210        0x0 obj/default/src/api/netbuf.o
 .bss           0x00037210        0x0 obj/default/src/api/netdb.o
 .bss           0x00037210        0x0 obj/default/src/api/netifapi.o
 .bss           0x00037210        0x0 obj/default/src/api/sockets.o
 .bss           0x00037210        0x0 obj/default/src/api/tcpip.o
 .bss           0x00037210        0x0 obj/default/src/core/dhcp.o
 .bss           0x00037210        0x0 obj/default/src/core/dns.o
 .bss           0x00037210        0x0 obj/default/src/core/init.o
 .bss           0x00037210        0x0 obj/default/src/core/ipv4/autoip.o
 .bss           0x00037210        0x0 obj/default/src/core/ipv4/icmp.o
 .bss           0x00037210        0x0 obj/default/src/core/ipv4/igmp.o
 .bss           0x00037210       0x10 obj/default/src/core/ipv4/inet.o
 .bss           0x00037220        0x0 obj/default/src/core/ipv4/inet_chksum.o
 .bss           0x00037220        0x0 obj/default/src/core/ipv4/ip.o
 .bss           0x00037220        0x0 obj/default/src/core/ipv4/ip_addr.o
 .bss           0x00037220      0x5e0 obj/default/src/core/ipv4/ip_frag.o
 .bss           0x00037800      0x654 obj/default/src/core/mem.o
 .bss           0x00037e54     0xcbd0 obj/default/src/core/memp.o
 .bss           0x00044a24        0x0 obj/default/src/core/netif.o
 .bss           0x00044a24        0x0 obj/default/src/core/pbuf.o
 .bss           0x00044a24        0x0 obj/default/src/core/raw.o
 .bss           0x00044a24        0x0 obj/default/src/core/snmp/asn1_dec.o
 .bss           0x00044a24        0x0 obj/default/src/core/snmp/asn1_enc.o
 .bss           0x00044a24        0x0 obj/default/src/core/snmp/mib2.o
 .bss           0x00044a24        0x0 obj/default/src/core/snmp/mib_structs.o
 .bss           0x00044a24        0x0 obj/default/src/core/snmp/msg_in.o
 .bss           0x00044a24        0x0 obj/default/src/core/snmp/msg_out.o
 .bss           0x00044a24        0x0 obj/default/src/core/stats.o
 .bss           0x00044a24        0x0 obj/default/src/core/sys.o
 .bss           0x00044a24        0x0 obj/default/src/core/tcp.o
 .bss           0x00044a24       0x14 obj/default/src/core/tcp_in.o
 .bss           0x00044a38        0x0 obj/default/src/core/tcp_out.o
 .bss           0x00044a38        0x0 obj/default/src/core/udp.o
 .bss           0x00044a38      0x118 obj/default/src/netif/etharp.o
 .bss           0x00044b50        0x0 obj/default/src/netif/ethernetif.o
 .bss           0x00044b50        0x0 obj/default/src/netif/loopif.o
 .bss           0x00044b50        0x0 obj/default/src/netif/ppp/auth.o
 .bss           0x00044b50        0x0 obj/default/src/netif/ppp/chap.o
 .bss           0x00044b50        0x0 obj/default/src/netif/ppp/chpms.o
 .bss           0x00044b50        0x0 obj/default/src/netif/ppp/fsm.o
 .bss           0x00044b50        0x0 obj/default/src/netif/ppp/ipcp.o
 .bss           0x00044b50        0x0 obj/default/src/netif/ppp/lcp.o
 .bss           0x00044b50        0x0 obj/default/src/netif/ppp/magic.o
 .bss           0x00044b50        0x0 obj/default/src/netif/ppp/md5.o
 .bss           0x00044b50        0x0 obj/default/src/netif/ppp/pap.o
 .bss           0x00044b50        0x0 obj/default/src/netif/ppp/ppp.o
 .bss           0x00044b50        0x0 obj/default/src/netif/ppp/ppp_oe.o
 .bss           0x00044b50        0x0 obj/default/src/netif/ppp/randm.o
 .bss           0x00044b50        0x0 obj/default/src/netif/ppp/vj.o
 .bss           0x00044b50        0x0 obj/default/src/netif/slipif.o
 .bss           0x00044b50        0x0 c:/altera/13.1/nios2eds/bin/gnu/h-i686-mingw32/bin/../lib/gcc/nios2-elf/4.7.3/../../../../../H-i686-mingw32/nios2-elf/lib\libc.a(lib_a-impure.o)
 .bss           0x00044b50        0x0 c:/altera/13.1/nios2eds/bin/gnu/h-i686-mingw32/bin/../lib/gcc/nios2-elf/4.7.3/../../../../../H-i686-mingw32/nios2-elf/lib\libc.a(lib_a-memcpy.o)
 .bss           0x00044b50        0x0 c:/altera/13.1/nios2eds/bin/gnu/h-i686-mingw32/bin/../lib/gcc/nios2-elf/4.7.3/../../../../../H-i686-mingw32/nios2-elf/lib\libc.a(lib_a-memset.o)
 .bss           0x00044b50        0x0 c:/altera/13.1/nios2eds/bin/gnu/h-i686-mingw32/bin/../lib/gcc/nios2-elf/4.7.3/../../../../../H-i686-mingw32/nios2-elf/lib\libc.a(lib_a-printf.o)
 .bss           0x00044b50        0x0 c:/altera/13.1/nios2eds/bin/gnu/h-i686-mingw32/bin/../lib/gcc/nios2-elf/4.7.3/../../../../../H-i686-mingw32/nios2-elf/lib\libc.a(lib_a-putc.o)
 .bss           0x00044b50        0x0 c:/altera/13.1/nios2eds/bin/gnu/h-i686-mingw32/bin/../lib/gcc/nios2-elf/4.7.3/../../../../../H-i686-mingw32/nios2-elf/lib\libc.a(lib_a-puts.o)
 .bss           0x00044b50        0x0 c:/altera/13.1/nios2eds/bin/gnu/h-i686-mingw32/bin/../lib/gcc/nios2-elf/4.7.3/../../../../../H-i686-mingw32/nios2-elf/lib\libc.a(lib_a-strcmp.o)
 .bss           0x00044b50        0x0 c:/altera/13.1/nios2eds/bin/gnu/h-i686-mingw32/bin/../lib/gcc/nios2-elf/4.7.3/../../../../../H-i686-mingw32/nios2-elf/lib\libc.a(lib_a-strlen.o)
 .bss           0x00044b50        0x0 c:/altera/13.1/nios2eds/bin/gnu/h-i686-mingw32/bin/../lib/gcc/nios2-elf/4.7.3/../../../../../H-i686-mingw32/nios2-elf/lib\libc.a(lib_a-strncmp.o)
 .bss           0x00044b50        0x0 c:/altera/13.1/nios2eds/bin/gnu/h-i686-mingw32/bin/../lib/gcc/nios2-elf/4.7.3/../../../../../H-i686-mingw32/nios2-elf/lib\libc.a(lib_a-vfprintf.o)
 .bss           0x00044b50        0x0 c:/altera/13.1/nios2eds/bin/gnu/h-i686-mingw32/bin/../lib/gcc/nios2-elf/4.7.3/../../../../../H-i686-mingw32/nios2-elf/lib\libc.a(lib_a-wbuf.o)
 .bss           0x00044b50        0x0 c:/altera/13.1/nios2eds/bin/gnu/h-i686-mingw32/bin/../lib/gcc/nios2-elf/4.7.3/../../../../../H-i686-mingw32/nios2-elf/lib\libc.a(lib_a-wsetup.o)
 .bss           0x00044b50        0x0 c:/altera/13.1/nios2eds/bin/gnu/h-i686-mingw32/bin/../lib/gcc/nios2-elf/4.7.3/../../../../../H-i686-mingw32/nios2-elf/lib\libc.a(lib_a-dtoa.o)
 .bss           0x00044b50        0x0 c:/altera/13.1/nios2eds/bin/gnu/h-i686-mingw32/bin/../lib/gcc/nios2-elf/4.7.3/../../../../../H-i686-mingw32/nios2-elf/lib\libc.a(lib_a-fflush.o)
 .bss           0x00044b50        0x0 c:/altera/13.1/nios2eds/bin/gnu/h-i686-mingw32/bin/../lib/gcc/nios2-elf/4.7.3/../../../../../H-i686-mingw32/nios2-elf/lib\libc.a(lib_a-findfp.o)
 .bss           0x00044b50        0x0 c:/altera/13.1/nios2eds/bin/gnu/h-i686-mingw32/bin/../lib/gcc/nios2-elf/4.7.3/../../../../../H-i686-mingw32/nios2-elf/lib\libc.a(lib_a-freer.o)
 .bss           0x00044b50        0x0 c:/altera/13.1/nios2eds/bin/gnu/h-i686-mingw32/bin/../lib/gcc/nios2-elf/4.7.3/../../../../../H-i686-mingw32/nios2-elf/lib\libc.a(lib_a-fvwrite.o)
 .bss           0x00044b50        0x0 c:/altera/13.1/nios2eds/bin/gnu/h-i686-mingw32/bin/../lib/gcc/nios2-elf/4.7.3/../../../../../H-i686-mingw32/nios2-elf/lib\libc.a(lib_a-fwalk.o)
 .bss           0x00044b50        0x0 c:/altera/13.1/nios2eds/bin/gnu/h-i686-mingw32/bin/../lib/gcc/nios2-elf/4.7.3/../../../../../H-i686-mingw32/nios2-elf/lib\libc.a(lib_a-locale.o)
 .bss           0x00044b50        0x0 c:/altera/13.1/nios2eds/bin/gnu/h-i686-mingw32/bin/../lib/gcc/nios2-elf/4.7.3/../../../../../H-i686-mingw32/nios2-elf/lib\libc.a(lib_a-makebuf.o)
 .bss           0x00044b50       0x28 c:/altera/13.1/nios2eds/bin/gnu/h-i686-mingw32/bin/../lib/gcc/nios2-elf/4.7.3/../../../../../H-i686-mingw32/nios2-elf/lib\libc.a(lib_a-mallocr.o)
                0x00044b50                __malloc_current_mallinfo
 .bss           0x00044b78        0x0 c:/altera/13.1/nios2eds/bin/gnu/h-i686-mingw32/bin/../lib/gcc/nios2-elf/4.7.3/../../../../../H-i686-mingw32/nios2-elf/lib\libc.a(lib_a-memchr.o)
 .bss           0x00044b78        0x0 c:/altera/13.1/nios2eds/bin/gnu/h-i686-mingw32/bin/../lib/gcc/nios2-elf/4.7.3/../../../../../H-i686-mingw32/nios2-elf/lib\libc.a(lib_a-memmove.o)
 .bss           0x00044b78        0x0 c:/altera/13.1/nios2eds/bin/gnu/h-i686-mingw32/bin/../lib/gcc/nios2-elf/4.7.3/../../../../../H-i686-mingw32/nios2-elf/lib\libc.a(lib_a-mprec.o)
 .bss           0x00044b78        0x0 c:/altera/13.1/nios2eds/bin/gnu/h-i686-mingw32/bin/../lib/gcc/nios2-elf/4.7.3/../../../../../H-i686-mingw32/nios2-elf/lib\libc.a(lib_a-reallocr.o)
 .bss           0x00044b78        0x0 c:/altera/13.1/nios2eds/bin/gnu/h-i686-mingw32/bin/../lib/gcc/nios2-elf/4.7.3/../../../../../H-i686-mingw32/nios2-elf/lib\libc.a(lib_a-s_isinfd.o)
 .bss           0x00044b78        0x0 c:/altera/13.1/nios2eds/bin/gnu/h-i686-mingw32/bin/../lib/gcc/nios2-elf/4.7.3/../../../../../H-i686-mingw32/nios2-elf/lib\libc.a(lib_a-s_isnand.o)
 .bss           0x00044b78        0x0 c:/altera/13.1/nios2eds/bin/gnu/h-i686-mingw32/bin/../lib/gcc/nios2-elf/4.7.3/../../../../../H-i686-mingw32/nios2-elf/lib\libc.a(lib_a-sbrkr.o)
 .bss           0x00044b78        0x0 c:/altera/13.1/nios2eds/bin/gnu/h-i686-mingw32/bin/../lib/gcc/nios2-elf/4.7.3/../../../../../H-i686-mingw32/nios2-elf/lib\libc.a(lib_a-stdio.o)
 .bss           0x00044b78        0x0 c:/altera/13.1/nios2eds/bin/gnu/h-i686-mingw32/bin/../lib/gcc/nios2-elf/4.7.3/../../../../../H-i686-mingw32/nios2-elf/lib\libc.a(lib_a-writer.o)
 .bss           0x00044b78        0x0 c:/altera/13.1/nios2eds/bin/gnu/h-i686-mingw32/bin/../lib/gcc/nios2-elf/4.7.3/../../../../../H-i686-mingw32/nios2-elf/lib\libc.a(lib_a-callocr.o)
 .bss           0x00044b78        0x0 c:/altera/13.1/nios2eds/bin/gnu/h-i686-mingw32/bin/../lib/gcc/nios2-elf/4.7.3/../../../../../H-i686-mingw32/nios2-elf/lib\libc.a(lib_a-closer.o)
 .bss           0x00044b78        0x0 c:/altera/13.1/nios2eds/bin/gnu/h-i686-mingw32/bin/../lib/gcc/nios2-elf/4.7.3/../../../../../H-i686-mingw32/nios2-elf/lib\libc.a(lib_a-fclose.o)
 .bss           0x00044b78        0x0 c:/altera/13.1/nios2eds/bin/gnu/h-i686-mingw32/bin/../lib/gcc/nios2-elf/4.7.3/../../../../../H-i686-mingw32/nios2-elf/lib\libc.a(lib_a-fstatr.o)
 .bss           0x00044b78        0x0 c:/altera/13.1/nios2eds/bin/gnu/h-i686-mingw32/bin/../lib/gcc/nios2-elf/4.7.3/../../../../../H-i686-mingw32/nios2-elf/lib\libc.a(lib_a-int_errno.o)
 .bss           0x00044b78        0x0 c:/altera/13.1/nios2eds/bin/gnu/h-i686-mingw32/bin/../lib/gcc/nios2-elf/4.7.3/../../../../../H-i686-mingw32/nios2-elf/lib\libc.a(lib_a-isattyr.o)
 .bss           0x00044b78        0x0 c:/altera/13.1/nios2eds/bin/gnu/h-i686-mingw32/bin/../lib/gcc/nios2-elf/4.7.3/../../../../../H-i686-mingw32/nios2-elf/lib\libc.a(lib_a-lseekr.o)
 .bss           0x00044b78        0x0 c:/altera/13.1/nios2eds/bin/gnu/h-i686-mingw32/bin/../lib/gcc/nios2-elf/4.7.3/../../../../../H-i686-mingw32/nios2-elf/lib\libc.a(lib_a-readr.o)
 .bss           0x00044b78        0x0 c:/altera/13.1/nios2eds/bin/gnu/h-i686-mingw32/bin/../lib/gcc/nios2-elf/4.7.3\libgcc.a(_udivdi3.o)
 .bss           0x00044b78        0x0 c:/altera/13.1/nios2eds/bin/gnu/h-i686-mingw32/bin/../lib/gcc/nios2-elf/4.7.3\libgcc.a(_umoddi3.o)
 .bss           0x00044b78        0x0 c:/altera/13.1/nios2eds/bin/gnu/h-i686-mingw32/bin/../lib/gcc/nios2-elf/4.7.3\libgcc.a(_addsub_df.o)
 .bss           0x00044b78        0x0 c:/altera/13.1/nios2eds/bin/gnu/h-i686-mingw32/bin/../lib/gcc/nios2-elf/4.7.3\libgcc.a(_mul_df.o)
 .bss           0x00044b78        0x0 c:/altera/13.1/nios2eds/bin/gnu/h-i686-mingw32/bin/../lib/gcc/nios2-elf/4.7.3\libgcc.a(_div_df.o)
 .bss           0x00044b78        0x0 c:/altera/13.1/nios2eds/bin/gnu/h-i686-mingw32/bin/../lib/gcc/nios2-elf/4.7.3\libgcc.a(_eq_df.o)
 .bss           0x00044b78        0x0 c:/altera/13.1/nios2eds/bin/gnu/h-i686-mingw32/bin/../lib/gcc/nios2-elf/4.7.3\libgcc.a(_ne_df.o)
 .bss           0x00044b78        0x0 c:/altera/13.1/nios2eds/bin/gnu/h-i686-mingw32/bin/../lib/gcc/nios2-elf/4.7.3\libgcc.a(_gt_df.o)
 .bss           0x00044b78        0x0 c:/altera/13.1/nios2eds/bin/gnu/h-i686-mingw32/bin/../lib/gcc/nios2-elf/4.7.3\libgcc.a(_ge_df.o)
 .bss           0x00044b78        0x0 c:/altera/13.1/nios2eds/bin/gnu/h-i686-mingw32/bin/../lib/gcc/nios2-elf/4.7.3\libgcc.a(_lt_df.o)
 .bss           0x00044b78        0x0 c:/altera/13.1/nios2eds/bin/gnu/h-i686-mingw32/bin/../lib/gcc/nios2-elf/4.7.3\libgcc.a(_si_to_df.o)
 .bss           0x00044b78        0x0 c:/altera/13.1/nios2eds/bin/gnu/h-i686-mingw32/bin/../lib/gcc/nios2-elf/4.7.3\libgcc.a(_df_to_si.o)
 .bss           0x00044b78        0x0 c:/altera/13.1/nios2eds/bin/gnu/h-i686-mingw32/bin/../lib/gcc/nios2-elf/4.7.3\libgcc.a(_thenan_df.o)
 .bss           0x00044b78        0x0 c:/altera/13.1/nios2eds/bin/gnu/h-i686-mingw32/bin/../lib/gcc/nios2-elf/4.7.3\libgcc.a(_usi_to_df.o)
 .bss           0x00044b78        0x0 c:/altera/13.1/nios2eds/bin/gnu/h-i686-mingw32/bin/../lib/gcc/nios2-elf/4.7.3\libgcc.a(lib2-divmod.o)
 .bss           0x00044b78        0x0 c:/altera/13.1/nios2eds/bin/gnu/h-i686-mingw32/bin/../lib/gcc/nios2-elf/4.7.3\libgcc.a(_muldi3.o)
 .bss           0x00044b78        0x0 c:/altera/13.1/nios2eds/bin/gnu/h-i686-mingw32/bin/../lib/gcc/nios2-elf/4.7.3\libgcc.a(_clz.o)
 .bss           0x00044b78        0x0 c:/altera/13.1/nios2eds/bin/gnu/h-i686-mingw32/bin/../lib/gcc/nios2-elf/4.7.3\libgcc.a(_clzsi2.o)
 .bss           0x00044b78        0x0 c:/altera/13.1/nios2eds/bin/gnu/h-i686-mingw32/bin/../lib/gcc/nios2-elf/4.7.3\libgcc.a(_pack_df.o)
 .bss           0x00044b78        0x0 c:/altera/13.1/nios2eds/bin/gnu/h-i686-mingw32/bin/../lib/gcc/nios2-elf/4.7.3\libgcc.a(_unpack_df.o)
 .bss           0x00044b78        0x0 c:/altera/13.1/nios2eds/bin/gnu/h-i686-mingw32/bin/../lib/gcc/nios2-elf/4.7.3\libgcc.a(_fpcmp_parts_df.o)
 .bss           0x00044b78        0x0 c:/altera/13.1/nios2eds/bin/gnu/h-i686-mingw32/bin/../lib/gcc/nios2-elf/4.7.3\libgcc.a(_lshrdi3.o)
 .bss           0x00044b78        0x0 c:/altera/13.1/nios2eds/bin/gnu/h-i686-mingw32/bin/../lib/gcc/nios2-elf/4.7.3\libgcc.a(_ashldi3.o)
 .bss           0x00044b78        0x0 ../lwIP_NIOS_II_Example_bsp/\libhal_bsp.a(alt_alarm_start.o)
 .bss           0x00044b78        0x0 ../lwIP_NIOS_II_Example_bsp/\libhal_bsp.a(alt_close.o)
 .bss           0x00044b78        0x0 ../lwIP_NIOS_II_Example_bsp/\libhal_bsp.a(alt_dev.o)
 .bss           0x00044b78        0x0 ../lwIP_NIOS_II_Example_bsp/\libhal_bsp.a(alt_errno.o)
 .bss           0x00044b78        0x0 ../lwIP_NIOS_II_Example_bsp/\libhal_bsp.a(alt_fstat.o)
 .bss           0x00044b78        0x0 ../lwIP_NIOS_II_Example_bsp/\libhal_bsp.a(alt_isatty.o)
 .bss           0x00044b78        0x0 ../lwIP_NIOS_II_Example_bsp/\libhal_bsp.a(alt_load.o)
 .bss           0x00044b78        0x0 ../lwIP_NIOS_II_Example_bsp/\libhal_bsp.a(alt_lseek.o)
 .bss           0x00044b78        0x0 ../lwIP_NIOS_II_Example_bsp/\libhal_bsp.a(alt_main.o)
 .bss           0x00044b78        0x0 ../lwIP_NIOS_II_Example_bsp/\libhal_bsp.a(alt_malloc_lock.o)
 .bss           0x00044b78        0x0 ../lwIP_NIOS_II_Example_bsp/\libhal_bsp.a(alt_read.o)
 .bss           0x00044b78        0x0 ../lwIP_NIOS_II_Example_bsp/\libhal_bsp.a(alt_release_fd.o)
 .bss           0x00044b78        0x0 ../lwIP_NIOS_II_Example_bsp/\libhal_bsp.a(alt_remap_uncached.o)
 .bss           0x00044b78        0x0 ../lwIP_NIOS_II_Example_bsp/\libhal_bsp.a(alt_sbrk.o)
 .bss           0x00044b78        0x0 ../lwIP_NIOS_II_Example_bsp/\libhal_bsp.a(alt_tick.o)
 .bss           0x00044b78        0x0 ../lwIP_NIOS_II_Example_bsp/\libhal_bsp.a(alt_uncached_malloc.o)
 .bss           0x00044b78        0x0 ../lwIP_NIOS_II_Example_bsp/\libhal_bsp.a(alt_usleep.o)
 .bss           0x00044b78        0x0 ../lwIP_NIOS_II_Example_bsp/\libhal_bsp.a(alt_write.o)
 .bss           0x00044b78        0x0 ../lwIP_NIOS_II_Example_bsp/\libhal_bsp.a(alt_sys_init.o)
 .bss           0x00044b78        0x0 ../lwIP_NIOS_II_Example_bsp/\libhal_bsp.a(altera_avalon_cfi_flash.o)
 .bss           0x00044b78        0x0 ../lwIP_NIOS_II_Example_bsp/\libhal_bsp.a(altera_avalon_cfi_flash_table.o)
 .bss           0x00044b78        0x0 ../lwIP_NIOS_II_Example_bsp/\libhal_bsp.a(altera_avalon_jtag_uart_fd.o)
 .bss           0x00044b78        0x0 ../lwIP_NIOS_II_Example_bsp/\libhal_bsp.a(altera_avalon_jtag_uart_init.o)
 .bss           0x00044b78        0x0 ../lwIP_NIOS_II_Example_bsp/\libhal_bsp.a(altera_avalon_jtag_uart_ioctl.o)
 .bss           0x00044b78        0x0 ../lwIP_NIOS_II_Example_bsp/\libhal_bsp.a(altera_avalon_jtag_uart_read.o)
 .bss           0x00044b78        0x0 ../lwIP_NIOS_II_Example_bsp/\libhal_bsp.a(altera_avalon_jtag_uart_write.o)
 .bss           0x00044b78        0x0 ../lwIP_NIOS_II_Example_bsp/\libhal_bsp.a(altera_avalon_lcd_16207.o)
 .bss           0x00044b78        0x0 ../lwIP_NIOS_II_Example_bsp/\libhal_bsp.a(altera_avalon_lcd_16207_fd.o)
 .bss           0x00044b78        0x0 ../lwIP_NIOS_II_Example_bsp/\libhal_bsp.a(altera_avalon_sgdma.o)
 .bss           0x00044b78        0x0 ../lwIP_NIOS_II_Example_bsp/\libhal_bsp.a(altera_avalon_timer_sc.o)
 .bss           0x00044b78        0x0 ../lwIP_NIOS_II_Example_bsp/\libhal_bsp.a(altera_avalon_tse.o)
 .bss           0x00044b78      0x240 ../lwIP_NIOS_II_Example_bsp/\libhal_bsp.a(altera_avalon_tse_system_info.o)
                0x00044b78                tse_mac_device
 .bss           0x00044db8        0x0 ../lwIP_NIOS_II_Example_bsp/\libhal_bsp.a(altera_avalon_uart_fd.o)
 .bss           0x00044db8        0x0 ../lwIP_NIOS_II_Example_bsp/\libhal_bsp.a(altera_avalon_uart_init.o)
 .bss           0x00044db8        0x0 ../lwIP_NIOS_II_Example_bsp/\libhal_bsp.a(altera_avalon_uart_read.o)
 .bss           0x00044db8        0x0 ../lwIP_NIOS_II_Example_bsp/\libhal_bsp.a(altera_avalon_uart_write.o)
 .bss           0x00044db8        0x0 ../lwIP_NIOS_II_Example_bsp/\libhal_bsp.a(altera_vic_0_vector_tbl.o)
 .bss           0x00044db8        0x0 ../lwIP_NIOS_II_Example_bsp/\libhal_bsp.a(altera_vic_funnel_non_preemptive.o)
 .bss           0x00044db8        0x0 ../lwIP_NIOS_II_Example_bsp/\libhal_bsp.a(altera_vic_irq_init.o)
 .bss           0x00044db8        0x0 ../lwIP_NIOS_II_Example_bsp/\libhal_bsp.a(altera_vic_isr_register.o)
 .bss           0x00044db8        0x0 ../lwIP_NIOS_II_Example_bsp/\libhal_bsp.a(alt_busy_sleep.o)
 .bss           0x00044db8        0x0 ../lwIP_NIOS_II_Example_bsp/\libhal_bsp.a(alt_dcache_flush.o)
 .bss           0x00044db8        0x0 ../lwIP_NIOS_II_Example_bsp/\libhal_bsp.a(alt_dcache_flush_all.o)
 .bss           0x00044db8        0x0 ../lwIP_NIOS_II_Example_bsp/\libhal_bsp.a(alt_dev_llist_insert.o)
 .bss           0x00044db8        0x0 ../lwIP_NIOS_II_Example_bsp/\libhal_bsp.a(alt_do_ctors.o)
 .bss           0x00044db8        0x0 ../lwIP_NIOS_II_Example_bsp/\libhal_bsp.a(alt_do_dtors.o)
 .bss           0x00044db8        0x0 ../lwIP_NIOS_II_Example_bsp/\libhal_bsp.a(alt_find_dev.o)
 .bss           0x00044db8        0x0 ../lwIP_NIOS_II_Example_bsp/\libhal_bsp.a(alt_flash_dev.o)
 .bss           0x00044db8        0x0 ../lwIP_NIOS_II_Example_bsp/\libhal_bsp.a(alt_icache_flush_all.o)
 .bss           0x00044db8        0x0 ../lwIP_NIOS_II_Example_bsp/\libhal_bsp.a(alt_io_redirect.o)
 .bss           0x00044db8        0x0 ../lwIP_NIOS_II_Example_bsp/\libhal_bsp.a(alt_open.o)
 .bss           0x00044db8        0x0 ../lwIP_NIOS_II_Example_bsp/\libhal_bsp.a(altera_avalon_cfi_flash_amd.o)
 .bss           0x00044db8        0x0 ../lwIP_NIOS_II_Example_bsp/\libhal_bsp.a(altera_avalon_cfi_flash_intel.o)
 .bss           0x00044db8        0x0 ../lwIP_NIOS_II_Example_bsp/\libhal_bsp.a(alt_find_file.o)
 .bss           0x00044db8        0x0 ../lwIP_NIOS_II_Example_bsp/\libhal_bsp.a(alt_get_fd.o)
 .bss           0x00044db8        0x0 ../lwIP_NIOS_II_Example_bsp/\libhal_bsp.a(alt_icache_flush.o)
 .bss           0x00044db8        0x0 c:/altera/13.1/nios2eds/bin/gnu/h-i686-mingw32/bin/../lib/gcc/nios2-elf/4.7.3/../../../../../H-i686-mingw32/nios2-elf/lib\libc.a(lib_a-atexit.o)
 .bss           0x00044db8        0x0 c:/altera/13.1/nios2eds/bin/gnu/h-i686-mingw32/bin/../lib/gcc/nios2-elf/4.7.3/../../../../../H-i686-mingw32/nios2-elf/lib\libc.a(lib_a-ctype_.o)
 .bss           0x00044db8        0x0 c:/altera/13.1/nios2eds/bin/gnu/h-i686-mingw32/bin/../lib/gcc/nios2-elf/4.7.3/../../../../../H-i686-mingw32/nios2-elf/lib\libc.a(lib_a-exit.o)
 .bss           0x00044db8        0x0 c:/altera/13.1/nios2eds/bin/gnu/h-i686-mingw32/bin/../lib/gcc/nios2-elf/4.7.3/../../../../../H-i686-mingw32/nios2-elf/lib\libc.a(lib_a-malloc.o)
 .bss           0x00044db8        0x0 c:/altera/13.1/nios2eds/bin/gnu/h-i686-mingw32/bin/../lib/gcc/nios2-elf/4.7.3/../../../../../H-i686-mingw32/nios2-elf/lib\libc.a(lib_a-memcmp.o)
 .bss           0x00044db8        0x0 c:/altera/13.1/nios2eds/bin/gnu/h-i686-mingw32/bin/../lib/gcc/nios2-elf/4.7.3/../../../../../H-i686-mingw32/nios2-elf/lib\libc.a(lib_a-strcpy.o)
 .bss           0x00044db8        0x0 c:/altera/13.1/nios2eds/bin/gnu/h-i686-mingw32/bin/../lib/gcc/nios2-elf/4.7.3/../../../../../H-i686-mingw32/nios2-elf/lib\libc.a(lib_a-__atexit.o)
 .bss           0x00044db8        0x0 c:/altera/13.1/nios2eds/bin/gnu/h-i686-mingw32/bin/../lib/gcc/nios2-elf/4.7.3/../../../../../H-i686-mingw32/nios2-elf/lib\libc.a(lib_a-__call_atexit.o)
 .bss           0x00044db8        0x0 ../lwIP_NIOS_II_Example_bsp/\libhal_bsp.a(alt_exit.o)
 *(COMMON)
 COMMON         0x00044db8      0x100 obj/default/driver/lwip_tse_mac.o
                0x00044db8                tse
 COMMON         0x00044eb8       0x34 obj/default/main.o
                0x00044eb8                alteraTseNetif
 COMMON         0x00044eec      0x118 obj/default/src/core/stats.o
                0x00044eec                lwip_stats
 COMMON         0x00045004       0x40 ../lwIP_NIOS_II_Example_bsp/\libhal_bsp.a(altera_avalon_tse.o)
                0x00045004                pmac_groups
                0x00045024                pphy_profiles
 COMMON         0x00045044      0x190 c:/altera/13.1/nios2eds/bin/gnu/h-i686-mingw32/bin/../lib/gcc/nios2-elf/4.7.3/../../../../../H-i686-mingw32/nios2-elf/lib\libc.a(lib_a-atexit.o)
                0x00045044                _atexit0
                0x000451d4                . = ALIGN (0x4)
                0x000451d4                __bss_end = ABSOLUTE (.)

.sdram          0x000451d4        0x0
                0x000451d4                PROVIDE (_alt_partition_sdram_start, ABSOLUTE (.))
 *(.sdram .sdram. sdram.*)
                0x000451d4                . = ALIGN (0x4)
                0x000451d4                PROVIDE (_alt_partition_sdram_end, ABSOLUTE (.))
                0x000451d4                _end = ABSOLUTE (.)
                0x000451d4                end = ABSOLUTE (.)
                0x000451d4                __alt_stack_base = ABSOLUTE (.)
                0x000451d4                PROVIDE (_alt_partition_sdram_load_addr, LOADADDR (.sdram))

.descriptor_memory
                0x02001000        0x0 load address 0x000451d4
                0x02001000                PROVIDE (_alt_partition_descriptor_memory_start, ABSOLUTE (.))
 *(.descriptor_memory .descriptor_memory. descriptor_memory.*)
                0x02001000                . = ALIGN (0x4)
                0x02001000                PROVIDE (_alt_partition_descriptor_memory_end, ABSOLUTE (.))
                0x000451d4                PROVIDE (_alt_partition_descriptor_memory_load_addr, LOADADDR (.descriptor_memory))

.cfi_flash      0x04000000        0x0 load address 0x000451d4
                0x04000000                PROVIDE (_alt_partition_cfi_flash_start, ABSOLUTE (.))
 *(.cfi_flash .cfi_flash. cfi_flash.*)
                0x04000000                . = ALIGN (0x4)
                0x04000000                PROVIDE (_alt_partition_cfi_flash_end, ABSOLUTE (.))
                0x000451d4                PROVIDE (_alt_partition_cfi_flash_load_addr, LOADADDR (.cfi_flash))

.sram           0x05000020        0x0 load address 0x000451d4
                0x05000020                PROVIDE (_alt_partition_sram_start, ABSOLUTE (.))
 *(.sram .sram. sram.*)
                0x05000020                . = ALIGN (0x4)
                0x05000020                PROVIDE (_alt_partition_sram_end, ABSOLUTE (.))
                0x000451d4                PROVIDE (_alt_partition_sram_load_addr, LOADADDR (.sram))

.onchip_memory2
                0x0a000000        0x0 load address 0x000451d4
                0x0a000000                PROVIDE (_alt_partition_onchip_memory2_start, ABSOLUTE (.))
 *(.onchip_memory2 .onchip_memory2. onchip_memory2.*)
                0x0a000000                . = ALIGN (0x4)
                0x0a000000                PROVIDE (_alt_partition_onchip_memory2_end, ABSOLUTE (.))
                0x000451d4                PROVIDE (_alt_partition_onchip_memory2_load_addr, LOADADDR (.onchip_memory2))

.stab
 *(.stab)

.stabstr
 *(.stabstr)

.stab.excl
 *(.stab.excl)

.stab.exclstr
 *(.stab.exclstr)

.stab.index
 *(.stab.index)

.stab.indexstr
 *(.stab.indexstr)

.comment        0x00000000       0x23
 *(.comment)
 .comment       0x00000000       0x23 obj/default/alteraTseEthernetif.o
                                 0x24 (size before relaxing)
 .comment       0x00000000       0x24 obj/default/driver/alteraTseEthernetif.o
 .comment       0x00000000       0x24 obj/default/driver/fs.o
 .comment       0x00000000       0x24 obj/default/driver/fsdata.o
 .comment       0x00000000       0x24 obj/default/driver/httpd.o
 .comment       0x00000000       0x24 obj/default/driver/lwip_tse_mac.o
 .comment       0x00000000       0x24 obj/default/fs.o
 .comment       0x00000000       0x24 obj/default/fsdata.o
 .comment       0x00000000       0x24 obj/default/httpd.o
 .comment       0x00000000       0x24 obj/default/lwip_tse_mac.o
 .comment       0x00000000       0x24 obj/default/main.o
 .comment       0x00000000       0x24 obj/default/src/api/api_lib.o
 .comment       0x00000000       0x24 obj/default/src/api/api_msg.o
 .comment       0x00000000       0x24 obj/default/src/api/err.o
 .comment       0x00000000       0x24 obj/default/src/api/netbuf.o
 .comment       0x00000000       0x24 obj/default/src/api/netdb.o
 .comment       0x00000000       0x24 obj/default/src/api/netifapi.o
 .comment       0x00000000       0x24 obj/default/src/api/sockets.o
 .comment       0x00000000       0x24 obj/default/src/api/tcpip.o
 .comment       0x00000000       0x24 obj/default/src/core/dhcp.o
 .comment       0x00000000       0x24 obj/default/src/core/dns.o
 .comment       0x00000000       0x24 obj/default/src/core/init.o
 .comment       0x00000000       0x24 obj/default/src/core/ipv4/autoip.o
 .comment       0x00000000       0x24 obj/default/src/core/ipv4/icmp.o
 .comment       0x00000000       0x24 obj/default/src/core/ipv4/igmp.o
 .comment       0x00000000       0x24 obj/default/src/core/ipv4/inet.o
 .comment       0x00000000       0x24 obj/default/src/core/ipv4/inet_chksum.o
 .comment       0x00000000       0x24 obj/default/src/core/ipv4/ip.o
 .comment       0x00000000       0x24 obj/default/src/core/ipv4/ip_addr.o
 .comment       0x00000000       0x24 obj/default/src/core/ipv4/ip_frag.o
 .comment       0x00000000       0x24 obj/default/src/core/mem.o
 .comment       0x00000000       0x24 obj/default/src/core/memp.o
 .comment       0x00000000       0x24 obj/default/src/core/netif.o
 .comment       0x00000000       0x24 obj/default/src/core/pbuf.o
 .comment       0x00000000       0x24 obj/default/src/core/raw.o
 .comment       0x00000000       0x24 obj/default/src/core/snmp/asn1_dec.o
 .comment       0x00000000       0x24 obj/default/src/core/snmp/asn1_enc.o
 .comment       0x00000000       0x24 obj/default/src/core/snmp/mib2.o
 .comment       0x00000000       0x24 obj/default/src/core/snmp/mib_structs.o
 .comment       0x00000000       0x24 obj/default/src/core/snmp/msg_in.o
 .comment       0x00000000       0x24 obj/default/src/core/snmp/msg_out.o
 .comment       0x00000000       0x24 obj/default/src/core/stats.o
 .comment       0x00000000       0x24 obj/default/src/core/sys.o
 .comment       0x00000000       0x24 obj/default/src/core/tcp.o
 .comment       0x00000000       0x24 obj/default/src/core/tcp_in.o
 .comment       0x00000000       0x24 obj/default/src/core/tcp_out.o
 .comment       0x00000000       0x24 obj/default/src/core/udp.o
 .comment       0x00000000       0x24 obj/default/src/netif/etharp.o
 .comment       0x00000000       0x24 obj/default/src/netif/ethernetif.o
 .comment       0x00000000       0x24 obj/default/src/netif/loopif.o
 .comment       0x00000000       0x24 obj/default/src/netif/ppp/auth.o
 .comment       0x00000000       0x24 obj/default/src/netif/ppp/chap.o
 .comment       0x00000000       0x24 obj/default/src/netif/ppp/chpms.o
 .comment       0x00000000       0x24 obj/default/src/netif/ppp/fsm.o
 .comment       0x00000000       0x24 obj/default/src/netif/ppp/ipcp.o
 .comment       0x00000000       0x24 obj/default/src/netif/ppp/lcp.o
 .comment       0x00000000       0x24 obj/default/src/netif/ppp/magic.o
 .comment       0x00000000       0x24 obj/default/src/netif/ppp/md5.o
 .comment       0x00000000       0x24 obj/default/src/netif/ppp/pap.o
 .comment       0x00000000       0x24 obj/default/src/netif/ppp/ppp.o
 .comment       0x00000000       0x24 obj/default/src/netif/ppp/ppp_oe.o
 .comment       0x00000000       0x24 obj/default/src/netif/ppp/randm.o
 .comment       0x00000000       0x24 obj/default/src/netif/ppp/vj.o
 .comment       0x00000000       0x24 obj/default/src/netif/slipif.o
 .comment       0x00000000       0x24 c:/altera/13.1/nios2eds/bin/gnu/h-i686-mingw32/bin/../lib/gcc/nios2-elf/4.7.3/../../../../../H-i686-mingw32/nios2-elf/lib\libc.a(lib_a-impure.o)
 .comment       0x00000000       0x24 c:/altera/13.1/nios2eds/bin/gnu/h-i686-mingw32/bin/../lib/gcc/nios2-elf/4.7.3/../../../../../H-i686-mingw32/nios2-elf/lib\libc.a(lib_a-memcpy.o)
 .comment       0x00000000       0x24 c:/altera/13.1/nios2eds/bin/gnu/h-i686-mingw32/bin/../lib/gcc/nios2-elf/4.7.3/../../../../../H-i686-mingw32/nios2-elf/lib\libc.a(lib_a-memset.o)
 .comment       0x00000000       0x24 c:/altera/13.1/nios2eds/bin/gnu/h-i686-mingw32/bin/../lib/gcc/nios2-elf/4.7.3/../../../../../H-i686-mingw32/nios2-elf/lib\libc.a(lib_a-printf.o)
 .comment       0x00000000       0x24 c:/altera/13.1/nios2eds/bin/gnu/h-i686-mingw32/bin/../lib/gcc/nios2-elf/4.7.3/../../../../../H-i686-mingw32/nios2-elf/lib\libc.a(lib_a-putc.o)
 .comment       0x00000000       0x24 c:/altera/13.1/nios2eds/bin/gnu/h-i686-mingw32/bin/../lib/gcc/nios2-elf/4.7.3/../../../../../H-i686-mingw32/nios2-elf/lib\libc.a(lib_a-puts.o)
 .comment       0x00000000       0x24 c:/altera/13.1/nios2eds/bin/gnu/h-i686-mingw32/bin/../lib/gcc/nios2-elf/4.7.3/../../../../../H-i686-mingw32/nios2-elf/lib\libc.a(lib_a-strcmp.o)
 .comment       0x00000000       0x24 c:/altera/13.1/nios2eds/bin/gnu/h-i686-mingw32/bin/../lib/gcc/nios2-elf/4.7.3/../../../../../H-i686-mingw32/nios2-elf/lib\libc.a(lib_a-strlen.o)
 .comment       0x00000000       0x24 c:/altera/13.1/nios2eds/bin/gnu/h-i686-mingw32/bin/../lib/gcc/nios2-elf/4.7.3/../../../../../H-i686-mingw32/nios2-elf/lib\libc.a(lib_a-strncmp.o)
 .comment       0x00000000       0x24 c:/altera/13.1/nios2eds/bin/gnu/h-i686-mingw32/bin/../lib/gcc/nios2-elf/4.7.3/../../../../../H-i686-mingw32/nios2-elf/lib\libc.a(lib_a-vfprintf.o)
 .comment       0x00000000       0x24 c:/altera/13.1/nios2eds/bin/gnu/h-i686-mingw32/bin/../lib/gcc/nios2-elf/4.7.3/../../../../../H-i686-mingw32/nios2-elf/lib\libc.a(lib_a-wbuf.o)
 .comment       0x00000000       0x24 c:/altera/13.1/nios2eds/bin/gnu/h-i686-mingw32/bin/../lib/gcc/nios2-elf/4.7.3/../../../../../H-i686-mingw32/nios2-elf/lib\libc.a(lib_a-wsetup.o)
 .comment       0x00000000       0x24 c:/altera/13.1/nios2eds/bin/gnu/h-i686-mingw32/bin/../lib/gcc/nios2-elf/4.7.3/../../../../../H-i686-mingw32/nios2-elf/lib\libc.a(lib_a-dtoa.o)
 .comment       0x00000000       0x24 c:/altera/13.1/nios2eds/bin/gnu/h-i686-mingw32/bin/../lib/gcc/nios2-elf/4.7.3/../../../../../H-i686-mingw32/nios2-elf/lib\libc.a(lib_a-fflush.o)
 .comment       0x00000000       0x24 c:/altera/13.1/nios2eds/bin/gnu/h-i686-mingw32/bin/../lib/gcc/nios2-elf/4.7.3/../../../../../H-i686-mingw32/nios2-elf/lib\libc.a(lib_a-findfp.o)
 .comment       0x00000000       0x24 c:/altera/13.1/nios2eds/bin/gnu/h-i686-mingw32/bin/../lib/gcc/nios2-elf/4.7.3/../../../../../H-i686-mingw32/nios2-elf/lib\libc.a(lib_a-freer.o)
 .comment       0x00000000       0x24 c:/altera/13.1/nios2eds/bin/gnu/h-i686-mingw32/bin/../lib/gcc/nios2-elf/4.7.3/../../../../../H-i686-mingw32/nios2-elf/lib\libc.a(lib_a-fvwrite.o)
 .comment       0x00000000       0x24 c:/altera/13.1/nios2eds/bin/gnu/h-i686-mingw32/bin/../lib/gcc/nios2-elf/4.7.3/../../../../../H-i686-mingw32/nios2-elf/lib\libc.a(lib_a-fwalk.o)
 .comment       0x00000000       0x24 c:/altera/13.1/nios2eds/bin/gnu/h-i686-mingw32/bin/../lib/gcc/nios2-elf/4.7.3/../../../../../H-i686-mingw32/nios2-elf/lib\libc.a(lib_a-locale.o)
 .comment       0x00000000       0x24 c:/altera/13.1/nios2eds/bin/gnu/h-i686-mingw32/bin/../lib/gcc/nios2-elf/4.7.3/../../../../../H-i686-mingw32/nios2-elf/lib\libc.a(lib_a-makebuf.o)
 .comment       0x00000000       0x24 c:/altera/13.1/nios2eds/bin/gnu/h-i686-mingw32/bin/../lib/gcc/nios2-elf/4.7.3/../../../../../H-i686-mingw32/nios2-elf/lib\libc.a(lib_a-mallocr.o)
 .comment       0x00000000       0x24 c:/altera/13.1/nios2eds/bin/gnu/h-i686-mingw32/bin/../lib/gcc/nios2-elf/4.7.3/../../../../../H-i686-mingw32/nios2-elf/lib\libc.a(lib_a-memchr.o)
 .comment       0x00000000       0x24 c:/altera/13.1/nios2eds/bin/gnu/h-i686-mingw32/bin/../lib/gcc/nios2-elf/4.7.3/../../../../../H-i686-mingw32/nios2-elf/lib\libc.a(lib_a-memmove.o)
 .comment       0x00000000       0x24 c:/altera/13.1/nios2eds/bin/gnu/h-i686-mingw32/bin/../lib/gcc/nios2-elf/4.7.3/../../../../../H-i686-mingw32/nios2-elf/lib\libc.a(lib_a-mprec.o)
 .comment       0x00000000       0x24 c:/altera/13.1/nios2eds/bin/gnu/h-i686-mingw32/bin/../lib/gcc/nios2-elf/4.7.3/../../../../../H-i686-mingw32/nios2-elf/lib\libc.a(lib_a-reallocr.o)
 .comment       0x00000000       0x24 c:/altera/13.1/nios2eds/bin/gnu/h-i686-mingw32/bin/../lib/gcc/nios2-elf/4.7.3/../../../../../H-i686-mingw32/nios2-elf/lib\libc.a(lib_a-s_isinfd.o)
 .comment       0x00000000       0x24 c:/altera/13.1/nios2eds/bin/gnu/h-i686-mingw32/bin/../lib/gcc/nios2-elf/4.7.3/../../../../../H-i686-mingw32/nios2-elf/lib\libc.a(lib_a-s_isnand.o)
 .comment       0x00000000       0x24 c:/altera/13.1/nios2eds/bin/gnu/h-i686-mingw32/bin/../lib/gcc/nios2-elf/4.7.3/../../../../../H-i686-mingw32/nios2-elf/lib\libc.a(lib_a-sbrkr.o)
 .comment       0x00000000       0x24 c:/altera/13.1/nios2eds/bin/gnu/h-i686-mingw32/bin/../lib/gcc/nios2-elf/4.7.3/../../../../../H-i686-mingw32/nios2-elf/lib\libc.a(lib_a-stdio.o)
 .comment       0x00000000       0x24 c:/altera/13.1/nios2eds/bin/gnu/h-i686-mingw32/bin/../lib/gcc/nios2-elf/4.7.3/../../../../../H-i686-mingw32/nios2-elf/lib\libc.a(lib_a-writer.o)
 .comment       0x00000000       0x24 c:/altera/13.1/nios2eds/bin/gnu/h-i686-mingw32/bin/../lib/gcc/nios2-elf/4.7.3/../../../../../H-i686-mingw32/nios2-elf/lib\libc.a(lib_a-callocr.o)
 .comment       0x00000000       0x24 c:/altera/13.1/nios2eds/bin/gnu/h-i686-mingw32/bin/../lib/gcc/nios2-elf/4.7.3/../../../../../H-i686-mingw32/nios2-elf/lib\libc.a(lib_a-closer.o)
 .comment       0x00000000       0x24 c:/altera/13.1/nios2eds/bin/gnu/h-i686-mingw32/bin/../lib/gcc/nios2-elf/4.7.3/../../../../../H-i686-mingw32/nios2-elf/lib\libc.a(lib_a-fclose.o)
 .comment       0x00000000       0x24 c:/altera/13.1/nios2eds/bin/gnu/h-i686-mingw32/bin/../lib/gcc/nios2-elf/4.7.3/../../../../../H-i686-mingw32/nios2-elf/lib\libc.a(lib_a-fstatr.o)
 .comment       0x00000000       0x24 c:/altera/13.1/nios2eds/bin/gnu/h-i686-mingw32/bin/../lib/gcc/nios2-elf/4.7.3/../../../../../H-i686-mingw32/nios2-elf/lib\libc.a(lib_a-int_errno.o)
 .comment       0x00000000       0x24 c:/altera/13.1/nios2eds/bin/gnu/h-i686-mingw32/bin/../lib/gcc/nios2-elf/4.7.3/../../../../../H-i686-mingw32/nios2-elf/lib\libc.a(lib_a-isattyr.o)
 .comment       0x00000000       0x24 c:/altera/13.1/nios2eds/bin/gnu/h-i686-mingw32/bin/../lib/gcc/nios2-elf/4.7.3/../../../../../H-i686-mingw32/nios2-elf/lib\libc.a(lib_a-lseekr.o)
 .comment       0x00000000       0x24 c:/altera/13.1/nios2eds/bin/gnu/h-i686-mingw32/bin/../lib/gcc/nios2-elf/4.7.3/../../../../../H-i686-mingw32/nios2-elf/lib\libc.a(lib_a-readr.o)
 .comment       0x00000000       0x24 c:/altera/13.1/nios2eds/bin/gnu/h-i686-mingw32/bin/../lib/gcc/nios2-elf/4.7.3\libgcc.a(_udivdi3.o)
 .comment       0x00000000       0x24 c:/altera/13.1/nios2eds/bin/gnu/h-i686-mingw32/bin/../lib/gcc/nios2-elf/4.7.3\libgcc.a(_umoddi3.o)
 .comment       0x00000000       0x24 c:/altera/13.1/nios2eds/bin/gnu/h-i686-mingw32/bin/../lib/gcc/nios2-elf/4.7.3\libgcc.a(_addsub_df.o)
 .comment       0x00000000       0x24 c:/altera/13.1/nios2eds/bin/gnu/h-i686-mingw32/bin/../lib/gcc/nios2-elf/4.7.3\libgcc.a(_mul_df.o)
 .comment       0x00000000       0x24 c:/altera/13.1/nios2eds/bin/gnu/h-i686-mingw32/bin/../lib/gcc/nios2-elf/4.7.3\libgcc.a(_div_df.o)
 .comment       0x00000000       0x24 c:/altera/13.1/nios2eds/bin/gnu/h-i686-mingw32/bin/../lib/gcc/nios2-elf/4.7.3\libgcc.a(_eq_df.o)
 .comment       0x00000000       0x24 c:/altera/13.1/nios2eds/bin/gnu/h-i686-mingw32/bin/../lib/gcc/nios2-elf/4.7.3\libgcc.a(_ne_df.o)
 .comment       0x00000000       0x24 c:/altera/13.1/nios2eds/bin/gnu/h-i686-mingw32/bin/../lib/gcc/nios2-elf/4.7.3\libgcc.a(_gt_df.o)
 .comment       0x00000000       0x24 c:/altera/13.1/nios2eds/bin/gnu/h-i686-mingw32/bin/../lib/gcc/nios2-elf/4.7.3\libgcc.a(_ge_df.o)
 .comment       0x00000000       0x24 c:/altera/13.1/nios2eds/bin/gnu/h-i686-mingw32/bin/../lib/gcc/nios2-elf/4.7.3\libgcc.a(_lt_df.o)
 .comment       0x00000000       0x24 c:/altera/13.1/nios2eds/bin/gnu/h-i686-mingw32/bin/../lib/gcc/nios2-elf/4.7.3\libgcc.a(_si_to_df.o)
 .comment       0x00000000       0x24 c:/altera/13.1/nios2eds/bin/gnu/h-i686-mingw32/bin/../lib/gcc/nios2-elf/4.7.3\libgcc.a(_df_to_si.o)
 .comment       0x00000000       0x24 c:/altera/13.1/nios2eds/bin/gnu/h-i686-mingw32/bin/../lib/gcc/nios2-elf/4.7.3\libgcc.a(_thenan_df.o)
 .comment       0x00000000       0x24 c:/altera/13.1/nios2eds/bin/gnu/h-i686-mingw32/bin/../lib/gcc/nios2-elf/4.7.3\libgcc.a(_usi_to_df.o)
 .comment       0x00000000       0x24 c:/altera/13.1/nios2eds/bin/gnu/h-i686-mingw32/bin/../lib/gcc/nios2-elf/4.7.3\libgcc.a(lib2-divmod.o)
 .comment       0x00000000       0x24 c:/altera/13.1/nios2eds/bin/gnu/h-i686-mingw32/bin/../lib/gcc/nios2-elf/4.7.3\libgcc.a(_muldi3.o)
 .comment       0x00000000       0x24 c:/altera/13.1/nios2eds/bin/gnu/h-i686-mingw32/bin/../lib/gcc/nios2-elf/4.7.3\libgcc.a(_clz.o)
 .comment       0x00000000       0x24 c:/altera/13.1/nios2eds/bin/gnu/h-i686-mingw32/bin/../lib/gcc/nios2-elf/4.7.3\libgcc.a(_clzsi2.o)
 .comment       0x00000000       0x24 c:/altera/13.1/nios2eds/bin/gnu/h-i686-mingw32/bin/../lib/gcc/nios2-elf/4.7.3\libgcc.a(_pack_df.o)
 .comment       0x00000000       0x24 c:/altera/13.1/nios2eds/bin/gnu/h-i686-mingw32/bin/../lib/gcc/nios2-elf/4.7.3\libgcc.a(_unpack_df.o)
 .comment       0x00000000       0x24 c:/altera/13.1/nios2eds/bin/gnu/h-i686-mingw32/bin/../lib/gcc/nios2-elf/4.7.3\libgcc.a(_fpcmp_parts_df.o)
 .comment       0x00000000       0x24 c:/altera/13.1/nios2eds/bin/gnu/h-i686-mingw32/bin/../lib/gcc/nios2-elf/4.7.3\libgcc.a(_lshrdi3.o)
 .comment       0x00000000       0x24 c:/altera/13.1/nios2eds/bin/gnu/h-i686-mingw32/bin/../lib/gcc/nios2-elf/4.7.3\libgcc.a(_ashldi3.o)
 .comment       0x00000000       0x24 ../lwIP_NIOS_II_Example_bsp/\libhal_bsp.a(alt_alarm_start.o)
 .comment       0x00000000       0x24 ../lwIP_NIOS_II_Example_bsp/\libhal_bsp.a(alt_close.o)
 .comment       0x00000000       0x24 ../lwIP_NIOS_II_Example_bsp/\libhal_bsp.a(alt_dev.o)
 .comment       0x00000000       0x24 ../lwIP_NIOS_II_Example_bsp/\libhal_bsp.a(alt_errno.o)
 .comment       0x00000000       0x24 ../lwIP_NIOS_II_Example_bsp/\libhal_bsp.a(alt_fstat.o)
 .comment       0x00000000       0x24 ../lwIP_NIOS_II_Example_bsp/\libhal_bsp.a(alt_isatty.o)
 .comment       0x00000000       0x24 ../lwIP_NIOS_II_Example_bsp/\libhal_bsp.a(alt_load.o)
 .comment       0x00000000       0x24 ../lwIP_NIOS_II_Example_bsp/\libhal_bsp.a(alt_lseek.o)
 .comment       0x00000000       0x24 ../lwIP_NIOS_II_Example_bsp/\libhal_bsp.a(alt_main.o)
 .comment       0x00000000       0x24 ../lwIP_NIOS_II_Example_bsp/\libhal_bsp.a(alt_malloc_lock.o)
 .comment       0x00000000       0x24 ../lwIP_NIOS_II_Example_bsp/\libhal_bsp.a(alt_read.o)
 .comment       0x00000000       0x24 ../lwIP_NIOS_II_Example_bsp/\libhal_bsp.a(alt_release_fd.o)
 .comment       0x00000000       0x24 ../lwIP_NIOS_II_Example_bsp/\libhal_bsp.a(alt_remap_uncached.o)
 .comment       0x00000000       0x24 ../lwIP_NIOS_II_Example_bsp/\libhal_bsp.a(alt_sbrk.o)
 .comment       0x00000000       0x24 ../lwIP_NIOS_II_Example_bsp/\libhal_bsp.a(alt_tick.o)
 .comment       0x00000000       0x24 ../lwIP_NIOS_II_Example_bsp/\libhal_bsp.a(alt_uncached_malloc.o)
 .comment       0x00000000       0x24 ../lwIP_NIOS_II_Example_bsp/\libhal_bsp.a(alt_usleep.o)
 .comment       0x00000000       0x24 ../lwIP_NIOS_II_Example_bsp/\libhal_bsp.a(alt_write.o)
 .comment       0x00000000       0x24 ../lwIP_NIOS_II_Example_bsp/\libhal_bsp.a(alt_sys_init.o)
 .comment       0x00000000       0x24 ../lwIP_NIOS_II_Example_bsp/\libhal_bsp.a(altera_avalon_cfi_flash.o)
 .comment       0x00000000       0x24 ../lwIP_NIOS_II_Example_bsp/\libhal_bsp.a(altera_avalon_cfi_flash_table.o)
 .comment       0x00000000       0x24 ../lwIP_NIOS_II_Example_bsp/\libhal_bsp.a(altera_avalon_jtag_uart_fd.o)
 .comment       0x00000000       0x24 ../lwIP_NIOS_II_Example_bsp/\libhal_bsp.a(altera_avalon_jtag_uart_init.o)
 .comment       0x00000000       0x24 ../lwIP_NIOS_II_Example_bsp/\libhal_bsp.a(altera_avalon_jtag_uart_ioctl.o)
 .comment       0x00000000       0x24 ../lwIP_NIOS_II_Example_bsp/\libhal_bsp.a(altera_avalon_jtag_uart_read.o)
 .comment       0x00000000       0x24 ../lwIP_NIOS_II_Example_bsp/\libhal_bsp.a(altera_avalon_jtag_uart_write.o)
 .comment       0x00000000       0x24 ../lwIP_NIOS_II_Example_bsp/\libhal_bsp.a(altera_avalon_lcd_16207.o)
 .comment       0x00000000       0x24 ../lwIP_NIOS_II_Example_bsp/\libhal_bsp.a(altera_avalon_lcd_16207_fd.o)
 .comment       0x00000000       0x24 ../lwIP_NIOS_II_Example_bsp/\libhal_bsp.a(altera_avalon_sgdma.o)
 .comment       0x00000000       0x24 ../lwIP_NIOS_II_Example_bsp/\libhal_bsp.a(altera_avalon_timer_sc.o)
 .comment       0x00000000       0x24 ../lwIP_NIOS_II_Example_bsp/\libhal_bsp.a(altera_avalon_tse.o)
 .comment       0x00000000       0x24 ../lwIP_NIOS_II_Example_bsp/\libhal_bsp.a(altera_avalon_tse_system_info.o)
 .comment       0x00000000       0x24 ../lwIP_NIOS_II_Example_bsp/\libhal_bsp.a(altera_avalon_uart_fd.o)
 .comment       0x00000000       0x24 ../lwIP_NIOS_II_Example_bsp/\libhal_bsp.a(altera_avalon_uart_init.o)
 .comment       0x00000000       0x24 ../lwIP_NIOS_II_Example_bsp/\libhal_bsp.a(altera_avalon_uart_read.o)
 .comment       0x00000000       0x24 ../lwIP_NIOS_II_Example_bsp/\libhal_bsp.a(altera_avalon_uart_write.o)
 .comment       0x00000000       0x24 ../lwIP_NIOS_II_Example_bsp/\libhal_bsp.a(altera_vic_irq_init.o)
 .comment       0x00000000       0x24 ../lwIP_NIOS_II_Example_bsp/\libhal_bsp.a(altera_vic_isr_register.o)
 .comment       0x00000000       0x24 ../lwIP_NIOS_II_Example_bsp/\libhal_bsp.a(alt_busy_sleep.o)
 .comment       0x00000000       0x24 ../lwIP_NIOS_II_Example_bsp/\libhal_bsp.a(alt_dcache_flush.o)
 .comment       0x00000000       0x24 ../lwIP_NIOS_II_Example_bsp/\libhal_bsp.a(alt_dcache_flush_all.o)
 .comment       0x00000000       0x24 ../lwIP_NIOS_II_Example_bsp/\libhal_bsp.a(alt_dev_llist_insert.o)
 .comment       0x00000000       0x24 ../lwIP_NIOS_II_Example_bsp/\libhal_bsp.a(alt_do_ctors.o)
 .comment       0x00000000       0x24 ../lwIP_NIOS_II_Example_bsp/\libhal_bsp.a(alt_do_dtors.o)
 .comment       0x00000000       0x24 ../lwIP_NIOS_II_Example_bsp/\libhal_bsp.a(alt_find_dev.o)
 .comment       0x00000000       0x24 ../lwIP_NIOS_II_Example_bsp/\libhal_bsp.a(alt_flash_dev.o)
 .comment       0x00000000       0x24 ../lwIP_NIOS_II_Example_bsp/\libhal_bsp.a(alt_icache_flush_all.o)
 .comment       0x00000000       0x24 ../lwIP_NIOS_II_Example_bsp/\libhal_bsp.a(alt_io_redirect.o)
 .comment       0x00000000       0x24 ../lwIP_NIOS_II_Example_bsp/\libhal_bsp.a(alt_open.o)
 .comment       0x00000000       0x24 ../lwIP_NIOS_II_Example_bsp/\libhal_bsp.a(altera_avalon_cfi_flash_amd.o)
 .comment       0x00000000       0x24 ../lwIP_NIOS_II_Example_bsp/\libhal_bsp.a(altera_avalon_cfi_flash_intel.o)
 .comment       0x00000000       0x24 ../lwIP_NIOS_II_Example_bsp/\libhal_bsp.a(alt_find_file.o)
 .comment       0x00000000       0x24 ../lwIP_NIOS_II_Example_bsp/\libhal_bsp.a(alt_get_fd.o)
 .comment       0x00000000       0x24 ../lwIP_NIOS_II_Example_bsp/\libhal_bsp.a(alt_icache_flush.o)
 .comment       0x00000000       0x24 c:/altera/13.1/nios2eds/bin/gnu/h-i686-mingw32/bin/../lib/gcc/nios2-elf/4.7.3/../../../../../H-i686-mingw32/nios2-elf/lib\libc.a(lib_a-atexit.o)
 .comment       0x00000000       0x24 c:/altera/13.1/nios2eds/bin/gnu/h-i686-mingw32/bin/../lib/gcc/nios2-elf/4.7.3/../../../../../H-i686-mingw32/nios2-elf/lib\libc.a(lib_a-ctype_.o)
 .comment       0x00000000       0x24 c:/altera/13.1/nios2eds/bin/gnu/h-i686-mingw32/bin/../lib/gcc/nios2-elf/4.7.3/../../../../../H-i686-mingw32/nios2-elf/lib\libc.a(lib_a-exit.o)
 .comment       0x00000000       0x24 c:/altera/13.1/nios2eds/bin/gnu/h-i686-mingw32/bin/../lib/gcc/nios2-elf/4.7.3/../../../../../H-i686-mingw32/nios2-elf/lib\libc.a(lib_a-malloc.o)
 .comment       0x00000000       0x24 c:/altera/13.1/nios2eds/bin/gnu/h-i686-mingw32/bin/../lib/gcc/nios2-elf/4.7.3/../../../../../H-i686-mingw32/nios2-elf/lib\libc.a(lib_a-memcmp.o)
 .comment       0x00000000       0x24 c:/altera/13.1/nios2eds/bin/gnu/h-i686-mingw32/bin/../lib/gcc/nios2-elf/4.7.3/../../../../../H-i686-mingw32/nios2-elf/lib\libc.a(lib_a-strcpy.o)
 .comment       0x00000000       0x24 c:/altera/13.1/nios2eds/bin/gnu/h-i686-mingw32/bin/../lib/gcc/nios2-elf/4.7.3/../../../../../H-i686-mingw32/nios2-elf/lib\libc.a(lib_a-__atexit.o)
 .comment       0x00000000       0x24 c:/altera/13.1/nios2eds/bin/gnu/h-i686-mingw32/bin/../lib/gcc/nios2-elf/4.7.3/../../../../../H-i686-mingw32/nios2-elf/lib\libc.a(lib_a-__call_atexit.o)
 .comment       0x00000000       0x24 ../lwIP_NIOS_II_Example_bsp/\libhal_bsp.a(alt_exit.o)

.debug
 *(.debug)

.line
 *(.line)

.debug_srcinfo
 *(.debug_srcinfo)

.debug_sfnames
 *(.debug_sfnames)

.debug_aranges  0x00000000     0x1658
 *(.debug_aranges)
 .debug_aranges
                0x00000000       0x28 ../lwIP_NIOS_II_Example_bsp//obj/HAL/src/crt0.o
 .debug_aranges
                0x00000028       0x20 obj/default/alteraTseEthernetif.o
 .debug_aranges
                0x00000048       0x20 obj/default/driver/alteraTseEthernetif.o
 .debug_aranges
                0x00000068       0x20 obj/default/driver/fs.o
 .debug_aranges
                0x00000088       0x20 obj/default/driver/httpd.o
 .debug_aranges
                0x000000a8       0x20 obj/default/driver/lwip_tse_mac.o
 .debug_aranges
                0x000000c8       0x20 obj/default/fs.o
 .debug_aranges
                0x000000e8       0x20 obj/default/httpd.o
 .debug_aranges
                0x00000108       0x20 obj/default/lwip_tse_mac.o
 .debug_aranges
                0x00000128       0x20 obj/default/main.o
 .debug_aranges
                0x00000148       0x18 obj/default/src/api/api_lib.o
 .debug_aranges
                0x00000160       0x18 obj/default/src/api/api_msg.o
 .debug_aranges
                0x00000178       0x18 obj/default/src/api/err.o
 .debug_aranges
                0x00000190       0x18 obj/default/src/api/netbuf.o
 .debug_aranges
                0x000001a8       0x18 obj/default/src/api/netdb.o
 .debug_aranges
                0x000001c0       0x18 obj/default/src/api/netifapi.o
 .debug_aranges
                0x000001d8       0x18 obj/default/src/api/sockets.o
 .debug_aranges
                0x000001f0       0x18 obj/default/src/api/tcpip.o
 .debug_aranges
                0x00000208       0x20 obj/default/src/core/dhcp.o
 .debug_aranges
                0x00000228       0x18 obj/default/src/core/dns.o
 .debug_aranges
                0x00000240       0x20 obj/default/src/core/init.o
 .debug_aranges
                0x00000260       0x18 obj/default/src/core/ipv4/autoip.o
 .debug_aranges
                0x00000278       0x20 obj/default/src/core/ipv4/icmp.o
 .debug_aranges
                0x00000298       0x18 obj/default/src/core/ipv4/igmp.o
 .debug_aranges
                0x000002b0       0x20 obj/default/src/core/ipv4/inet.o
 .debug_aranges
                0x000002d0       0x20 obj/default/src/core/ipv4/inet_chksum.o
 .debug_aranges
                0x000002f0       0x20 obj/default/src/core/ipv4/ip.o
 .debug_aranges
                0x00000310       0x20 obj/default/src/core/ipv4/ip_addr.o
 .debug_aranges
                0x00000330       0x20 obj/default/src/core/ipv4/ip_frag.o
 .debug_aranges
                0x00000350       0x20 obj/default/src/core/mem.o
 .debug_aranges
                0x00000370       0x20 obj/default/src/core/memp.o
 .debug_aranges
                0x00000390       0x20 obj/default/src/core/netif.o
 .debug_aranges
                0x000003b0       0x20 obj/default/src/core/pbuf.o
 .debug_aranges
                0x000003d0       0x20 obj/default/src/core/raw.o
 .debug_aranges
                0x000003f0       0x18 obj/default/src/core/snmp/asn1_dec.o
 .debug_aranges
                0x00000408       0x18 obj/default/src/core/snmp/asn1_enc.o
 .debug_aranges
                0x00000420       0x18 obj/default/src/core/snmp/mib2.o
 .debug_aranges
                0x00000438       0x18 obj/default/src/core/snmp/mib_structs.o
 .debug_aranges
                0x00000450       0x18 obj/default/src/core/snmp/msg_in.o
 .debug_aranges
                0x00000468       0x18 obj/default/src/core/snmp/msg_out.o
 .debug_aranges
                0x00000480       0x18 obj/default/src/core/stats.o
 .debug_aranges
                0x00000498       0x18 obj/default/src/core/sys.o
 .debug_aranges
                0x000004b0       0x20 obj/default/src/core/tcp.o
 .debug_aranges
                0x000004d0       0x20 obj/default/src/core/tcp_in.o
 .debug_aranges
                0x000004f0       0x20 obj/default/src/core/tcp_out.o
 .debug_aranges
                0x00000510       0x20 obj/default/src/core/udp.o
 .debug_aranges
                0x00000530       0x20 obj/default/src/netif/etharp.o
 .debug_aranges
                0x00000550       0x18 obj/default/src/netif/ethernetif.o
 .debug_aranges
                0x00000568       0x18 obj/default/src/netif/loopif.o
 .debug_aranges
                0x00000580       0x18 obj/default/src/netif/ppp/auth.o
 .debug_aranges
                0x00000598       0x18 obj/default/src/netif/ppp/chap.o
 .debug_aranges
                0x000005b0       0x18 obj/default/src/netif/ppp/chpms.o
 .debug_aranges
                0x000005c8       0x18 obj/default/src/netif/ppp/fsm.o
 .debug_aranges
                0x000005e0       0x18 obj/default/src/netif/ppp/ipcp.o
 .debug_aranges
                0x000005f8       0x18 obj/default/src/netif/ppp/lcp.o
 .debug_aranges
                0x00000610       0x18 obj/default/src/netif/ppp/magic.o
 .debug_aranges
                0x00000628       0x18 obj/default/src/netif/ppp/md5.o
 .debug_aranges
                0x00000640       0x18 obj/default/src/netif/ppp/pap.o
 .debug_aranges
                0x00000658       0x18 obj/default/src/netif/ppp/ppp.o
 .debug_aranges
                0x00000670       0x18 obj/default/src/netif/ppp/ppp_oe.o
 .debug_aranges
                0x00000688       0x18 obj/default/src/netif/ppp/randm.o
 .debug_aranges
                0x000006a0       0x18 obj/default/src/netif/ppp/vj.o
 .debug_aranges
                0x000006b8       0x18 obj/default/src/netif/slipif.o
 .debug_aranges
                0x000006d0       0x18 c:/altera/13.1/nios2eds/bin/gnu/h-i686-mingw32/bin/../lib/gcc/nios2-elf/4.7.3/../../../../../H-i686-mingw32/nios2-elf/lib\libc.a(lib_a-impure.o)
 .debug_aranges
                0x000006e8       0x20 c:/altera/13.1/nios2eds/bin/gnu/h-i686-mingw32/bin/../lib/gcc/nios2-elf/4.7.3/../../../../../H-i686-mingw32/nios2-elf/lib\libc.a(lib_a-memcpy.o)
 .debug_aranges
                0x00000708       0x20 c:/altera/13.1/nios2eds/bin/gnu/h-i686-mingw32/bin/../lib/gcc/nios2-elf/4.7.3/../../../../../H-i686-mingw32/nios2-elf/lib\libc.a(lib_a-memset.o)
 .debug_aranges
                0x00000728       0x20 c:/altera/13.1/nios2eds/bin/gnu/h-i686-mingw32/bin/../lib/gcc/nios2-elf/4.7.3/../../../../../H-i686-mingw32/nios2-elf/lib\libc.a(lib_a-printf.o)
 .debug_aranges
                0x00000748       0x20 c:/altera/13.1/nios2eds/bin/gnu/h-i686-mingw32/bin/../lib/gcc/nios2-elf/4.7.3/../../../../../H-i686-mingw32/nios2-elf/lib\libc.a(lib_a-putc.o)
 .debug_aranges
                0x00000768       0x20 c:/altera/13.1/nios2eds/bin/gnu/h-i686-mingw32/bin/../lib/gcc/nios2-elf/4.7.3/../../../../../H-i686-mingw32/nios2-elf/lib\libc.a(lib_a-puts.o)
 .debug_aranges
                0x00000788       0x20 c:/altera/13.1/nios2eds/bin/gnu/h-i686-mingw32/bin/../lib/gcc/nios2-elf/4.7.3/../../../../../H-i686-mingw32/nios2-elf/lib\libc.a(lib_a-strcmp.o)
 .debug_aranges
                0x000007a8       0x20 c:/altera/13.1/nios2eds/bin/gnu/h-i686-mingw32/bin/../lib/gcc/nios2-elf/4.7.3/../../../../../H-i686-mingw32/nios2-elf/lib\libc.a(lib_a-strlen.o)
 .debug_aranges
                0x000007c8       0x20 c:/altera/13.1/nios2eds/bin/gnu/h-i686-mingw32/bin/../lib/gcc/nios2-elf/4.7.3/../../../../../H-i686-mingw32/nios2-elf/lib\libc.a(lib_a-strncmp.o)
 .debug_aranges
                0x000007e8       0x20 c:/altera/13.1/nios2eds/bin/gnu/h-i686-mingw32/bin/../lib/gcc/nios2-elf/4.7.3/../../../../../H-i686-mingw32/nios2-elf/lib\libc.a(lib_a-vfprintf.o)
 .debug_aranges
                0x00000808       0x20 c:/altera/13.1/nios2eds/bin/gnu/h-i686-mingw32/bin/../lib/gcc/nios2-elf/4.7.3/../../../../../H-i686-mingw32/nios2-elf/lib\libc.a(lib_a-wbuf.o)
 .debug_aranges
                0x00000828       0x20 c:/altera/13.1/nios2eds/bin/gnu/h-i686-mingw32/bin/../lib/gcc/nios2-elf/4.7.3/../../../../../H-i686-mingw32/nios2-elf/lib\libc.a(lib_a-wsetup.o)
 .debug_aranges
                0x00000848       0x20 c:/altera/13.1/nios2eds/bin/gnu/h-i686-mingw32/bin/../lib/gcc/nios2-elf/4.7.3/../../../../../H-i686-mingw32/nios2-elf/lib\libc.a(lib_a-dtoa.o)
 .debug_aranges
                0x00000868       0x20 c:/altera/13.1/nios2eds/bin/gnu/h-i686-mingw32/bin/../lib/gcc/nios2-elf/4.7.3/../../../../../H-i686-mingw32/nios2-elf/lib\libc.a(lib_a-fflush.o)
 .debug_aranges
                0x00000888       0x20 c:/altera/13.1/nios2eds/bin/gnu/h-i686-mingw32/bin/../lib/gcc/nios2-elf/4.7.3/../../../../../H-i686-mingw32/nios2-elf/lib\libc.a(lib_a-findfp.o)
 .debug_aranges
                0x000008a8       0x20 c:/altera/13.1/nios2eds/bin/gnu/h-i686-mingw32/bin/../lib/gcc/nios2-elf/4.7.3/../../../../../H-i686-mingw32/nios2-elf/lib\libc.a(lib_a-freer.o)
 .debug_aranges
                0x000008c8       0x20 c:/altera/13.1/nios2eds/bin/gnu/h-i686-mingw32/bin/../lib/gcc/nios2-elf/4.7.3/../../../../../H-i686-mingw32/nios2-elf/lib\libc.a(lib_a-fvwrite.o)
 .debug_aranges
                0x000008e8       0x20 c:/altera/13.1/nios2eds/bin/gnu/h-i686-mingw32/bin/../lib/gcc/nios2-elf/4.7.3/../../../../../H-i686-mingw32/nios2-elf/lib\libc.a(lib_a-fwalk.o)
 .debug_aranges
                0x00000908       0x20 c:/altera/13.1/nios2eds/bin/gnu/h-i686-mingw32/bin/../lib/gcc/nios2-elf/4.7.3/../../../../../H-i686-mingw32/nios2-elf/lib\libc.a(lib_a-locale.o)
 .debug_aranges
                0x00000928       0x20 c:/altera/13.1/nios2eds/bin/gnu/h-i686-mingw32/bin/../lib/gcc/nios2-elf/4.7.3/../../../../../H-i686-mingw32/nios2-elf/lib\libc.a(lib_a-makebuf.o)
 .debug_aranges
                0x00000948       0x20 c:/altera/13.1/nios2eds/bin/gnu/h-i686-mingw32/bin/../lib/gcc/nios2-elf/4.7.3/../../../../../H-i686-mingw32/nios2-elf/lib\libc.a(lib_a-mallocr.o)
 .debug_aranges
                0x00000968       0x20 c:/altera/13.1/nios2eds/bin/gnu/h-i686-mingw32/bin/../lib/gcc/nios2-elf/4.7.3/../../../../../H-i686-mingw32/nios2-elf/lib\libc.a(lib_a-memchr.o)
 .debug_aranges
                0x00000988       0x20 c:/altera/13.1/nios2eds/bin/gnu/h-i686-mingw32/bin/../lib/gcc/nios2-elf/4.7.3/../../../../../H-i686-mingw32/nios2-elf/lib\libc.a(lib_a-memmove.o)
 .debug_aranges
                0x000009a8       0x20 c:/altera/13.1/nios2eds/bin/gnu/h-i686-mingw32/bin/../lib/gcc/nios2-elf/4.7.3/../../../../../H-i686-mingw32/nios2-elf/lib\libc.a(lib_a-mprec.o)
 .debug_aranges
                0x000009c8       0x20 c:/altera/13.1/nios2eds/bin/gnu/h-i686-mingw32/bin/../lib/gcc/nios2-elf/4.7.3/../../../../../H-i686-mingw32/nios2-elf/lib\libc.a(lib_a-reallocr.o)
 .debug_aranges
                0x000009e8       0x20 c:/altera/13.1/nios2eds/bin/gnu/h-i686-mingw32/bin/../lib/gcc/nios2-elf/4.7.3/../../../../../H-i686-mingw32/nios2-elf/lib\libc.a(lib_a-s_isinfd.o)
 .debug_aranges
                0x00000a08       0x20 c:/altera/13.1/nios2eds/bin/gnu/h-i686-mingw32/bin/../lib/gcc/nios2-elf/4.7.3/../../../../../H-i686-mingw32/nios2-elf/lib\libc.a(lib_a-s_isnand.o)
 .debug_aranges
                0x00000a28       0x20 c:/altera/13.1/nios2eds/bin/gnu/h-i686-mingw32/bin/../lib/gcc/nios2-elf/4.7.3/../../../../../H-i686-mingw32/nios2-elf/lib\libc.a(lib_a-sbrkr.o)
 .debug_aranges
                0x00000a48       0x20 c:/altera/13.1/nios2eds/bin/gnu/h-i686-mingw32/bin/../lib/gcc/nios2-elf/4.7.3/../../../../../H-i686-mingw32/nios2-elf/lib\libc.a(lib_a-stdio.o)
 .debug_aranges
                0x00000a68       0x20 c:/altera/13.1/nios2eds/bin/gnu/h-i686-mingw32/bin/../lib/gcc/nios2-elf/4.7.3/../../../../../H-i686-mingw32/nios2-elf/lib\libc.a(lib_a-writer.o)
 .debug_aranges
                0x00000a88       0x20 c:/altera/13.1/nios2eds/bin/gnu/h-i686-mingw32/bin/../lib/gcc/nios2-elf/4.7.3/../../../../../H-i686-mingw32/nios2-elf/lib\libc.a(lib_a-callocr.o)
 .debug_aranges
                0x00000aa8       0x20 c:/altera/13.1/nios2eds/bin/gnu/h-i686-mingw32/bin/../lib/gcc/nios2-elf/4.7.3/../../../../../H-i686-mingw32/nios2-elf/lib\libc.a(lib_a-closer.o)
 .debug_aranges
                0x00000ac8       0x20 c:/altera/13.1/nios2eds/bin/gnu/h-i686-mingw32/bin/../lib/gcc/nios2-elf/4.7.3/../../../../../H-i686-mingw32/nios2-elf/lib\libc.a(lib_a-fclose.o)
 .debug_aranges
                0x00000ae8       0x20 c:/altera/13.1/nios2eds/bin/gnu/h-i686-mingw32/bin/../lib/gcc/nios2-elf/4.7.3/../../../../../H-i686-mingw32/nios2-elf/lib\libc.a(lib_a-fstatr.o)
 .debug_aranges
                0x00000b08       0x18 c:/altera/13.1/nios2eds/bin/gnu/h-i686-mingw32/bin/../lib/gcc/nios2-elf/4.7.3/../../../../../H-i686-mingw32/nios2-elf/lib\libc.a(lib_a-int_errno.o)
 .debug_aranges
                0x00000b20       0x20 c:/altera/13.1/nios2eds/bin/gnu/h-i686-mingw32/bin/../lib/gcc/nios2-elf/4.7.3/../../../../../H-i686-mingw32/nios2-elf/lib\libc.a(lib_a-isattyr.o)
 .debug_aranges
                0x00000b40       0x20 c:/altera/13.1/nios2eds/bin/gnu/h-i686-mingw32/bin/../lib/gcc/nios2-elf/4.7.3/../../../../../H-i686-mingw32/nios2-elf/lib\libc.a(lib_a-lseekr.o)
 .debug_aranges
                0x00000b60       0x20 c:/altera/13.1/nios2eds/bin/gnu/h-i686-mingw32/bin/../lib/gcc/nios2-elf/4.7.3/../../../../../H-i686-mingw32/nios2-elf/lib\libc.a(lib_a-readr.o)
 .debug_aranges
                0x00000b80       0x20 c:/altera/13.1/nios2eds/bin/gnu/h-i686-mingw32/bin/../lib/gcc/nios2-elf/4.7.3\libgcc.a(_udivdi3.o)
 .debug_aranges
                0x00000ba0       0x20 c:/altera/13.1/nios2eds/bin/gnu/h-i686-mingw32/bin/../lib/gcc/nios2-elf/4.7.3\libgcc.a(_umoddi3.o)
 .debug_aranges
                0x00000bc0       0x20 c:/altera/13.1/nios2eds/bin/gnu/h-i686-mingw32/bin/../lib/gcc/nios2-elf/4.7.3\libgcc.a(_addsub_df.o)
 .debug_aranges
                0x00000be0       0x20 c:/altera/13.1/nios2eds/bin/gnu/h-i686-mingw32/bin/../lib/gcc/nios2-elf/4.7.3\libgcc.a(_mul_df.o)
 .debug_aranges
                0x00000c00       0x20 c:/altera/13.1/nios2eds/bin/gnu/h-i686-mingw32/bin/../lib/gcc/nios2-elf/4.7.3\libgcc.a(_div_df.o)
 .debug_aranges
                0x00000c20       0x20 c:/altera/13.1/nios2eds/bin/gnu/h-i686-mingw32/bin/../lib/gcc/nios2-elf/4.7.3\libgcc.a(_eq_df.o)
 .debug_aranges
                0x00000c40       0x20 c:/altera/13.1/nios2eds/bin/gnu/h-i686-mingw32/bin/../lib/gcc/nios2-elf/4.7.3\libgcc.a(_ne_df.o)
 .debug_aranges
                0x00000c60       0x20 c:/altera/13.1/nios2eds/bin/gnu/h-i686-mingw32/bin/../lib/gcc/nios2-elf/4.7.3\libgcc.a(_gt_df.o)
 .debug_aranges
                0x00000c80       0x20 c:/altera/13.1/nios2eds/bin/gnu/h-i686-mingw32/bin/../lib/gcc/nios2-elf/4.7.3\libgcc.a(_ge_df.o)
 .debug_aranges
                0x00000ca0       0x20 c:/altera/13.1/nios2eds/bin/gnu/h-i686-mingw32/bin/../lib/gcc/nios2-elf/4.7.3\libgcc.a(_lt_df.o)
 .debug_aranges
                0x00000cc0       0x20 c:/altera/13.1/nios2eds/bin/gnu/h-i686-mingw32/bin/../lib/gcc/nios2-elf/4.7.3\libgcc.a(_si_to_df.o)
 .debug_aranges
                0x00000ce0       0x20 c:/altera/13.1/nios2eds/bin/gnu/h-i686-mingw32/bin/../lib/gcc/nios2-elf/4.7.3\libgcc.a(_df_to_si.o)
 .debug_aranges
                0x00000d00       0x18 c:/altera/13.1/nios2eds/bin/gnu/h-i686-mingw32/bin/../lib/gcc/nios2-elf/4.7.3\libgcc.a(_thenan_df.o)
 .debug_aranges
                0x00000d18       0x20 c:/altera/13.1/nios2eds/bin/gnu/h-i686-mingw32/bin/../lib/gcc/nios2-elf/4.7.3\libgcc.a(_usi_to_df.o)
 .debug_aranges
                0x00000d38       0x20 c:/altera/13.1/nios2eds/bin/gnu/h-i686-mingw32/bin/../lib/gcc/nios2-elf/4.7.3\libgcc.a(lib2-divmod.o)
 .debug_aranges
                0x00000d58       0x20 c:/altera/13.1/nios2eds/bin/gnu/h-i686-mingw32/bin/../lib/gcc/nios2-elf/4.7.3\libgcc.a(_muldi3.o)
 .debug_aranges
                0x00000d78       0x18 c:/altera/13.1/nios2eds/bin/gnu/h-i686-mingw32/bin/../lib/gcc/nios2-elf/4.7.3\libgcc.a(_clz.o)
 .debug_aranges
                0x00000d90       0x20 c:/altera/13.1/nios2eds/bin/gnu/h-i686-mingw32/bin/../lib/gcc/nios2-elf/4.7.3\libgcc.a(_clzsi2.o)
 .debug_aranges
                0x00000db0       0x20 c:/altera/13.1/nios2eds/bin/gnu/h-i686-mingw32/bin/../lib/gcc/nios2-elf/4.7.3\libgcc.a(_pack_df.o)
 .debug_aranges
                0x00000dd0       0x20 c:/altera/13.1/nios2eds/bin/gnu/h-i686-mingw32/bin/../lib/gcc/nios2-elf/4.7.3\libgcc.a(_unpack_df.o)
 .debug_aranges
                0x00000df0       0x20 c:/altera/13.1/nios2eds/bin/gnu/h-i686-mingw32/bin/../lib/gcc/nios2-elf/4.7.3\libgcc.a(_fpcmp_parts_df.o)
 .debug_aranges
                0x00000e10       0x20 c:/altera/13.1/nios2eds/bin/gnu/h-i686-mingw32/bin/../lib/gcc/nios2-elf/4.7.3\libgcc.a(_lshrdi3.o)
 .debug_aranges
                0x00000e30       0x20 c:/altera/13.1/nios2eds/bin/gnu/h-i686-mingw32/bin/../lib/gcc/nios2-elf/4.7.3\libgcc.a(_ashldi3.o)
 .debug_aranges
                0x00000e50       0x20 ../lwIP_NIOS_II_Example_bsp/\libhal_bsp.a(alt_alarm_start.o)
 .debug_aranges
                0x00000e70       0x20 ../lwIP_NIOS_II_Example_bsp/\libhal_bsp.a(alt_close.o)
 .debug_aranges
                0x00000e90       0x20 ../lwIP_NIOS_II_Example_bsp/\libhal_bsp.a(alt_dev.o)
 .debug_aranges
                0x00000eb0       0x18 ../lwIP_NIOS_II_Example_bsp/\libhal_bsp.a(alt_errno.o)
 .debug_aranges
                0x00000ec8       0x20 ../lwIP_NIOS_II_Example_bsp/\libhal_bsp.a(alt_fstat.o)
 .debug_aranges
                0x00000ee8       0x20 ../lwIP_NIOS_II_Example_bsp/\libhal_bsp.a(alt_isatty.o)
 .debug_aranges
                0x00000f08       0x20 ../lwIP_NIOS_II_Example_bsp/\libhal_bsp.a(alt_load.o)
 .debug_aranges
                0x00000f28       0x20 ../lwIP_NIOS_II_Example_bsp/\libhal_bsp.a(alt_lseek.o)
 .debug_aranges
                0x00000f48       0x20 ../lwIP_NIOS_II_Example_bsp/\libhal_bsp.a(alt_main.o)
 .debug_aranges
                0x00000f68       0x20 ../lwIP_NIOS_II_Example_bsp/\libhal_bsp.a(alt_malloc_lock.o)
 .debug_aranges
                0x00000f88       0x20 ../lwIP_NIOS_II_Example_bsp/\libhal_bsp.a(alt_read.o)
 .debug_aranges
                0x00000fa8       0x20 ../lwIP_NIOS_II_Example_bsp/\libhal_bsp.a(alt_release_fd.o)
 .debug_aranges
                0x00000fc8       0x20 ../lwIP_NIOS_II_Example_bsp/\libhal_bsp.a(alt_remap_uncached.o)
 .debug_aranges
                0x00000fe8       0x20 ../lwIP_NIOS_II_Example_bsp/\libhal_bsp.a(alt_sbrk.o)
 .debug_aranges
                0x00001008       0x20 ../lwIP_NIOS_II_Example_bsp/\libhal_bsp.a(alt_tick.o)
 .debug_aranges
                0x00001028       0x20 ../lwIP_NIOS_II_Example_bsp/\libhal_bsp.a(alt_uncached_malloc.o)
 .debug_aranges
                0x00001048       0x20 ../lwIP_NIOS_II_Example_bsp/\libhal_bsp.a(alt_usleep.o)
 .debug_aranges
                0x00001068       0x20 ../lwIP_NIOS_II_Example_bsp/\libhal_bsp.a(alt_write.o)
 .debug_aranges
                0x00001088       0x20 ../lwIP_NIOS_II_Example_bsp/\libhal_bsp.a(alt_sys_init.o)
 .debug_aranges
                0x000010a8       0x20 ../lwIP_NIOS_II_Example_bsp/\libhal_bsp.a(altera_avalon_cfi_flash.o)
 .debug_aranges
                0x000010c8       0x20 ../lwIP_NIOS_II_Example_bsp/\libhal_bsp.a(altera_avalon_cfi_flash_table.o)
 .debug_aranges
                0x000010e8       0x20 ../lwIP_NIOS_II_Example_bsp/\libhal_bsp.a(altera_avalon_jtag_uart_fd.o)
 .debug_aranges
                0x00001108       0x20 ../lwIP_NIOS_II_Example_bsp/\libhal_bsp.a(altera_avalon_jtag_uart_init.o)
 .debug_aranges
                0x00001128       0x20 ../lwIP_NIOS_II_Example_bsp/\libhal_bsp.a(altera_avalon_jtag_uart_ioctl.o)
 .debug_aranges
                0x00001148       0x20 ../lwIP_NIOS_II_Example_bsp/\libhal_bsp.a(altera_avalon_jtag_uart_read.o)
 .debug_aranges
                0x00001168       0x20 ../lwIP_NIOS_II_Example_bsp/\libhal_bsp.a(altera_avalon_jtag_uart_write.o)
 .debug_aranges
                0x00001188       0x20 ../lwIP_NIOS_II_Example_bsp/\libhal_bsp.a(altera_avalon_lcd_16207.o)
 .debug_aranges
                0x000011a8       0x20 ../lwIP_NIOS_II_Example_bsp/\libhal_bsp.a(altera_avalon_lcd_16207_fd.o)
 .debug_aranges
                0x000011c8       0x20 ../lwIP_NIOS_II_Example_bsp/\libhal_bsp.a(altera_avalon_sgdma.o)
 .debug_aranges
                0x000011e8       0x20 ../lwIP_NIOS_II_Example_bsp/\libhal_bsp.a(altera_avalon_timer_sc.o)
 .debug_aranges
                0x00001208       0x20 ../lwIP_NIOS_II_Example_bsp/\libhal_bsp.a(altera_avalon_tse.o)
 .debug_aranges
                0x00001228       0x18 ../lwIP_NIOS_II_Example_bsp/\libhal_bsp.a(altera_avalon_tse_system_info.o)
 .debug_aranges
                0x00001240       0x20 ../lwIP_NIOS_II_Example_bsp/\libhal_bsp.a(altera_avalon_uart_fd.o)
 .debug_aranges
                0x00001260       0x20 ../lwIP_NIOS_II_Example_bsp/\libhal_bsp.a(altera_avalon_uart_init.o)
 .debug_aranges
                0x00001280       0x20 ../lwIP_NIOS_II_Example_bsp/\libhal_bsp.a(altera_avalon_uart_read.o)
 .debug_aranges
                0x000012a0       0x20 ../lwIP_NIOS_II_Example_bsp/\libhal_bsp.a(altera_avalon_uart_write.o)
 .debug_aranges
                0x000012c0       0x20 ../lwIP_NIOS_II_Example_bsp/\libhal_bsp.a(altera_vic_0_vector_tbl.o)
 .debug_aranges
                0x000012e0       0x20 ../lwIP_NIOS_II_Example_bsp/\libhal_bsp.a(altera_vic_funnel_non_preemptive.o)
 .debug_aranges
                0x00001300       0x20 ../lwIP_NIOS_II_Example_bsp/\libhal_bsp.a(altera_vic_irq_init.o)
 .debug_aranges
                0x00001320       0x20 ../lwIP_NIOS_II_Example_bsp/\libhal_bsp.a(altera_vic_isr_register.o)
 .debug_aranges
                0x00001340       0x20 ../lwIP_NIOS_II_Example_bsp/\libhal_bsp.a(alt_busy_sleep.o)
 .debug_aranges
                0x00001360       0x20 ../lwIP_NIOS_II_Example_bsp/\libhal_bsp.a(alt_dcache_flush.o)
 .debug_aranges
                0x00001380       0x20 ../lwIP_NIOS_II_Example_bsp/\libhal_bsp.a(alt_dcache_flush_all.o)
 .debug_aranges
                0x000013a0       0x20 ../lwIP_NIOS_II_Example_bsp/\libhal_bsp.a(alt_dev_llist_insert.o)
 .debug_aranges
                0x000013c0       0x20 ../lwIP_NIOS_II_Example_bsp/\libhal_bsp.a(alt_do_ctors.o)
 .debug_aranges
                0x000013e0       0x20 ../lwIP_NIOS_II_Example_bsp/\libhal_bsp.a(alt_do_dtors.o)
 .debug_aranges
                0x00001400       0x20 ../lwIP_NIOS_II_Example_bsp/\libhal_bsp.a(alt_find_dev.o)
 .debug_aranges
                0x00001420       0x20 ../lwIP_NIOS_II_Example_bsp/\libhal_bsp.a(alt_flash_dev.o)
 .debug_aranges
                0x00001440       0x20 ../lwIP_NIOS_II_Example_bsp/\libhal_bsp.a(alt_icache_flush_all.o)
 .debug_aranges
                0x00001460       0x20 ../lwIP_NIOS_II_Example_bsp/\libhal_bsp.a(alt_io_redirect.o)
 .debug_aranges
                0x00001480       0x20 ../lwIP_NIOS_II_Example_bsp/\libhal_bsp.a(alt_open.o)
 .debug_aranges
                0x000014a0       0x20 ../lwIP_NIOS_II_Example_bsp/\libhal_bsp.a(altera_avalon_cfi_flash_amd.o)
 .debug_aranges
                0x000014c0       0x20 ../lwIP_NIOS_II_Example_bsp/\libhal_bsp.a(altera_avalon_cfi_flash_intel.o)
 .debug_aranges
                0x000014e0       0x20 ../lwIP_NIOS_II_Example_bsp/\libhal_bsp.a(alt_find_file.o)
 .debug_aranges
                0x00001500       0x20 ../lwIP_NIOS_II_Example_bsp/\libhal_bsp.a(alt_get_fd.o)
 .debug_aranges
                0x00001520       0x20 ../lwIP_NIOS_II_Example_bsp/\libhal_bsp.a(alt_icache_flush.o)
 .debug_aranges
                0x00001540       0x20 c:/altera/13.1/nios2eds/bin/gnu/h-i686-mingw32/bin/../lib/gcc/nios2-elf/4.7.3/../../../../../H-i686-mingw32/nios2-elf/lib\libc.a(lib_a-atexit.o)
 .debug_aranges
                0x00001560       0x18 c:/altera/13.1/nios2eds/bin/gnu/h-i686-mingw32/bin/../lib/gcc/nios2-elf/4.7.3/../../../../../H-i686-mingw32/nios2-elf/lib\libc.a(lib_a-ctype_.o)
 .debug_aranges
                0x00001578       0x20 c:/altera/13.1/nios2eds/bin/gnu/h-i686-mingw32/bin/../lib/gcc/nios2-elf/4.7.3/../../../../../H-i686-mingw32/nios2-elf/lib\libc.a(lib_a-exit.o)
 .debug_aranges
                0x00001598       0x20 c:/altera/13.1/nios2eds/bin/gnu/h-i686-mingw32/bin/../lib/gcc/nios2-elf/4.7.3/../../../../../H-i686-mingw32/nios2-elf/lib\libc.a(lib_a-malloc.o)
 .debug_aranges
                0x000015b8       0x20 c:/altera/13.1/nios2eds/bin/gnu/h-i686-mingw32/bin/../lib/gcc/nios2-elf/4.7.3/../../../../../H-i686-mingw32/nios2-elf/lib\libc.a(lib_a-memcmp.o)
 .debug_aranges
                0x000015d8       0x20 c:/altera/13.1/nios2eds/bin/gnu/h-i686-mingw32/bin/../lib/gcc/nios2-elf/4.7.3/../../../../../H-i686-mingw32/nios2-elf/lib\libc.a(lib_a-strcpy.o)
 .debug_aranges
                0x000015f8       0x20 c:/altera/13.1/nios2eds/bin/gnu/h-i686-mingw32/bin/../lib/gcc/nios2-elf/4.7.3/../../../../../H-i686-mingw32/nios2-elf/lib\libc.a(lib_a-__atexit.o)
 .debug_aranges
                0x00001618       0x20 c:/altera/13.1/nios2eds/bin/gnu/h-i686-mingw32/bin/../lib/gcc/nios2-elf/4.7.3/../../../../../H-i686-mingw32/nios2-elf/lib\libc.a(lib_a-__call_atexit.o)
 .debug_aranges
                0x00001638       0x20 ../lwIP_NIOS_II_Example_bsp/\libhal_bsp.a(alt_exit.o)

.debug_pubnames
 *(.debug_pubnames)

.debug_info     0x00000000    0x3ff41
 *(.debug_info .gnu.linkonce.wi.*)
 .debug_info    0x00000000       0x74 ../lwIP_NIOS_II_Example_bsp//obj/HAL/src/crt0.o
 .debug_info    0x00000074      0x863 obj/default/alteraTseEthernetif.o
 .debug_info    0x000008d7      0x863 obj/default/driver/alteraTseEthernetif.o
 .debug_info    0x0000113a      0x228 obj/default/driver/fs.o
 .debug_info    0x00001362      0xa17 obj/default/driver/httpd.o
 .debug_info    0x00001d79     0x19a7 obj/default/driver/lwip_tse_mac.o
 .debug_info    0x00003720      0x228 obj/default/fs.o
 .debug_info    0x00003948      0xa17 obj/default/httpd.o
 .debug_info    0x0000435f     0x19a7 obj/default/lwip_tse_mac.o
 .debug_info    0x00005d06     0x11d6 obj/default/main.o
 .debug_info    0x00006edc       0x72 obj/default/src/api/api_lib.o
 .debug_info    0x00006f4e       0x72 obj/default/src/api/api_msg.o
 .debug_info    0x00006fc0       0x72 obj/default/src/api/err.o
 .debug_info    0x00007032       0x72 obj/default/src/api/netbuf.o
 .debug_info    0x000070a4       0x72 obj/default/src/api/netdb.o
 .debug_info    0x00007116       0x72 obj/default/src/api/netifapi.o
 .debug_info    0x00007188       0x72 obj/default/src/api/sockets.o
 .debug_info    0x000071fa       0x72 obj/default/src/api/tcpip.o
 .debug_info    0x0000726c     0x1127 obj/default/src/core/dhcp.o
 .debug_info    0x00008393       0x72 obj/default/src/core/dns.o
 .debug_info    0x00008405       0x90 obj/default/src/core/init.o
 .debug_info    0x00008495       0x72 obj/default/src/core/ipv4/autoip.o
 .debug_info    0x00008507      0x802 obj/default/src/core/ipv4/icmp.o
 .debug_info    0x00008d09       0x72 obj/default/src/core/ipv4/igmp.o
 .debug_info    0x00008d7b      0x24f obj/default/src/core/ipv4/inet.o
 .debug_info    0x00008fca      0x2c3 obj/default/src/core/ipv4/inet_chksum.o
 .debug_info    0x0000928d      0xbde obj/default/src/core/ipv4/ip.o
 .debug_info    0x00009e6b      0x321 obj/default/src/core/ipv4/ip_addr.o
 .debug_info    0x0000a18c      0xb35 obj/default/src/core/ipv4/ip_frag.o
 .debug_info    0x0000acc1      0x5ce obj/default/src/core/mem.o
 .debug_info    0x0000b28f      0x490 obj/default/src/core/memp.o
 .debug_info    0x0000b71f      0xf60 obj/default/src/core/netif.o
 .debug_info    0x0000c67f      0x6b6 obj/default/src/core/pbuf.o
 .debug_info    0x0000cd35      0x6f6 obj/default/src/core/raw.o
 .debug_info    0x0000d42b       0x72 obj/default/src/core/snmp/asn1_dec.o
 .debug_info    0x0000d49d       0x72 obj/default/src/core/snmp/asn1_enc.o
 .debug_info    0x0000d50f       0x72 obj/default/src/core/snmp/mib2.o
 .debug_info    0x0000d581       0x72 obj/default/src/core/snmp/mib_structs.o
 .debug_info    0x0000d5f3       0x72 obj/default/src/core/snmp/msg_in.o
 .debug_info    0x0000d665       0x72 obj/default/src/core/snmp/msg_out.o
 .debug_info    0x0000d6d7      0x2f3 obj/default/src/core/stats.o
 .debug_info    0x0000d9ca       0x72 obj/default/src/core/sys.o
 .debug_info    0x0000da3c     0x1521 obj/default/src/core/tcp.o
 .debug_info    0x0000ef5d      0xfce obj/default/src/core/tcp_in.o
 .debug_info    0x0000ff2b     0x100a obj/default/src/core/tcp_out.o
 .debug_info    0x00010f35      0xdb5 obj/default/src/core/udp.o
 .debug_info    0x00011cea     0x11bb obj/default/src/netif/etharp.o
 .debug_info    0x00012ea5       0x72 obj/default/src/netif/ethernetif.o
 .debug_info    0x00012f17       0x72 obj/default/src/netif/loopif.o
 .debug_info    0x00012f89       0x72 obj/default/src/netif/ppp/auth.o
 .debug_info    0x00012ffb       0x72 obj/default/src/netif/ppp/chap.o
 .debug_info    0x0001306d       0x72 obj/default/src/netif/ppp/chpms.o
 .debug_info    0x000130df       0x72 obj/default/src/netif/ppp/fsm.o
 .debug_info    0x00013151       0x72 obj/default/src/netif/ppp/ipcp.o
 .debug_info    0x000131c3       0x72 obj/default/src/netif/ppp/lcp.o
 .debug_info    0x00013235       0x72 obj/default/src/netif/ppp/magic.o
 .debug_info    0x000132a7       0x72 obj/default/src/netif/ppp/md5.o
 .debug_info    0x00013319       0x72 obj/default/src/netif/ppp/pap.o
 .debug_info    0x0001338b       0x72 obj/default/src/netif/ppp/ppp.o
 .debug_info    0x000133fd       0x72 obj/default/src/netif/ppp/ppp_oe.o
 .debug_info    0x0001346f       0x72 obj/default/src/netif/ppp/randm.o
 .debug_info    0x000134e1       0x72 obj/default/src/netif/ppp/vj.o
 .debug_info    0x00013553       0x72 obj/default/src/netif/slipif.o
 .debug_info    0x000135c5      0x938 c:/altera/13.1/nios2eds/bin/gnu/h-i686-mingw32/bin/../lib/gcc/nios2-elf/4.7.3/../../../../../H-i686-mingw32/nios2-elf/lib\libc.a(lib_a-impure.o)
 .debug_info    0x00013efd      0x10e c:/altera/13.1/nios2eds/bin/gnu/h-i686-mingw32/bin/../lib/gcc/nios2-elf/4.7.3/../../../../../H-i686-mingw32/nios2-elf/lib\libc.a(lib_a-memcpy.o)
 .debug_info    0x0001400b      0x117 c:/altera/13.1/nios2eds/bin/gnu/h-i686-mingw32/bin/../lib/gcc/nios2-elf/4.7.3/../../../../../H-i686-mingw32/nios2-elf/lib\libc.a(lib_a-memset.o)
 .debug_info    0x00014122      0xa6c c:/altera/13.1/nios2eds/bin/gnu/h-i686-mingw32/bin/../lib/gcc/nios2-elf/4.7.3/../../../../../H-i686-mingw32/nios2-elf/lib\libc.a(lib_a-printf.o)
 .debug_info    0x00014b8e      0xa2e c:/altera/13.1/nios2eds/bin/gnu/h-i686-mingw32/bin/../lib/gcc/nios2-elf/4.7.3/../../../../../H-i686-mingw32/nios2-elf/lib\libc.a(lib_a-putc.o)
 .debug_info    0x000155bc      0xab7 c:/altera/13.1/nios2eds/bin/gnu/h-i686-mingw32/bin/../lib/gcc/nios2-elf/4.7.3/../../../../../H-i686-mingw32/nios2-elf/lib\libc.a(lib_a-puts.o)
 .debug_info    0x00016073       0xe1 c:/altera/13.1/nios2eds/bin/gnu/h-i686-mingw32/bin/../lib/gcc/nios2-elf/4.7.3/../../../../../H-i686-mingw32/nios2-elf/lib\libc.a(lib_a-strcmp.o)
 .debug_info    0x00016154       0xdf c:/altera/13.1/nios2eds/bin/gnu/h-i686-mingw32/bin/../lib/gcc/nios2-elf/4.7.3/../../../../../H-i686-mingw32/nios2-elf/lib\libc.a(lib_a-strlen.o)
 .debug_info    0x00016233       0xf9 c:/altera/13.1/nios2eds/bin/gnu/h-i686-mingw32/bin/../lib/gcc/nios2-elf/4.7.3/../../../../../H-i686-mingw32/nios2-elf/lib\libc.a(lib_a-strncmp.o)
 .debug_info    0x0001632c     0x195a c:/altera/13.1/nios2eds/bin/gnu/h-i686-mingw32/bin/../lib/gcc/nios2-elf/4.7.3/../../../../../H-i686-mingw32/nios2-elf/lib\libc.a(lib_a-vfprintf.o)
 .debug_info    0x00017c86      0xa6e c:/altera/13.1/nios2eds/bin/gnu/h-i686-mingw32/bin/../lib/gcc/nios2-elf/4.7.3/../../../../../H-i686-mingw32/nios2-elf/lib\libc.a(lib_a-wbuf.o)
 .debug_info    0x000186f4      0x9d4 c:/altera/13.1/nios2eds/bin/gnu/h-i686-mingw32/bin/../lib/gcc/nios2-elf/4.7.3/../../../../../H-i686-mingw32/nios2-elf/lib\libc.a(lib_a-wsetup.o)
 .debug_info    0x000190c8     0x1408 c:/altera/13.1/nios2eds/bin/gnu/h-i686-mingw32/bin/../lib/gcc/nios2-elf/4.7.3/../../../../../H-i686-mingw32/nios2-elf/lib\libc.a(lib_a-dtoa.o)
 .debug_info    0x0001a4d0      0xad0 c:/altera/13.1/nios2eds/bin/gnu/h-i686-mingw32/bin/../lib/gcc/nios2-elf/4.7.3/../../../../../H-i686-mingw32/nios2-elf/lib\libc.a(lib_a-fflush.o)
 .debug_info    0x0001afa0      0xd6f c:/altera/13.1/nios2eds/bin/gnu/h-i686-mingw32/bin/../lib/gcc/nios2-elf/4.7.3/../../../../../H-i686-mingw32/nios2-elf/lib\libc.a(lib_a-findfp.o)
 .debug_info    0x0001bd0f      0xcf9 c:/altera/13.1/nios2eds/bin/gnu/h-i686-mingw32/bin/../lib/gcc/nios2-elf/4.7.3/../../../../../H-i686-mingw32/nios2-elf/lib\libc.a(lib_a-freer.o)
 .debug_info    0x0001ca08      0xd05 c:/altera/13.1/nios2eds/bin/gnu/h-i686-mingw32/bin/../lib/gcc/nios2-elf/4.7.3/../../../../../H-i686-mingw32/nios2-elf/lib\libc.a(lib_a-fvwrite.o)
 .debug_info    0x0001d70d      0xb72 c:/altera/13.1/nios2eds/bin/gnu/h-i686-mingw32/bin/../lib/gcc/nios2-elf/4.7.3/../../../../../H-i686-mingw32/nios2-elf/lib\libc.a(lib_a-fwalk.o)
 .debug_info    0x0001e27f      0xc10 c:/altera/13.1/nios2eds/bin/gnu/h-i686-mingw32/bin/../lib/gcc/nios2-elf/4.7.3/../../../../../H-i686-mingw32/nios2-elf/lib\libc.a(lib_a-locale.o)
 .debug_info    0x0001ee8f      0xbc2 c:/altera/13.1/nios2eds/bin/gnu/h-i686-mingw32/bin/../lib/gcc/nios2-elf/4.7.3/../../../../../H-i686-mingw32/nios2-elf/lib\libc.a(lib_a-makebuf.o)
 .debug_info    0x0001fa51      0xe44 c:/altera/13.1/nios2eds/bin/gnu/h-i686-mingw32/bin/../lib/gcc/nios2-elf/4.7.3/../../../../../H-i686-mingw32/nios2-elf/lib\libc.a(lib_a-mallocr.o)
 .debug_info    0x00020895      0x13e c:/altera/13.1/nios2eds/bin/gnu/h-i686-mingw32/bin/../lib/gcc/nios2-elf/4.7.3/../../../../../H-i686-mingw32/nios2-elf/lib\libc.a(lib_a-memchr.o)
 .debug_info    0x000209d3      0x146 c:/altera/13.1/nios2eds/bin/gnu/h-i686-mingw32/bin/../lib/gcc/nios2-elf/4.7.3/../../../../../H-i686-mingw32/nios2-elf/lib\libc.a(lib_a-memmove.o)
 .debug_info    0x00020b19     0x172a c:/altera/13.1/nios2eds/bin/gnu/h-i686-mingw32/bin/../lib/gcc/nios2-elf/4.7.3/../../../../../H-i686-mingw32/nios2-elf/lib\libc.a(lib_a-mprec.o)
 .debug_info    0x00022243      0xd8e c:/altera/13.1/nios2eds/bin/gnu/h-i686-mingw32/bin/../lib/gcc/nios2-elf/4.7.3/../../../../../H-i686-mingw32/nios2-elf/lib\libc.a(lib_a-reallocr.o)
 .debug_info    0x00022fd1       0xe8 c:/altera/13.1/nios2eds/bin/gnu/h-i686-mingw32/bin/../lib/gcc/nios2-elf/4.7.3/../../../../../H-i686-mingw32/nios2-elf/lib\libc.a(lib_a-s_isinfd.o)
 .debug_info    0x000230b9       0xe8 c:/altera/13.1/nios2eds/bin/gnu/h-i686-mingw32/bin/../lib/gcc/nios2-elf/4.7.3/../../../../../H-i686-mingw32/nios2-elf/lib\libc.a(lib_a-s_isnand.o)
 .debug_info    0x000231a1      0x9a3 c:/altera/13.1/nios2eds/bin/gnu/h-i686-mingw32/bin/../lib/gcc/nios2-elf/4.7.3/../../../../../H-i686-mingw32/nios2-elf/lib\libc.a(lib_a-sbrkr.o)
 .debug_info    0x00023b44      0xbfd c:/altera/13.1/nios2eds/bin/gnu/h-i686-mingw32/bin/../lib/gcc/nios2-elf/4.7.3/../../../../../H-i686-mingw32/nios2-elf/lib\libc.a(lib_a-stdio.o)
 .debug_info    0x00024741      0x9d2 c:/altera/13.1/nios2eds/bin/gnu/h-i686-mingw32/bin/../lib/gcc/nios2-elf/4.7.3/../../../../../H-i686-mingw32/nios2-elf/lib\libc.a(lib_a-writer.o)
 .debug_info    0x00025113      0xa9b c:/altera/13.1/nios2eds/bin/gnu/h-i686-mingw32/bin/../lib/gcc/nios2-elf/4.7.3/../../../../../H-i686-mingw32/nios2-elf/lib\libc.a(lib_a-callocr.o)
 .debug_info    0x00025bae      0x97f c:/altera/13.1/nios2eds/bin/gnu/h-i686-mingw32/bin/../lib/gcc/nios2-elf/4.7.3/../../../../../H-i686-mingw32/nios2-elf/lib\libc.a(lib_a-closer.o)
 .debug_info    0x0002652d      0xa97 c:/altera/13.1/nios2eds/bin/gnu/h-i686-mingw32/bin/../lib/gcc/nios2-elf/4.7.3/../../../../../H-i686-mingw32/nios2-elf/lib\libc.a(lib_a-fclose.o)
 .debug_info    0x00026fc4      0xb2f c:/altera/13.1/nios2eds/bin/gnu/h-i686-mingw32/bin/../lib/gcc/nios2-elf/4.7.3/../../../../../H-i686-mingw32/nios2-elf/lib\libc.a(lib_a-fstatr.o)
 .debug_info    0x00027af3       0x84 c:/altera/13.1/nios2eds/bin/gnu/h-i686-mingw32/bin/../lib/gcc/nios2-elf/4.7.3/../../../../../H-i686-mingw32/nios2-elf/lib\libc.a(lib_a-int_errno.o)
 .debug_info    0x00027b77      0x97f c:/altera/13.1/nios2eds/bin/gnu/h-i686-mingw32/bin/../lib/gcc/nios2-elf/4.7.3/../../../../../H-i686-mingw32/nios2-elf/lib\libc.a(lib_a-isattyr.o)
 .debug_info    0x000284f6      0x9cb c:/altera/13.1/nios2eds/bin/gnu/h-i686-mingw32/bin/../lib/gcc/nios2-elf/4.7.3/../../../../../H-i686-mingw32/nios2-elf/lib\libc.a(lib_a-lseekr.o)
 .debug_info    0x00028ec1      0x9cb c:/altera/13.1/nios2eds/bin/gnu/h-i686-mingw32/bin/../lib/gcc/nios2-elf/4.7.3/../../../../../H-i686-mingw32/nios2-elf/lib\libc.a(lib_a-readr.o)
 .debug_info    0x0002988c      0x718 c:/altera/13.1/nios2eds/bin/gnu/h-i686-mingw32/bin/../lib/gcc/nios2-elf/4.7.3\libgcc.a(_udivdi3.o)
 .debug_info    0x00029fa4      0x771 c:/altera/13.1/nios2eds/bin/gnu/h-i686-mingw32/bin/../lib/gcc/nios2-elf/4.7.3\libgcc.a(_umoddi3.o)
 .debug_info    0x0002a715      0x588 c:/altera/13.1/nios2eds/bin/gnu/h-i686-mingw32/bin/../lib/gcc/nios2-elf/4.7.3\libgcc.a(_addsub_df.o)
 .debug_info    0x0002ac9d      0x519 c:/altera/13.1/nios2eds/bin/gnu/h-i686-mingw32/bin/../lib/gcc/nios2-elf/4.7.3\libgcc.a(_mul_df.o)
 .debug_info    0x0002b1b6      0x443 c:/altera/13.1/nios2eds/bin/gnu/h-i686-mingw32/bin/../lib/gcc/nios2-elf/4.7.3\libgcc.a(_div_df.o)
 .debug_info    0x0002b5f9      0x320 c:/altera/13.1/nios2eds/bin/gnu/h-i686-mingw32/bin/../lib/gcc/nios2-elf/4.7.3\libgcc.a(_eq_df.o)
 .debug_info    0x0002b919      0x320 c:/altera/13.1/nios2eds/bin/gnu/h-i686-mingw32/bin/../lib/gcc/nios2-elf/4.7.3\libgcc.a(_ne_df.o)
 .debug_info    0x0002bc39      0x320 c:/altera/13.1/nios2eds/bin/gnu/h-i686-mingw32/bin/../lib/gcc/nios2-elf/4.7.3\libgcc.a(_gt_df.o)
 .debug_info    0x0002bf59      0x320 c:/altera/13.1/nios2eds/bin/gnu/h-i686-mingw32/bin/../lib/gcc/nios2-elf/4.7.3\libgcc.a(_ge_df.o)
 .debug_info    0x0002c279      0x320 c:/altera/13.1/nios2eds/bin/gnu/h-i686-mingw32/bin/../lib/gcc/nios2-elf/4.7.3\libgcc.a(_lt_df.o)
 .debug_info    0x0002c599      0x261 c:/altera/13.1/nios2eds/bin/gnu/h-i686-mingw32/bin/../lib/gcc/nios2-elf/4.7.3\libgcc.a(_si_to_df.o)
 .debug_info    0x0002c7fa      0x30b c:/altera/13.1/nios2eds/bin/gnu/h-i686-mingw32/bin/../lib/gcc/nios2-elf/4.7.3\libgcc.a(_df_to_si.o)
 .debug_info    0x0002cb05      0x155 c:/altera/13.1/nios2eds/bin/gnu/h-i686-mingw32/bin/../lib/gcc/nios2-elf/4.7.3\libgcc.a(_thenan_df.o)
 .debug_info    0x0002cc5a      0x284 c:/altera/13.1/nios2eds/bin/gnu/h-i686-mingw32/bin/../lib/gcc/nios2-elf/4.7.3\libgcc.a(_usi_to_df.o)
 .debug_info    0x0002cede      0x289 c:/altera/13.1/nios2eds/bin/gnu/h-i686-mingw32/bin/../lib/gcc/nios2-elf/4.7.3\libgcc.a(lib2-divmod.o)
 .debug_info    0x0002d167      0x1ea c:/altera/13.1/nios2eds/bin/gnu/h-i686-mingw32/bin/../lib/gcc/nios2-elf/4.7.3\libgcc.a(_muldi3.o)
 .debug_info    0x0002d351       0xac c:/altera/13.1/nios2eds/bin/gnu/h-i686-mingw32/bin/../lib/gcc/nios2-elf/4.7.3\libgcc.a(_clz.o)
 .debug_info    0x0002d3fd      0x123 c:/altera/13.1/nios2eds/bin/gnu/h-i686-mingw32/bin/../lib/gcc/nios2-elf/4.7.3\libgcc.a(_clzsi2.o)
 .debug_info    0x0002d520      0x2f7 c:/altera/13.1/nios2eds/bin/gnu/h-i686-mingw32/bin/../lib/gcc/nios2-elf/4.7.3\libgcc.a(_pack_df.o)
 .debug_info    0x0002d817      0x265 c:/altera/13.1/nios2eds/bin/gnu/h-i686-mingw32/bin/../lib/gcc/nios2-elf/4.7.3\libgcc.a(_unpack_df.o)
 .debug_info    0x0002da7c      0x226 c:/altera/13.1/nios2eds/bin/gnu/h-i686-mingw32/bin/../lib/gcc/nios2-elf/4.7.3\libgcc.a(_fpcmp_parts_df.o)
 .debug_info    0x0002dca2      0x185 c:/altera/13.1/nios2eds/bin/gnu/h-i686-mingw32/bin/../lib/gcc/nios2-elf/4.7.3\libgcc.a(_lshrdi3.o)
 .debug_info    0x0002de27      0x185 c:/altera/13.1/nios2eds/bin/gnu/h-i686-mingw32/bin/../lib/gcc/nios2-elf/4.7.3\libgcc.a(_ashldi3.o)
 .debug_info    0x0002dfac      0x301 ../lwIP_NIOS_II_Example_bsp/\libhal_bsp.a(alt_alarm_start.o)
 .debug_info    0x0002e2ad      0x350 ../lwIP_NIOS_II_Example_bsp/\libhal_bsp.a(alt_close.o)
 .debug_info    0x0002e5fd      0x4e3 ../lwIP_NIOS_II_Example_bsp/\libhal_bsp.a(alt_dev.o)
 .debug_info    0x0002eae0       0xa3 ../lwIP_NIOS_II_Example_bsp/\libhal_bsp.a(alt_errno.o)
 .debug_info    0x0002eb83      0x4d8 ../lwIP_NIOS_II_Example_bsp/\libhal_bsp.a(alt_fstat.o)
 .debug_info    0x0002f05b      0x4db ../lwIP_NIOS_II_Example_bsp/\libhal_bsp.a(alt_isatty.o)
 .debug_info    0x0002f536      0x135 ../lwIP_NIOS_II_Example_bsp/\libhal_bsp.a(alt_load.o)
 .debug_info    0x0002f66b      0x381 ../lwIP_NIOS_II_Example_bsp/\libhal_bsp.a(alt_lseek.o)
 .debug_info    0x0002f9ec      0x139 ../lwIP_NIOS_II_Example_bsp/\libhal_bsp.a(alt_main.o)
 .debug_info    0x0002fb25      0x950 ../lwIP_NIOS_II_Example_bsp/\libhal_bsp.a(alt_malloc_lock.o)
 .debug_info    0x00030475      0x500 ../lwIP_NIOS_II_Example_bsp/\libhal_bsp.a(alt_read.o)
 .debug_info    0x00030975      0x2dd ../lwIP_NIOS_II_Example_bsp/\libhal_bsp.a(alt_release_fd.o)
 .debug_info    0x00030c52       0xc9 ../lwIP_NIOS_II_Example_bsp/\libhal_bsp.a(alt_remap_uncached.o)
 .debug_info    0x00030d1b      0x1e1 ../lwIP_NIOS_II_Example_bsp/\libhal_bsp.a(alt_sbrk.o)
 .debug_info    0x00030efc      0x2ce ../lwIP_NIOS_II_Example_bsp/\libhal_bsp.a(alt_tick.o)
 .debug_info    0x000311ca       0xd4 ../lwIP_NIOS_II_Example_bsp/\libhal_bsp.a(alt_uncached_malloc.o)
 .debug_info    0x0003129e       0xad ../lwIP_NIOS_II_Example_bsp/\libhal_bsp.a(alt_usleep.o)
 .debug_info    0x0003134b      0x507 ../lwIP_NIOS_II_Example_bsp/\libhal_bsp.a(alt_write.o)
 .debug_info    0x00031852      0xdf3 ../lwIP_NIOS_II_Example_bsp/\libhal_bsp.a(alt_sys_init.o)
 .debug_info    0x00032645      0x852 ../lwIP_NIOS_II_Example_bsp/\libhal_bsp.a(altera_avalon_cfi_flash.o)
 .debug_info    0x00032e97      0x9e5 ../lwIP_NIOS_II_Example_bsp/\libhal_bsp.a(altera_avalon_cfi_flash_table.o)
 .debug_info    0x0003387c      0x58a ../lwIP_NIOS_II_Example_bsp/\libhal_bsp.a(altera_avalon_jtag_uart_fd.o)
 .debug_info    0x00033e06      0x3d8 ../lwIP_NIOS_II_Example_bsp/\libhal_bsp.a(altera_avalon_jtag_uart_init.o)
 .debug_info    0x000341de      0x2a9 ../lwIP_NIOS_II_Example_bsp/\libhal_bsp.a(altera_avalon_jtag_uart_ioctl.o)
 .debug_info    0x00034487      0x38e ../lwIP_NIOS_II_Example_bsp/\libhal_bsp.a(altera_avalon_jtag_uart_read.o)
 .debug_info    0x00034815      0x389 ../lwIP_NIOS_II_Example_bsp/\libhal_bsp.a(altera_avalon_jtag_uart_write.o)
 .debug_info    0x00034b9e      0x714 ../lwIP_NIOS_II_Example_bsp/\libhal_bsp.a(altera_avalon_lcd_16207.o)
 .debug_info    0x000352b2      0x525 ../lwIP_NIOS_II_Example_bsp/\libhal_bsp.a(altera_avalon_lcd_16207_fd.o)
 .debug_info    0x000357d7      0xb3d ../lwIP_NIOS_II_Example_bsp/\libhal_bsp.a(altera_avalon_sgdma.o)
 .debug_info    0x00036314      0x252 ../lwIP_NIOS_II_Example_bsp/\libhal_bsp.a(altera_avalon_timer_sc.o)
 .debug_info    0x00036566     0x2642 ../lwIP_NIOS_II_Example_bsp/\libhal_bsp.a(altera_avalon_tse.o)
 .debug_info    0x00038ba8      0x97c ../lwIP_NIOS_II_Example_bsp/\libhal_bsp.a(altera_avalon_tse_system_info.o)
 .debug_info    0x00039524      0x481 ../lwIP_NIOS_II_Example_bsp/\libhal_bsp.a(altera_avalon_uart_fd.o)
 .debug_info    0x000399a5      0x356 ../lwIP_NIOS_II_Example_bsp/\libhal_bsp.a(altera_avalon_uart_init.o)
 .debug_info    0x00039cfb      0x36f ../lwIP_NIOS_II_Example_bsp/\libhal_bsp.a(altera_avalon_uart_read.o)
 .debug_info    0x0003a06a      0x365 ../lwIP_NIOS_II_Example_bsp/\libhal_bsp.a(altera_avalon_uart_write.o)
 .debug_info    0x0003a3cf       0x8f ../lwIP_NIOS_II_Example_bsp/\libhal_bsp.a(altera_vic_0_vector_tbl.o)
 .debug_info    0x0003a45e       0x98 ../lwIP_NIOS_II_Example_bsp/\libhal_bsp.a(altera_vic_funnel_non_preemptive.o)
 .debug_info    0x0003a4f6      0x1a9 ../lwIP_NIOS_II_Example_bsp/\libhal_bsp.a(altera_vic_irq_init.o)
 .debug_info    0x0003a69f      0x297 ../lwIP_NIOS_II_Example_bsp/\libhal_bsp.a(altera_vic_isr_register.o)
 .debug_info    0x0003a936       0xd5 ../lwIP_NIOS_II_Example_bsp/\libhal_bsp.a(alt_busy_sleep.o)
 .debug_info    0x0003aa0b       0xba ../lwIP_NIOS_II_Example_bsp/\libhal_bsp.a(alt_dcache_flush.o)
 .debug_info    0x0003aac5       0x90 ../lwIP_NIOS_II_Example_bsp/\libhal_bsp.a(alt_dcache_flush_all.o)
 .debug_info    0x0003ab55      0x1b9 ../lwIP_NIOS_II_Example_bsp/\libhal_bsp.a(alt_dev_llist_insert.o)
 .debug_info    0x0003ad0e       0x8d ../lwIP_NIOS_II_Example_bsp/\libhal_bsp.a(alt_do_ctors.o)
 .debug_info    0x0003ad9b       0x8d ../lwIP_NIOS_II_Example_bsp/\libhal_bsp.a(alt_do_dtors.o)
 .debug_info    0x0003ae28      0x30d ../lwIP_NIOS_II_Example_bsp/\libhal_bsp.a(alt_find_dev.o)
 .debug_info    0x0003b135      0x3ce ../lwIP_NIOS_II_Example_bsp/\libhal_bsp.a(alt_flash_dev.o)
 .debug_info    0x0003b503       0x90 ../lwIP_NIOS_II_Example_bsp/\libhal_bsp.a(alt_icache_flush_all.o)
 .debug_info    0x0003b593      0x4f0 ../lwIP_NIOS_II_Example_bsp/\libhal_bsp.a(alt_io_redirect.o)
 .debug_info    0x0003ba83      0x3f0 ../lwIP_NIOS_II_Example_bsp/\libhal_bsp.a(alt_open.o)
 .debug_info    0x0003be73      0x65f ../lwIP_NIOS_II_Example_bsp/\libhal_bsp.a(altera_avalon_cfi_flash_amd.o)
 .debug_info    0x0003c4d2      0x65f ../lwIP_NIOS_II_Example_bsp/\libhal_bsp.a(altera_avalon_cfi_flash_intel.o)
 .debug_info    0x0003cb31      0x30c ../lwIP_NIOS_II_Example_bsp/\libhal_bsp.a(alt_find_file.o)
 .debug_info    0x0003ce3d      0x339 ../lwIP_NIOS_II_Example_bsp/\libhal_bsp.a(alt_get_fd.o)
 .debug_info    0x0003d176       0xda ../lwIP_NIOS_II_Example_bsp/\libhal_bsp.a(alt_icache_flush.o)
 .debug_info    0x0003d250      0x1e6 c:/altera/13.1/nios2eds/bin/gnu/h-i686-mingw32/bin/../lib/gcc/nios2-elf/4.7.3/../../../../../H-i686-mingw32/nios2-elf/lib\libc.a(lib_a-atexit.o)
 .debug_info    0x0003d436       0x98 c:/altera/13.1/nios2eds/bin/gnu/h-i686-mingw32/bin/../lib/gcc/nios2-elf/4.7.3/../../../../../H-i686-mingw32/nios2-elf/lib\libc.a(lib_a-ctype_.o)
 .debug_info    0x0003d4ce      0x993 c:/altera/13.1/nios2eds/bin/gnu/h-i686-mingw32/bin/../lib/gcc/nios2-elf/4.7.3/../../../../../H-i686-mingw32/nios2-elf/lib\libc.a(lib_a-exit.o)
 .debug_info    0x0003de61      0x9c9 c:/altera/13.1/nios2eds/bin/gnu/h-i686-mingw32/bin/../lib/gcc/nios2-elf/4.7.3/../../../../../H-i686-mingw32/nios2-elf/lib\libc.a(lib_a-malloc.o)
 .debug_info    0x0003e82a      0x117 c:/altera/13.1/nios2eds/bin/gnu/h-i686-mingw32/bin/../lib/gcc/nios2-elf/4.7.3/../../../../../H-i686-mingw32/nios2-elf/lib\libc.a(lib_a-memcmp.o)
 .debug_info    0x0003e941      0x114 c:/altera/13.1/nios2eds/bin/gnu/h-i686-mingw32/bin/../lib/gcc/nios2-elf/4.7.3/../../../../../H-i686-mingw32/nios2-elf/lib\libc.a(lib_a-strcpy.o)
 .debug_info    0x0003ea55      0x9f9 c:/altera/13.1/nios2eds/bin/gnu/h-i686-mingw32/bin/../lib/gcc/nios2-elf/4.7.3/../../../../../H-i686-mingw32/nios2-elf/lib\libc.a(lib_a-__atexit.o)
 .debug_info    0x0003f44e      0xa07 c:/altera/13.1/nios2eds/bin/gnu/h-i686-mingw32/bin/../lib/gcc/nios2-elf/4.7.3/../../../../../H-i686-mingw32/nios2-elf/lib\libc.a(lib_a-__call_atexit.o)
 .debug_info    0x0003fe55       0xec ../lwIP_NIOS_II_Example_bsp/\libhal_bsp.a(alt_exit.o)

.debug_abbrev   0x00000000     0xddad
 *(.debug_abbrev)
 .debug_abbrev  0x00000000       0x12 ../lwIP_NIOS_II_Example_bsp//obj/HAL/src/crt0.o
 .debug_abbrev  0x00000012      0x1f8 obj/default/alteraTseEthernetif.o
 .debug_abbrev  0x0000020a      0x1f8 obj/default/driver/alteraTseEthernetif.o
 .debug_abbrev  0x00000402       0xdc obj/default/driver/fs.o
 .debug_abbrev  0x000004de      0x165 obj/default/driver/httpd.o
 .debug_abbrev  0x00000643      0x215 obj/default/driver/lwip_tse_mac.o
 .debug_abbrev  0x00000858       0xdc obj/default/fs.o
 .debug_abbrev  0x00000934      0x165 obj/default/httpd.o
 .debug_abbrev  0x00000a99      0x215 obj/default/lwip_tse_mac.o
 .debug_abbrev  0x00000cae      0x23c obj/default/main.o
 .debug_abbrev  0x00000eea       0x26 obj/default/src/api/api_lib.o
 .debug_abbrev  0x00000f10       0x26 obj/default/src/api/api_msg.o
 .debug_abbrev  0x00000f36       0x26 obj/default/src/api/err.o
 .debug_abbrev  0x00000f5c       0x26 obj/default/src/api/netbuf.o
 .debug_abbrev  0x00000f82       0x26 obj/default/src/api/netdb.o
 .debug_abbrev  0x00000fa8       0x26 obj/default/src/api/netifapi.o
 .debug_abbrev  0x00000fce       0x26 obj/default/src/api/sockets.o
 .debug_abbrev  0x00000ff4       0x26 obj/default/src/api/tcpip.o
 .debug_abbrev  0x0000101a      0x21a obj/default/src/core/dhcp.o
 .debug_abbrev  0x00001234       0x26 obj/default/src/core/dns.o
 .debug_abbrev  0x0000125a       0x42 obj/default/src/core/init.o
 .debug_abbrev  0x0000129c       0x26 obj/default/src/core/ipv4/autoip.o
 .debug_abbrev  0x000012c2      0x1c5 obj/default/src/core/ipv4/icmp.o
 .debug_abbrev  0x00001487       0x26 obj/default/src/core/ipv4/igmp.o
 .debug_abbrev  0x000014ad       0xeb obj/default/src/core/ipv4/inet.o
 .debug_abbrev  0x00001598      0x13c obj/default/src/core/ipv4/inet_chksum.o
 .debug_abbrev  0x000016d4      0x199 obj/default/src/core/ipv4/ip.o
 .debug_abbrev  0x0000186d       0xf3 obj/default/src/core/ipv4/ip_addr.o
 .debug_abbrev  0x00001960      0x1ff obj/default/src/core/ipv4/ip_frag.o
 .debug_abbrev  0x00001b5f      0x19f obj/default/src/core/mem.o
 .debug_abbrev  0x00001cfe      0x167 obj/default/src/core/memp.o
 .debug_abbrev  0x00001e65      0x25d obj/default/src/core/netif.o
 .debug_abbrev  0x000020c2      0x1a3 obj/default/src/core/pbuf.o
 .debug_abbrev  0x00002265      0x1b7 obj/default/src/core/raw.o
 .debug_abbrev  0x0000241c       0x26 obj/default/src/core/snmp/asn1_dec.o
 .debug_abbrev  0x00002442       0x26 obj/default/src/core/snmp/asn1_enc.o
 .debug_abbrev  0x00002468       0x26 obj/default/src/core/snmp/mib2.o
 .debug_abbrev  0x0000248e       0x26 obj/default/src/core/snmp/mib_structs.o
 .debug_abbrev  0x000024b4       0x26 obj/default/src/core/snmp/msg_in.o
 .debug_abbrev  0x000024da       0x26 obj/default/src/core/snmp/msg_out.o
 .debug_abbrev  0x00002500       0xa8 obj/default/src/core/stats.o
 .debug_abbrev  0x000025a8       0x26 obj/default/src/core/sys.o
 .debug_abbrev  0x000025ce      0x2e4 obj/default/src/core/tcp.o
 .debug_abbrev  0x000028b2      0x23b obj/default/src/core/tcp_in.o
 .debug_abbrev  0x00002aed      0x25e obj/default/src/core/tcp_out.o
 .debug_abbrev  0x00002d4b      0x1e7 obj/default/src/core/udp.o
 .debug_abbrev  0x00002f32      0x21b obj/default/src/netif/etharp.o
 .debug_abbrev  0x0000314d       0x26 obj/default/src/netif/ethernetif.o
 .debug_abbrev  0x00003173       0x26 obj/default/src/netif/loopif.o
 .debug_abbrev  0x00003199       0x26 obj/default/src/netif/ppp/auth.o
 .debug_abbrev  0x000031bf       0x26 obj/default/src/netif/ppp/chap.o
 .debug_abbrev  0x000031e5       0x26 obj/default/src/netif/ppp/chpms.o
 .debug_abbrev  0x0000320b       0x26 obj/default/src/netif/ppp/fsm.o
 .debug_abbrev  0x00003231       0x26 obj/default/src/netif/ppp/ipcp.o
 .debug_abbrev  0x00003257       0x26 obj/default/src/netif/ppp/lcp.o
 .debug_abbrev  0x0000327d       0x26 obj/default/src/netif/ppp/magic.o
 .debug_abbrev  0x000032a3       0x26 obj/default/src/netif/ppp/md5.o
 .debug_abbrev  0x000032c9       0x26 obj/default/src/netif/ppp/pap.o
 .debug_abbrev  0x000032ef       0x26 obj/default/src/netif/ppp/ppp.o
 .debug_abbrev  0x00003315       0x26 obj/default/src/netif/ppp/ppp_oe.o
 .debug_abbrev  0x0000333b       0x26 obj/default/src/netif/ppp/randm.o
 .debug_abbrev  0x00003361       0x26 obj/default/src/netif/ppp/vj.o
 .debug_abbrev  0x00003387       0x26 obj/default/src/netif/slipif.o
 .debug_abbrev  0x000033ad      0x162 c:/altera/13.1/nios2eds/bin/gnu/h-i686-mingw32/bin/../lib/gcc/nios2-elf/4.7.3/../../../../../H-i686-mingw32/nios2-elf/lib\libc.a(lib_a-impure.o)
 .debug_abbrev  0x0000350f       0x9c c:/altera/13.1/nios2eds/bin/gnu/h-i686-mingw32/bin/../lib/gcc/nios2-elf/4.7.3/../../../../../H-i686-mingw32/nios2-elf/lib\libc.a(lib_a-memcpy.o)
 .debug_abbrev  0x000035ab       0xac c:/altera/13.1/nios2eds/bin/gnu/h-i686-mingw32/bin/../lib/gcc/nios2-elf/4.7.3/../../../../../H-i686-mingw32/nios2-elf/lib\libc.a(lib_a-memset.o)
 .debug_abbrev  0x00003657      0x209 c:/altera/13.1/nios2eds/bin/gnu/h-i686-mingw32/bin/../lib/gcc/nios2-elf/4.7.3/../../../../../H-i686-mingw32/nios2-elf/lib\libc.a(lib_a-printf.o)
 .debug_abbrev  0x00003860      0x1f8 c:/altera/13.1/nios2eds/bin/gnu/h-i686-mingw32/bin/../lib/gcc/nios2-elf/4.7.3/../../../../../H-i686-mingw32/nios2-elf/lib\libc.a(lib_a-putc.o)
 .debug_abbrev  0x00003a58      0x208 c:/altera/13.1/nios2eds/bin/gnu/h-i686-mingw32/bin/../lib/gcc/nios2-elf/4.7.3/../../../../../H-i686-mingw32/nios2-elf/lib\libc.a(lib_a-puts.o)
 .debug_abbrev  0x00003c60       0x74 c:/altera/13.1/nios2eds/bin/gnu/h-i686-mingw32/bin/../lib/gcc/nios2-elf/4.7.3/../../../../../H-i686-mingw32/nios2-elf/lib\libc.a(lib_a-strcmp.o)
 .debug_abbrev  0x00003cd4       0x90 c:/altera/13.1/nios2eds/bin/gnu/h-i686-mingw32/bin/../lib/gcc/nios2-elf/4.7.3/../../../../../H-i686-mingw32/nios2-elf/lib\libc.a(lib_a-strlen.o)
 .debug_abbrev  0x00003d64       0x81 c:/altera/13.1/nios2eds/bin/gnu/h-i686-mingw32/bin/../lib/gcc/nios2-elf/4.7.3/../../../../../H-i686-mingw32/nios2-elf/lib\libc.a(lib_a-strncmp.o)
 .debug_abbrev  0x00003de5      0x3d9 c:/altera/13.1/nios2eds/bin/gnu/h-i686-mingw32/bin/../lib/gcc/nios2-elf/4.7.3/../../../../../H-i686-mingw32/nios2-elf/lib\libc.a(lib_a-vfprintf.o)
 .debug_abbrev  0x000041be      0x21a c:/altera/13.1/nios2eds/bin/gnu/h-i686-mingw32/bin/../lib/gcc/nios2-elf/4.7.3/../../../../../H-i686-mingw32/nios2-elf/lib\libc.a(lib_a-wbuf.o)
 .debug_abbrev  0x000043d8      0x1d5 c:/altera/13.1/nios2eds/bin/gnu/h-i686-mingw32/bin/../lib/gcc/nios2-elf/4.7.3/../../../../../H-i686-mingw32/nios2-elf/lib\libc.a(lib_a-wsetup.o)
 .debug_abbrev  0x000045ad      0x2ab c:/altera/13.1/nios2eds/bin/gnu/h-i686-mingw32/bin/../lib/gcc/nios2-elf/4.7.3/../../../../../H-i686-mingw32/nios2-elf/lib\libc.a(lib_a-dtoa.o)
 .debug_abbrev  0x00004858      0x259 c:/altera/13.1/nios2eds/bin/gnu/h-i686-mingw32/bin/../lib/gcc/nios2-elf/4.7.3/../../../../../H-i686-mingw32/nios2-elf/lib\libc.a(lib_a-fflush.o)
 .debug_abbrev  0x00004ab1      0x317 c:/altera/13.1/nios2eds/bin/gnu/h-i686-mingw32/bin/../lib/gcc/nios2-elf/4.7.3/../../../../../H-i686-mingw32/nios2-elf/lib\libc.a(lib_a-findfp.o)
 .debug_abbrev  0x00004dc8      0x25d c:/altera/13.1/nios2eds/bin/gnu/h-i686-mingw32/bin/../lib/gcc/nios2-elf/4.7.3/../../../../../H-i686-mingw32/nios2-elf/lib\libc.a(lib_a-freer.o)
 .debug_abbrev  0x00005025      0x234 c:/altera/13.1/nios2eds/bin/gnu/h-i686-mingw32/bin/../lib/gcc/nios2-elf/4.7.3/../../../../../H-i686-mingw32/nios2-elf/lib\libc.a(lib_a-fvwrite.o)
 .debug_abbrev  0x00005259      0x224 c:/altera/13.1/nios2eds/bin/gnu/h-i686-mingw32/bin/../lib/gcc/nios2-elf/4.7.3/../../../../../H-i686-mingw32/nios2-elf/lib\libc.a(lib_a-fwalk.o)
 .debug_abbrev  0x0000547d      0x29f c:/altera/13.1/nios2eds/bin/gnu/h-i686-mingw32/bin/../lib/gcc/nios2-elf/4.7.3/../../../../../H-i686-mingw32/nios2-elf/lib\libc.a(lib_a-locale.o)
 .debug_abbrev  0x0000571c      0x1e8 c:/altera/13.1/nios2eds/bin/gnu/h-i686-mingw32/bin/../lib/gcc/nios2-elf/4.7.3/../../../../../H-i686-mingw32/nios2-elf/lib\libc.a(lib_a-makebuf.o)
 .debug_abbrev  0x00005904      0x284 c:/altera/13.1/nios2eds/bin/gnu/h-i686-mingw32/bin/../lib/gcc/nios2-elf/4.7.3/../../../../../H-i686-mingw32/nios2-elf/lib\libc.a(lib_a-mallocr.o)
 .debug_abbrev  0x00005b88       0xab c:/altera/13.1/nios2eds/bin/gnu/h-i686-mingw32/bin/../lib/gcc/nios2-elf/4.7.3/../../../../../H-i686-mingw32/nios2-elf/lib\libc.a(lib_a-memchr.o)
 .debug_abbrev  0x00005c33       0x9c c:/altera/13.1/nios2eds/bin/gnu/h-i686-mingw32/bin/../lib/gcc/nios2-elf/4.7.3/../../../../../H-i686-mingw32/nios2-elf/lib\libc.a(lib_a-memmove.o)
 .debug_abbrev  0x00005ccf      0x394 c:/altera/13.1/nios2eds/bin/gnu/h-i686-mingw32/bin/../lib/gcc/nios2-elf/4.7.3/../../../../../H-i686-mingw32/nios2-elf/lib\libc.a(lib_a-mprec.o)
 .debug_abbrev  0x00006063      0x242 c:/altera/13.1/nios2eds/bin/gnu/h-i686-mingw32/bin/../lib/gcc/nios2-elf/4.7.3/../../../../../H-i686-mingw32/nios2-elf/lib\libc.a(lib_a-reallocr.o)
 .debug_abbrev  0x000062a5       0x6f c:/altera/13.1/nios2eds/bin/gnu/h-i686-mingw32/bin/../lib/gcc/nios2-elf/4.7.3/../../../../../H-i686-mingw32/nios2-elf/lib\libc.a(lib_a-s_isinfd.o)
 .debug_abbrev  0x00006314       0x6f c:/altera/13.1/nios2eds/bin/gnu/h-i686-mingw32/bin/../lib/gcc/nios2-elf/4.7.3/../../../../../H-i686-mingw32/nios2-elf/lib\libc.a(lib_a-s_isnand.o)
 .debug_abbrev  0x00006383      0x1df c:/altera/13.1/nios2eds/bin/gnu/h-i686-mingw32/bin/../lib/gcc/nios2-elf/4.7.3/../../../../../H-i686-mingw32/nios2-elf/lib\libc.a(lib_a-sbrkr.o)
 .debug_abbrev  0x00006562      0x226 c:/altera/13.1/nios2eds/bin/gnu/h-i686-mingw32/bin/../lib/gcc/nios2-elf/4.7.3/../../../../../H-i686-mingw32/nios2-elf/lib\libc.a(lib_a-stdio.o)
 .debug_abbrev  0x00006788      0x1c0 c:/altera/13.1/nios2eds/bin/gnu/h-i686-mingw32/bin/../lib/gcc/nios2-elf/4.7.3/../../../../../H-i686-mingw32/nios2-elf/lib\libc.a(lib_a-writer.o)
 .debug_abbrev  0x00006948      0x1f5 c:/altera/13.1/nios2eds/bin/gnu/h-i686-mingw32/bin/../lib/gcc/nios2-elf/4.7.3/../../../../../H-i686-mingw32/nios2-elf/lib\libc.a(lib_a-callocr.o)
 .debug_abbrev  0x00006b3d      0x1bb c:/altera/13.1/nios2eds/bin/gnu/h-i686-mingw32/bin/../lib/gcc/nios2-elf/4.7.3/../../../../../H-i686-mingw32/nios2-elf/lib\libc.a(lib_a-closer.o)
 .debug_abbrev  0x00006cf8      0x24e c:/altera/13.1/nios2eds/bin/gnu/h-i686-mingw32/bin/../lib/gcc/nios2-elf/4.7.3/../../../../../H-i686-mingw32/nios2-elf/lib\libc.a(lib_a-fclose.o)
 .debug_abbrev  0x00006f46      0x1ca c:/altera/13.1/nios2eds/bin/gnu/h-i686-mingw32/bin/../lib/gcc/nios2-elf/4.7.3/../../../../../H-i686-mingw32/nios2-elf/lib\libc.a(lib_a-fstatr.o)
 .debug_abbrev  0x00007110       0x37 c:/altera/13.1/nios2eds/bin/gnu/h-i686-mingw32/bin/../lib/gcc/nios2-elf/4.7.3/../../../../../H-i686-mingw32/nios2-elf/lib\libc.a(lib_a-int_errno.o)
 .debug_abbrev  0x00007147      0x1bb c:/altera/13.1/nios2eds/bin/gnu/h-i686-mingw32/bin/../lib/gcc/nios2-elf/4.7.3/../../../../../H-i686-mingw32/nios2-elf/lib\libc.a(lib_a-isattyr.o)
 .debug_abbrev  0x00007302      0x1ca c:/altera/13.1/nios2eds/bin/gnu/h-i686-mingw32/bin/../lib/gcc/nios2-elf/4.7.3/../../../../../H-i686-mingw32/nios2-elf/lib\libc.a(lib_a-lseekr.o)
 .debug_abbrev  0x000074cc      0x1bb c:/altera/13.1/nios2eds/bin/gnu/h-i686-mingw32/bin/../lib/gcc/nios2-elf/4.7.3/../../../../../H-i686-mingw32/nios2-elf/lib\libc.a(lib_a-readr.o)
 .debug_abbrev  0x00007687      0x170 c:/altera/13.1/nios2eds/bin/gnu/h-i686-mingw32/bin/../lib/gcc/nios2-elf/4.7.3\libgcc.a(_udivdi3.o)
 .debug_abbrev  0x000077f7      0x193 c:/altera/13.1/nios2eds/bin/gnu/h-i686-mingw32/bin/../lib/gcc/nios2-elf/4.7.3\libgcc.a(_umoddi3.o)
 .debug_abbrev  0x0000798a      0x22d c:/altera/13.1/nios2eds/bin/gnu/h-i686-mingw32/bin/../lib/gcc/nios2-elf/4.7.3\libgcc.a(_addsub_df.o)
 .debug_abbrev  0x00007bb7      0x240 c:/altera/13.1/nios2eds/bin/gnu/h-i686-mingw32/bin/../lib/gcc/nios2-elf/4.7.3\libgcc.a(_mul_df.o)
 .debug_abbrev  0x00007df7      0x245 c:/altera/13.1/nios2eds/bin/gnu/h-i686-mingw32/bin/../lib/gcc/nios2-elf/4.7.3\libgcc.a(_div_df.o)
 .debug_abbrev  0x0000803c      0x1a5 c:/altera/13.1/nios2eds/bin/gnu/h-i686-mingw32/bin/../lib/gcc/nios2-elf/4.7.3\libgcc.a(_eq_df.o)
 .debug_abbrev  0x000081e1      0x1a5 c:/altera/13.1/nios2eds/bin/gnu/h-i686-mingw32/bin/../lib/gcc/nios2-elf/4.7.3\libgcc.a(_ne_df.o)
 .debug_abbrev  0x00008386      0x1a5 c:/altera/13.1/nios2eds/bin/gnu/h-i686-mingw32/bin/../lib/gcc/nios2-elf/4.7.3\libgcc.a(_gt_df.o)
 .debug_abbrev  0x0000852b      0x1a5 c:/altera/13.1/nios2eds/bin/gnu/h-i686-mingw32/bin/../lib/gcc/nios2-elf/4.7.3\libgcc.a(_ge_df.o)
 .debug_abbrev  0x000086d0      0x1a5 c:/altera/13.1/nios2eds/bin/gnu/h-i686-mingw32/bin/../lib/gcc/nios2-elf/4.7.3\libgcc.a(_lt_df.o)
 .debug_abbrev  0x00008875      0x19c c:/altera/13.1/nios2eds/bin/gnu/h-i686-mingw32/bin/../lib/gcc/nios2-elf/4.7.3\libgcc.a(_si_to_df.o)
 .debug_abbrev  0x00008a11      0x1ae c:/altera/13.1/nios2eds/bin/gnu/h-i686-mingw32/bin/../lib/gcc/nios2-elf/4.7.3\libgcc.a(_df_to_si.o)
 .debug_abbrev  0x00008bbf       0xb6 c:/altera/13.1/nios2eds/bin/gnu/h-i686-mingw32/bin/../lib/gcc/nios2-elf/4.7.3\libgcc.a(_thenan_df.o)
 .debug_abbrev  0x00008c75      0x1bf c:/altera/13.1/nios2eds/bin/gnu/h-i686-mingw32/bin/../lib/gcc/nios2-elf/4.7.3\libgcc.a(_usi_to_df.o)
 .debug_abbrev  0x00008e34      0x112 c:/altera/13.1/nios2eds/bin/gnu/h-i686-mingw32/bin/../lib/gcc/nios2-elf/4.7.3\libgcc.a(lib2-divmod.o)
 .debug_abbrev  0x00008f46       0xe0 c:/altera/13.1/nios2eds/bin/gnu/h-i686-mingw32/bin/../lib/gcc/nios2-elf/4.7.3\libgcc.a(_muldi3.o)
 .debug_abbrev  0x00009026       0x5d c:/altera/13.1/nios2eds/bin/gnu/h-i686-mingw32/bin/../lib/gcc/nios2-elf/4.7.3\libgcc.a(_clz.o)
 .debug_abbrev  0x00009083       0xbe c:/altera/13.1/nios2eds/bin/gnu/h-i686-mingw32/bin/../lib/gcc/nios2-elf/4.7.3\libgcc.a(_clzsi2.o)
 .debug_abbrev  0x00009141      0x1b6 c:/altera/13.1/nios2eds/bin/gnu/h-i686-mingw32/bin/../lib/gcc/nios2-elf/4.7.3\libgcc.a(_pack_df.o)
 .debug_abbrev  0x000092f7      0x15d c:/altera/13.1/nios2eds/bin/gnu/h-i686-mingw32/bin/../lib/gcc/nios2-elf/4.7.3\libgcc.a(_unpack_df.o)
 .debug_abbrev  0x00009454      0x146 c:/altera/13.1/nios2eds/bin/gnu/h-i686-mingw32/bin/../lib/gcc/nios2-elf/4.7.3\libgcc.a(_fpcmp_parts_df.o)
 .debug_abbrev  0x0000959a       0xf1 c:/altera/13.1/nios2eds/bin/gnu/h-i686-mingw32/bin/../lib/gcc/nios2-elf/4.7.3\libgcc.a(_lshrdi3.o)
 .debug_abbrev  0x0000968b       0xf1 c:/altera/13.1/nios2eds/bin/gnu/h-i686-mingw32/bin/../lib/gcc/nios2-elf/4.7.3\libgcc.a(_ashldi3.o)
 .debug_abbrev  0x0000977c      0x162 ../lwIP_NIOS_II_Example_bsp/\libhal_bsp.a(alt_alarm_start.o)
 .debug_abbrev  0x000098de      0x11f ../lwIP_NIOS_II_Example_bsp/\libhal_bsp.a(alt_close.o)
 .debug_abbrev  0x000099fd       0xd9 ../lwIP_NIOS_II_Example_bsp/\libhal_bsp.a(alt_dev.o)
 .debug_abbrev  0x00009ad6       0x5a ../lwIP_NIOS_II_Example_bsp/\libhal_bsp.a(alt_errno.o)
 .debug_abbrev  0x00009b30      0x11f ../lwIP_NIOS_II_Example_bsp/\libhal_bsp.a(alt_fstat.o)
 .debug_abbrev  0x00009c4f      0x11f ../lwIP_NIOS_II_Example_bsp/\libhal_bsp.a(alt_isatty.o)
 .debug_abbrev  0x00009d6e       0x9d ../lwIP_NIOS_II_Example_bsp/\libhal_bsp.a(alt_load.o)
 .debug_abbrev  0x00009e0b      0x11f ../lwIP_NIOS_II_Example_bsp/\libhal_bsp.a(alt_lseek.o)
 .debug_abbrev  0x00009f2a       0xba ../lwIP_NIOS_II_Example_bsp/\libhal_bsp.a(alt_main.o)
 .debug_abbrev  0x00009fe4      0x187 ../lwIP_NIOS_II_Example_bsp/\libhal_bsp.a(alt_malloc_lock.o)
 .debug_abbrev  0x0000a16b      0x12e ../lwIP_NIOS_II_Example_bsp/\libhal_bsp.a(alt_read.o)
 .debug_abbrev  0x0000a299       0xde ../lwIP_NIOS_II_Example_bsp/\libhal_bsp.a(alt_release_fd.o)
 .debug_abbrev  0x0000a377       0x77 ../lwIP_NIOS_II_Example_bsp/\libhal_bsp.a(alt_remap_uncached.o)
 .debug_abbrev  0x0000a3ee      0x112 ../lwIP_NIOS_II_Example_bsp/\libhal_bsp.a(alt_sbrk.o)
 .debug_abbrev  0x0000a500      0x15a ../lwIP_NIOS_II_Example_bsp/\libhal_bsp.a(alt_tick.o)
 .debug_abbrev  0x0000a65a       0x86 ../lwIP_NIOS_II_Example_bsp/\libhal_bsp.a(alt_uncached_malloc.o)
 .debug_abbrev  0x0000a6e0       0x60 ../lwIP_NIOS_II_Example_bsp/\libhal_bsp.a(alt_usleep.o)
 .debug_abbrev  0x0000a740      0x133 ../lwIP_NIOS_II_Example_bsp/\libhal_bsp.a(alt_write.o)
 .debug_abbrev  0x0000a873      0x197 ../lwIP_NIOS_II_Example_bsp/\libhal_bsp.a(alt_sys_init.o)
 .debug_abbrev  0x0000aa0a      0x1c9 ../lwIP_NIOS_II_Example_bsp/\libhal_bsp.a(altera_avalon_cfi_flash.o)
 .debug_abbrev  0x0000abd3      0x175 ../lwIP_NIOS_II_Example_bsp/\libhal_bsp.a(altera_avalon_cfi_flash_table.o)
 .debug_abbrev  0x0000ad48      0x118 ../lwIP_NIOS_II_Example_bsp/\libhal_bsp.a(altera_avalon_jtag_uart_fd.o)
 .debug_abbrev  0x0000ae60      0x18f ../lwIP_NIOS_II_Example_bsp/\libhal_bsp.a(altera_avalon_jtag_uart_init.o)
 .debug_abbrev  0x0000afef      0x102 ../lwIP_NIOS_II_Example_bsp/\libhal_bsp.a(altera_avalon_jtag_uart_ioctl.o)
 .debug_abbrev  0x0000b0f1      0x19b ../lwIP_NIOS_II_Example_bsp/\libhal_bsp.a(altera_avalon_jtag_uart_read.o)
 .debug_abbrev  0x0000b28c      0x199 ../lwIP_NIOS_II_Example_bsp/\libhal_bsp.a(altera_avalon_jtag_uart_write.o)
 .debug_abbrev  0x0000b425      0x20d ../lwIP_NIOS_II_Example_bsp/\libhal_bsp.a(altera_avalon_lcd_16207.o)
 .debug_abbrev  0x0000b632      0x125 ../lwIP_NIOS_II_Example_bsp/\libhal_bsp.a(altera_avalon_lcd_16207_fd.o)
 .debug_abbrev  0x0000b757      0x279 ../lwIP_NIOS_II_Example_bsp/\libhal_bsp.a(altera_avalon_sgdma.o)
 .debug_abbrev  0x0000b9d0      0x155 ../lwIP_NIOS_II_Example_bsp/\libhal_bsp.a(altera_avalon_timer_sc.o)
 .debug_abbrev  0x0000bb25      0x256 ../lwIP_NIOS_II_Example_bsp/\libhal_bsp.a(altera_avalon_tse.o)
 .debug_abbrev  0x0000bd7b       0xf0 ../lwIP_NIOS_II_Example_bsp/\libhal_bsp.a(altera_avalon_tse_system_info.o)
 .debug_abbrev  0x0000be6b      0x109 ../lwIP_NIOS_II_Example_bsp/\libhal_bsp.a(altera_avalon_uart_fd.o)
 .debug_abbrev  0x0000bf74      0x178 ../lwIP_NIOS_II_Example_bsp/\libhal_bsp.a(altera_avalon_uart_init.o)
 .debug_abbrev  0x0000c0ec      0x183 ../lwIP_NIOS_II_Example_bsp/\libhal_bsp.a(altera_avalon_uart_read.o)
 .debug_abbrev  0x0000c26f      0x18a ../lwIP_NIOS_II_Example_bsp/\libhal_bsp.a(altera_avalon_uart_write.o)
 .debug_abbrev  0x0000c3f9       0x14 ../lwIP_NIOS_II_Example_bsp/\libhal_bsp.a(altera_vic_0_vector_tbl.o)
 .debug_abbrev  0x0000c40d       0x14 ../lwIP_NIOS_II_Example_bsp/\libhal_bsp.a(altera_vic_funnel_non_preemptive.o)
 .debug_abbrev  0x0000c421       0xd4 ../lwIP_NIOS_II_Example_bsp/\libhal_bsp.a(altera_vic_irq_init.o)
 .debug_abbrev  0x0000c4f5      0x158 ../lwIP_NIOS_II_Example_bsp/\libhal_bsp.a(altera_vic_isr_register.o)
 .debug_abbrev  0x0000c64d       0x7e ../lwIP_NIOS_II_Example_bsp/\libhal_bsp.a(alt_busy_sleep.o)
 .debug_abbrev  0x0000c6cb       0x74 ../lwIP_NIOS_II_Example_bsp/\libhal_bsp.a(alt_dcache_flush.o)
 .debug_abbrev  0x0000c73f       0x42 ../lwIP_NIOS_II_Example_bsp/\libhal_bsp.a(alt_dcache_flush_all.o)
 .debug_abbrev  0x0000c781      0x114 ../lwIP_NIOS_II_Example_bsp/\libhal_bsp.a(alt_dev_llist_insert.o)
 .debug_abbrev  0x0000c895       0x79 ../lwIP_NIOS_II_Example_bsp/\libhal_bsp.a(alt_do_ctors.o)
 .debug_abbrev  0x0000c90e       0x79 ../lwIP_NIOS_II_Example_bsp/\libhal_bsp.a(alt_do_dtors.o)
 .debug_abbrev  0x0000c987       0xf0 ../lwIP_NIOS_II_Example_bsp/\libhal_bsp.a(alt_find_dev.o)
 .debug_abbrev  0x0000ca77      0x11a ../lwIP_NIOS_II_Example_bsp/\libhal_bsp.a(alt_flash_dev.o)
 .debug_abbrev  0x0000cb91       0x42 ../lwIP_NIOS_II_Example_bsp/\libhal_bsp.a(alt_icache_flush_all.o)
 .debug_abbrev  0x0000cbd3      0x114 ../lwIP_NIOS_II_Example_bsp/\libhal_bsp.a(alt_io_redirect.o)
 .debug_abbrev  0x0000cce7      0x148 ../lwIP_NIOS_II_Example_bsp/\libhal_bsp.a(alt_open.o)
 .debug_abbrev  0x0000ce2f      0x119 ../lwIP_NIOS_II_Example_bsp/\libhal_bsp.a(altera_avalon_cfi_flash_amd.o)
 .debug_abbrev  0x0000cf48      0x119 ../lwIP_NIOS_II_Example_bsp/\libhal_bsp.a(altera_avalon_cfi_flash_intel.o)
 .debug_abbrev  0x0000d061       0xf0 ../lwIP_NIOS_II_Example_bsp/\libhal_bsp.a(alt_find_file.o)
 .debug_abbrev  0x0000d151      0x10d ../lwIP_NIOS_II_Example_bsp/\libhal_bsp.a(alt_get_fd.o)
 .debug_abbrev  0x0000d25e       0x8c ../lwIP_NIOS_II_Example_bsp/\libhal_bsp.a(alt_icache_flush.o)
 .debug_abbrev  0x0000d2ea      0x106 c:/altera/13.1/nios2eds/bin/gnu/h-i686-mingw32/bin/../lib/gcc/nios2-elf/4.7.3/../../../../../H-i686-mingw32/nios2-elf/lib\libc.a(lib_a-atexit.o)
 .debug_abbrev  0x0000d3f0       0x5d c:/altera/13.1/nios2eds/bin/gnu/h-i686-mingw32/bin/../lib/gcc/nios2-elf/4.7.3/../../../../../H-i686-mingw32/nios2-elf/lib\libc.a(lib_a-ctype_.o)
 .debug_abbrev  0x0000d44d      0x1c8 c:/altera/13.1/nios2eds/bin/gnu/h-i686-mingw32/bin/../lib/gcc/nios2-elf/4.7.3/../../../../../H-i686-mingw32/nios2-elf/lib\libc.a(lib_a-exit.o)
 .debug_abbrev  0x0000d615      0x1dc c:/altera/13.1/nios2eds/bin/gnu/h-i686-mingw32/bin/../lib/gcc/nios2-elf/4.7.3/../../../../../H-i686-mingw32/nios2-elf/lib\libc.a(lib_a-malloc.o)
 .debug_abbrev  0x0000d7f1       0x7f c:/altera/13.1/nios2eds/bin/gnu/h-i686-mingw32/bin/../lib/gcc/nios2-elf/4.7.3/../../../../../H-i686-mingw32/nios2-elf/lib\libc.a(lib_a-memcmp.o)
 .debug_abbrev  0x0000d870       0x83 c:/altera/13.1/nios2eds/bin/gnu/h-i686-mingw32/bin/../lib/gcc/nios2-elf/4.7.3/../../../../../H-i686-mingw32/nios2-elf/lib\libc.a(lib_a-strcpy.o)
 .debug_abbrev  0x0000d8f3      0x211 c:/altera/13.1/nios2eds/bin/gnu/h-i686-mingw32/bin/../lib/gcc/nios2-elf/4.7.3/../../../../../H-i686-mingw32/nios2-elf/lib\libc.a(lib_a-__atexit.o)
 .debug_abbrev  0x0000db04      0x203 c:/altera/13.1/nios2eds/bin/gnu/h-i686-mingw32/bin/../lib/gcc/nios2-elf/4.7.3/../../../../../H-i686-mingw32/nios2-elf/lib\libc.a(lib_a-__call_atexit.o)
 .debug_abbrev  0x0000dd07       0xa6 ../lwIP_NIOS_II_Example_bsp/\libhal_bsp.a(alt_exit.o)

.debug_line     0x00000000    0x12323
 *(.debug_line)
 .debug_line    0x00000000       0x81 ../lwIP_NIOS_II_Example_bsp//obj/HAL/src/crt0.o
 .debug_line    0x00000081      0x1e3 obj/default/alteraTseEthernetif.o
 .debug_line    0x00000264      0x1ea obj/default/driver/alteraTseEthernetif.o
 .debug_line    0x0000044e       0x6c obj/default/driver/fs.o
 .debug_line    0x000004ba        0x0 obj/default/driver/fsdata.o
 .debug_line    0x000004ba      0x169 obj/default/driver/httpd.o
 .debug_line    0x00000623      0x3a9 obj/default/driver/lwip_tse_mac.o
 .debug_line    0x000009cc       0x65 obj/default/fs.o
 .debug_line    0x00000a31        0x0 obj/default/fsdata.o
 .debug_line    0x00000a31      0x162 obj/default/httpd.o
 .debug_line    0x00000b93      0x3a2 obj/default/lwip_tse_mac.o
 .debug_line    0x00000f35      0x331 obj/default/main.o
 .debug_line    0x00001266       0x1d obj/default/src/api/api_lib.o
 .debug_line    0x00001283       0x1d obj/default/src/api/api_msg.o
 .debug_line    0x000012a0       0x1d obj/default/src/api/err.o
 .debug_line    0x000012bd       0x1d obj/default/src/api/netbuf.o
 .debug_line    0x000012da       0x1d obj/default/src/api/netdb.o
 .debug_line    0x000012f7       0x1d obj/default/src/api/netifapi.o
 .debug_line    0x00001314       0x1d obj/default/src/api/sockets.o
 .debug_line    0x00001331       0x1d obj/default/src/api/tcpip.o
 .debug_line    0x0000134e      0x83e obj/default/src/core/dhcp.o
 .debug_line    0x00001b8c       0x1d obj/default/src/core/dns.o
 .debug_line    0x00001ba9       0x45 obj/default/src/core/init.o
 .debug_line    0x00001bee       0x1d obj/default/src/core/ipv4/autoip.o
 .debug_line    0x00001c0b      0x1d4 obj/default/src/core/ipv4/icmp.o
 .debug_line    0x00001ddf       0x1d obj/default/src/core/ipv4/igmp.o
 .debug_line    0x00001dfc      0x166 obj/default/src/core/ipv4/inet.o
 .debug_line    0x00001f62      0x122 obj/default/src/core/ipv4/inet_chksum.o
 .debug_line    0x00002084      0x27a obj/default/src/core/ipv4/ip.o
 .debug_line    0x000022fe       0xc8 obj/default/src/core/ipv4/ip_addr.o
 .debug_line    0x000023c6      0x389 obj/default/src/core/ipv4/ip_frag.o
 .debug_line    0x0000274f      0x262 obj/default/src/core/mem.o
 .debug_line    0x000029b1      0x13b obj/default/src/core/memp.o
 .debug_line    0x00002aec      0x1eb obj/default/src/core/netif.o
 .debug_line    0x00002cd7      0x4d8 obj/default/src/core/pbuf.o
 .debug_line    0x000031af      0x199 obj/default/src/core/raw.o
 .debug_line    0x00003348       0x1d obj/default/src/core/snmp/asn1_dec.o
 .debug_line    0x00003365       0x1d obj/default/src/core/snmp/asn1_enc.o
 .debug_line    0x00003382       0x1d obj/default/src/core/snmp/mib2.o
 .debug_line    0x0000339f       0x1d obj/default/src/core/snmp/mib_structs.o
 .debug_line    0x000033bc       0x1d obj/default/src/core/snmp/msg_in.o
 .debug_line    0x000033d9       0x1d obj/default/src/core/snmp/msg_out.o
 .debug_line    0x000033f6       0x74 obj/default/src/core/stats.o
 .debug_line    0x0000346a       0x1d obj/default/src/core/sys.o
 .debug_line    0x00003487      0x682 obj/default/src/core/tcp.o
 .debug_line    0x00003b09      0x972 obj/default/src/core/tcp_in.o
 .debug_line    0x0000447b      0x599 obj/default/src/core/tcp_out.o
 .debug_line    0x00004a14      0x32e obj/default/src/core/udp.o
 .debug_line    0x00004d42      0x4af obj/default/src/netif/etharp.o
 .debug_line    0x000051f1       0x1d obj/default/src/netif/ethernetif.o
 .debug_line    0x0000520e       0x1d obj/default/src/netif/loopif.o
 .debug_line    0x0000522b       0x1d obj/default/src/netif/ppp/auth.o
 .debug_line    0x00005248       0x1d obj/default/src/netif/ppp/chap.o
 .debug_line    0x00005265       0x1d obj/default/src/netif/ppp/chpms.o
 .debug_line    0x00005282       0x1d obj/default/src/netif/ppp/fsm.o
 .debug_line    0x0000529f       0x1d obj/default/src/netif/ppp/ipcp.o
 .debug_line    0x000052bc       0x1d obj/default/src/netif/ppp/lcp.o
 .debug_line    0x000052d9       0x1d obj/default/src/netif/ppp/magic.o
 .debug_line    0x000052f6       0x1d obj/default/src/netif/ppp/md5.o
 .debug_line    0x00005313       0x1d obj/default/src/netif/ppp/pap.o
 .debug_line    0x00005330       0x1d obj/default/src/netif/ppp/ppp.o
 .debug_line    0x0000534d       0x1d obj/default/src/netif/ppp/ppp_oe.o
 .debug_line    0x0000536a       0x1d obj/default/src/netif/ppp/randm.o
 .debug_line    0x00005387       0x1d obj/default/src/netif/ppp/vj.o
 .debug_line    0x000053a4       0x1d obj/default/src/netif/slipif.o
 .debug_line    0x000053c1      0x173 c:/altera/13.1/nios2eds/bin/gnu/h-i686-mingw32/bin/../lib/gcc/nios2-elf/4.7.3/../../../../../H-i686-mingw32/nios2-elf/lib\libc.a(lib_a-impure.o)
 .debug_line    0x00005534      0x13d c:/altera/13.1/nios2eds/bin/gnu/h-i686-mingw32/bin/../lib/gcc/nios2-elf/4.7.3/../../../../../H-i686-mingw32/nios2-elf/lib\libc.a(lib_a-memcpy.o)
 .debug_line    0x00005671      0x1f1 c:/altera/13.1/nios2eds/bin/gnu/h-i686-mingw32/bin/../lib/gcc/nios2-elf/4.7.3/../../../../../H-i686-mingw32/nios2-elf/lib\libc.a(lib_a-memset.o)
 .debug_line    0x00005862      0x218 c:/altera/13.1/nios2eds/bin/gnu/h-i686-mingw32/bin/../lib/gcc/nios2-elf/4.7.3/../../../../../H-i686-mingw32/nios2-elf/lib\libc.a(lib_a-printf.o)
 .debug_line    0x00005a7a      0x29c c:/altera/13.1/nios2eds/bin/gnu/h-i686-mingw32/bin/../lib/gcc/nios2-elf/4.7.3/../../../../../H-i686-mingw32/nios2-elf/lib\libc.a(lib_a-putc.o)
 .debug_line    0x00005d16      0x235 c:/altera/13.1/nios2eds/bin/gnu/h-i686-mingw32/bin/../lib/gcc/nios2-elf/4.7.3/../../../../../H-i686-mingw32/nios2-elf/lib\libc.a(lib_a-puts.o)
 .debug_line    0x00005f4b      0x110 c:/altera/13.1/nios2eds/bin/gnu/h-i686-mingw32/bin/../lib/gcc/nios2-elf/4.7.3/../../../../../H-i686-mingw32/nios2-elf/lib\libc.a(lib_a-strcmp.o)
 .debug_line    0x0000605b      0x182 c:/altera/13.1/nios2eds/bin/gnu/h-i686-mingw32/bin/../lib/gcc/nios2-elf/4.7.3/../../../../../H-i686-mingw32/nios2-elf/lib\libc.a(lib_a-strlen.o)
 .debug_line    0x000061dd      0x1c8 c:/altera/13.1/nios2eds/bin/gnu/h-i686-mingw32/bin/../lib/gcc/nios2-elf/4.7.3/../../../../../H-i686-mingw32/nios2-elf/lib\libc.a(lib_a-strncmp.o)
 .debug_line    0x000063a5      0xaf9 c:/altera/13.1/nios2eds/bin/gnu/h-i686-mingw32/bin/../lib/gcc/nios2-elf/4.7.3/../../../../../H-i686-mingw32/nios2-elf/lib\libc.a(lib_a-vfprintf.o)
 .debug_line    0x00006e9e      0x272 c:/altera/13.1/nios2eds/bin/gnu/h-i686-mingw32/bin/../lib/gcc/nios2-elf/4.7.3/../../../../../H-i686-mingw32/nios2-elf/lib\libc.a(lib_a-wbuf.o)
 .debug_line    0x00007110      0x26b c:/altera/13.1/nios2eds/bin/gnu/h-i686-mingw32/bin/../lib/gcc/nios2-elf/4.7.3/../../../../../H-i686-mingw32/nios2-elf/lib\libc.a(lib_a-wsetup.o)
 .debug_line    0x0000737b      0x876 c:/altera/13.1/nios2eds/bin/gnu/h-i686-mingw32/bin/../lib/gcc/nios2-elf/4.7.3/../../../../../H-i686-mingw32/nios2-elf/lib\libc.a(lib_a-dtoa.o)
 .debug_line    0x00007bf1      0x29c c:/altera/13.1/nios2eds/bin/gnu/h-i686-mingw32/bin/../lib/gcc/nios2-elf/4.7.3/../../../../../H-i686-mingw32/nios2-elf/lib\libc.a(lib_a-fflush.o)
 .debug_line    0x00007e8d      0x2e6 c:/altera/13.1/nios2eds/bin/gnu/h-i686-mingw32/bin/../lib/gcc/nios2-elf/4.7.3/../../../../../H-i686-mingw32/nios2-elf/lib\libc.a(lib_a-findfp.o)
 .debug_line    0x00008173      0x311 c:/altera/13.1/nios2eds/bin/gnu/h-i686-mingw32/bin/../lib/gcc/nios2-elf/4.7.3/../../../../../H-i686-mingw32/nios2-elf/lib\libc.a(lib_a-freer.o)
 .debug_line    0x00008484      0x360 c:/altera/13.1/nios2eds/bin/gnu/h-i686-mingw32/bin/../lib/gcc/nios2-elf/4.7.3/../../../../../H-i686-mingw32/nios2-elf/lib\libc.a(lib_a-fvwrite.o)
 .debug_line    0x000087e4      0x259 c:/altera/13.1/nios2eds/bin/gnu/h-i686-mingw32/bin/../lib/gcc/nios2-elf/4.7.3/../../../../../H-i686-mingw32/nios2-elf/lib\libc.a(lib_a-fwalk.o)
 .debug_line    0x00008a3d      0x231 c:/altera/13.1/nios2eds/bin/gnu/h-i686-mingw32/bin/../lib/gcc/nios2-elf/4.7.3/../../../../../H-i686-mingw32/nios2-elf/lib\libc.a(lib_a-locale.o)
 .debug_line    0x00008c6e      0x293 c:/altera/13.1/nios2eds/bin/gnu/h-i686-mingw32/bin/../lib/gcc/nios2-elf/4.7.3/../../../../../H-i686-mingw32/nios2-elf/lib\libc.a(lib_a-makebuf.o)
 .debug_line    0x00008f01      0x421 c:/altera/13.1/nios2eds/bin/gnu/h-i686-mingw32/bin/../lib/gcc/nios2-elf/4.7.3/../../../../../H-i686-mingw32/nios2-elf/lib\libc.a(lib_a-mallocr.o)
 .debug_line    0x00009322      0x1f1 c:/altera/13.1/nios2eds/bin/gnu/h-i686-mingw32/bin/../lib/gcc/nios2-elf/4.7.3/../../../../../H-i686-mingw32/nios2-elf/lib\libc.a(lib_a-memchr.o)
 .debug_line    0x00009513      0x1ed c:/altera/13.1/nios2eds/bin/gnu/h-i686-mingw32/bin/../lib/gcc/nios2-elf/4.7.3/../../../../../H-i686-mingw32/nios2-elf/lib\libc.a(lib_a-memmove.o)
 .debug_line    0x00009700      0x725 c:/altera/13.1/nios2eds/bin/gnu/h-i686-mingw32/bin/../lib/gcc/nios2-elf/4.7.3/../../../../../H-i686-mingw32/nios2-elf/lib\libc.a(lib_a-mprec.o)
 .debug_line    0x00009e25      0x330 c:/altera/13.1/nios2eds/bin/gnu/h-i686-mingw32/bin/../lib/gcc/nios2-elf/4.7.3/../../../../../H-i686-mingw32/nios2-elf/lib\libc.a(lib_a-reallocr.o)
 .debug_line    0x0000a155      0x170 c:/altera/13.1/nios2eds/bin/gnu/h-i686-mingw32/bin/../lib/gcc/nios2-elf/4.7.3/../../../../../H-i686-mingw32/nios2-elf/lib\libc.a(lib_a-s_isinfd.o)
 .debug_line    0x0000a2c5      0x170 c:/altera/13.1/nios2eds/bin/gnu/h-i686-mingw32/bin/../lib/gcc/nios2-elf/4.7.3/../../../../../H-i686-mingw32/nios2-elf/lib\libc.a(lib_a-s_isnand.o)
 .debug_line    0x0000a435      0x212 c:/altera/13.1/nios2eds/bin/gnu/h-i686-mingw32/bin/../lib/gcc/nios2-elf/4.7.3/../../../../../H-i686-mingw32/nios2-elf/lib\libc.a(lib_a-sbrkr.o)
 .debug_line    0x0000a647      0x245 c:/altera/13.1/nios2eds/bin/gnu/h-i686-mingw32/bin/../lib/gcc/nios2-elf/4.7.3/../../../../../H-i686-mingw32/nios2-elf/lib\libc.a(lib_a-stdio.o)
 .debug_line    0x0000a88c      0x213 c:/altera/13.1/nios2eds/bin/gnu/h-i686-mingw32/bin/../lib/gcc/nios2-elf/4.7.3/../../../../../H-i686-mingw32/nios2-elf/lib\libc.a(lib_a-writer.o)
 .debug_line    0x0000aa9f      0x1c9 c:/altera/13.1/nios2eds/bin/gnu/h-i686-mingw32/bin/../lib/gcc/nios2-elf/4.7.3/../../../../../H-i686-mingw32/nios2-elf/lib\libc.a(lib_a-callocr.o)
 .debug_line    0x0000ac68      0x213 c:/altera/13.1/nios2eds/bin/gnu/h-i686-mingw32/bin/../lib/gcc/nios2-elf/4.7.3/../../../../../H-i686-mingw32/nios2-elf/lib\libc.a(lib_a-closer.o)
 .debug_line    0x0000ae7b      0x266 c:/altera/13.1/nios2eds/bin/gnu/h-i686-mingw32/bin/../lib/gcc/nios2-elf/4.7.3/../../../../../H-i686-mingw32/nios2-elf/lib\libc.a(lib_a-fclose.o)
 .debug_line    0x0000b0e1      0x21c c:/altera/13.1/nios2eds/bin/gnu/h-i686-mingw32/bin/../lib/gcc/nios2-elf/4.7.3/../../../../../H-i686-mingw32/nios2-elf/lib\libc.a(lib_a-fstatr.o)
 .debug_line    0x0000b2fd       0x5d c:/altera/13.1/nios2eds/bin/gnu/h-i686-mingw32/bin/../lib/gcc/nios2-elf/4.7.3/../../../../../H-i686-mingw32/nios2-elf/lib\libc.a(lib_a-int_errno.o)
 .debug_line    0x0000b35a      0x214 c:/altera/13.1/nios2eds/bin/gnu/h-i686-mingw32/bin/../lib/gcc/nios2-elf/4.7.3/../../../../../H-i686-mingw32/nios2-elf/lib\libc.a(lib_a-isattyr.o)
 .debug_line    0x0000b56e      0x21e c:/altera/13.1/nios2eds/bin/gnu/h-i686-mingw32/bin/../lib/gcc/nios2-elf/4.7.3/../../../../../H-i686-mingw32/nios2-elf/lib\libc.a(lib_a-lseekr.o)
 .debug_line    0x0000b78c      0x212 c:/altera/13.1/nios2eds/bin/gnu/h-i686-mingw32/bin/../lib/gcc/nios2-elf/4.7.3/../../../../../H-i686-mingw32/nios2-elf/lib\libc.a(lib_a-readr.o)
 .debug_line    0x0000b99e      0x119 c:/altera/13.1/nios2eds/bin/gnu/h-i686-mingw32/bin/../lib/gcc/nios2-elf/4.7.3\libgcc.a(_udivdi3.o)
 .debug_line    0x0000bab7      0x121 c:/altera/13.1/nios2eds/bin/gnu/h-i686-mingw32/bin/../lib/gcc/nios2-elf/4.7.3\libgcc.a(_umoddi3.o)
 .debug_line    0x0000bbd8      0x131 c:/altera/13.1/nios2eds/bin/gnu/h-i686-mingw32/bin/../lib/gcc/nios2-elf/4.7.3\libgcc.a(_addsub_df.o)
 .debug_line    0x0000bd09      0x114 c:/altera/13.1/nios2eds/bin/gnu/h-i686-mingw32/bin/../lib/gcc/nios2-elf/4.7.3\libgcc.a(_mul_df.o)
 .debug_line    0x0000be1d       0xce c:/altera/13.1/nios2eds/bin/gnu/h-i686-mingw32/bin/../lib/gcc/nios2-elf/4.7.3\libgcc.a(_div_df.o)
 .debug_line    0x0000beeb       0x6d c:/altera/13.1/nios2eds/bin/gnu/h-i686-mingw32/bin/../lib/gcc/nios2-elf/4.7.3\libgcc.a(_eq_df.o)
 .debug_line    0x0000bf58       0x6d c:/altera/13.1/nios2eds/bin/gnu/h-i686-mingw32/bin/../lib/gcc/nios2-elf/4.7.3\libgcc.a(_ne_df.o)
 .debug_line    0x0000bfc5       0x6e c:/altera/13.1/nios2eds/bin/gnu/h-i686-mingw32/bin/../lib/gcc/nios2-elf/4.7.3\libgcc.a(_gt_df.o)
 .debug_line    0x0000c033       0x6e c:/altera/13.1/nios2eds/bin/gnu/h-i686-mingw32/bin/../lib/gcc/nios2-elf/4.7.3\libgcc.a(_ge_df.o)
 .debug_line    0x0000c0a1       0x6d c:/altera/13.1/nios2eds/bin/gnu/h-i686-mingw32/bin/../lib/gcc/nios2-elf/4.7.3\libgcc.a(_lt_df.o)
 .debug_line    0x0000c10e       0x94 c:/altera/13.1/nios2eds/bin/gnu/h-i686-mingw32/bin/../lib/gcc/nios2-elf/4.7.3\libgcc.a(_si_to_df.o)
 .debug_line    0x0000c1a2       0x8d c:/altera/13.1/nios2eds/bin/gnu/h-i686-mingw32/bin/../lib/gcc/nios2-elf/4.7.3\libgcc.a(_df_to_si.o)
 .debug_line    0x0000c22f       0x51 c:/altera/13.1/nios2eds/bin/gnu/h-i686-mingw32/bin/../lib/gcc/nios2-elf/4.7.3\libgcc.a(_thenan_df.o)
 .debug_line    0x0000c280       0x9e c:/altera/13.1/nios2eds/bin/gnu/h-i686-mingw32/bin/../lib/gcc/nios2-elf/4.7.3\libgcc.a(_usi_to_df.o)
 .debug_line    0x0000c31e       0xd3 c:/altera/13.1/nios2eds/bin/gnu/h-i686-mingw32/bin/../lib/gcc/nios2-elf/4.7.3\libgcc.a(lib2-divmod.o)
 .debug_line    0x0000c3f1       0x8b c:/altera/13.1/nios2eds/bin/gnu/h-i686-mingw32/bin/../lib/gcc/nios2-elf/4.7.3\libgcc.a(_muldi3.o)
 .debug_line    0x0000c47c       0x53 c:/altera/13.1/nios2eds/bin/gnu/h-i686-mingw32/bin/../lib/gcc/nios2-elf/4.7.3\libgcc.a(_clz.o)
 .debug_line    0x0000c4cf       0x8c c:/altera/13.1/nios2eds/bin/gnu/h-i686-mingw32/bin/../lib/gcc/nios2-elf/4.7.3\libgcc.a(_clzsi2.o)
 .debug_line    0x0000c55b       0xc7 c:/altera/13.1/nios2eds/bin/gnu/h-i686-mingw32/bin/../lib/gcc/nios2-elf/4.7.3\libgcc.a(_pack_df.o)
 .debug_line    0x0000c622       0xa2 c:/altera/13.1/nios2eds/bin/gnu/h-i686-mingw32/bin/../lib/gcc/nios2-elf/4.7.3\libgcc.a(_unpack_df.o)
 .debug_line    0x0000c6c4       0x96 c:/altera/13.1/nios2eds/bin/gnu/h-i686-mingw32/bin/../lib/gcc/nios2-elf/4.7.3\libgcc.a(_fpcmp_parts_df.o)
 .debug_line    0x0000c75a       0x77 c:/altera/13.1/nios2eds/bin/gnu/h-i686-mingw32/bin/../lib/gcc/nios2-elf/4.7.3\libgcc.a(_lshrdi3.o)
 .debug_line    0x0000c7d1       0x75 c:/altera/13.1/nios2eds/bin/gnu/h-i686-mingw32/bin/../lib/gcc/nios2-elf/4.7.3\libgcc.a(_ashldi3.o)
 .debug_line    0x0000c846       0xfe ../lwIP_NIOS_II_Example_bsp/\libhal_bsp.a(alt_alarm_start.o)
 .debug_line    0x0000c944      0x186 ../lwIP_NIOS_II_Example_bsp/\libhal_bsp.a(alt_close.o)
 .debug_line    0x0000caca      0x119 ../lwIP_NIOS_II_Example_bsp/\libhal_bsp.a(alt_dev.o)
 .debug_line    0x0000cbe3       0x51 ../lwIP_NIOS_II_Example_bsp/\libhal_bsp.a(alt_errno.o)
 .debug_line    0x0000cc34      0x180 ../lwIP_NIOS_II_Example_bsp/\libhal_bsp.a(alt_fstat.o)
 .debug_line    0x0000cdb4      0x180 ../lwIP_NIOS_II_Example_bsp/\libhal_bsp.a(alt_isatty.o)
 .debug_line    0x0000cf34       0x92 ../lwIP_NIOS_II_Example_bsp/\libhal_bsp.a(alt_load.o)
 .debug_line    0x0000cfc6      0x184 ../lwIP_NIOS_II_Example_bsp/\libhal_bsp.a(alt_lseek.o)
 .debug_line    0x0000d14a       0xa4 ../lwIP_NIOS_II_Example_bsp/\libhal_bsp.a(alt_main.o)
 .debug_line    0x0000d1ee      0x13f ../lwIP_NIOS_II_Example_bsp/\libhal_bsp.a(alt_malloc_lock.o)
 .debug_line    0x0000d32d      0x1f9 ../lwIP_NIOS_II_Example_bsp/\libhal_bsp.a(alt_read.o)
 .debug_line    0x0000d526       0xae ../lwIP_NIOS_II_Example_bsp/\libhal_bsp.a(alt_release_fd.o)
 .debug_line    0x0000d5d4       0x69 ../lwIP_NIOS_II_Example_bsp/\libhal_bsp.a(alt_remap_uncached.o)
 .debug_line    0x0000d63d      0x11b ../lwIP_NIOS_II_Example_bsp/\libhal_bsp.a(alt_sbrk.o)
 .debug_line    0x0000d758      0x106 ../lwIP_NIOS_II_Example_bsp/\libhal_bsp.a(alt_tick.o)
 .debug_line    0x0000d85e       0xdd ../lwIP_NIOS_II_Example_bsp/\libhal_bsp.a(alt_uncached_malloc.o)
 .debug_line    0x0000d93b       0xce ../lwIP_NIOS_II_Example_bsp/\libhal_bsp.a(alt_usleep.o)
 .debug_line    0x0000da09      0x1f8 ../lwIP_NIOS_II_Example_bsp/\libhal_bsp.a(alt_write.o)
 .debug_line    0x0000dc01      0x265 ../lwIP_NIOS_II_Example_bsp/\libhal_bsp.a(alt_sys_init.o)
 .debug_line    0x0000de66      0x24c ../lwIP_NIOS_II_Example_bsp/\libhal_bsp.a(altera_avalon_cfi_flash.o)
 .debug_line    0x0000e0b2      0x3da ../lwIP_NIOS_II_Example_bsp/\libhal_bsp.a(altera_avalon_cfi_flash_table.o)
 .debug_line    0x0000e48c      0x131 ../lwIP_NIOS_II_Example_bsp/\libhal_bsp.a(altera_avalon_jtag_uart_fd.o)
 .debug_line    0x0000e5bd      0x199 ../lwIP_NIOS_II_Example_bsp/\libhal_bsp.a(altera_avalon_jtag_uart_init.o)
 .debug_line    0x0000e756      0x129 ../lwIP_NIOS_II_Example_bsp/\libhal_bsp.a(altera_avalon_jtag_uart_ioctl.o)
 .debug_line    0x0000e87f      0x178 ../lwIP_NIOS_II_Example_bsp/\libhal_bsp.a(altera_avalon_jtag_uart_read.o)
 .debug_line    0x0000e9f7      0x177 ../lwIP_NIOS_II_Example_bsp/\libhal_bsp.a(altera_avalon_jtag_uart_write.o)
 .debug_line    0x0000eb6e      0x357 ../lwIP_NIOS_II_Example_bsp/\libhal_bsp.a(altera_avalon_lcd_16207.o)
 .debug_line    0x0000eec5      0x11a ../lwIP_NIOS_II_Example_bsp/\libhal_bsp.a(altera_avalon_lcd_16207_fd.o)
 .debug_line    0x0000efdf      0x2b5 ../lwIP_NIOS_II_Example_bsp/\libhal_bsp.a(altera_avalon_sgdma.o)
 .debug_line    0x0000f294      0x101 ../lwIP_NIOS_II_Example_bsp/\libhal_bsp.a(altera_avalon_timer_sc.o)
 .debug_line    0x0000f395      0xcbe ../lwIP_NIOS_II_Example_bsp/\libhal_bsp.a(altera_avalon_tse.o)
 .debug_line    0x00010053       0xcd ../lwIP_NIOS_II_Example_bsp/\libhal_bsp.a(altera_avalon_tse_system_info.o)
 .debug_line    0x00010120       0xf0 ../lwIP_NIOS_II_Example_bsp/\libhal_bsp.a(altera_avalon_uart_fd.o)
 .debug_line    0x00010210      0x182 ../lwIP_NIOS_II_Example_bsp/\libhal_bsp.a(altera_avalon_uart_init.o)
 .debug_line    0x00010392      0x191 ../lwIP_NIOS_II_Example_bsp/\libhal_bsp.a(altera_avalon_uart_read.o)
 .debug_line    0x00010523      0x16e ../lwIP_NIOS_II_Example_bsp/\libhal_bsp.a(altera_avalon_uart_write.o)
 .debug_line    0x00010691       0x74 ../lwIP_NIOS_II_Example_bsp/\libhal_bsp.a(altera_vic_0_vector_tbl.o)
 .debug_line    0x00010705       0x67 ../lwIP_NIOS_II_Example_bsp/\libhal_bsp.a(altera_vic_funnel_non_preemptive.o)
 .debug_line    0x0001076c       0xbb ../lwIP_NIOS_II_Example_bsp/\libhal_bsp.a(altera_vic_irq_init.o)
 .debug_line    0x00010827       0xd7 ../lwIP_NIOS_II_Example_bsp/\libhal_bsp.a(altera_vic_isr_register.o)
 .debug_line    0x000108fe       0x9f ../lwIP_NIOS_II_Example_bsp/\libhal_bsp.a(alt_busy_sleep.o)
 .debug_line    0x0001099d       0x67 ../lwIP_NIOS_II_Example_bsp/\libhal_bsp.a(alt_dcache_flush.o)
 .debug_line    0x00010a04       0x51 ../lwIP_NIOS_II_Example_bsp/\libhal_bsp.a(alt_dcache_flush_all.o)
 .debug_line    0x00010a55       0xd0 ../lwIP_NIOS_II_Example_bsp/\libhal_bsp.a(alt_dev_llist_insert.o)
 .debug_line    0x00010b25       0x59 ../lwIP_NIOS_II_Example_bsp/\libhal_bsp.a(alt_do_ctors.o)
 .debug_line    0x00010b7e       0x59 ../lwIP_NIOS_II_Example_bsp/\libhal_bsp.a(alt_do_dtors.o)
 .debug_line    0x00010bd7       0xb9 ../lwIP_NIOS_II_Example_bsp/\libhal_bsp.a(alt_find_dev.o)
 .debug_line    0x00010c90       0xc5 ../lwIP_NIOS_II_Example_bsp/\libhal_bsp.a(alt_flash_dev.o)
 .debug_line    0x00010d55       0x50 ../lwIP_NIOS_II_Example_bsp/\libhal_bsp.a(alt_icache_flush_all.o)
 .debug_line    0x00010da5      0x154 ../lwIP_NIOS_II_Example_bsp/\libhal_bsp.a(alt_io_redirect.o)
 .debug_line    0x00010ef9      0x125 ../lwIP_NIOS_II_Example_bsp/\libhal_bsp.a(alt_open.o)
 .debug_line    0x0001101e      0x174 ../lwIP_NIOS_II_Example_bsp/\libhal_bsp.a(altera_avalon_cfi_flash_amd.o)
 .debug_line    0x00011192      0x14f ../lwIP_NIOS_II_Example_bsp/\libhal_bsp.a(altera_avalon_cfi_flash_intel.o)
 .debug_line    0x000112e1       0xd5 ../lwIP_NIOS_II_Example_bsp/\libhal_bsp.a(alt_find_file.o)
 .debug_line    0x000113b6       0xd1 ../lwIP_NIOS_II_Example_bsp/\libhal_bsp.a(alt_get_fd.o)
 .debug_line    0x00011487       0x81 ../lwIP_NIOS_II_Example_bsp/\libhal_bsp.a(alt_icache_flush.o)
 .debug_line    0x00011508      0x16d c:/altera/13.1/nios2eds/bin/gnu/h-i686-mingw32/bin/../lib/gcc/nios2-elf/4.7.3/../../../../../H-i686-mingw32/nios2-elf/lib\libc.a(lib_a-atexit.o)
 .debug_line    0x00011675       0xd1 c:/altera/13.1/nios2eds/bin/gnu/h-i686-mingw32/bin/../lib/gcc/nios2-elf/4.7.3/../../../../../H-i686-mingw32/nios2-elf/lib\libc.a(lib_a-ctype_.o)
 .debug_line    0x00011746      0x219 c:/altera/13.1/nios2eds/bin/gnu/h-i686-mingw32/bin/../lib/gcc/nios2-elf/4.7.3/../../../../../H-i686-mingw32/nios2-elf/lib\libc.a(lib_a-exit.o)
 .debug_line    0x0001195f      0x207 c:/altera/13.1/nios2eds/bin/gnu/h-i686-mingw32/bin/../lib/gcc/nios2-elf/4.7.3/../../../../../H-i686-mingw32/nios2-elf/lib\libc.a(lib_a-malloc.o)
 .debug_line    0x00011b66      0x18d c:/altera/13.1/nios2eds/bin/gnu/h-i686-mingw32/bin/../lib/gcc/nios2-elf/4.7.3/../../../../../H-i686-mingw32/nios2-elf/lib\libc.a(lib_a-memcmp.o)
 .debug_line    0x00011cf3      0x10b c:/altera/13.1/nios2eds/bin/gnu/h-i686-mingw32/bin/../lib/gcc/nios2-elf/4.7.3/../../../../../H-i686-mingw32/nios2-elf/lib\libc.a(lib_a-strcpy.o)
 .debug_line    0x00011dfe      0x250 c:/altera/13.1/nios2eds/bin/gnu/h-i686-mingw32/bin/../lib/gcc/nios2-elf/4.7.3/../../../../../H-i686-mingw32/nios2-elf/lib\libc.a(lib_a-__atexit.o)
 .debug_line    0x0001204e      0x264 c:/altera/13.1/nios2eds/bin/gnu/h-i686-mingw32/bin/../lib/gcc/nios2-elf/4.7.3/../../../../../H-i686-mingw32/nios2-elf/lib\libc.a(lib_a-__call_atexit.o)
 .debug_line    0x000122b2       0x71 ../lwIP_NIOS_II_Example_bsp/\libhal_bsp.a(alt_exit.o)

.debug_frame    0x00000000     0x3fe8
 *(.debug_frame)
 .debug_frame   0x00000000       0x80 obj/default/alteraTseEthernetif.o
 .debug_frame   0x00000080       0x80 obj/default/driver/alteraTseEthernetif.o
 .debug_frame   0x00000100       0x2c obj/default/driver/fs.o
 .debug_frame   0x0000012c       0xf0 obj/default/driver/httpd.o
 .debug_frame   0x0000021c       0xa0 obj/default/driver/lwip_tse_mac.o
 .debug_frame   0x000002bc       0x2c obj/default/fs.o
 .debug_frame   0x000002e8       0xf0 obj/default/httpd.o
 .debug_frame   0x000003d8       0xa0 obj/default/lwip_tse_mac.o
 .debug_frame   0x00000478       0x64 obj/default/main.o
 .debug_frame   0x000004dc      0x408 obj/default/src/core/dhcp.o
 .debug_frame   0x000008e4       0x2c obj/default/src/core/init.o
 .debug_frame   0x00000910       0x80 obj/default/src/core/ipv4/icmp.o
 .debug_frame   0x00000990       0x64 obj/default/src/core/ipv4/inet.o
 .debug_frame   0x000009f4       0x80 obj/default/src/core/ipv4/inet_chksum.o
 .debug_frame   0x00000a74       0x80 obj/default/src/core/ipv4/ip.o
 .debug_frame   0x00000af4       0x2c obj/default/src/core/ipv4/ip_addr.o
 .debug_frame   0x00000b20       0xf8 obj/default/src/core/ipv4/ip_frag.o
 .debug_frame   0x00000c18       0xb8 obj/default/src/core/mem.o
 .debug_frame   0x00000cd0       0x64 obj/default/src/core/memp.o
 .debug_frame   0x00000d34      0x144 obj/default/src/core/netif.o
 .debug_frame   0x00000e78      0x17c obj/default/src/core/pbuf.o
 .debug_frame   0x00000ff4       0xf0 obj/default/src/core/raw.o
 .debug_frame   0x000010e4      0x390 obj/default/src/core/tcp.o
 .debug_frame   0x00001474       0xd8 obj/default/src/core/tcp_in.o
 .debug_frame   0x0000154c      0x180 obj/default/src/core/tcp_out.o
 .debug_frame   0x000016cc      0x128 obj/default/src/core/udp.o
 .debug_frame   0x000017f4      0x17c obj/default/src/netif/etharp.o
 .debug_frame   0x00001970       0x20 c:/altera/13.1/nios2eds/bin/gnu/h-i686-mingw32/bin/../lib/gcc/nios2-elf/4.7.3/../../../../../H-i686-mingw32/nios2-elf/lib\libc.a(lib_a-memcpy.o)
 .debug_frame   0x00001990       0x20 c:/altera/13.1/nios2eds/bin/gnu/h-i686-mingw32/bin/../lib/gcc/nios2-elf/4.7.3/../../../../../H-i686-mingw32/nios2-elf/lib\libc.a(lib_a-memset.o)
 .debug_frame   0x000019b0       0x40 c:/altera/13.1/nios2eds/bin/gnu/h-i686-mingw32/bin/../lib/gcc/nios2-elf/4.7.3/../../../../../H-i686-mingw32/nios2-elf/lib\libc.a(lib_a-printf.o)
 .debug_frame   0x000019f0       0x48 c:/altera/13.1/nios2eds/bin/gnu/h-i686-mingw32/bin/../lib/gcc/nios2-elf/4.7.3/../../../../../H-i686-mingw32/nios2-elf/lib\libc.a(lib_a-putc.o)
 .debug_frame   0x00001a38       0x3c c:/altera/13.1/nios2eds/bin/gnu/h-i686-mingw32/bin/../lib/gcc/nios2-elf/4.7.3/../../../../../H-i686-mingw32/nios2-elf/lib\libc.a(lib_a-puts.o)
 .debug_frame   0x00001a74       0x20 c:/altera/13.1/nios2eds/bin/gnu/h-i686-mingw32/bin/../lib/gcc/nios2-elf/4.7.3/../../../../../H-i686-mingw32/nios2-elf/lib\libc.a(lib_a-strcmp.o)
 .debug_frame   0x00001a94       0x20 c:/altera/13.1/nios2eds/bin/gnu/h-i686-mingw32/bin/../lib/gcc/nios2-elf/4.7.3/../../../../../H-i686-mingw32/nios2-elf/lib\libc.a(lib_a-strlen.o)
 .debug_frame   0x00001ab4       0x20 c:/altera/13.1/nios2eds/bin/gnu/h-i686-mingw32/bin/../lib/gcc/nios2-elf/4.7.3/../../../../../H-i686-mingw32/nios2-elf/lib\libc.a(lib_a-strncmp.o)
 .debug_frame   0x00001ad4       0x64 c:/altera/13.1/nios2eds/bin/gnu/h-i686-mingw32/bin/../lib/gcc/nios2-elf/4.7.3/../../../../../H-i686-mingw32/nios2-elf/lib\libc.a(lib_a-vfprintf.o)
 .debug_frame   0x00001b38       0x3c c:/altera/13.1/nios2eds/bin/gnu/h-i686-mingw32/bin/../lib/gcc/nios2-elf/4.7.3/../../../../../H-i686-mingw32/nios2-elf/lib\libc.a(lib_a-wbuf.o)
 .debug_frame   0x00001b74       0x2c c:/altera/13.1/nios2eds/bin/gnu/h-i686-mingw32/bin/../lib/gcc/nios2-elf/4.7.3/../../../../../H-i686-mingw32/nios2-elf/lib\libc.a(lib_a-wsetup.o)
 .debug_frame   0x00001ba0       0x64 c:/altera/13.1/nios2eds/bin/gnu/h-i686-mingw32/bin/../lib/gcc/nios2-elf/4.7.3/../../../../../H-i686-mingw32/nios2-elf/lib\libc.a(lib_a-dtoa.o)
 .debug_frame   0x00001c04       0x40 c:/altera/13.1/nios2eds/bin/gnu/h-i686-mingw32/bin/../lib/gcc/nios2-elf/4.7.3/../../../../../H-i686-mingw32/nios2-elf/lib\libc.a(lib_a-fflush.o)
 .debug_frame   0x00001c44      0x100 c:/altera/13.1/nios2eds/bin/gnu/h-i686-mingw32/bin/../lib/gcc/nios2-elf/4.7.3/../../../../../H-i686-mingw32/nios2-elf/lib\libc.a(lib_a-findfp.o)
 .debug_frame   0x00001d44       0x4c c:/altera/13.1/nios2eds/bin/gnu/h-i686-mingw32/bin/../lib/gcc/nios2-elf/4.7.3/../../../../../H-i686-mingw32/nios2-elf/lib\libc.a(lib_a-freer.o)
 .debug_frame   0x00001d90       0x38 c:/altera/13.1/nios2eds/bin/gnu/h-i686-mingw32/bin/../lib/gcc/nios2-elf/4.7.3/../../../../../H-i686-mingw32/nios2-elf/lib\libc.a(lib_a-fvwrite.o)
 .debug_frame   0x00001dc8       0x5c c:/altera/13.1/nios2eds/bin/gnu/h-i686-mingw32/bin/../lib/gcc/nios2-elf/4.7.3/../../../../../H-i686-mingw32/nios2-elf/lib\libc.a(lib_a-fwalk.o)
 .debug_frame   0x00001e24       0x6c c:/altera/13.1/nios2eds/bin/gnu/h-i686-mingw32/bin/../lib/gcc/nios2-elf/4.7.3/../../../../../H-i686-mingw32/nios2-elf/lib\libc.a(lib_a-locale.o)
 .debug_frame   0x00001e90       0x2c c:/altera/13.1/nios2eds/bin/gnu/h-i686-mingw32/bin/../lib/gcc/nios2-elf/4.7.3/../../../../../H-i686-mingw32/nios2-elf/lib\libc.a(lib_a-makebuf.o)
 .debug_frame   0x00001ebc       0x38 c:/altera/13.1/nios2eds/bin/gnu/h-i686-mingw32/bin/../lib/gcc/nios2-elf/4.7.3/../../../../../H-i686-mingw32/nios2-elf/lib\libc.a(lib_a-mallocr.o)
 .debug_frame   0x00001ef4       0x20 c:/altera/13.1/nios2eds/bin/gnu/h-i686-mingw32/bin/../lib/gcc/nios2-elf/4.7.3/../../../../../H-i686-mingw32/nios2-elf/lib\libc.a(lib_a-memchr.o)
 .debug_frame   0x00001f14       0x20 c:/altera/13.1/nios2eds/bin/gnu/h-i686-mingw32/bin/../lib/gcc/nios2-elf/4.7.3/../../../../../H-i686-mingw32/nios2-elf/lib\libc.a(lib_a-memmove.o)
 .debug_frame   0x00001f34      0x204 c:/altera/13.1/nios2eds/bin/gnu/h-i686-mingw32/bin/../lib/gcc/nios2-elf/4.7.3/../../../../../H-i686-mingw32/nios2-elf/lib\libc.a(lib_a-mprec.o)
 .debug_frame   0x00002138       0x38 c:/altera/13.1/nios2eds/bin/gnu/h-i686-mingw32/bin/../lib/gcc/nios2-elf/4.7.3/../../../../../H-i686-mingw32/nios2-elf/lib\libc.a(lib_a-reallocr.o)
 .debug_frame   0x00002170       0x20 c:/altera/13.1/nios2eds/bin/gnu/h-i686-mingw32/bin/../lib/gcc/nios2-elf/4.7.3/../../../../../H-i686-mingw32/nios2-elf/lib\libc.a(lib_a-s_isinfd.o)
 .debug_frame   0x00002190       0x20 c:/altera/13.1/nios2eds/bin/gnu/h-i686-mingw32/bin/../lib/gcc/nios2-elf/4.7.3/../../../../../H-i686-mingw32/nios2-elf/lib\libc.a(lib_a-s_isnand.o)
 .debug_frame   0x000021b0       0x2c c:/altera/13.1/nios2eds/bin/gnu/h-i686-mingw32/bin/../lib/gcc/nios2-elf/4.7.3/../../../../../H-i686-mingw32/nios2-elf/lib\libc.a(lib_a-sbrkr.o)
 .debug_frame   0x000021dc       0x78 c:/altera/13.1/nios2eds/bin/gnu/h-i686-mingw32/bin/../lib/gcc/nios2-elf/4.7.3/../../../../../H-i686-mingw32/nios2-elf/lib\libc.a(lib_a-stdio.o)
 .debug_frame   0x00002254       0x2c c:/altera/13.1/nios2eds/bin/gnu/h-i686-mingw32/bin/../lib/gcc/nios2-elf/4.7.3/../../../../../H-i686-mingw32/nios2-elf/lib\libc.a(lib_a-writer.o)
 .debug_frame   0x00002280       0x28 c:/altera/13.1/nios2eds/bin/gnu/h-i686-mingw32/bin/../lib/gcc/nios2-elf/4.7.3/../../../../../H-i686-mingw32/nios2-elf/lib\libc.a(lib_a-callocr.o)
 .debug_frame   0x000022a8       0x2c c:/altera/13.1/nios2eds/bin/gnu/h-i686-mingw32/bin/../lib/gcc/nios2-elf/4.7.3/../../../../../H-i686-mingw32/nios2-elf/lib\libc.a(lib_a-closer.o)
 .debug_frame   0x000022d4       0x3c c:/altera/13.1/nios2eds/bin/gnu/h-i686-mingw32/bin/../lib/gcc/nios2-elf/4.7.3/../../../../../H-i686-mingw32/nios2-elf/lib\libc.a(lib_a-fclose.o)
 .debug_frame   0x00002310       0x2c c:/altera/13.1/nios2eds/bin/gnu/h-i686-mingw32/bin/../lib/gcc/nios2-elf/4.7.3/../../../../../H-i686-mingw32/nios2-elf/lib\libc.a(lib_a-fstatr.o)
 .debug_frame   0x0000233c       0x2c c:/altera/13.1/nios2eds/bin/gnu/h-i686-mingw32/bin/../lib/gcc/nios2-elf/4.7.3/../../../../../H-i686-mingw32/nios2-elf/lib\libc.a(lib_a-isattyr.o)
 .debug_frame   0x00002368       0x2c c:/altera/13.1/nios2eds/bin/gnu/h-i686-mingw32/bin/../lib/gcc/nios2-elf/4.7.3/../../../../../H-i686-mingw32/nios2-elf/lib\libc.a(lib_a-lseekr.o)
 .debug_frame   0x00002394       0x2c c:/altera/13.1/nios2eds/bin/gnu/h-i686-mingw32/bin/../lib/gcc/nios2-elf/4.7.3/../../../../../H-i686-mingw32/nios2-elf/lib\libc.a(lib_a-readr.o)
 .debug_frame   0x000023c0       0x38 c:/altera/13.1/nios2eds/bin/gnu/h-i686-mingw32/bin/../lib/gcc/nios2-elf/4.7.3\libgcc.a(_udivdi3.o)
 .debug_frame   0x000023f8       0x38 c:/altera/13.1/nios2eds/bin/gnu/h-i686-mingw32/bin/../lib/gcc/nios2-elf/4.7.3\libgcc.a(_umoddi3.o)
 .debug_frame   0x00002430       0x50 c:/altera/13.1/nios2eds/bin/gnu/h-i686-mingw32/bin/../lib/gcc/nios2-elf/4.7.3\libgcc.a(_addsub_df.o)
 .debug_frame   0x00002480       0x38 c:/altera/13.1/nios2eds/bin/gnu/h-i686-mingw32/bin/../lib/gcc/nios2-elf/4.7.3\libgcc.a(_mul_df.o)
 .debug_frame   0x000024b8       0x28 c:/altera/13.1/nios2eds/bin/gnu/h-i686-mingw32/bin/../lib/gcc/nios2-elf/4.7.3\libgcc.a(_div_df.o)
 .debug_frame   0x000024e0       0x28 c:/altera/13.1/nios2eds/bin/gnu/h-i686-mingw32/bin/../lib/gcc/nios2-elf/4.7.3\libgcc.a(_eq_df.o)
 .debug_frame   0x00002508       0x28 c:/altera/13.1/nios2eds/bin/gnu/h-i686-mingw32/bin/../lib/gcc/nios2-elf/4.7.3\libgcc.a(_ne_df.o)
 .debug_frame   0x00002530       0x28 c:/altera/13.1/nios2eds/bin/gnu/h-i686-mingw32/bin/../lib/gcc/nios2-elf/4.7.3\libgcc.a(_gt_df.o)
 .debug_frame   0x00002558       0x28 c:/altera/13.1/nios2eds/bin/gnu/h-i686-mingw32/bin/../lib/gcc/nios2-elf/4.7.3\libgcc.a(_ge_df.o)
 .debug_frame   0x00002580       0x28 c:/altera/13.1/nios2eds/bin/gnu/h-i686-mingw32/bin/../lib/gcc/nios2-elf/4.7.3\libgcc.a(_lt_df.o)
 .debug_frame   0x000025a8       0x28 c:/altera/13.1/nios2eds/bin/gnu/h-i686-mingw32/bin/../lib/gcc/nios2-elf/4.7.3\libgcc.a(_si_to_df.o)
 .debug_frame   0x000025d0       0x28 c:/altera/13.1/nios2eds/bin/gnu/h-i686-mingw32/bin/../lib/gcc/nios2-elf/4.7.3\libgcc.a(_df_to_si.o)
 .debug_frame   0x000025f8       0x28 c:/altera/13.1/nios2eds/bin/gnu/h-i686-mingw32/bin/../lib/gcc/nios2-elf/4.7.3\libgcc.a(_usi_to_df.o)
 .debug_frame   0x00002620       0x70 c:/altera/13.1/nios2eds/bin/gnu/h-i686-mingw32/bin/../lib/gcc/nios2-elf/4.7.3\libgcc.a(lib2-divmod.o)
 .debug_frame   0x00002690       0x20 c:/altera/13.1/nios2eds/bin/gnu/h-i686-mingw32/bin/../lib/gcc/nios2-elf/4.7.3\libgcc.a(_muldi3.o)
 .debug_frame   0x000026b0       0x20 c:/altera/13.1/nios2eds/bin/gnu/h-i686-mingw32/bin/../lib/gcc/nios2-elf/4.7.3\libgcc.a(_clzsi2.o)
 .debug_frame   0x000026d0       0x34 c:/altera/13.1/nios2eds/bin/gnu/h-i686-mingw32/bin/../lib/gcc/nios2-elf/4.7.3\libgcc.a(_pack_df.o)
 .debug_frame   0x00002704       0x20 c:/altera/13.1/nios2eds/bin/gnu/h-i686-mingw32/bin/../lib/gcc/nios2-elf/4.7.3\libgcc.a(_unpack_df.o)
 .debug_frame   0x00002724       0x20 c:/altera/13.1/nios2eds/bin/gnu/h-i686-mingw32/bin/../lib/gcc/nios2-elf/4.7.3\libgcc.a(_fpcmp_parts_df.o)
 .debug_frame   0x00002744       0x20 c:/altera/13.1/nios2eds/bin/gnu/h-i686-mingw32/bin/../lib/gcc/nios2-elf/4.7.3\libgcc.a(_lshrdi3.o)
 .debug_frame   0x00002764       0x20 c:/altera/13.1/nios2eds/bin/gnu/h-i686-mingw32/bin/../lib/gcc/nios2-elf/4.7.3\libgcc.a(_ashldi3.o)
 .debug_frame   0x00002784       0x2c ../lwIP_NIOS_II_Example_bsp/\libhal_bsp.a(alt_alarm_start.o)
 .debug_frame   0x000027b0       0x48 ../lwIP_NIOS_II_Example_bsp/\libhal_bsp.a(alt_close.o)
 .debug_frame   0x000027f8       0x2c ../lwIP_NIOS_II_Example_bsp/\libhal_bsp.a(alt_dev.o)
 .debug_frame   0x00002824       0x48 ../lwIP_NIOS_II_Example_bsp/\libhal_bsp.a(alt_fstat.o)
 .debug_frame   0x0000286c       0x48 ../lwIP_NIOS_II_Example_bsp/\libhal_bsp.a(alt_isatty.o)
 .debug_frame   0x000028b4       0x48 ../lwIP_NIOS_II_Example_bsp/\libhal_bsp.a(alt_load.o)
 .debug_frame   0x000028fc       0x48 ../lwIP_NIOS_II_Example_bsp/\libhal_bsp.a(alt_lseek.o)
 .debug_frame   0x00002944       0x2c ../lwIP_NIOS_II_Example_bsp/\libhal_bsp.a(alt_main.o)
 .debug_frame   0x00002970       0x48 ../lwIP_NIOS_II_Example_bsp/\libhal_bsp.a(alt_malloc_lock.o)
 .debug_frame   0x000029b8       0x48 ../lwIP_NIOS_II_Example_bsp/\libhal_bsp.a(alt_read.o)
 .debug_frame   0x00002a00       0x2c ../lwIP_NIOS_II_Example_bsp/\libhal_bsp.a(alt_release_fd.o)
 .debug_frame   0x00002a2c       0x2c ../lwIP_NIOS_II_Example_bsp/\libhal_bsp.a(alt_remap_uncached.o)
 .debug_frame   0x00002a58       0x2c ../lwIP_NIOS_II_Example_bsp/\libhal_bsp.a(alt_sbrk.o)
 .debug_frame   0x00002a84       0x48 ../lwIP_NIOS_II_Example_bsp/\libhal_bsp.a(alt_tick.o)
 .debug_frame   0x00002acc       0x2c ../lwIP_NIOS_II_Example_bsp/\libhal_bsp.a(alt_uncached_malloc.o)
 .debug_frame   0x00002af8       0x2c ../lwIP_NIOS_II_Example_bsp/\libhal_bsp.a(alt_usleep.o)
 .debug_frame   0x00002b24       0x48 ../lwIP_NIOS_II_Example_bsp/\libhal_bsp.a(alt_write.o)
 .debug_frame   0x00002b6c       0x64 ../lwIP_NIOS_II_Example_bsp/\libhal_bsp.a(alt_sys_init.o)
 .debug_frame   0x00002bd0       0xd4 ../lwIP_NIOS_II_Example_bsp/\libhal_bsp.a(altera_avalon_cfi_flash.o)
 .debug_frame   0x00002ca4      0x208 ../lwIP_NIOS_II_Example_bsp/\libhal_bsp.a(altera_avalon_cfi_flash_table.o)
 .debug_frame   0x00002eac       0x80 ../lwIP_NIOS_II_Example_bsp/\libhal_bsp.a(altera_avalon_jtag_uart_fd.o)
 .debug_frame   0x00002f2c       0x80 ../lwIP_NIOS_II_Example_bsp/\libhal_bsp.a(altera_avalon_jtag_uart_init.o)
 .debug_frame   0x00002fac       0x2c ../lwIP_NIOS_II_Example_bsp/\libhal_bsp.a(altera_avalon_jtag_uart_ioctl.o)
 .debug_frame   0x00002fd8       0x2c ../lwIP_NIOS_II_Example_bsp/\libhal_bsp.a(altera_avalon_jtag_uart_read.o)
 .debug_frame   0x00003004       0x2c ../lwIP_NIOS_II_Example_bsp/\libhal_bsp.a(altera_avalon_jtag_uart_write.o)
 .debug_frame   0x00003030      0x10c ../lwIP_NIOS_II_Example_bsp/\libhal_bsp.a(altera_avalon_lcd_16207.o)
 .debug_frame   0x0000313c       0x2c ../lwIP_NIOS_II_Example_bsp/\libhal_bsp.a(altera_avalon_lcd_16207_fd.o)
 .debug_frame   0x00003168      0x240 ../lwIP_NIOS_II_Example_bsp/\libhal_bsp.a(altera_avalon_sgdma.o)
 .debug_frame   0x000033a8       0x48 ../lwIP_NIOS_II_Example_bsp/\libhal_bsp.a(altera_avalon_timer_sc.o)
 .debug_frame   0x000033f0      0x4d4 ../lwIP_NIOS_II_Example_bsp/\libhal_bsp.a(altera_avalon_tse.o)
 .debug_frame   0x000038c4       0x64 ../lwIP_NIOS_II_Example_bsp/\libhal_bsp.a(altera_avalon_uart_fd.o)
 .debug_frame   0x00003928       0x9c ../lwIP_NIOS_II_Example_bsp/\libhal_bsp.a(altera_avalon_uart_init.o)
 .debug_frame   0x000039c4       0x48 ../lwIP_NIOS_II_Example_bsp/\libhal_bsp.a(altera_avalon_uart_read.o)
 .debug_frame   0x00003a0c       0x48 ../lwIP_NIOS_II_Example_bsp/\libhal_bsp.a(altera_avalon_uart_write.o)
 .debug_frame   0x00003a54       0x2c ../lwIP_NIOS_II_Example_bsp/\libhal_bsp.a(altera_vic_irq_init.o)
 .debug_frame   0x00003a80       0x2c ../lwIP_NIOS_II_Example_bsp/\libhal_bsp.a(altera_vic_isr_register.o)
 .debug_frame   0x00003aac       0x2c ../lwIP_NIOS_II_Example_bsp/\libhal_bsp.a(alt_busy_sleep.o)
 .debug_frame   0x00003ad8       0x2c ../lwIP_NIOS_II_Example_bsp/\libhal_bsp.a(alt_dcache_flush.o)
 .debug_frame   0x00003b04       0x2c ../lwIP_NIOS_II_Example_bsp/\libhal_bsp.a(alt_dcache_flush_all.o)
 .debug_frame   0x00003b30       0x48 ../lwIP_NIOS_II_Example_bsp/\libhal_bsp.a(alt_dev_llist_insert.o)
 .debug_frame   0x00003b78       0x2c ../lwIP_NIOS_II_Example_bsp/\libhal_bsp.a(alt_do_ctors.o)
 .debug_frame   0x00003ba4       0x2c ../lwIP_NIOS_II_Example_bsp/\libhal_bsp.a(alt_do_dtors.o)
 .debug_frame   0x00003bd0       0x2c ../lwIP_NIOS_II_Example_bsp/\libhal_bsp.a(alt_find_dev.o)
 .debug_frame   0x00003bfc       0x48 ../lwIP_NIOS_II_Example_bsp/\libhal_bsp.a(alt_flash_dev.o)
 .debug_frame   0x00003c44       0x2c ../lwIP_NIOS_II_Example_bsp/\libhal_bsp.a(alt_icache_flush_all.o)
 .debug_frame   0x00003c70       0x48 ../lwIP_NIOS_II_Example_bsp/\libhal_bsp.a(alt_io_redirect.o)
 .debug_frame   0x00003cb8       0x64 ../lwIP_NIOS_II_Example_bsp/\libhal_bsp.a(alt_open.o)
 .debug_frame   0x00003d1c       0x80 ../lwIP_NIOS_II_Example_bsp/\libhal_bsp.a(altera_avalon_cfi_flash_amd.o)
 .debug_frame   0x00003d9c       0x80 ../lwIP_NIOS_II_Example_bsp/\libhal_bsp.a(altera_avalon_cfi_flash_intel.o)
 .debug_frame   0x00003e1c       0x2c ../lwIP_NIOS_II_Example_bsp/\libhal_bsp.a(alt_find_file.o)
 .debug_frame   0x00003e48       0x2c ../lwIP_NIOS_II_Example_bsp/\libhal_bsp.a(alt_get_fd.o)
 .debug_frame   0x00003e74       0x2c ../lwIP_NIOS_II_Example_bsp/\libhal_bsp.a(alt_icache_flush.o)
 .debug_frame   0x00003ea0       0x20 c:/altera/13.1/nios2eds/bin/gnu/h-i686-mingw32/bin/../lib/gcc/nios2-elf/4.7.3/../../../../../H-i686-mingw32/nios2-elf/lib\libc.a(lib_a-atexit.o)
 .debug_frame   0x00003ec0       0x28 c:/altera/13.1/nios2eds/bin/gnu/h-i686-mingw32/bin/../lib/gcc/nios2-elf/4.7.3/../../../../../H-i686-mingw32/nios2-elf/lib\libc.a(lib_a-exit.o)
 .debug_frame   0x00003ee8       0x30 c:/altera/13.1/nios2eds/bin/gnu/h-i686-mingw32/bin/../lib/gcc/nios2-elf/4.7.3/../../../../../H-i686-mingw32/nios2-elf/lib\libc.a(lib_a-malloc.o)
 .debug_frame   0x00003f18       0x20 c:/altera/13.1/nios2eds/bin/gnu/h-i686-mingw32/bin/../lib/gcc/nios2-elf/4.7.3/../../../../../H-i686-mingw32/nios2-elf/lib\libc.a(lib_a-memcmp.o)
 .debug_frame   0x00003f38       0x20 c:/altera/13.1/nios2eds/bin/gnu/h-i686-mingw32/bin/../lib/gcc/nios2-elf/4.7.3/../../../../../H-i686-mingw32/nios2-elf/lib\libc.a(lib_a-strcpy.o)
 .debug_frame   0x00003f58       0x2c c:/altera/13.1/nios2eds/bin/gnu/h-i686-mingw32/bin/../lib/gcc/nios2-elf/4.7.3/../../../../../H-i686-mingw32/nios2-elf/lib\libc.a(lib_a-__atexit.o)
 .debug_frame   0x00003f84       0x38 c:/altera/13.1/nios2eds/bin/gnu/h-i686-mingw32/bin/../lib/gcc/nios2-elf/4.7.3/../../../../../H-i686-mingw32/nios2-elf/lib\libc.a(lib_a-__call_atexit.o)
 .debug_frame   0x00003fbc       0x2c ../lwIP_NIOS_II_Example_bsp/\libhal_bsp.a(alt_exit.o)

.debug_str      0x00000000     0x7bfe
 *(.debug_str)
 .debug_str     0x00000000      0x310 obj/default/alteraTseEthernetif.o
                                0x3fe (size before relaxing)
 .debug_str     0x00000310       0x1d obj/default/driver/alteraTseEthernetif.o
                                0x405 (size before relaxing)
 .debug_str     0x0000032d       0x88 obj/default/driver/fs.o
                                0x176 (size before relaxing)
 .debug_str     0x000003b5      0x28d obj/default/driver/httpd.o
                                0x428 (size before relaxing)
 .debug_str     0x00000642     0x14a8 obj/default/driver/lwip_tse_mac.o
                               0x1873 (size before relaxing)
 .debug_str     0x00000000     0x14a8 obj/default/fs.o
                                0x16f (size before relaxing)
 .debug_str     0x00000000     0x14a8 obj/default/httpd.o
                                0x421 (size before relaxing)
 .debug_str     0x00000000     0x14a8 obj/default/lwip_tse_mac.o
                               0x186c (size before relaxing)
 .debug_str     0x00001aea      0x52c obj/default/main.o
                                0x933 (size before relaxing)
 .debug_str     0x00002016       0x12 obj/default/src/api/api_lib.o
                                 0xec (size before relaxing)
 .debug_str     0x00002028       0x12 obj/default/src/api/api_msg.o
                                 0xec (size before relaxing)
 .debug_str     0x0000203a        0xe obj/default/src/api/err.o
                                 0xe8 (size before relaxing)
 .debug_str     0x00002048       0x11 obj/default/src/api/netbuf.o
                                 0xeb (size before relaxing)
 .debug_str     0x00002059       0x10 obj/default/src/api/netdb.o
                                 0xea (size before relaxing)
 .debug_str     0x00002069       0x13 obj/default/src/api/netifapi.o
                                 0xed (size before relaxing)
 .debug_str     0x0000207c       0x12 obj/default/src/api/sockets.o
                                 0xec (size before relaxing)
 .debug_str     0x0000208e       0x10 obj/default/src/api/tcpip.o
                                 0xea (size before relaxing)
 .debug_str     0x0000209e      0x2e8 obj/default/src/core/dhcp.o
                                0x69e (size before relaxing)
 .debug_str     0x00002386        0xf obj/default/src/core/dns.o
                                 0xe9 (size before relaxing)
 .debug_str     0x00002395       0x1a obj/default/src/core/init.o
                                 0xf4 (size before relaxing)
 .debug_str     0x000023af       0x17 obj/default/src/core/ipv4/autoip.o
                                 0xf1 (size before relaxing)
 .debug_str     0x000023c6      0x12d obj/default/src/core/ipv4/icmp.o
                                0x3e6 (size before relaxing)
 .debug_str     0x000024f3       0x15 obj/default/src/core/ipv4/igmp.o
                                 0xef (size before relaxing)
 .debug_str     0x00002508       0x33 obj/default/src/core/ipv4/inet.o
                                0x137 (size before relaxing)
 .debug_str     0x0000253b       0x7c obj/default/src/core/ipv4/inet_chksum.o
                                0x1ac (size before relaxing)
 .debug_str     0x000025b7       0x9c obj/default/src/core/ipv4/ip.o
                                0x5be (size before relaxing)
 .debug_str     0x00002653       0x36 obj/default/src/core/ipv4/ip_addr.o
                                0x1c4 (size before relaxing)
 .debug_str     0x00002689      0x1d3 obj/default/src/core/ipv4/ip_frag.o
                                0x56d (size before relaxing)
 .debug_str     0x0000285c       0x98 obj/default/src/core/mem.o
                                0x2ed (size before relaxing)
 .debug_str     0x000028f4       0x60 obj/default/src/core/memp.o
                                0x2aa (size before relaxing)
 .debug_str     0x00002954       0xf0 obj/default/src/core/netif.o
                                0x66d (size before relaxing)
 .debug_str     0x00002a44      0x155 obj/default/src/core/pbuf.o
                                0x37e (size before relaxing)
 .debug_str     0x00002b99       0x81 obj/default/src/core/raw.o
                                0x351 (size before relaxing)
 .debug_str     0x00002c1a       0x19 obj/default/src/core/snmp/asn1_dec.o
                                 0xf3 (size before relaxing)
 .debug_str     0x00002c33       0x19 obj/default/src/core/snmp/asn1_enc.o
                                 0xf3 (size before relaxing)
 .debug_str     0x00002c4c       0x15 obj/default/src/core/snmp/mib2.o
                                 0xef (size before relaxing)
 .debug_str     0x00002c61       0x1c obj/default/src/core/snmp/mib_structs.o
                                 0xf6 (size before relaxing)
 .debug_str     0x00002c7d       0x17 obj/default/src/core/snmp/msg_in.o
                                 0xf1 (size before relaxing)
 .debug_str     0x00002c94       0x18 obj/default/src/core/snmp/msg_out.o
                                 0xf2 (size before relaxing)
 .debug_str     0x00002cac       0x11 obj/default/src/core/stats.o
                                0x23c (size before relaxing)
 .debug_str     0x00002cbd        0xf obj/default/src/core/sys.o
                                 0xe9 (size before relaxing)
 .debug_str     0x00002ccc      0x288 obj/default/src/core/tcp.o
                                0x830 (size before relaxing)
 .debug_str     0x00002f54      0x11f obj/default/src/core/tcp_in.o
                                0x6e3 (size before relaxing)
 .debug_str     0x00003073      0x117 obj/default/src/core/tcp_out.o
                                0x6a6 (size before relaxing)
 .debug_str     0x0000318a       0xb6 obj/default/src/core/udp.o
                                0x655 (size before relaxing)
 .debug_str     0x00003240      0x287 obj/default/src/netif/etharp.o
                                0x7bf (size before relaxing)
 .debug_str     0x000034c7       0x17 obj/default/src/netif/ethernetif.o
                                 0xf1 (size before relaxing)
 .debug_str     0x000034de       0x13 obj/default/src/netif/loopif.o
                                 0xed (size before relaxing)
 .debug_str     0x000034f1       0x15 obj/default/src/netif/ppp/auth.o
                                 0xef (size before relaxing)
 .debug_str     0x00003506       0x15 obj/default/src/netif/ppp/chap.o
                                 0xef (size before relaxing)
 .debug_str     0x0000351b       0x16 obj/default/src/netif/ppp/chpms.o
                                 0xf0 (size before relaxing)
 .debug_str     0x00003531       0x14 obj/default/src/netif/ppp/fsm.o
                                 0xee (size before relaxing)
 .debug_str     0x00003545       0x15 obj/default/src/netif/ppp/ipcp.o
                                 0xef (size before relaxing)
 .debug_str     0x0000355a       0x14 obj/default/src/netif/ppp/lcp.o
                                 0xee (size before relaxing)
 .debug_str     0x0000356e       0x16 obj/default/src/netif/ppp/magic.o
                                 0xf0 (size before relaxing)
 .debug_str     0x00003584       0x14 obj/default/src/netif/ppp/md5.o
                                 0xee (size before relaxing)
 .debug_str     0x00003598       0x14 obj/default/src/netif/ppp/pap.o
                                 0xee (size before relaxing)
 .debug_str     0x000035ac       0x14 obj/default/src/netif/ppp/ppp.o
                                 0xee (size before relaxing)
 .debug_str     0x000035c0       0x17 obj/default/src/netif/ppp/ppp_oe.o
                                 0xf1 (size before relaxing)
 .debug_str     0x000035d7       0x16 obj/default/src/netif/ppp/randm.o
                                 0xf0 (size before relaxing)
 .debug_str     0x000035ed       0x13 obj/default/src/netif/ppp/vj.o
                                 0xed (size before relaxing)
 .debug_str     0x00003600       0x13 obj/default/src/netif/slipif.o
                                 0xed (size before relaxing)
 .debug_str     0x00003613       0xe7 c:/altera/13.1/nios2eds/bin/gnu/h-i686-mingw32/bin/../lib/gcc/nios2-elf/4.7.3/../../../../../H-i686-mingw32/nios2-elf/lib\libc.a(lib_a-impure.o)
                                0x526 (size before relaxing)
 .debug_str     0x000036fa       0xf8 c:/altera/13.1/nios2eds/bin/gnu/h-i686-mingw32/bin/../lib/gcc/nios2-elf/4.7.3/../../../../../H-i686-mingw32/nios2-elf/lib\libc.a(lib_a-memcpy.o)
                                0x126 (size before relaxing)
 .debug_str     0x000037f2       0x56 c:/altera/13.1/nios2eds/bin/gnu/h-i686-mingw32/bin/../lib/gcc/nios2-elf/4.7.3/../../../../../H-i686-mingw32/nios2-elf/lib\libc.a(lib_a-memset.o)
                                0x18a (size before relaxing)
 .debug_str     0x00003848      0x11e c:/altera/13.1/nios2eds/bin/gnu/h-i686-mingw32/bin/../lib/gcc/nios2-elf/4.7.3/../../../../../H-i686-mingw32/nios2-elf/lib\libc.a(lib_a-printf.o)
                                0x571 (size before relaxing)
 .debug_str     0x00003966       0x57 c:/altera/13.1/nios2eds/bin/gnu/h-i686-mingw32/bin/../lib/gcc/nios2-elf/4.7.3/../../../../../H-i686-mingw32/nios2-elf/lib\libc.a(lib_a-putc.o)
                                0x530 (size before relaxing)
 .debug_str     0x000039bd       0x95 c:/altera/13.1/nios2eds/bin/gnu/h-i686-mingw32/bin/../lib/gcc/nios2-elf/4.7.3/../../../../../H-i686-mingw32/nios2-elf/lib\libc.a(lib_a-puts.o)
                                0x56e (size before relaxing)
 .debug_str     0x00003a52       0x42 c:/altera/13.1/nios2eds/bin/gnu/h-i686-mingw32/bin/../lib/gcc/nios2-elf/4.7.3/../../../../../H-i686-mingw32/nios2-elf/lib\libc.a(lib_a-strcmp.o)
                                0x16f (size before relaxing)
 .debug_str     0x00003a94       0x3b c:/altera/13.1/nios2eds/bin/gnu/h-i686-mingw32/bin/../lib/gcc/nios2-elf/4.7.3/../../../../../H-i686-mingw32/nios2-elf/lib\libc.a(lib_a-strlen.o)
                                0x189 (size before relaxing)
 .debug_str     0x00003acf       0x44 c:/altera/13.1/nios2eds/bin/gnu/h-i686-mingw32/bin/../lib/gcc/nios2-elf/4.7.3/../../../../../H-i686-mingw32/nios2-elf/lib\libc.a(lib_a-strncmp.o)
                                0x178 (size before relaxing)
 .debug_str     0x00003b13      0x267 c:/altera/13.1/nios2eds/bin/gnu/h-i686-mingw32/bin/../lib/gcc/nios2-elf/4.7.3/../../../../../H-i686-mingw32/nios2-elf/lib\libc.a(lib_a-vfprintf.o)
                                0x888 (size before relaxing)
 .debug_str     0x00003d7a       0x40 c:/altera/13.1/nios2eds/bin/gnu/h-i686-mingw32/bin/../lib/gcc/nios2-elf/4.7.3/../../../../../H-i686-mingw32/nios2-elf/lib\libc.a(lib_a-wbuf.o)
                                0x53a (size before relaxing)
 .debug_str     0x00003dba       0x4f c:/altera/13.1/nios2eds/bin/gnu/h-i686-mingw32/bin/../lib/gcc/nios2-elf/4.7.3/../../../../../H-i686-mingw32/nios2-elf/lib\libc.a(lib_a-wsetup.o)
                                0x535 (size before relaxing)
 .debug_str     0x00003e09      0x1e6 c:/altera/13.1/nios2eds/bin/gnu/h-i686-mingw32/bin/../lib/gcc/nios2-elf/4.7.3/../../../../../H-i686-mingw32/nios2-elf/lib\libc.a(lib_a-dtoa.o)
                                0x678 (size before relaxing)
 .debug_str     0x00003fef       0x48 c:/altera/13.1/nios2eds/bin/gnu/h-i686-mingw32/bin/../lib/gcc/nios2-elf/4.7.3/../../../../../H-i686-mingw32/nios2-elf/lib\libc.a(lib_a-fflush.o)
                                0x553 (size before relaxing)
 .debug_str     0x00004037      0x104 c:/altera/13.1/nios2eds/bin/gnu/h-i686-mingw32/bin/../lib/gcc/nios2-elf/4.7.3/../../../../../H-i686-mingw32/nios2-elf/lib\libc.a(lib_a-findfp.o)
                                0x61f (size before relaxing)
 .debug_str     0x0000413b      0x183 c:/altera/13.1/nios2eds/bin/gnu/h-i686-mingw32/bin/../lib/gcc/nios2-elf/4.7.3/../../../../../H-i686-mingw32/nios2-elf/lib\libc.a(lib_a-freer.o)
                                0x67f (size before relaxing)
 .debug_str     0x000042be       0x64 c:/altera/13.1/nios2eds/bin/gnu/h-i686-mingw32/bin/../lib/gcc/nios2-elf/4.7.3/../../../../../H-i686-mingw32/nios2-elf/lib\libc.a(lib_a-fvwrite.o)
                                0x5b8 (size before relaxing)
 .debug_str     0x00004322       0x5e c:/altera/13.1/nios2eds/bin/gnu/h-i686-mingw32/bin/../lib/gcc/nios2-elf/4.7.3/../../../../../H-i686-mingw32/nios2-elf/lib\libc.a(lib_a-fwalk.o)
                                0x567 (size before relaxing)
 .debug_str     0x00004380      0x145 c:/altera/13.1/nios2eds/bin/gnu/h-i686-mingw32/bin/../lib/gcc/nios2-elf/4.7.3/../../../../../H-i686-mingw32/nios2-elf/lib\libc.a(lib_a-locale.o)
                                0x6bc (size before relaxing)
 .debug_str     0x000044c5      0x129 c:/altera/13.1/nios2eds/bin/gnu/h-i686-mingw32/bin/../lib/gcc/nios2-elf/4.7.3/../../../../../H-i686-mingw32/nios2-elf/lib\libc.a(lib_a-makebuf.o)
                                0x62f (size before relaxing)
 .debug_str     0x000045ee       0xd9 c:/altera/13.1/nios2eds/bin/gnu/h-i686-mingw32/bin/../lib/gcc/nios2-elf/4.7.3/../../../../../H-i686-mingw32/nios2-elf/lib\libc.a(lib_a-mallocr.o)
                                0x735 (size before relaxing)
 .debug_str     0x000046c7       0x49 c:/altera/13.1/nios2eds/bin/gnu/h-i686-mingw32/bin/../lib/gcc/nios2-elf/4.7.3/../../../../../H-i686-mingw32/nios2-elf/lib\libc.a(lib_a-memchr.o)
                                0x197 (size before relaxing)
 .debug_str     0x00004710       0x45 c:/altera/13.1/nios2eds/bin/gnu/h-i686-mingw32/bin/../lib/gcc/nios2-elf/4.7.3/../../../../../H-i686-mingw32/nios2-elf/lib\libc.a(lib_a-memmove.o)
                                0x1a9 (size before relaxing)
 .debug_str     0x00004755       0xa5 c:/altera/13.1/nios2eds/bin/gnu/h-i686-mingw32/bin/../lib/gcc/nios2-elf/4.7.3/../../../../../H-i686-mingw32/nios2-elf/lib\libc.a(lib_a-mprec.o)
                                0x632 (size before relaxing)
 .debug_str     0x000047fa       0x49 c:/altera/13.1/nios2eds/bin/gnu/h-i686-mingw32/bin/../lib/gcc/nios2-elf/4.7.3/../../../../../H-i686-mingw32/nios2-elf/lib\libc.a(lib_a-reallocr.o)
                                0x607 (size before relaxing)
 .debug_str     0x00004843       0xd6 c:/altera/13.1/nios2eds/bin/gnu/h-i686-mingw32/bin/../lib/gcc/nios2-elf/4.7.3/../../../../../H-i686-mingw32/nios2-elf/lib\libc.a(lib_a-s_isinfd.o)
                                0x1a1 (size before relaxing)
 .debug_str     0x00004919       0x3d c:/altera/13.1/nios2eds/bin/gnu/h-i686-mingw32/bin/../lib/gcc/nios2-elf/4.7.3/../../../../../H-i686-mingw32/nios2-elf/lib\libc.a(lib_a-s_isnand.o)
                                0x1a1 (size before relaxing)
 .debug_str     0x00004956       0x43 c:/altera/13.1/nios2eds/bin/gnu/h-i686-mingw32/bin/../lib/gcc/nios2-elf/4.7.3/../../../../../H-i686-mingw32/nios2-elf/lib\libc.a(lib_a-sbrkr.o)
                                0x51c (size before relaxing)
 .debug_str     0x00004999       0x8e c:/altera/13.1/nios2eds/bin/gnu/h-i686-mingw32/bin/../lib/gcc/nios2-elf/4.7.3/../../../../../H-i686-mingw32/nios2-elf/lib\libc.a(lib_a-stdio.o)
                                0x570 (size before relaxing)
 .debug_str     0x00004a27       0x3a c:/altera/13.1/nios2eds/bin/gnu/h-i686-mingw32/bin/../lib/gcc/nios2-elf/4.7.3/../../../../../H-i686-mingw32/nios2-elf/lib\libc.a(lib_a-writer.o)
                                0x520 (size before relaxing)
 .debug_str     0x00004a61        0xf c:/altera/13.1/nios2eds/bin/gnu/h-i686-mingw32/bin/../lib/gcc/nios2-elf/4.7.3/../../../../../H-i686-mingw32/nios2-elf/lib\libc.a(lib_a-callocr.o)
                                0x55f (size before relaxing)
 .debug_str     0x00004a70       0x3a c:/altera/13.1/nios2eds/bin/gnu/h-i686-mingw32/bin/../lib/gcc/nios2-elf/4.7.3/../../../../../H-i686-mingw32/nios2-elf/lib\libc.a(lib_a-closer.o)
                                0x510 (size before relaxing)
 .debug_str     0x00004aaa       0x4b c:/altera/13.1/nios2eds/bin/gnu/h-i686-mingw32/bin/../lib/gcc/nios2-elf/4.7.3/../../../../../H-i686-mingw32/nios2-elf/lib\libc.a(lib_a-fclose.o)
                                0x562 (size before relaxing)
 .debug_str     0x00004af5       0x46 c:/altera/13.1/nios2eds/bin/gnu/h-i686-mingw32/bin/../lib/gcc/nios2-elf/4.7.3/../../../../../H-i686-mingw32/nios2-elf/lib\libc.a(lib_a-fstatr.o)
                                0x603 (size before relaxing)
 .debug_str     0x00004b3b       0x3d c:/altera/13.1/nios2eds/bin/gnu/h-i686-mingw32/bin/../lib/gcc/nios2-elf/4.7.3/../../../../../H-i686-mingw32/nios2-elf/lib\libc.a(lib_a-int_errno.o)
                                0x16f (size before relaxing)
 .debug_str     0x00004b78       0x42 c:/altera/13.1/nios2eds/bin/gnu/h-i686-mingw32/bin/../lib/gcc/nios2-elf/4.7.3/../../../../../H-i686-mingw32/nios2-elf/lib\libc.a(lib_a-isattyr.o)
                                0x513 (size before relaxing)
 .debug_str     0x00004bba       0x40 c:/altera/13.1/nios2eds/bin/gnu/h-i686-mingw32/bin/../lib/gcc/nios2-elf/4.7.3/../../../../../H-i686-mingw32/nios2-elf/lib\libc.a(lib_a-lseekr.o)
                                0x524 (size before relaxing)
 .debug_str     0x00004bfa       0x39 c:/altera/13.1/nios2eds/bin/gnu/h-i686-mingw32/bin/../lib/gcc/nios2-elf/4.7.3/../../../../../H-i686-mingw32/nios2-elf/lib\libc.a(lib_a-readr.o)
                                0x51d (size before relaxing)
 .debug_str     0x00004c33      0x15d c:/altera/13.1/nios2eds/bin/gnu/h-i686-mingw32/bin/../lib/gcc/nios2-elf/4.7.3\libgcc.a(_udivdi3.o)
                                0x1f6 (size before relaxing)
 .debug_str     0x00004d90        0xa c:/altera/13.1/nios2eds/bin/gnu/h-i686-mingw32/bin/../lib/gcc/nios2-elf/4.7.3\libgcc.a(_umoddi3.o)
                                0x1f6 (size before relaxing)
 .debug_str     0x00004d9a      0x16f c:/altera/13.1/nios2eds/bin/gnu/h-i686-mingw32/bin/../lib/gcc/nios2-elf/4.7.3\libgcc.a(_addsub_df.o)
                                0x2a9 (size before relaxing)
 .debug_str     0x00004f09       0x40 c:/altera/13.1/nios2eds/bin/gnu/h-i686-mingw32/bin/../lib/gcc/nios2-elf/4.7.3\libgcc.a(_mul_df.o)
                                0x27b (size before relaxing)
 .debug_str     0x00004f49       0x35 c:/altera/13.1/nios2eds/bin/gnu/h-i686-mingw32/bin/../lib/gcc/nios2-elf/4.7.3\libgcc.a(_div_df.o)
                                0x26b (size before relaxing)
 .debug_str     0x00004f7e       0x20 c:/altera/13.1/nios2eds/bin/gnu/h-i686-mingw32/bin/../lib/gcc/nios2-elf/4.7.3\libgcc.a(_eq_df.o)
                                0x238 (size before relaxing)
 .debug_str     0x00004f9e        0x8 c:/altera/13.1/nios2eds/bin/gnu/h-i686-mingw32/bin/../lib/gcc/nios2-elf/4.7.3\libgcc.a(_ne_df.o)
                                0x238 (size before relaxing)
 .debug_str     0x00004fa6        0x8 c:/altera/13.1/nios2eds/bin/gnu/h-i686-mingw32/bin/../lib/gcc/nios2-elf/4.7.3\libgcc.a(_gt_df.o)
                                0x238 (size before relaxing)
 .debug_str     0x00004fae        0x8 c:/altera/13.1/nios2eds/bin/gnu/h-i686-mingw32/bin/../lib/gcc/nios2-elf/4.7.3\libgcc.a(_ge_df.o)
                                0x238 (size before relaxing)
 .debug_str     0x00004fb6        0x8 c:/altera/13.1/nios2eds/bin/gnu/h-i686-mingw32/bin/../lib/gcc/nios2-elf/4.7.3\libgcc.a(_lt_df.o)
                                0x238 (size before relaxing)
 .debug_str     0x00004fbe       0x21 c:/altera/13.1/nios2eds/bin/gnu/h-i686-mingw32/bin/../lib/gcc/nios2-elf/4.7.3\libgcc.a(_si_to_df.o)
                                0x20e (size before relaxing)
 .debug_str     0x00004fdf        0xa c:/altera/13.1/nios2eds/bin/gnu/h-i686-mingw32/bin/../lib/gcc/nios2-elf/4.7.3\libgcc.a(_df_to_si.o)
                                0x230 (size before relaxing)
 .debug_str     0x00000000      0x1c1 c:/altera/13.1/nios2eds/bin/gnu/h-i686-mingw32/bin/../lib/gcc/nios2-elf/4.7.3\libgcc.a(_thenan_df.o)
 .debug_str     0x00004fe9       0x14 c:/altera/13.1/nios2eds/bin/gnu/h-i686-mingw32/bin/../lib/gcc/nios2-elf/4.7.3\libgcc.a(_usi_to_df.o)
                                0x20a (size before relaxing)
 .debug_str     0x00004ffd       0x7c c:/altera/13.1/nios2eds/bin/gnu/h-i686-mingw32/bin/../lib/gcc/nios2-elf/4.7.3\libgcc.a(lib2-divmod.o)
                                0x15b (size before relaxing)
 .debug_str     0x00005079        0x9 c:/altera/13.1/nios2eds/bin/gnu/h-i686-mingw32/bin/../lib/gcc/nios2-elf/4.7.3\libgcc.a(_muldi3.o)
                                0x1a2 (size before relaxing)
 .debug_str     0x00000000      0x160 c:/altera/13.1/nios2eds/bin/gnu/h-i686-mingw32/bin/../lib/gcc/nios2-elf/4.7.3\libgcc.a(_clz.o)
 .debug_str     0x00000000      0x17d c:/altera/13.1/nios2eds/bin/gnu/h-i686-mingw32/bin/../lib/gcc/nios2-elf/4.7.3\libgcc.a(_clzsi2.o)
 .debug_str     0x00005082        0x7 c:/altera/13.1/nios2eds/bin/gnu/h-i686-mingw32/bin/../lib/gcc/nios2-elf/4.7.3\libgcc.a(_pack_df.o)
                                0x224 (size before relaxing)
 .debug_str     0x00000000      0x206 c:/altera/13.1/nios2eds/bin/gnu/h-i686-mingw32/bin/../lib/gcc/nios2-elf/4.7.3\libgcc.a(_unpack_df.o)
 .debug_str     0x00000000      0x1e4 c:/altera/13.1/nios2eds/bin/gnu/h-i686-mingw32/bin/../lib/gcc/nios2-elf/4.7.3\libgcc.a(_fpcmp_parts_df.o)
 .debug_str     0x00005089       0x23 c:/altera/13.1/nios2eds/bin/gnu/h-i686-mingw32/bin/../lib/gcc/nios2-elf/4.7.3\libgcc.a(_lshrdi3.o)
                                0x194 (size before relaxing)
 .debug_str     0x000050ac        0xa c:/altera/13.1/nios2eds/bin/gnu/h-i686-mingw32/bin/../lib/gcc/nios2-elf/4.7.3\libgcc.a(_ashldi3.o)
                                0x194 (size before relaxing)
 .debug_str     0x000050b6       0x99 ../lwIP_NIOS_II_Example_bsp/\libhal_bsp.a(alt_alarm_start.o)
                                0x242 (size before relaxing)
 .debug_str     0x0000514f       0x6f ../lwIP_NIOS_II_Example_bsp/\libhal_bsp.a(alt_close.o)
                                0x1c8 (size before relaxing)
 .debug_str     0x000051be       0x49 ../lwIP_NIOS_II_Example_bsp/\libhal_bsp.a(alt_dev.o)
                                0x2c2 (size before relaxing)
 .debug_str     0x00005207       0x14 ../lwIP_NIOS_II_Example_bsp/\libhal_bsp.a(alt_errno.o)
                                0x102 (size before relaxing)
 .debug_str     0x0000521b       0x14 ../lwIP_NIOS_II_Example_bsp/\libhal_bsp.a(alt_fstat.o)
                                0x2a9 (size before relaxing)
 .debug_str     0x0000522f       0x15 ../lwIP_NIOS_II_Example_bsp/\libhal_bsp.a(alt_isatty.o)
                                0x2b1 (size before relaxing)
 .debug_str     0x00005244       0xe4 ../lwIP_NIOS_II_Example_bsp/\libhal_bsp.a(alt_load.o)
                                0x1cf (size before relaxing)
 .debug_str     0x00005328       0x14 ../lwIP_NIOS_II_Example_bsp/\libhal_bsp.a(alt_lseek.o)
                                0x1ce (size before relaxing)
 .debug_str     0x0000533c       0x44 ../lwIP_NIOS_II_Example_bsp/\libhal_bsp.a(alt_main.o)
                                0x15a (size before relaxing)
 .debug_str     0x00005380       0x1a ../lwIP_NIOS_II_Example_bsp/\libhal_bsp.a(alt_malloc_lock.o)
                                0x4ab (size before relaxing)
 .debug_str     0x0000539a       0x13 ../lwIP_NIOS_II_Example_bsp/\libhal_bsp.a(alt_read.o)
                                0x2b4 (size before relaxing)
 .debug_str     0x000053ad       0x28 ../lwIP_NIOS_II_Example_bsp/\libhal_bsp.a(alt_release_fd.o)
                                0x19c (size before relaxing)
 .debug_str     0x000053d5       0x30 ../lwIP_NIOS_II_Example_bsp/\libhal_bsp.a(alt_remap_uncached.o)
                                0x116 (size before relaxing)
 .debug_str     0x00005405       0x61 ../lwIP_NIOS_II_Example_bsp/\libhal_bsp.a(alt_sbrk.o)
                                0x198 (size before relaxing)
 .debug_str     0x00005466       0x4a ../lwIP_NIOS_II_Example_bsp/\libhal_bsp.a(alt_tick.o)
                                0x216 (size before relaxing)
 .debug_str     0x000054b0       0x32 ../lwIP_NIOS_II_Example_bsp/\libhal_bsp.a(alt_uncached_malloc.o)
                                0x124 (size before relaxing)
 .debug_str     0x000054e2       0x27 ../lwIP_NIOS_II_Example_bsp/\libhal_bsp.a(alt_usleep.o)
                                0x105 (size before relaxing)
 .debug_str     0x00005509       0x14 ../lwIP_NIOS_II_Example_bsp/\libhal_bsp.a(alt_write.o)
                                0x2b5 (size before relaxing)
 .debug_str     0x0000551d      0x4c5 ../lwIP_NIOS_II_Example_bsp/\libhal_bsp.a(alt_sys_init.o)
                                0x882 (size before relaxing)
 .debug_str     0x000059e2      0x197 ../lwIP_NIOS_II_Example_bsp/\libhal_bsp.a(altera_avalon_cfi_flash.o)
                                0x4fa (size before relaxing)
 .debug_str     0x00005b79      0x2bf ../lwIP_NIOS_II_Example_bsp/\libhal_bsp.a(altera_avalon_cfi_flash_table.o)
                                0x612 (size before relaxing)
 .debug_str     0x00005e38       0xac ../lwIP_NIOS_II_Example_bsp/\libhal_bsp.a(altera_avalon_jtag_uart_fd.o)
                                0x361 (size before relaxing)
 .debug_str     0x00005ee4       0xb4 ../lwIP_NIOS_II_Example_bsp/\libhal_bsp.a(altera_avalon_jtag_uart_init.o)
                                0x2f5 (size before relaxing)
 .debug_str     0x00005f98       0x4a ../lwIP_NIOS_II_Example_bsp/\libhal_bsp.a(altera_avalon_jtag_uart_ioctl.o)
                                0x250 (size before relaxing)
 .debug_str     0x00005fe2       0x48 ../lwIP_NIOS_II_Example_bsp/\libhal_bsp.a(altera_avalon_jtag_uart_read.o)
                                0x2ac (size before relaxing)
 .debug_str     0x0000602a       0x4a ../lwIP_NIOS_II_Example_bsp/\libhal_bsp.a(altera_avalon_jtag_uart_write.o)
                                0x2ad (size before relaxing)
 .debug_str     0x00006074      0x1f7 ../lwIP_NIOS_II_Example_bsp/\libhal_bsp.a(altera_avalon_lcd_16207.o)
                                0x44a (size before relaxing)
 .debug_str     0x0000626b       0x4a ../lwIP_NIOS_II_Example_bsp/\libhal_bsp.a(altera_avalon_lcd_16207_fd.o)
                                0x315 (size before relaxing)
 .debug_str     0x000062b5      0x35a ../lwIP_NIOS_II_Example_bsp/\libhal_bsp.a(altera_avalon_sgdma.o)
                                0x64d (size before relaxing)
 .debug_str     0x0000660f       0x66 ../lwIP_NIOS_II_Example_bsp/\libhal_bsp.a(altera_avalon_timer_sc.o)
                                0x20f (size before relaxing)
 .debug_str     0x00006675      0xbcb ../lwIP_NIOS_II_Example_bsp/\libhal_bsp.a(altera_avalon_tse.o)
                               0x1c88 (size before relaxing)
 .debug_str     0x00007240       0x2c ../lwIP_NIOS_II_Example_bsp/\libhal_bsp.a(altera_avalon_tse_system_info.o)
                                0x8c9 (size before relaxing)
 .debug_str     0x0000726c       0x77 ../lwIP_NIOS_II_Example_bsp/\libhal_bsp.a(altera_avalon_uart_fd.o)
                                0x2b2 (size before relaxing)
 .debug_str     0x000072e3       0xa0 ../lwIP_NIOS_II_Example_bsp/\libhal_bsp.a(altera_avalon_uart_init.o)
                                0x274 (size before relaxing)
 .debug_str     0x00007383       0x4f ../lwIP_NIOS_II_Example_bsp/\libhal_bsp.a(altera_avalon_uart_read.o)
                                0x25c (size before relaxing)
 .debug_str     0x000073d2       0x49 ../lwIP_NIOS_II_Example_bsp/\libhal_bsp.a(altera_avalon_uart_write.o)
                                0x250 (size before relaxing)
 .debug_str     0x0000741b       0x58 ../lwIP_NIOS_II_Example_bsp/\libhal_bsp.a(altera_vic_irq_init.o)
                                0x1b6 (size before relaxing)
 .debug_str     0x00007473       0x53 ../lwIP_NIOS_II_Example_bsp/\libhal_bsp.a(altera_vic_isr_register.o)
                                0x220 (size before relaxing)
 .debug_str     0x000074c6       0x42 ../lwIP_NIOS_II_Example_bsp/\libhal_bsp.a(alt_busy_sleep.o)
                                0x128 (size before relaxing)
 .debug_str     0x00007508       0x2c ../lwIP_NIOS_II_Example_bsp/\libhal_bsp.a(alt_dcache_flush.o)
                                0x118 (size before relaxing)
 .debug_str     0x00007534       0x34 ../lwIP_NIOS_II_Example_bsp/\libhal_bsp.a(alt_dcache_flush_all.o)
                                0x112 (size before relaxing)
 .debug_str     0x00007568       0x34 ../lwIP_NIOS_II_Example_bsp/\libhal_bsp.a(alt_dev_llist_insert.o)
                                0x189 (size before relaxing)
 .debug_str     0x0000759c       0x48 ../lwIP_NIOS_II_Example_bsp/\libhal_bsp.a(alt_do_ctors.o)
                                 0x99 (size before relaxing)
 .debug_str     0x000075e4       0x4c ../lwIP_NIOS_II_Example_bsp/\libhal_bsp.a(alt_do_dtors.o)
                                 0x98 (size before relaxing)
 .debug_str     0x00007630       0x24 ../lwIP_NIOS_II_Example_bsp/\libhal_bsp.a(alt_find_dev.o)
                                0x1a9 (size before relaxing)
 .debug_str     0x00007654       0x3f ../lwIP_NIOS_II_Example_bsp/\libhal_bsp.a(alt_flash_dev.o)
                                0x2ac (size before relaxing)
 .debug_str     0x00007693       0x34 ../lwIP_NIOS_II_Example_bsp/\libhal_bsp.a(alt_icache_flush_all.o)
                                0x112 (size before relaxing)
 .debug_str     0x000076c7       0x56 ../lwIP_NIOS_II_Example_bsp/\libhal_bsp.a(alt_io_redirect.o)
                                0x2d3 (size before relaxing)
 .debug_str     0x0000771d       0x29 ../lwIP_NIOS_II_Example_bsp/\libhal_bsp.a(alt_open.o)
                                0x208 (size before relaxing)
 .debug_str     0x00007746       0x93 ../lwIP_NIOS_II_Example_bsp/\libhal_bsp.a(altera_avalon_cfi_flash_amd.o)
                                0x3ec (size before relaxing)
 .debug_str     0x000077d9       0x80 ../lwIP_NIOS_II_Example_bsp/\libhal_bsp.a(altera_avalon_cfi_flash_intel.o)
                                0x3e9 (size before relaxing)
 .debug_str     0x00007859       0x26 ../lwIP_NIOS_II_Example_bsp/\libhal_bsp.a(alt_find_file.o)
                                0x1b7 (size before relaxing)
 .debug_str     0x0000787f       0x30 ../lwIP_NIOS_II_Example_bsp/\libhal_bsp.a(alt_get_fd.o)
                                0x1d9 (size before relaxing)
 .debug_str     0x000078af       0x2c ../lwIP_NIOS_II_Example_bsp/\libhal_bsp.a(alt_icache_flush.o)
                                0x118 (size before relaxing)
 .debug_str     0x000078db       0x7f c:/altera/13.1/nios2eds/bin/gnu/h-i686-mingw32/bin/../lib/gcc/nios2-elf/4.7.3/../../../../../H-i686-mingw32/nios2-elf/lib\libc.a(lib_a-atexit.o)
                                0x20f (size before relaxing)
 .debug_str     0x0000795a       0xd9 c:/altera/13.1/nios2eds/bin/gnu/h-i686-mingw32/bin/../lib/gcc/nios2-elf/4.7.3/../../../../../H-i686-mingw32/nios2-elf/lib\libc.a(lib_a-ctype_.o)
                                 0xff (size before relaxing)
 .debug_str     0x00007a33       0x4a c:/altera/13.1/nios2eds/bin/gnu/h-i686-mingw32/bin/../lib/gcc/nios2-elf/4.7.3/../../../../../H-i686-mingw32/nios2-elf/lib\libc.a(lib_a-exit.o)
                                0x52f (size before relaxing)
 .debug_str     0x00007a7d       0x42 c:/altera/13.1/nios2eds/bin/gnu/h-i686-mingw32/bin/../lib/gcc/nios2-elf/4.7.3/../../../../../H-i686-mingw32/nios2-elf/lib\libc.a(lib_a-malloc.o)
                                0x53a (size before relaxing)
 .debug_str     0x00007abf       0x42 c:/altera/13.1/nios2eds/bin/gnu/h-i686-mingw32/bin/../lib/gcc/nios2-elf/4.7.3/../../../../../H-i686-mingw32/nios2-elf/lib\libc.a(lib_a-memcmp.o)
                                0x176 (size before relaxing)
 .debug_str     0x00007b01       0x42 c:/altera/13.1/nios2eds/bin/gnu/h-i686-mingw32/bin/../lib/gcc/nios2-elf/4.7.3/../../../../../H-i686-mingw32/nios2-elf/lib\libc.a(lib_a-strcpy.o)
                                0x191 (size before relaxing)
 .debug_str     0x00007b43       0x3d c:/altera/13.1/nios2eds/bin/gnu/h-i686-mingw32/bin/../lib/gcc/nios2-elf/4.7.3/../../../../../H-i686-mingw32/nios2-elf/lib\libc.a(lib_a-__atexit.o)
                                0x573 (size before relaxing)
 .debug_str     0x00007b80       0x54 c:/altera/13.1/nios2eds/bin/gnu/h-i686-mingw32/bin/../lib/gcc/nios2-elf/4.7.3/../../../../../H-i686-mingw32/nios2-elf/lib\libc.a(lib_a-__call_atexit.o)
                                0x551 (size before relaxing)
 .debug_str     0x00007bd4       0x2a ../lwIP_NIOS_II_Example_bsp/\libhal_bsp.a(alt_exit.o)
                                0x10e (size before relaxing)

.debug_loc      0x00000000    0x1453d
 *(.debug_loc)
 .debug_loc     0x00000000       0xb0 obj/default/alteraTseEthernetif.o
 .debug_loc     0x000000b0       0xb0 obj/default/driver/alteraTseEthernetif.o
 .debug_loc     0x00000160       0x2c obj/default/driver/fs.o
 .debug_loc     0x0000018c      0x160 obj/default/driver/httpd.o
 .debug_loc     0x000002ec       0xde obj/default/driver/lwip_tse_mac.o
 .debug_loc     0x000003ca       0x2c obj/default/fs.o
 .debug_loc     0x000003f6      0x160 obj/default/httpd.o
 .debug_loc     0x00000556       0xde obj/default/lwip_tse_mac.o
 .debug_loc     0x00000634       0x84 obj/default/main.o
 .debug_loc     0x000006b8      0x630 obj/default/src/core/dhcp.o
 .debug_loc     0x00000ce8       0x2c obj/default/src/core/init.o
 .debug_loc     0x00000d14       0xb0 obj/default/src/core/ipv4/icmp.o
 .debug_loc     0x00000dc4       0x84 obj/default/src/core/ipv4/inet.o
 .debug_loc     0x00000e48       0xb0 obj/default/src/core/ipv4/inet_chksum.o
 .debug_loc     0x00000ef8       0xb0 obj/default/src/core/ipv4/ip.o
 .debug_loc     0x00000fa8       0x2c obj/default/src/core/ipv4/ip_addr.o
 .debug_loc     0x00000fd4      0x160 obj/default/src/core/ipv4/ip_frag.o
 .debug_loc     0x00001134      0x108 obj/default/src/core/mem.o
 .debug_loc     0x0000123c       0x84 obj/default/src/core/memp.o
 .debug_loc     0x000012c0      0x1e4 obj/default/src/core/netif.o
 .debug_loc     0x000014a4      0x23c obj/default/src/core/pbuf.o
 .debug_loc     0x000016e0      0x160 obj/default/src/core/raw.o
 .debug_loc     0x00001840      0x580 obj/default/src/core/tcp.o
 .debug_loc     0x00001dc0      0x135 obj/default/src/core/tcp_in.o
 .debug_loc     0x00001ef5      0x23d obj/default/src/core/tcp_out.o
 .debug_loc     0x00002132      0x1b8 obj/default/src/core/udp.o
 .debug_loc     0x000022ea      0x23c obj/default/src/netif/etharp.o
 .debug_loc     0x00002526      0x1f2 c:/altera/13.1/nios2eds/bin/gnu/h-i686-mingw32/bin/../lib/gcc/nios2-elf/4.7.3/../../../../../H-i686-mingw32/nios2-elf/lib\libc.a(lib_a-memcpy.o)
 .debug_loc     0x00002718      0x1b7 c:/altera/13.1/nios2eds/bin/gnu/h-i686-mingw32/bin/../lib/gcc/nios2-elf/4.7.3/../../../../../H-i686-mingw32/nios2-elf/lib\libc.a(lib_a-memset.o)
 .debug_loc     0x000028cf      0x132 c:/altera/13.1/nios2eds/bin/gnu/h-i686-mingw32/bin/../lib/gcc/nios2-elf/4.7.3/../../../../../H-i686-mingw32/nios2-elf/lib\libc.a(lib_a-printf.o)
 .debug_loc     0x00002a01      0x257 c:/altera/13.1/nios2eds/bin/gnu/h-i686-mingw32/bin/../lib/gcc/nios2-elf/4.7.3/../../../../../H-i686-mingw32/nios2-elf/lib\libc.a(lib_a-putc.o)
 .debug_loc     0x00002c58       0xd9 c:/altera/13.1/nios2eds/bin/gnu/h-i686-mingw32/bin/../lib/gcc/nios2-elf/4.7.3/../../../../../H-i686-mingw32/nios2-elf/lib\libc.a(lib_a-puts.o)
 .debug_loc     0x00002d31       0xb0 c:/altera/13.1/nios2eds/bin/gnu/h-i686-mingw32/bin/../lib/gcc/nios2-elf/4.7.3/../../../../../H-i686-mingw32/nios2-elf/lib\libc.a(lib_a-strcmp.o)
 .debug_loc     0x00002de1       0x52 c:/altera/13.1/nios2eds/bin/gnu/h-i686-mingw32/bin/../lib/gcc/nios2-elf/4.7.3/../../../../../H-i686-mingw32/nios2-elf/lib\libc.a(lib_a-strlen.o)
 .debug_loc     0x00002e33      0x122 c:/altera/13.1/nios2eds/bin/gnu/h-i686-mingw32/bin/../lib/gcc/nios2-elf/4.7.3/../../../../../H-i686-mingw32/nios2-elf/lib\libc.a(lib_a-strncmp.o)
 .debug_loc     0x00002f55     0x2b6b c:/altera/13.1/nios2eds/bin/gnu/h-i686-mingw32/bin/../lib/gcc/nios2-elf/4.7.3/../../../../../H-i686-mingw32/nios2-elf/lib\libc.a(lib_a-vfprintf.o)
 .debug_loc     0x00005ac0      0x193 c:/altera/13.1/nios2eds/bin/gnu/h-i686-mingw32/bin/../lib/gcc/nios2-elf/4.7.3/../../../../../H-i686-mingw32/nios2-elf/lib\libc.a(lib_a-wbuf.o)
 .debug_loc     0x00005c53       0xba c:/altera/13.1/nios2eds/bin/gnu/h-i686-mingw32/bin/../lib/gcc/nios2-elf/4.7.3/../../../../../H-i686-mingw32/nios2-elf/lib\libc.a(lib_a-wsetup.o)
 .debug_loc     0x00005d0d     0x2286 c:/altera/13.1/nios2eds/bin/gnu/h-i686-mingw32/bin/../lib/gcc/nios2-elf/4.7.3/../../../../../H-i686-mingw32/nios2-elf/lib\libc.a(lib_a-dtoa.o)
 .debug_loc     0x00007f93      0x259 c:/altera/13.1/nios2eds/bin/gnu/h-i686-mingw32/bin/../lib/gcc/nios2-elf/4.7.3/../../../../../H-i686-mingw32/nios2-elf/lib\libc.a(lib_a-fflush.o)
 .debug_loc     0x000081ec      0x29c c:/altera/13.1/nios2eds/bin/gnu/h-i686-mingw32/bin/../lib/gcc/nios2-elf/4.7.3/../../../../../H-i686-mingw32/nios2-elf/lib\libc.a(lib_a-findfp.o)
 .debug_loc     0x00008488      0x668 c:/altera/13.1/nios2eds/bin/gnu/h-i686-mingw32/bin/../lib/gcc/nios2-elf/4.7.3/../../../../../H-i686-mingw32/nios2-elf/lib\libc.a(lib_a-freer.o)
 .debug_loc     0x00008af0      0x50c c:/altera/13.1/nios2eds/bin/gnu/h-i686-mingw32/bin/../lib/gcc/nios2-elf/4.7.3/../../../../../H-i686-mingw32/nios2-elf/lib\libc.a(lib_a-fvwrite.o)
 .debug_loc     0x00008ffc      0x2ae c:/altera/13.1/nios2eds/bin/gnu/h-i686-mingw32/bin/../lib/gcc/nios2-elf/4.7.3/../../../../../H-i686-mingw32/nios2-elf/lib\libc.a(lib_a-fwalk.o)
 .debug_loc     0x000092aa      0x13e c:/altera/13.1/nios2eds/bin/gnu/h-i686-mingw32/bin/../lib/gcc/nios2-elf/4.7.3/../../../../../H-i686-mingw32/nios2-elf/lib\libc.a(lib_a-locale.o)
 .debug_loc     0x000093e8      0x16a c:/altera/13.1/nios2eds/bin/gnu/h-i686-mingw32/bin/../lib/gcc/nios2-elf/4.7.3/../../../../../H-i686-mingw32/nios2-elf/lib\libc.a(lib_a-makebuf.o)
 .debug_loc     0x00009552      0xb50 c:/altera/13.1/nios2eds/bin/gnu/h-i686-mingw32/bin/../lib/gcc/nios2-elf/4.7.3/../../../../../H-i686-mingw32/nios2-elf/lib\libc.a(lib_a-mallocr.o)
 .debug_loc     0x0000a0a2      0x239 c:/altera/13.1/nios2eds/bin/gnu/h-i686-mingw32/bin/../lib/gcc/nios2-elf/4.7.3/../../../../../H-i686-mingw32/nios2-elf/lib\libc.a(lib_a-memchr.o)
 .debug_loc     0x0000a2db      0x240 c:/altera/13.1/nios2eds/bin/gnu/h-i686-mingw32/bin/../lib/gcc/nios2-elf/4.7.3/../../../../../H-i686-mingw32/nios2-elf/lib\libc.a(lib_a-memmove.o)
 .debug_loc     0x0000a51b     0x1b23 c:/altera/13.1/nios2eds/bin/gnu/h-i686-mingw32/bin/../lib/gcc/nios2-elf/4.7.3/../../../../../H-i686-mingw32/nios2-elf/lib\libc.a(lib_a-mprec.o)
 .debug_loc     0x0000c03e     0x1136 c:/altera/13.1/nios2eds/bin/gnu/h-i686-mingw32/bin/../lib/gcc/nios2-elf/4.7.3/../../../../../H-i686-mingw32/nios2-elf/lib\libc.a(lib_a-reallocr.o)
 .debug_loc     0x0000d174       0x88 c:/altera/13.1/nios2eds/bin/gnu/h-i686-mingw32/bin/../lib/gcc/nios2-elf/4.7.3/../../../../../H-i686-mingw32/nios2-elf/lib\libc.a(lib_a-s_isinfd.o)
 .debug_loc     0x0000d1fc       0xa5 c:/altera/13.1/nios2eds/bin/gnu/h-i686-mingw32/bin/../lib/gcc/nios2-elf/4.7.3/../../../../../H-i686-mingw32/nios2-elf/lib\libc.a(lib_a-s_isnand.o)
 .debug_loc     0x0000d2a1       0x86 c:/altera/13.1/nios2eds/bin/gnu/h-i686-mingw32/bin/../lib/gcc/nios2-elf/4.7.3/../../../../../H-i686-mingw32/nios2-elf/lib\libc.a(lib_a-sbrkr.o)
 .debug_loc     0x0000d327      0x379 c:/altera/13.1/nios2eds/bin/gnu/h-i686-mingw32/bin/../lib/gcc/nios2-elf/4.7.3/../../../../../H-i686-mingw32/nios2-elf/lib\libc.a(lib_a-stdio.o)
 .debug_loc     0x0000d6a0       0xde c:/altera/13.1/nios2eds/bin/gnu/h-i686-mingw32/bin/../lib/gcc/nios2-elf/4.7.3/../../../../../H-i686-mingw32/nios2-elf/lib\libc.a(lib_a-writer.o)
 .debug_loc     0x0000d77e      0x283 c:/altera/13.1/nios2eds/bin/gnu/h-i686-mingw32/bin/../lib/gcc/nios2-elf/4.7.3/../../../../../H-i686-mingw32/nios2-elf/lib\libc.a(lib_a-callocr.o)
 .debug_loc     0x0000da01       0x86 c:/altera/13.1/nios2eds/bin/gnu/h-i686-mingw32/bin/../lib/gcc/nios2-elf/4.7.3/../../../../../H-i686-mingw32/nios2-elf/lib\libc.a(lib_a-closer.o)
 .debug_loc     0x0000da87      0x136 c:/altera/13.1/nios2eds/bin/gnu/h-i686-mingw32/bin/../lib/gcc/nios2-elf/4.7.3/../../../../../H-i686-mingw32/nios2-elf/lib\libc.a(lib_a-fclose.o)
 .debug_loc     0x0000dbbd       0xb2 c:/altera/13.1/nios2eds/bin/gnu/h-i686-mingw32/bin/../lib/gcc/nios2-elf/4.7.3/../../../../../H-i686-mingw32/nios2-elf/lib\libc.a(lib_a-fstatr.o)
 .debug_loc     0x0000dc6f       0x86 c:/altera/13.1/nios2eds/bin/gnu/h-i686-mingw32/bin/../lib/gcc/nios2-elf/4.7.3/../../../../../H-i686-mingw32/nios2-elf/lib\libc.a(lib_a-isattyr.o)
 .debug_loc     0x0000dcf5       0xde c:/altera/13.1/nios2eds/bin/gnu/h-i686-mingw32/bin/../lib/gcc/nios2-elf/4.7.3/../../../../../H-i686-mingw32/nios2-elf/lib\libc.a(lib_a-lseekr.o)
 .debug_loc     0x0000ddd3       0xde c:/altera/13.1/nios2eds/bin/gnu/h-i686-mingw32/bin/../lib/gcc/nios2-elf/4.7.3/../../../../../H-i686-mingw32/nios2-elf/lib\libc.a(lib_a-readr.o)
 .debug_loc     0x0000deb1     0x10da c:/altera/13.1/nios2eds/bin/gnu/h-i686-mingw32/bin/../lib/gcc/nios2-elf/4.7.3\libgcc.a(_udivdi3.o)
 .debug_loc     0x0000ef8b     0x104d c:/altera/13.1/nios2eds/bin/gnu/h-i686-mingw32/bin/../lib/gcc/nios2-elf/4.7.3\libgcc.a(_umoddi3.o)
 .debug_loc     0x0000ffd8      0x7a1 c:/altera/13.1/nios2eds/bin/gnu/h-i686-mingw32/bin/../lib/gcc/nios2-elf/4.7.3\libgcc.a(_addsub_df.o)
 .debug_loc     0x00010779      0x3ba c:/altera/13.1/nios2eds/bin/gnu/h-i686-mingw32/bin/../lib/gcc/nios2-elf/4.7.3\libgcc.a(_mul_df.o)
 .debug_loc     0x00010b33      0x25e c:/altera/13.1/nios2eds/bin/gnu/h-i686-mingw32/bin/../lib/gcc/nios2-elf/4.7.3\libgcc.a(_div_df.o)
 .debug_loc     0x00010d91       0x70 c:/altera/13.1/nios2eds/bin/gnu/h-i686-mingw32/bin/../lib/gcc/nios2-elf/4.7.3\libgcc.a(_eq_df.o)
 .debug_loc     0x00010e01       0x70 c:/altera/13.1/nios2eds/bin/gnu/h-i686-mingw32/bin/../lib/gcc/nios2-elf/4.7.3\libgcc.a(_ne_df.o)
 .debug_loc     0x00010e71       0x70 c:/altera/13.1/nios2eds/bin/gnu/h-i686-mingw32/bin/../lib/gcc/nios2-elf/4.7.3\libgcc.a(_gt_df.o)
 .debug_loc     0x00010ee1       0x70 c:/altera/13.1/nios2eds/bin/gnu/h-i686-mingw32/bin/../lib/gcc/nios2-elf/4.7.3\libgcc.a(_ge_df.o)
 .debug_loc     0x00010f51       0x70 c:/altera/13.1/nios2eds/bin/gnu/h-i686-mingw32/bin/../lib/gcc/nios2-elf/4.7.3\libgcc.a(_lt_df.o)
 .debug_loc     0x00010fc1       0xd3 c:/altera/13.1/nios2eds/bin/gnu/h-i686-mingw32/bin/../lib/gcc/nios2-elf/4.7.3\libgcc.a(_si_to_df.o)
 .debug_loc     0x00011094       0xce c:/altera/13.1/nios2eds/bin/gnu/h-i686-mingw32/bin/../lib/gcc/nios2-elf/4.7.3\libgcc.a(_df_to_si.o)
 .debug_loc     0x00011162      0x168 c:/altera/13.1/nios2eds/bin/gnu/h-i686-mingw32/bin/../lib/gcc/nios2-elf/4.7.3\libgcc.a(_usi_to_df.o)
 .debug_loc     0x000112ca      0x338 c:/altera/13.1/nios2eds/bin/gnu/h-i686-mingw32/bin/../lib/gcc/nios2-elf/4.7.3\libgcc.a(lib2-divmod.o)
 .debug_loc     0x00011602      0x15d c:/altera/13.1/nios2eds/bin/gnu/h-i686-mingw32/bin/../lib/gcc/nios2-elf/4.7.3\libgcc.a(_muldi3.o)
 .debug_loc     0x0001175f      0x19a c:/altera/13.1/nios2eds/bin/gnu/h-i686-mingw32/bin/../lib/gcc/nios2-elf/4.7.3\libgcc.a(_clzsi2.o)
 .debug_loc     0x000118f9      0x2ae c:/altera/13.1/nios2eds/bin/gnu/h-i686-mingw32/bin/../lib/gcc/nios2-elf/4.7.3\libgcc.a(_pack_df.o)
 .debug_loc     0x00011ba7      0x179 c:/altera/13.1/nios2eds/bin/gnu/h-i686-mingw32/bin/../lib/gcc/nios2-elf/4.7.3\libgcc.a(_unpack_df.o)
 .debug_loc     0x00011d20       0x7c c:/altera/13.1/nios2eds/bin/gnu/h-i686-mingw32/bin/../lib/gcc/nios2-elf/4.7.3\libgcc.a(_fpcmp_parts_df.o)
 .debug_loc     0x00011d9c       0xc4 c:/altera/13.1/nios2eds/bin/gnu/h-i686-mingw32/bin/../lib/gcc/nios2-elf/4.7.3\libgcc.a(_lshrdi3.o)
 .debug_loc     0x00011e60       0xc4 c:/altera/13.1/nios2eds/bin/gnu/h-i686-mingw32/bin/../lib/gcc/nios2-elf/4.7.3\libgcc.a(_ashldi3.o)
 .debug_loc     0x00011f24       0x2c ../lwIP_NIOS_II_Example_bsp/\libhal_bsp.a(alt_alarm_start.o)
 .debug_loc     0x00011f50       0x58 ../lwIP_NIOS_II_Example_bsp/\libhal_bsp.a(alt_close.o)
 .debug_loc     0x00011fa8       0x2c ../lwIP_NIOS_II_Example_bsp/\libhal_bsp.a(alt_dev.o)
 .debug_loc     0x00011fd4       0x58 ../lwIP_NIOS_II_Example_bsp/\libhal_bsp.a(alt_fstat.o)
 .debug_loc     0x0001202c       0x59 ../lwIP_NIOS_II_Example_bsp/\libhal_bsp.a(alt_isatty.o)
 .debug_loc     0x00012085       0x58 ../lwIP_NIOS_II_Example_bsp/\libhal_bsp.a(alt_load.o)
 .debug_loc     0x000120dd       0x58 ../lwIP_NIOS_II_Example_bsp/\libhal_bsp.a(alt_lseek.o)
 .debug_loc     0x00012135       0x2c ../lwIP_NIOS_II_Example_bsp/\libhal_bsp.a(alt_main.o)
 .debug_loc     0x00012161       0x58 ../lwIP_NIOS_II_Example_bsp/\libhal_bsp.a(alt_malloc_lock.o)
 .debug_loc     0x000121b9       0x58 ../lwIP_NIOS_II_Example_bsp/\libhal_bsp.a(alt_read.o)
 .debug_loc     0x00012211       0x2c ../lwIP_NIOS_II_Example_bsp/\libhal_bsp.a(alt_release_fd.o)
 .debug_loc     0x0001223d       0x2c ../lwIP_NIOS_II_Example_bsp/\libhal_bsp.a(alt_remap_uncached.o)
 .debug_loc     0x00012269       0x2c ../lwIP_NIOS_II_Example_bsp/\libhal_bsp.a(alt_sbrk.o)
 .debug_loc     0x00012295       0x58 ../lwIP_NIOS_II_Example_bsp/\libhal_bsp.a(alt_tick.o)
 .debug_loc     0x000122ed       0x2c ../lwIP_NIOS_II_Example_bsp/\libhal_bsp.a(alt_uncached_malloc.o)
 .debug_loc     0x00012319       0x2c ../lwIP_NIOS_II_Example_bsp/\libhal_bsp.a(alt_usleep.o)
 .debug_loc     0x00012345       0x58 ../lwIP_NIOS_II_Example_bsp/\libhal_bsp.a(alt_write.o)
 .debug_loc     0x0001239d       0x84 ../lwIP_NIOS_II_Example_bsp/\libhal_bsp.a(alt_sys_init.o)
 .debug_loc     0x00012421      0x134 ../lwIP_NIOS_II_Example_bsp/\libhal_bsp.a(altera_avalon_cfi_flash.o)
 .debug_loc     0x00012555      0x318 ../lwIP_NIOS_II_Example_bsp/\libhal_bsp.a(altera_avalon_cfi_flash_table.o)
 .debug_loc     0x0001286d       0xb0 ../lwIP_NIOS_II_Example_bsp/\libhal_bsp.a(altera_avalon_jtag_uart_fd.o)
 .debug_loc     0x0001291d       0xb0 ../lwIP_NIOS_II_Example_bsp/\libhal_bsp.a(altera_avalon_jtag_uart_init.o)
 .debug_loc     0x000129cd       0x2c ../lwIP_NIOS_II_Example_bsp/\libhal_bsp.a(altera_avalon_jtag_uart_ioctl.o)
 .debug_loc     0x000129f9       0x2c ../lwIP_NIOS_II_Example_bsp/\libhal_bsp.a(altera_avalon_jtag_uart_read.o)
 .debug_loc     0x00012a25       0x2c ../lwIP_NIOS_II_Example_bsp/\libhal_bsp.a(altera_avalon_jtag_uart_write.o)
 .debug_loc     0x00012a51      0x18c ../lwIP_NIOS_II_Example_bsp/\libhal_bsp.a(altera_avalon_lcd_16207.o)
 .debug_loc     0x00012bdd       0x2c ../lwIP_NIOS_II_Example_bsp/\libhal_bsp.a(altera_avalon_lcd_16207_fd.o)
 .debug_loc     0x00012c09      0x370 ../lwIP_NIOS_II_Example_bsp/\libhal_bsp.a(altera_avalon_sgdma.o)
 .debug_loc     0x00012f79       0x58 ../lwIP_NIOS_II_Example_bsp/\libhal_bsp.a(altera_avalon_timer_sc.o)
 .debug_loc     0x00012fd1      0x767 ../lwIP_NIOS_II_Example_bsp/\libhal_bsp.a(altera_avalon_tse.o)
 .debug_loc     0x00013738       0x84 ../lwIP_NIOS_II_Example_bsp/\libhal_bsp.a(altera_avalon_uart_fd.o)
 .debug_loc     0x000137bc       0xdc ../lwIP_NIOS_II_Example_bsp/\libhal_bsp.a(altera_avalon_uart_init.o)
 .debug_loc     0x00013898       0x59 ../lwIP_NIOS_II_Example_bsp/\libhal_bsp.a(altera_avalon_uart_read.o)
 .debug_loc     0x000138f1       0x59 ../lwIP_NIOS_II_Example_bsp/\libhal_bsp.a(altera_avalon_uart_write.o)
 .debug_loc     0x0001394a       0x2c ../lwIP_NIOS_II_Example_bsp/\libhal_bsp.a(altera_vic_irq_init.o)
 .debug_loc     0x00013976       0x2c ../lwIP_NIOS_II_Example_bsp/\libhal_bsp.a(altera_vic_isr_register.o)
 .debug_loc     0x000139a2       0x2c ../lwIP_NIOS_II_Example_bsp/\libhal_bsp.a(alt_busy_sleep.o)
 .debug_loc     0x000139ce       0x2c ../lwIP_NIOS_II_Example_bsp/\libhal_bsp.a(alt_dcache_flush.o)
 .debug_loc     0x000139fa       0x2c ../lwIP_NIOS_II_Example_bsp/\libhal_bsp.a(alt_dcache_flush_all.o)
 .debug_loc     0x00013a26       0x58 ../lwIP_NIOS_II_Example_bsp/\libhal_bsp.a(alt_dev_llist_insert.o)
 .debug_loc     0x00013a7e       0x2c ../lwIP_NIOS_II_Example_bsp/\libhal_bsp.a(alt_do_ctors.o)
 .debug_loc     0x00013aaa       0x2c ../lwIP_NIOS_II_Example_bsp/\libhal_bsp.a(alt_do_dtors.o)
 .debug_loc     0x00013ad6       0x2c ../lwIP_NIOS_II_Example_bsp/\libhal_bsp.a(alt_find_dev.o)
 .debug_loc     0x00013b02       0x58 ../lwIP_NIOS_II_Example_bsp/\libhal_bsp.a(alt_flash_dev.o)
 .debug_loc     0x00013b5a       0x2c ../lwIP_NIOS_II_Example_bsp/\libhal_bsp.a(alt_icache_flush_all.o)
 .debug_loc     0x00013b86       0x58 ../lwIP_NIOS_II_Example_bsp/\libhal_bsp.a(alt_io_redirect.o)
 .debug_loc     0x00013bde       0x84 ../lwIP_NIOS_II_Example_bsp/\libhal_bsp.a(alt_open.o)
 .debug_loc     0x00013c62       0xb0 ../lwIP_NIOS_II_Example_bsp/\libhal_bsp.a(altera_avalon_cfi_flash_amd.o)
 .debug_loc     0x00013d12       0xb0 ../lwIP_NIOS_II_Example_bsp/\libhal_bsp.a(altera_avalon_cfi_flash_intel.o)
 .debug_loc     0x00013dc2       0x2c ../lwIP_NIOS_II_Example_bsp/\libhal_bsp.a(alt_find_file.o)
 .debug_loc     0x00013dee       0x2c ../lwIP_NIOS_II_Example_bsp/\libhal_bsp.a(alt_get_fd.o)
 .debug_loc     0x00013e1a       0x2c ../lwIP_NIOS_II_Example_bsp/\libhal_bsp.a(alt_icache_flush.o)
 .debug_loc     0x00013e46       0x2c c:/altera/13.1/nios2eds/bin/gnu/h-i686-mingw32/bin/../lib/gcc/nios2-elf/4.7.3/../../../../../H-i686-mingw32/nios2-elf/lib\libc.a(lib_a-atexit.o)
 .debug_loc     0x00013e72       0x3e c:/altera/13.1/nios2eds/bin/gnu/h-i686-mingw32/bin/../lib/gcc/nios2-elf/4.7.3/../../../../../H-i686-mingw32/nios2-elf/lib\libc.a(lib_a-exit.o)
 .debug_loc     0x00013eb0       0x58 c:/altera/13.1/nios2eds/bin/gnu/h-i686-mingw32/bin/../lib/gcc/nios2-elf/4.7.3/../../../../../H-i686-mingw32/nios2-elf/lib\libc.a(lib_a-malloc.o)
 .debug_loc     0x00013f08      0x103 c:/altera/13.1/nios2eds/bin/gnu/h-i686-mingw32/bin/../lib/gcc/nios2-elf/4.7.3/../../../../../H-i686-mingw32/nios2-elf/lib\libc.a(lib_a-memcmp.o)
 .debug_loc     0x0001400b      0x191 c:/altera/13.1/nios2eds/bin/gnu/h-i686-mingw32/bin/../lib/gcc/nios2-elf/4.7.3/../../../../../H-i686-mingw32/nios2-elf/lib\libc.a(lib_a-strcpy.o)
 .debug_loc     0x0001419c      0x194 c:/altera/13.1/nios2eds/bin/gnu/h-i686-mingw32/bin/../lib/gcc/nios2-elf/4.7.3/../../../../../H-i686-mingw32/nios2-elf/lib\libc.a(lib_a-__atexit.o)
 .debug_loc     0x00014330      0x1e1 c:/altera/13.1/nios2eds/bin/gnu/h-i686-mingw32/bin/../lib/gcc/nios2-elf/4.7.3/../../../../../H-i686-mingw32/nios2-elf/lib\libc.a(lib_a-__call_atexit.o)
 .debug_loc     0x00014511       0x2c ../lwIP_NIOS_II_Example_bsp/\libhal_bsp.a(alt_exit.o)

.debug_macinfo
 *(.debug_macinfo)

.debug_weaknames
 *(.debug_weaknames)

.debug_funcnames
 *(.debug_funcnames)

.debug_typenames
 *(.debug_typenames)

.debug_varnames
 *(.debug_varnames)

.debug_alt_sim_info
                0x00000000       0x50
 *(.debug_alt_sim_info)
 .debug_alt_sim_info
                0x00000000       0x20 ../lwIP_NIOS_II_Example_bsp//obj/HAL/src/crt0.o
 .debug_alt_sim_info
                0x00000020       0x30 ../lwIP_NIOS_II_Example_bsp/\libhal_bsp.a(alt_busy_sleep.o)
                0x02000000                __alt_data_end = 0x2000000
                0x02000000                PROVIDE (__alt_stack_pointer, __alt_data_end)
                0x000451d4                PROVIDE (__alt_stack_limit, __alt_stack_base)
                0x000451d4                PROVIDE (__alt_heap_start, end)
                0x02000000                PROVIDE (__alt_heap_limit, 0x2000000)
OUTPUT(lwIP_NIOS_II_Example.elf elf32-littlenios2)

.debug_ranges   0x00000000      0xa20
 .debug_ranges  0x00000000       0x20 ../lwIP_NIOS_II_Example_bsp//obj/HAL/src/crt0.o
 .debug_ranges  0x00000020       0x18 obj/default/src/core/ipv4/icmp.o
 .debug_ranges  0x00000038       0x18 obj/default/src/core/netif.o
 .debug_ranges  0x00000050      0x150 c:/altera/13.1/nios2eds/bin/gnu/h-i686-mingw32/bin/../lib/gcc/nios2-elf/4.7.3/../../../../../H-i686-mingw32/nios2-elf/lib\libc.a(lib_a-vfprintf.o)
 .debug_ranges  0x000001a0       0x20 c:/altera/13.1/nios2eds/bin/gnu/h-i686-mingw32/bin/../lib/gcc/nios2-elf/4.7.3/../../../../../H-i686-mingw32/nios2-elf/lib\libc.a(lib_a-fflush.o)
 .debug_ranges  0x000001c0       0x18 c:/altera/13.1/nios2eds/bin/gnu/h-i686-mingw32/bin/../lib/gcc/nios2-elf/4.7.3/../../../../../H-i686-mingw32/nios2-elf/lib\libc.a(lib_a-fvwrite.o)
 .debug_ranges  0x000001d8       0x80 c:/altera/13.1/nios2eds/bin/gnu/h-i686-mingw32/bin/../lib/gcc/nios2-elf/4.7.3/../../../../../H-i686-mingw32/nios2-elf/lib\libc.a(lib_a-fwalk.o)
 .debug_ranges  0x00000258       0x70 c:/altera/13.1/nios2eds/bin/gnu/h-i686-mingw32/bin/../lib/gcc/nios2-elf/4.7.3/../../../../../H-i686-mingw32/nios2-elf/lib\libc.a(lib_a-mallocr.o)
 .debug_ranges  0x000002c8       0x40 c:/altera/13.1/nios2eds/bin/gnu/h-i686-mingw32/bin/../lib/gcc/nios2-elf/4.7.3/../../../../../H-i686-mingw32/nios2-elf/lib\libc.a(lib_a-mprec.o)
 .debug_ranges  0x00000308      0x158 c:/altera/13.1/nios2eds/bin/gnu/h-i686-mingw32/bin/../lib/gcc/nios2-elf/4.7.3/../../../../../H-i686-mingw32/nios2-elf/lib\libc.a(lib_a-reallocr.o)
 .debug_ranges  0x00000460       0x48 c:/altera/13.1/nios2eds/bin/gnu/h-i686-mingw32/bin/../lib/gcc/nios2-elf/4.7.3/../../../../../H-i686-mingw32/nios2-elf/lib\libc.a(lib_a-callocr.o)
 .debug_ranges  0x000004a8      0x1a0 c:/altera/13.1/nios2eds/bin/gnu/h-i686-mingw32/bin/../lib/gcc/nios2-elf/4.7.3\libgcc.a(_udivdi3.o)
 .debug_ranges  0x00000648      0x160 c:/altera/13.1/nios2eds/bin/gnu/h-i686-mingw32/bin/../lib/gcc/nios2-elf/4.7.3\libgcc.a(_umoddi3.o)
 .debug_ranges  0x000007a8       0x38 c:/altera/13.1/nios2eds/bin/gnu/h-i686-mingw32/bin/../lib/gcc/nios2-elf/4.7.3\libgcc.a(_addsub_df.o)
 .debug_ranges  0x000007e0       0x78 c:/altera/13.1/nios2eds/bin/gnu/h-i686-mingw32/bin/../lib/gcc/nios2-elf/4.7.3\libgcc.a(_mul_df.o)
 .debug_ranges  0x00000858       0x50 c:/altera/13.1/nios2eds/bin/gnu/h-i686-mingw32/bin/../lib/gcc/nios2-elf/4.7.3\libgcc.a(_div_df.o)
 .debug_ranges  0x000008a8       0x30 c:/altera/13.1/nios2eds/bin/gnu/h-i686-mingw32/bin/../lib/gcc/nios2-elf/4.7.3\libgcc.a(_si_to_df.o)
 .debug_ranges  0x000008d8       0x48 c:/altera/13.1/nios2eds/bin/gnu/h-i686-mingw32/bin/../lib/gcc/nios2-elf/4.7.3\libgcc.a(_usi_to_df.o)
 .debug_ranges  0x00000920       0x30 c:/altera/13.1/nios2eds/bin/gnu/h-i686-mingw32/bin/../lib/gcc/nios2-elf/4.7.3\libgcc.a(_muldi3.o)
 .debug_ranges  0x00000950       0x28 c:/altera/13.1/nios2eds/bin/gnu/h-i686-mingw32/bin/../lib/gcc/nios2-elf/4.7.3\libgcc.a(_clzsi2.o)
 .debug_ranges  0x00000978       0x18 c:/altera/13.1/nios2eds/bin/gnu/h-i686-mingw32/bin/../lib/gcc/nios2-elf/4.7.3\libgcc.a(_pack_df.o)
 .debug_ranges  0x00000990       0x30 ../lwIP_NIOS_II_Example_bsp/\libhal_bsp.a(altera_avalon_jtag_uart_init.o)
 .debug_ranges  0x000009c0       0x18 ../lwIP_NIOS_II_Example_bsp/\libhal_bsp.a(altera_avalon_jtag_uart_read.o)
 .debug_ranges  0x000009d8       0x30 ../lwIP_NIOS_II_Example_bsp/\libhal_bsp.a(altera_avalon_lcd_16207.o)
 .debug_ranges  0x00000a08       0x18 c:/altera/13.1/nios2eds/bin/gnu/h-i686-mingw32/bin/../lib/gcc/nios2-elf/4.7.3/../../../../../H-i686-mingw32/nios2-elf/lib\libc.a(lib_a-__call_atexit.o)
