Archive member included because of file (symbol)

libkernel.a(prc_support.o)    Os_Lcfg.o (interrupt)
libkernel.a(target_config.o)  start.o (target_hardware_initialize)
libkernel.a(target_hw_counter.o)
                              Os_Lcfg.o (init_hwcounter_MAIN_HW_COUNTER)
libkernel.a(prc_config.o)     libkernel.a(target_config.o) (prc_hardware_initialize)
libkernel.a(vic.o)            libkernel.a(prc_config.o) (vic_initialize)
libkernel.a(avalon_timer.o)   in_subr.o (get_tim_utime)
libkernel.a(counter_manage.o)
                              Os_Lcfg.o (notify_hardware_counter)
libkernel.a(counter.o)        Os_Lcfg.o (counter_initialize)
libkernel.a(alarm.o)          Os_Lcfg.o (alarm_initialize)
libkernel.a(osctl_manage.o)   test_histogram.o (StartOS)
libkernel.a(osctl.o)          libkernel.a(counter_manage.o) (internal_call_errorhook)
libkernel.a(task_manage.o)    ethernet.o (ActivateTask)
libkernel.a(event.o)          ethernet.o (SetEvent)
libkernel.a(resource.o)       Os_Lcfg.o (resource_initialize)
libkernel.a(interrupt_manage.o)
                              serial.o (SuspendAllInterrupts)
libkernel.a(interrupt.o)      Os_Lcfg.o (interrupt_initialize)
libkernel.a(task.o)           libkernel.a(prc_support.o) (p_schedtsk)
c:/altera/13.1/nios2eds/bin/gnu/h-i686-mingw32/bin/../lib/gcc/nios2-elf/4.7.3/../../../../../H-i686-mingw32/nios2-elf/lib\libc.a(lib_a-memcmp.o)
                              if_ether.o (memcmp)
c:/altera/13.1/nios2eds/bin/gnu/h-i686-mingw32/bin/../lib/gcc/nios2-elf/4.7.3/../../../../../H-i686-mingw32/nios2-elf/lib\libc.a(lib_a-memcpy.o)
                              ip_input.o (memcpy)
c:/altera/13.1/nios2eds/bin/gnu/h-i686-mingw32/bin/../lib/gcc/nios2-elf/4.7.3/../../../../../H-i686-mingw32/nios2-elf/lib\libc.a(lib_a-memmove.o)
                              ip_input.o (memmove)
c:/altera/13.1/nios2eds/bin/gnu/h-i686-mingw32/bin/../lib/gcc/nios2-elf/4.7.3/../../../../../H-i686-mingw32/nios2-elf/lib\libc.a(lib_a-memset.o)
                              in_subr.o (memset)

Memory Configuration

Name             Origin             Length             Attributes
sdram_UNUSED     0x00000000         0x00000020
sdram            0x00000020         0x01ffffe0
ext_flash        0x04000000         0x01000000
sram_reset       0x05000000         0x00000020
sram             0x05000020         0x000fffe0
*default*        0x00000000         0xffffffff

Linker script and memory map

LOAD start.o
LOAD net_buf.o
LOAD net_count.o
LOAD net_subr.o
LOAD net_timer.o
LOAD in_subr.o
LOAD tinet_cfg.o
LOAD route_cfg.o
LOAD ip_input.o
LOAD ip_output.o
LOAD ip_icmp.o
LOAD tinet_target_config.o
LOAD if.o
LOAD ethernet.o
LOAD if_ether.o
LOAD if_tse.o
LOAD avalon_tse.o
LOAD avalon_sgdma.o
LOAD udp_input.o
LOAD udp_output.o
LOAD udp_subr.o
LOAD udp_usrreq.o
LOAD test_histogram.o
LOAD histogram.o
LOAD eventflag.o
LOAD dataqueue.o
LOAD mempfix.o
LOAD ethernet_cfg.o
LOAD net_atk2_cfg.o
LOAD jtag_uart.o
LOAD banner.o
LOAD syslog.o
LOAD serial.o
LOAD log_output.o
LOAD vasyslog.o
LOAD t_perror.o
LOAD strerror.o
LOAD Os_Lcfg.o
LOAD libkernel.a
LOAD c:/altera/13.1/nios2eds/bin/gnu/h-i686-mingw32/bin/../lib/gcc/nios2-elf/4.7.3\libgcc.a
LOAD c:/altera/13.1/nios2eds/bin/gnu/h-i686-mingw32/bin/../lib/gcc/nios2-elf/4.7.3/../../../../../H-i686-mingw32/nios2-elf/lib\libc.a
                0x00000000                __alt_mem_ext_flash = 0x0
                0x00800000                __alt_mem_ext_ram = 0x800000
                0x00900000                __alt_mem_onchip_ram_64_kbytes = 0x900000
                0x05000000                __alt_mem_sdram = 0x5000000
                0x00000000                PROVIDE (hardware_init_hook, 0x0)
                0x00000000                PROVIDE (software_init_hook, 0x0)
                0x00000000                PROVIDE (software_term_hook, 0x0)
                0x02000000                PROVIDE (__alt_data_end, 0x2000000)
                0x00000000                PROVIDE (StartupHook, 0x0)
                0x00000000                PROVIDE (ShutdownHook, 0x0)
                0x00000000                PROVIDE (PreTaskHook, 0x0)
                0x00000000                PROVIDE (PostTaskHook, 0x0)
                0x00000000                PROVIDE (ErrorHook, 0x0)
                0x00000000                PROVIDE (ProtectionHook, 0x0)

.entry          0x05000000       0x20
 *(.entry)
 .entry         0x05000000       0x20 start.o
                0x05000000                __reset

.exceptions     0x00000020      0x6c0
                0x00000020                . = ALIGN (0x20)
 *(.irq)
 *(.exceptions)
 .exceptions    0x00000020      0x6c0 libkernel.a(prc_support.o)
                0x00000020                exception_entry
                0x000001e0                interrupt
                0x000004c0                dispatch
                0x00000560                start_dispatch
                0x000005a0                exit_and_dispatch

.text           0x000006e0     0xe718
                0x000006e0                PROVIDE (stext, ABSOLUTE (.))
 *(.interp)
 *(.hash)
 *(.dynsym)
 *(.dynstr)
 *(.gnu.version)
 *(.gnu.version_d)
 *(.gnu.version_r)
 *(.rel.init)
 *(.rela.init)
 *(.rel.text .rel.text.* .rel.gnu.linkonce.t.*)
 *(.rela.text .rela.text.* .rela.gnu.linkonce.t.*)
 *(.rel.fini)
 *(.rela.fini)
 *(.rel.rodata .rel.rodata.* .rel.gnu.linkonce.r.*)
 *(.rela.rodata .rela.rodata.* .rela.gnu.linkonce.r.*)
 *(.rel.data .rel.data.* .rel.gnu.linkonce.d.*)
 *(.rela.data .rela.data.* .rela.gnu.linkonce.d.*)
 *(.rel.tdata .rel.tdata.* .rel.gnu.linkonce.td.*)
 *(.rela.tdata .rela.tdata.* .rela.gnu.linkonce.td.*)
 *(.rel.tbss .rel.tbss.* .rel.gnu.linkonce.tb.*)
 *(.rela.tbss .rela.tbss.* .rela.gnu.linkonce.tb.*)
 *(.rel.ctors)
 *(.rela.ctors)
 *(.rel.dtors)
 *(.rela.dtors)
 *(.rel.got)
 *(.rela.got)
 *(.rel.sdata .rel.sdata.* .rel.gnu.linkonce.s.*)
 *(.rela.sdata .rela.sdata.* .rela.gnu.linkonce.s.*)
 *(.rel.sbss .rel.sbss.* .rel.gnu.linkonce.sb.*)
 *(.rela.sbss .rela.sbss.* .rela.gnu.linkonce.sb.*)
 *(.rel.sdata2 .rel.sdata2.* .rel.gnu.linkonce.s2.*)
 *(.rela.sdata2 .rela.sdata2.* .rela.gnu.linkonce.s2.*)
 *(.rel.sbss2 .rel.sbss2.* .rel.gnu.linkonce.sb2.*)
 *(.rela.sbss2 .rela.sbss2.* .rela.gnu.linkonce.sb2.*)
 *(.rel.bss .rel.bss.* .rel.gnu.linkonce.b.*)
 *(.rela.bss .rela.bss.* .rela.gnu.linkonce.b.*)
 *(.rel.plt)
 *(.rela.plt)
 *(.init)
 *(.plt)
 *(.text .stub .text.* .gnu.linkonce.t.*)
 .text          0x000006e0       0x60 start.o
                0x000006e0                start
 .text          0x00000740      0x4c0 net_buf.o
                0x00000740                nbuf_get_tbl
                0x00000760                nbuf_get_tbl_size
                0x00000780                get_net_buf_ex
                0x00000a60                get_net_buf
                0x00000a80                rel_net_buf
                0x00000b20                rus_net_buf
                0x00000b80                net_buf_siz
                0x00000be0                net_buf_max_siz
 .text          0x00000c00        0x0 net_count.o
 .text          0x00000c00      0x340 net_subr.o
                0x00000c00                net_rand
                0x00000c40                net_srand
                0x00000c60                convert_hexdigit
                0x00000d40                mac2str
                0x00000ec0                rev_memcpy_word
                0x00000f00                rev_memcmp_word
 .text          0x00000f40      0x2c0 net_timer.o
                0x00000f40                timeout
                0x00001000                untimeout
                0x00001100                TaskMainNET_TIMER_TASK
 .text          0x00001200      0xc00 in_subr.o
                0x00001200                in4_get_ifaddr
                0x00001220                ip2str
                0x00001340                in4_set_header
                0x00001480                in4_get_datagram
                0x000015a0                in4_cksum
                0x000016e0                in_cksum
                0x00001760                in4_is_dstaddr_accept
                0x00001800                in4_ifawithifp
                0x00001820                in4_add_ifaddr
                0x00001860                in4_add_route
                0x000018a0                in4_rtalloc
                0x00001920                in4_init
                0x00001960                in_rtinit
                0x00001980                in_rtnewentry
                0x00001a60                in4_rtredirect
                0x00001ac0                in_rttimer
                0x00001b80                in_cksum_sum
                0x00001bc0                in_cksum_carry
                0x00001be0                in_strtfn
 .text          0x00001e00       0x60 tinet_cfg.o
                0x00001e00                tinet_initialize
                0x00001e20                tinet_snd_dtq
                0x00001e40                tinet_rcv_dtq
 .text          0x00001e60        0x0 route_cfg.o
 .text          0x00001e60      0x9a0 ip_input.o
                0x00001ec0                ip_get_frag_queue
                0x00001ee0                ip_frag_timer
                0x00001fc0                ip_init
                0x00001fe0                ip_remove_options
                0x00002040                ip_input
 .text          0x00002800      0x400 ip_output.o
                0x00002800                ip_output
 .text          0x00002c00      0x4e0 ip_icmp.o
                0x00002c00                icmp_input
                0x00002f20                icmp_error
 .text          0x000030e0        0x0 tinet_target_config.o
 .text          0x000030e0       0xa0 if.o
                0x00003160                ifinit
 .text          0x00003180      0x460 ethernet.o
                0x00003180                ether_get_ifnet
                0x000031a0                ether_raw_output
                0x00003260                ether_output
                0x00003380                TaskMainETHER_OUTPUT_TASK
                0x00003460                TaskMainETHER_INPUT_TASK
 .text          0x000035e0      0x920 if_ether.o
                0x00003820                arp_request
                0x00003a00                arp_get_cache
                0x00003a20                arp_input
                0x00003d20                arp_resolve
                0x00003ee0                arp_init
 .text          0x00003f00      0x940 if_tse.o
                0x00004240                tse_reset
                0x000042c0                tse_get_softc
                0x000042e0                tse_watchdog
                0x00004340                tse_probe
                0x00004380                tse_init
                0x000043c0                tse_read
                0x000045c0                tse_start
                0x000046a0                ISRMainif_tse_tx_handler
                0x000047a0                ISRMainif_tse_rx_handler
 .text          0x00004840      0xce0 avalon_tse.o
                0x00004a60                tse_mac_aTxWrite
                0x00004ae0                tse_mac_aRxRead
                0x00004b60                getPHYSpeed
                0x00005040                tse_phy_init
                0x00005460                marvell_cfg_rgmii
 .text          0x00005520      0x1a0 avalon_sgdma.o
                0x00005520                avalon_sgdma_do_async_transfer
                0x00005580                avalon_sgdma_construct_descriptor
                0x00005600                avalon_sgdma_init
 .text          0x000056c0      0x280 udp_input.o
                0x000056c0                udp_input
 .text          0x00005940        0x0 udp_output.o
 .text          0x00005940      0x1e0 udp_subr.o
                0x00005940                udp_alloc_auto_port
                0x00005a60                udp_alloc_port
 .text          0x00005b20      0x620 udp_usrreq.o
                0x00005b20                udp_send_data
                0x00005ce0                udp_can_cep
                0x00005e00                udp_can_snd
                0x00005e20                udp_can_rcv
                0x00005e40                udp_snd_dat
                0x00005f60                udp_rcv_dat
 .text          0x00006140      0xca0 test_histogram.o
                0x00006140                TaskMainUSRV_TASK
                0x00006280                ErrorHook
                0x00006ba0                PreTaskHook
                0x00006bc0                PostTaskHook
                0x00006be0                StartupHook
                0x00006c60                ShutdownHook
                0x00006d40                ProtectionHook
 .text.startup  0x00006de0       0x20 test_histogram.o
                0x00006de0                main
 .text          0x00006e00      0x340 histogram.o
                0x00006e00                init_hist
                0x00006e60                begin_measure
                0x00006ee0                end_measure
                0x00006fc0                print_hist
 .text          0x00007140      0x240 eventflag.o
                0x00007140                eventflag_initialize
                0x00007180                check_flg_cond
                0x000071e0                set_flg
                0x00007240                clr_flg
                0x000072a0                wai_flg
 .text          0x00007380      0x320 dataqueue.o
                0x00007380                dataqueue_initialize
                0x000073e0                enqueue_data
                0x00007440                dequeue_data
                0x000074a0                send_data
                0x00007520                receive_data
                0x000075a0                snd_dtq
                0x00007620                rcv_dtq
 .text          0x000076a0      0x240 mempfix.o
                0x000076a0                mempfix_initialize
                0x00007700                get_mpf_block
                0x00007780                get_mpf
                0x00007800                rel_mpf
 .text          0x000078e0       0x60 ethernet_cfg.o
                0x000078e0                ethernet_initialize
                0x00007900                ethernet_snd_dtq
                0x00007920                ethernet_rcv_dtq
 .text          0x00007940       0x60 net_atk2_cfg.o
                0x00007940                net_atk2_initialize
                0x00007960                net_atk2_get_mpf
                0x00007980                net_atk2_rel_mpf
 .text          0x000079a0       0x80 jtag_uart.o
                0x000079a0                InitHwSerial
                0x000079c0                TermHwSerial
                0x000079e0                ISRMainRxHwSerialInt
 .text          0x00007a20       0x60 banner.o
                0x00007a20                print_banner
 .text          0x00007a80       0xc0 syslog.o
                0x00007a80                syslog_initialize
                0x00007aa0                syslog_wri_log
                0x00007b20                syslog_msk_log
 .text          0x00007b40       0xe0 serial.o
                0x00007b40                InitSerial
                0x00007b60                TermSerial
                0x00007b80                RecvPolSerialChar
                0x00007be0                RxSerialInt
 .text          0x00007c20      0x420 log_output.o
                0x00007d60                syslog_printf
                0x00008000                syslog_print
 .text          0x00008040      0x1a0 vasyslog.o
                0x00008040                syslog
 .text          0x000081e0       0xa0 t_perror.o
                0x000081e0                t_perror
 .text          0x00008280       0x40 strerror.o
                0x00008280                atk2_strerror
 .text          0x000082c0      0x260 Os_Lcfg.o
                0x00008300                _kernel_inthdr_0
                0x00008320                _kernel_inthdr_12
                0x00008340                _kernel_inthdr_13
                0x00008360                object_initialize
                0x000083a0                object_terminate
                0x000083c0                ISRMainC2ISR_for_MAIN_HW_COUNTER
                0x000083e0                _kernel_inthdr_16
                0x00008400                int_handler_entry_0
                0x00008420                int_handler_entry_12
                0x00008440                int_handler_entry_13
                0x00008460                int_handler_entry_16
                0x00008480                kernel_vectors
 .text          0x00008520       0xa0 libkernel.a(prc_support.o)
                0x00008520                start_r
                0x00008560                stack_change_and_call_func_2
                0x00008560                stack_change_and_call_func_1
 .text          0x000085c0      0x140 libkernel.a(target_config.o)
                0x000085c0                target_fput_str
                0x00008620                target_hardware_initialize
                0x00008680                target_initialize
                0x000086a0                target_exit
                0x000086c0                target_fput_log
 .text          0x00008700      0x6a0 libkernel.a(target_hw_counter.o)
                0x000087a0                init_hwcounter_MAIN_HW_COUNTER
                0x00008800                start_hwcounter_MAIN_HW_COUNTER
                0x00008820                stop_hwcounter_MAIN_HW_COUNTER
                0x00008860                set_hwcounter_MAIN_HW_COUNTER
                0x00008880                get_hwcounter_MAIN_HW_COUNTER
                0x000088c0                cancel_hwcounter_MAIN_HW_COUNTER
                0x000088e0                trigger_hwcounter_MAIN_HW_COUNTER
                0x00008940                int_clear_hwcounter_MAIN_HW_COUNTER
                0x00008960                int_cancel_hwcounter_MAIN_HW_COUNTER
                0x00008980                increment_hwcounter_MAIN_HW_COUNTER
                0x000089a0                init_hwcounter_SUB_HW_COUNTER1
                0x00008a00                start_hwcounter_SUB_HW_COUNTER1
                0x00008a20                stop_hwcounter_SUB_HW_COUNTER1
                0x00008a60                set_hwcounter_SUB_HW_COUNTER1
                0x00008a80                get_hwcounter_SUB_HW_COUNTER1
                0x00008ac0                cancel_hwcounter_SUB_HW_COUNTER1
                0x00008ae0                trigger_hwcounter_SUB_HW_COUNTER1
                0x00008b40                int_clear_hwcounter_SUB_HW_COUNTER1
                0x00008b60                int_cancel_hwcounter_SUB_HW_COUNTER1
                0x00008b80                increment_hwcounter_SUB_HW_COUNTER1
                0x00008ba0                init_hwcounter_SUB_HW_COUNTER2
                0x00008c00                start_hwcounter_SUB_HW_COUNTER2
                0x00008c20                stop_hwcounter_SUB_HW_COUNTER2
                0x00008c60                set_hwcounter_SUB_HW_COUNTER2
                0x00008c80                get_hwcounter_SUB_HW_COUNTER2
                0x00008cc0                cancel_hwcounter_SUB_HW_COUNTER2
                0x00008ce0                trigger_hwcounter_SUB_HW_COUNTER2
                0x00008d40                int_clear_hwcounter_SUB_HW_COUNTER2
                0x00008d60                int_cancel_hwcounter_SUB_HW_COUNTER2
                0x00008d80                increment_hwcounter_SUB_HW_COUNTER2
 .text          0x00008da0      0x160 libkernel.a(prc_config.o)
                0x00008da0                prc_hardware_initialize
                0x00008dc0                prc_initialize
                0x00008de0                prc_terminate
                0x00008e00                x_config_int
                0x00008ea0                default_int_handler
 .text          0x00008f00       0x20 libkernel.a(vic.o)
                0x00008f00                vic_initialize
 .text          0x00008f20      0x220 libkernel.a(avalon_timer.o)
                0x00008f20                get_tim_utime
                0x00008fc0                get_tim_100ntime
                0x00009060                target_timer_initialize
                0x000090c0                target_timer_terminate
                0x000090e0                ISRMaintarget_timer_hdr
 .text          0x00009140      0x9e0 libkernel.a(counter_manage.o)
                0x00009140                GetCounterValue
                0x00009420                GetElapsedValue
                0x00009740                notify_hardware_counter
                0x00009880                incr_counter_action
                0x00009940                IncrementCounter
 .text          0x00009b20      0x860 libkernel.a(counter.o)
                0x00009b20                insert_cnt_expr_que
                0x00009ca0                delete_cnt_expr_que
                0x00009de0                counter_initialize
                0x00009ee0                counter_terminate
                0x00009f40                get_reltick
                0x00009fe0                get_abstick
                0x0000a080                expire_process
 .text          0x0000a380      0xd20 libkernel.a(alarm.o)
                0x0000a380                alarm_expire
                0x0000a440                alarm_initialize
                0x0000a560                GetAlarmBase
                0x0000a740                GetAlarm
                0x0000a9e0                SetRelAlarm
                0x0000ac40                SetAbsAlarm
                0x0000aea0                CancelAlarm
 .text          0x0000b0a0      0x480 libkernel.a(osctl_manage.o)
                0x0000b100                StartOS
                0x0000b340                GetActiveApplicationMode
                0x0000b460                ShutdownOS
                0x0000b4a0                GetFaultyContext
 .text          0x0000b520      0x440 libkernel.a(osctl.o)
                0x0000b520                internal_call_shtdwnhk
                0x0000b5c0                internal_call_errorhook
                0x0000b6a0                call_posttaskhook
                0x0000b700                call_pretaskhook
                0x0000b760                init_stack_magic_region
                0x0000b7c0                internal_shutdownos
                0x0000b860                call_protectionhk_main
 .text          0x0000b960      0xc60 libkernel.a(task_manage.o)
                0x0000b960                ActivateTask
                0x0000bba0                TerminateTask
                0x0000bd60                ChainTask
                0x0000bfc0                Schedule
                0x0000c1c0                GetTaskID
                0x0000c360                GetTaskState
                0x0000c520                activate_task_action
 .text          0x0000c5c0      0x9a0 libkernel.a(event.o)
                0x0000c5c0                SetEvent
                0x0000c820                ClearEvent
                0x0000ca20                GetEvent
                0x0000cc60                WaitEvent
                0x0000cea0                set_event_action
 .text          0x0000cf60      0x7e0 libkernel.a(resource.o)
                0x0000cfe0                resource_initialize
                0x0000d040                GetResource
                0x0000d3e0                ReleaseResource
 .text          0x0000d740      0x920 libkernel.a(interrupt_manage.o)
                0x0000d740                DisableAllInterrupts
                0x0000d780                EnableAllInterrupts
                0x0000d7c0                SuspendAllInterrupts
                0x0000d960                ResumeAllInterrupts
                0x0000db00                SuspendOSInterrupts
                0x0000dce0                ResumeOSInterrupts
                0x0000df00                GetISRID
 .text          0x0000e060      0x460 libkernel.a(interrupt.o)
                0x0000e060                interrupt_initialize
                0x0000e120                release_interrupts
                0x0000e300                exit_isr2
 .text          0x0000e4c0      0x5c0 libkernel.a(task.o)
                0x0000e4c0                search_schedtsk
                0x0000e600                make_runnable
                0x0000e6c0                make_non_runnable
                0x0000e6e0                make_active
                0x0000e760                task_initialize
                0x0000e860                preempt
                0x0000e900                suspend
                0x0000e960                exit_task
 .text          0x0000ea80       0x7c c:/altera/13.1/nios2eds/bin/gnu/h-i686-mingw32/bin/../lib/gcc/nios2-elf/4.7.3/../../../../../H-i686-mingw32/nios2-elf/lib\libc.a(lib_a-memcmp.o)
                0x0000ea80                memcmp
 .text          0x0000eafc       0xf8 c:/altera/13.1/nios2eds/bin/gnu/h-i686-mingw32/bin/../lib/gcc/nios2-elf/4.7.3/../../../../../H-i686-mingw32/nios2-elf/lib\libc.a(lib_a-memcpy.o)
                0x0000eafc                memcpy
 .text          0x0000ebf4      0x128 c:/altera/13.1/nios2eds/bin/gnu/h-i686-mingw32/bin/../lib/gcc/nios2-elf/4.7.3/../../../../../H-i686-mingw32/nios2-elf/lib\libc.a(lib_a-memmove.o)
                0x0000ebf4                memmove
 .text          0x0000ed1c       0xdc c:/altera/13.1/nios2eds/bin/gnu/h-i686-mingw32/bin/../lib/gcc/nios2-elf/4.7.3/../../../../../H-i686-mingw32/nios2-elf/lib\libc.a(lib_a-memset.o)
                0x0000ed1c                memset
 *(.gnu.warning.*)
 *(.fini)
                0x0000edf8                PROVIDE (__etext, ABSOLUTE (.))
                0x0000edf8                PROVIDE (_etext, ABSOLUTE (.))
                0x0000edf8                PROVIDE (etext, ABSOLUTE (.))
 *(.eh_frame_hdr)
                0x0000edf8                . = ALIGN (0x4)
                0x0000edf8                PROVIDE (__preinit_array_start, ABSOLUTE (.))
 *(.preinit_array)
                0x0000edf8                PROVIDE (__preinit_array_end, ABSOLUTE (.))
                0x0000edf8                PROVIDE (__init_array_start, ABSOLUTE (.))
 *(.init_array)
                0x0000edf8                PROVIDE (__init_array_end, ABSOLUTE (.))
                0x0000edf8                PROVIDE (__fini_array_start, ABSOLUTE (.))
 *(.fini_array)
                0x0000edf8                PROVIDE (__fini_array_end, ABSOLUTE (.))
 *(.eh_frame)
 *(.gcc_except_table)
 *(.dynamic)
 *crtdotors.o(.ctors)
 *(EXCLUDE_FILE(*crtendtors.o) .ctors)
 *(SORT(.ctors.*))
 *(.ctors)
 *crtdotors.o(.dtors)
 *(EXCLUDE_FILE(*crtendtors.o) .dtors)
 *(SORT(.dtors.*))
 *(.dtors)
 *(.jcr)

.rodata         0x0000edf8     0x1c17
                0x0000edf8                . = ALIGN (0x4)
 *(.rodata .rodata.* .gnu.linkonce.r.*)
 .rodata.str1.4
                0x0000edf8       0xe7 net_buf.o
                                 0xe8 (size before relaxing)
 *fill*         0x0000eedf        0x1 
 .rodata        0x0000eee0       0x14 net_subr.o
 .rodata.str1.4
                0x0000eef4       0x38 net_timer.o
 .rodata        0x0000ef2c       0xb4 net_timer.o
 .rodata.str1.4
                0x0000efe0      0x1b0 in_subr.o
 .rodata.str1.4
                0x0000f190       0x1e ip_input.o
                                 0x20 (size before relaxing)
 *fill*         0x0000f1ae        0x2 
 .rodata.str1.4
                0x0000f1b0       0x4d ip_icmp.o
                                 0x50 (size before relaxing)
 *fill*         0x0000f1fd        0x3 
 .rodata.str1.4
                0x0000f200       0x47 ethernet.o
                                 0x48 (size before relaxing)
 *fill*         0x0000f247        0x1 
 .rodata.str1.4
                0x0000f248       0x3c if_ether.o
 .rodata.str1.4
                0x0000f284      0x2b3 if_tse.o
                                0x2b4 (size before relaxing)
 *fill*         0x0000f537        0x1 
 .rodata.str1.4
                0x0000f538      0x82e avalon_tse.o
                                0x850 (size before relaxing)
 *fill*         0x0000fd66        0x2 
 .rodata.str1.4
                0x0000fd68       0x4f avalon_sgdma.o
                                 0x50 (size before relaxing)
 *fill*         0x0000fdb7        0x1 
 .rodata.str1.4
                0x0000fdb8       0x16 udp_input.o
                                 0x18 (size before relaxing)
 *fill*         0x0000fdce        0x2 
 .rodata.str1.4
                0x0000fdd0      0x4d6 test_histogram.o
                                0x4dc (size before relaxing)
 *fill*         0x000102a6        0x2 
 .rodata.str1.4
                0x000102a8       0x26 histogram.o
                                 0x28 (size before relaxing)
 *fill*         0x000102ce        0x2 
 .rodata        0x000102d0       0x70 net_atk2_cfg.o
                0x000102d0                net_atk2_mpfinib_table
 .rodata        0x00010340       0x5c banner.o
 .rodata.str1.4
                0x0001039c       0x1e log_output.o
                                 0x20 (size before relaxing)
 *fill*         0x000103ba        0x2 
 .rodata        0x000103bc       0x34 log_output.o
 .rodata.str1.4
                0x000103f0       0x2d t_perror.o
                                 0x30 (size before relaxing)
 *fill*         0x0001041d        0x3 
 .rodata.str1.4
                0x00010420      0x216 strerror.o
                                0x244 (size before relaxing)
 *fill*         0x00010636        0x2 
 .rodata        0x00010638       0x74 strerror.o
 .rodata        0x000106ac      0x24c Os_Lcfg.o
                0x000106ac                isr_p_isrcb_tbl
                0x0001072c                isr_tbl
                0x000107ac                intinib_table
                0x000107ec                resinib_table
                0x0001080c                alminib_table
                0x0001083c                hwcntinib_table
                0x00010868                cntinib_table
                0x00010888                tinib_table
 .rodata.str1.4
                0x000108f8       0x57 libkernel.a(target_config.o)
                                 0x58 (size before relaxing)
 *fill*         0x0001094f        0x1 
 .rodata.str1.4
                0x00010950       0x43 libkernel.a(prc_config.o)
                                 0x44 (size before relaxing)
 *fill*         0x00010993        0x1 
 .rodata.str1.4
                0x00010994       0x22 libkernel.a(counter_manage.o)
                                 0x24 (size before relaxing)
 .rodata.str1.4
                0x00000000       0x24 libkernel.a(counter.o)
 .rodata.str1.4
                0x00000000       0x24 libkernel.a(alarm.o)
 .rodata.str1.4
                0x00000000       0x24 libkernel.a(osctl_manage.o)
 .rodata.str1.4
                0x00000000       0x24 libkernel.a(task_manage.o)
 .rodata.str1.4
                0x00000000       0x24 libkernel.a(event.o)
 .rodata.str1.4
                0x00000000       0x24 libkernel.a(resource.o)
 .rodata.str1.4
                0x00000000       0x24 libkernel.a(interrupt_manage.o)
 *fill*         0x000109b6        0x2 
 .rodata.str1.4
                0x000109b8       0x19 libkernel.a(interrupt.o)
                                 0x40 (size before relaxing)
 *fill*         0x000109d1        0x3 
 .rodata.str1.4
                0x000109d4       0x2c libkernel.a(task.o)
                                 0x50 (size before relaxing)
 .rodata        0x00010a00        0xf libkernel.a(task.o)
 *(.rodata1)

.rwdata         0x00010a10      0x23c
                0x00010a10                . = ALIGN (0x4)
 *(.got.plt)
 *(.got)
 *(.data1)
 *(.data .data.* .gnu.linkonce.d.*)
 .data          0x00010a10        0x0 start.o
 .data          0x00010a10       0xa8 net_buf.o
 .data          0x00010ab8        0x0 net_count.o
 .data          0x00010ab8        0x0 net_subr.o
 .data          0x00010ab8        0x0 net_timer.o
 .data          0x00010ab8        0x0 in_subr.o
 .data          0x00010ab8       0x24 tinet_cfg.o
                0x00010ab8                udp_cep
 .data          0x00010adc       0x50 route_cfg.o
                0x00010adc                routing_tbl
 .data          0x00010b2c        0x0 ip_input.o
 .data          0x00010b2c        0x0 ip_output.o
 .data          0x00010b2c        0x0 ip_icmp.o
 .data          0x00010b2c        0x0 tinet_target_config.o
 .data          0x00010b2c        0x0 if.o
 .data          0x00010b2c        0xc ethernet.o
 .data          0x00010b38        0x0 if_ether.o
 .data          0x00010b38       0x48 if_tse.o
                0x00010b38                if_softc
 .data          0x00010b80       0x64 avalon_tse.o
                0x00010b80                MV88E1111
 .data          0x00010be4        0x0 avalon_sgdma.o
 .data          0x00010be4        0x0 udp_input.o
 .data          0x00010be4        0x0 udp_output.o
 .data          0x00010be4        0x0 udp_subr.o
 .data          0x00010be4        0x0 udp_usrreq.o
 .data          0x00010be4        0x0 test_histogram.o
 .data          0x00010be4        0x0 histogram.o
 .data          0x00010be4        0x0 eventflag.o
 .data          0x00010be4        0x0 dataqueue.o
 .data          0x00010be4        0x0 mempfix.o
 .data          0x00010be4        0x0 ethernet_cfg.o
 .data          0x00010be4        0x0 net_atk2_cfg.o
 .data          0x00010be4        0x0 jtag_uart.o
 .data          0x00010be4        0x0 banner.o
 .data          0x00010be4        0x0 syslog.o
 .data          0x00010be4        0x0 serial.o
 .data          0x00010be4        0x0 log_output.o
 .data          0x00010be4        0x0 vasyslog.o
 .data          0x00010be4        0x0 t_perror.o
 .data          0x00010be4        0x0 strerror.o
 .data          0x00010be4        0x0 Os_Lcfg.o
 .data          0x00010be4        0x0 libkernel.a(prc_support.o)
 .data          0x00010be4        0x0 libkernel.a(target_config.o)
 .data          0x00010be4        0x0 libkernel.a(target_hw_counter.o)
 .data          0x00010be4        0x0 libkernel.a(prc_config.o)
 .data          0x00010be4        0x0 libkernel.a(vic.o)
 .data          0x00010be4        0x0 libkernel.a(avalon_timer.o)
 .data          0x00010be4        0x0 libkernel.a(counter_manage.o)
 .data          0x00010be4        0x0 libkernel.a(counter.o)
 .data          0x00010be4        0x0 libkernel.a(alarm.o)
 .data          0x00010be4        0x0 libkernel.a(osctl_manage.o)
 .data          0x00010be4        0x0 libkernel.a(osctl.o)
 .data          0x00010be4        0x0 libkernel.a(task_manage.o)
 .data          0x00010be4        0x0 libkernel.a(event.o)
 .data          0x00010be4        0x0 libkernel.a(resource.o)
 .data          0x00010be4        0x0 libkernel.a(interrupt_manage.o)
 .data          0x00010be4        0x0 libkernel.a(interrupt.o)
 .data          0x00010be4        0x0 libkernel.a(task.o)
 .data          0x00010be4        0x0 c:/altera/13.1/nios2eds/bin/gnu/h-i686-mingw32/bin/../lib/gcc/nios2-elf/4.7.3/../../../../../H-i686-mingw32/nios2-elf/lib\libc.a(lib_a-memcmp.o)
 .data          0x00010be4        0x0 c:/altera/13.1/nios2eds/bin/gnu/h-i686-mingw32/bin/../lib/gcc/nios2-elf/4.7.3/../../../../../H-i686-mingw32/nios2-elf/lib\libc.a(lib_a-memcpy.o)
 .data          0x00010be4        0x0 c:/altera/13.1/nios2eds/bin/gnu/h-i686-mingw32/bin/../lib/gcc/nios2-elf/4.7.3/../../../../../H-i686-mingw32/nios2-elf/lib\libc.a(lib_a-memmove.o)
 .data          0x00010be4        0x0 c:/altera/13.1/nios2eds/bin/gnu/h-i686-mingw32/bin/../lib/gcc/nios2-elf/4.7.3/../../../../../H-i686-mingw32/nios2-elf/lib\libc.a(lib_a-memset.o)
                0x00018bd4                _gp = ABSOLUTE ((. + 0x7ff0))
                0x00018bd4                PROVIDE (gp, _gp)
 *(.sdata .sdata.* .gnu.linkonce.s.*)
 .sdata         0x00010be4        0x8 net_subr.o
 .sdata         0x00010bec        0x4 in_subr.o
 .sdata         0x00010bf0        0xc tinet_cfg.o
                0x00010bf0                tinet_dtqinib_table
                0x00010bf8                tmax_udp_cepid
 .sdata         0x00010bfc        0x6 ethernet.o
                0x00010bfc                ether_broad_cast_addr
 .sdata         0x00010c02        0x2 udp_subr.o
 .sdata         0x00010c04        0x4 test_histogram.o
                0x00010c04                histid
 .sdata         0x00010c08        0x8 ethernet_cfg.o
                0x00010c08                ethernet_dtqinib_table
 .sdata         0x00010c10       0x3c Os_Lcfg.o
                0x00010c10                tmin_status_il
                0x00010c14                _ostkpt
                0x00010c18                _ostk
                0x00010c1c                _ostksz
                0x00010c20                tnum_intno
                0x00010c24                tnum_implscheduletable
                0x00010c28                tnum_scheduletable
                0x00010c2c                tnum_appmode
                0x00010c30                tnum_exttask
                0x00010c34                tnum_task
                0x00010c38                tnum_stdresource
                0x00010c3c                tnum_isr2
                0x00010c40                tnum_hardcounter
                0x00010c44                tnum_counter
                0x00010c48                tnum_alarm
 *(.sdata2 .sdata2.* .gnu.linkonce.s2.*)
                0x00010c4c                . = ALIGN (0x4)
                0x00010c4c                _edata = ABSOLUTE (.)
                0x00010c4c                PROVIDE (edata, ABSOLUTE (.))

.bss            0x00010c4c    0x42efc
                0x00010c4c                __bss_start = ABSOLUTE (.)
                0x00010c4c                PROVIDE (__sbss_start, ABSOLUTE (.))
                0x00010c4c                PROVIDE (___sbss_start, ABSOLUTE (.))
 *(.dynsbss)
 *(.sbss .sbss.* .gnu.linkonce.sb.*)
 .sbss          0x00010c4c        0x4 tinet_cfg.o
 .sbss          0x00010c50       0x10 ip_input.o
 .sbss          0x00010c60        0x2 ip_output.o
 .sbss          0x00010c62        0x1 test_histogram.o
                0x00010c62                meas_flg
 *fill*         0x00010c63        0x1 
 .sbss          0x00010c64        0x8 ethernet_cfg.o
 .sbss          0x00010c6c       0x20 net_atk2_cfg.o
 .sbss          0x00010c8c        0x1 jtag_uart.o
 *fill*         0x00010c8d        0x3 
 .sbss          0x00010c90        0x4 syslog.o
 .sbss          0x00010c94        0x2 serial.o
 *fill*         0x00010c96        0x2 
 .sbss          0x00010c98        0xc libkernel.a(target_hw_counter.o)
 .sbss          0x00010ca4       0x1c libkernel.a(prc_config.o)
                0x00010ca4                saved_status_il
                0x00010ca8                nested_lock_os_int_cnt
                0x00010cac                nios2_cpu_exp_sp
                0x00010cb0                nios2_cpu_exp_bad_addr
                0x00010cb4                nios2_cpu_exp_pc
                0x00010cb8                nios2_cpu_exp_no
                0x00010cbc                except_nest_cnt
 .sbss          0x00010cc0        0x4 libkernel.a(avalon_timer.o)
 .sbss          0x00010cc4       0x14 libkernel.a(osctl_manage.o)
                0x00010cc4                fatal_line_num
                0x00010cc8                fatal_file_name
                0x00010ccc                kerflg
                0x00010cd0                appmodeid
                0x00010cd4                callevel_stat
 .sbss          0x00010cd8       0x1c libkernel.a(osctl.o)
                0x00010cd8                errorhook_par3
                0x00010cdc                errorhook_par2
                0x00010ce0                errorhook_par1
                0x00010ce4                _errorhook_par3
                0x00010ce8                _errorhook_par2
                0x00010cec                _errorhook_par1
                0x00010cf0                _errorhook_svcid
 .sbss          0x00010cf4        0x8 libkernel.a(interrupt.o)
                0x00010cf4                sus_os_cnt_ctx
                0x00010cf5                sus_os_cnt
                0x00010cf6                sus_all_cnt_ctx
                0x00010cf7                sus_all_cnt
                0x00010cf8                p_runisr
 .sbss          0x00010cfc       0x10 libkernel.a(task.o)
                0x00010cfc                ready_primap
                0x00010d00                nextpri
                0x00010d04                p_schedtsk
                0x00010d08                p_runtsk
 *(.sbss2 .sbss2.* .gnu.linkonce.sb2.*)
 *(.scommon)
                0x00010d0c                PROVIDE (__sbss_end, ABSOLUTE (.))
                0x00010d0c                PROVIDE (___sbss_end, ABSOLUTE (.))
 *(.dynbss)
 *(.bss .bss.* .gnu.linkonce.b.*)
 .bss           0x00010d0c        0x0 start.o
 .bss           0x00010d0c        0x0 net_buf.o
 .bss           0x00010d0c      0x1c0 net_count.o
                0x00010d0c                net_count_udp
                0x00010d3c                net_count_icmp4
                0x00010d6c                net_count_ip4
                0x00010e0c                net_count_arp
                0x00010e3c                net_count_ether_nic
                0x00010e9c                net_count_ether
 .bss           0x00010ecc       0x12 net_subr.o
 *fill*         0x00010ede        0x2 
 .bss           0x00010ee0       0x78 net_timer.o
 .bss           0x00010f58       0x10 in_subr.o
 .bss           0x00010f68       0x10 tinet_cfg.o
                0x00010f68                tinet_dtqcb_table
 .bss           0x00010f78        0x0 route_cfg.o
 .bss           0x00010f78        0x0 ip_input.o
 .bss           0x00010f78        0x0 ip_output.o
 .bss           0x00010f78        0x0 ip_icmp.o
 .bss           0x00010f78        0x0 tinet_target_config.o
 .bss           0x00010f78        0x0 if.o
 .bss           0x00010f78        0x0 ethernet.o
 .bss           0x00010f78       0xa0 if_ether.o
 .bss           0x00011018      0x5f0 if_tse.o
 .bss           0x00011608        0x0 avalon_tse.o
 .bss           0x00011608        0x0 avalon_sgdma.o
 .bss           0x00011608        0x0 udp_input.o
 .bss           0x00011608        0x0 udp_output.o
 .bss           0x00011608        0x0 udp_subr.o
 .bss           0x00011608        0x0 udp_usrreq.o
 .bss           0x00011608     0x17a4 test_histogram.o
 .bss           0x00012dac    0x3a980 histogram.o
                0x00012dac                histcb_table
 .bss           0x0004d72c        0x0 eventflag.o
 .bss           0x0004d72c        0x0 dataqueue.o
 .bss           0x0004d72c        0x0 mempfix.o
 .bss           0x0004d72c       0x10 ethernet_cfg.o
                0x0004d72c                ethernet_dtqcb_table
 .bss           0x0004d73c     0x4654 net_atk2_cfg.o
                0x0004d73c                net_atk2_mpfcb_table
 .bss           0x00051d90        0x0 jtag_uart.o
 .bss           0x00051d90        0x0 banner.o
 .bss           0x00051d90        0x0 syslog.o
 .bss           0x00051d90        0x0 serial.o
 .bss           0x00051d90        0x0 log_output.o
 .bss           0x00051d90        0x0 vasyslog.o
 .bss           0x00051d90        0x0 t_perror.o
 .bss           0x00051d90        0x0 strerror.o
 .bss           0x00051d90     0x1d38 Os_Lcfg.o
                0x00051d90                isrcb_table
                0x00051db0                rescb_table
                0x00051e30                schtblcb_table
                0x00051e30                schtblinib_table
                0x00051e30                almcb_table
                0x00051e60                cntcb_table
                0x00051e88                tcb_table
 .bss           0x00053ac8        0x0 libkernel.a(prc_support.o)
 .bss           0x00053ac8        0x0 libkernel.a(target_config.o)
 .bss           0x00053ac8        0x0 libkernel.a(target_hw_counter.o)
 .bss           0x00053ac8        0x0 libkernel.a(prc_config.o)
 .bss           0x00053ac8        0x0 libkernel.a(vic.o)
 .bss           0x00053ac8        0x0 libkernel.a(avalon_timer.o)
 .bss           0x00053ac8        0x0 libkernel.a(counter_manage.o)
 .bss           0x00053ac8        0x0 libkernel.a(counter.o)
 .bss           0x00053ac8        0x0 libkernel.a(alarm.o)
 .bss           0x00053ac8        0x0 libkernel.a(osctl_manage.o)
 .bss           0x00053ac8        0x0 libkernel.a(osctl.o)
 .bss           0x00053ac8        0x0 libkernel.a(task_manage.o)
 .bss           0x00053ac8        0x0 libkernel.a(event.o)
 .bss           0x00053ac8        0x0 libkernel.a(resource.o)
 .bss           0x00053ac8        0x0 libkernel.a(interrupt_manage.o)
 .bss           0x00053ac8        0x0 libkernel.a(interrupt.o)
 .bss           0x00053ac8       0x80 libkernel.a(task.o)
                0x00053ac8                ready_queue
 .bss           0x00053b48        0x0 c:/altera/13.1/nios2eds/bin/gnu/h-i686-mingw32/bin/../lib/gcc/nios2-elf/4.7.3/../../../../../H-i686-mingw32/nios2-elf/lib\libc.a(lib_a-memcmp.o)
 .bss           0x00053b48        0x0 c:/altera/13.1/nios2eds/bin/gnu/h-i686-mingw32/bin/../lib/gcc/nios2-elf/4.7.3/../../../../../H-i686-mingw32/nios2-elf/lib\libc.a(lib_a-memcpy.o)
 .bss           0x00053b48        0x0 c:/altera/13.1/nios2eds/bin/gnu/h-i686-mingw32/bin/../lib/gcc/nios2-elf/4.7.3/../../../../../H-i686-mingw32/nios2-elf/lib\libc.a(lib_a-memmove.o)
 .bss           0x00053b48        0x0 c:/altera/13.1/nios2eds/bin/gnu/h-i686-mingw32/bin/../lib/gcc/nios2-elf/4.7.3/../../../../../H-i686-mingw32/nios2-elf/lib\libc.a(lib_a-memset.o)
 *(COMMON)
                0x00053b48                . = ALIGN (0x4)
                0x00053b48                __bss_end = ABSOLUTE (.)

.ext_flash      0x04000000        0x0
                0x04000000                PROVIDE (_alt_partition_ext_flash_start, ABSOLUTE (.))
 *(.ext_flash)
                0x04000000                . = ALIGN (0x4)
                0x04000000                PROVIDE (_alt_partition_ext_flash_end, ABSOLUTE (.))

.sram           0x05000020        0x0
                0x05000020                PROVIDE (_alt_partition_sram_start, ABSOLUTE (.))
 *(.sram)
                0x05000020                . = ALIGN (0x4)
                0x05000020                PROVIDE (_alt_partition_sram_end, ABSOLUTE (.))
                0x05000020                _end = ABSOLUTE (.)
                0x05000020                PROVIDE (end, ABSOLUTE (.))

.sdram          0x00053b48        0x0
                0x00053b48                PROVIDE (_alt_partition_sdram_start, ABSOLUTE (.))
 *(.sdram)
                0x00053b48                . = ALIGN (0x4)
                0x00053b48                PROVIDE (_alt_partition_sdram_end, ABSOLUTE (.))
                0x00053b48                _end = ABSOLUTE (.)
                0x00053b48                PROVIDE (end, ABSOLUTE (.))

.nlsdram        0x00053b48        0x0
                0x00053b48                PROVIDE (_alt_partition_nlsdram_start, ABSOLUTE (.))
 *(.nlsdram)
                0x00053b48                . = ALIGN (0x4)
                0x00053b48                PROVIDE (_alt_partition_nlsdram_end, ABSOLUTE (.))
                0x00053b48                _end = ABSOLUTE (.)
                0x00053b48                PROVIDE (end, ABSOLUTE (.))

.stab
 *(.stab)

.stabstr
 *(.stabstr)

.stab.excl
 *(.stab.excl)

.stab.exclstr
 *(.stab.exclstr)

.stab.index
 *(.stab.index)

.stab.indexstr
 *(.stab.indexstr)

.comment        0x00000000       0x23
 *(.comment)
 .comment       0x00000000       0x23 net_buf.o
                                 0x24 (size before relaxing)
 .comment       0x00000000       0x24 net_count.o
 .comment       0x00000000       0x24 net_subr.o
 .comment       0x00000000       0x24 net_timer.o
 .comment       0x00000000       0x24 in_subr.o
 .comment       0x00000000       0x24 tinet_cfg.o
 .comment       0x00000000       0x24 route_cfg.o
 .comment       0x00000000       0x24 ip_input.o
 .comment       0x00000000       0x24 ip_output.o
 .comment       0x00000000       0x24 ip_icmp.o
 .comment       0x00000000       0x24 tinet_target_config.o
 .comment       0x00000000       0x24 if.o
 .comment       0x00000000       0x24 ethernet.o
 .comment       0x00000000       0x24 if_ether.o
 .comment       0x00000000       0x24 if_tse.o
 .comment       0x00000000       0x24 avalon_tse.o
 .comment       0x00000000       0x24 avalon_sgdma.o
 .comment       0x00000000       0x24 udp_input.o
 .comment       0x00000000       0x24 udp_output.o
 .comment       0x00000000       0x24 udp_subr.o
 .comment       0x00000000       0x24 udp_usrreq.o
 .comment       0x00000000       0x24 test_histogram.o
 .comment       0x00000000       0x24 histogram.o
 .comment       0x00000000       0x24 eventflag.o
 .comment       0x00000000       0x24 dataqueue.o
 .comment       0x00000000       0x24 mempfix.o
 .comment       0x00000000       0x24 ethernet_cfg.o
 .comment       0x00000000       0x24 net_atk2_cfg.o
 .comment       0x00000000       0x24 jtag_uart.o
 .comment       0x00000000       0x24 banner.o
 .comment       0x00000000       0x24 syslog.o
 .comment       0x00000000       0x24 serial.o
 .comment       0x00000000       0x24 log_output.o
 .comment       0x00000000       0x24 vasyslog.o
 .comment       0x00000000       0x24 t_perror.o
 .comment       0x00000000       0x24 strerror.o
 .comment       0x00000000       0x24 Os_Lcfg.o
 .comment       0x00000000       0x24 libkernel.a(target_config.o)
 .comment       0x00000000       0x24 libkernel.a(target_hw_counter.o)
 .comment       0x00000000       0x24 libkernel.a(prc_config.o)
 .comment       0x00000000       0x24 libkernel.a(vic.o)
 .comment       0x00000000       0x24 libkernel.a(avalon_timer.o)
 .comment       0x00000000       0x24 libkernel.a(counter_manage.o)
 .comment       0x00000000       0x24 libkernel.a(counter.o)
 .comment       0x00000000       0x24 libkernel.a(alarm.o)
 .comment       0x00000000       0x24 libkernel.a(osctl_manage.o)
 .comment       0x00000000       0x24 libkernel.a(osctl.o)
 .comment       0x00000000       0x24 libkernel.a(task_manage.o)
 .comment       0x00000000       0x24 libkernel.a(event.o)
 .comment       0x00000000       0x24 libkernel.a(resource.o)
 .comment       0x00000000       0x24 libkernel.a(interrupt_manage.o)
 .comment       0x00000000       0x24 libkernel.a(interrupt.o)
 .comment       0x00000000       0x24 libkernel.a(task.o)
 .comment       0x00000000       0x24 c:/altera/13.1/nios2eds/bin/gnu/h-i686-mingw32/bin/../lib/gcc/nios2-elf/4.7.3/../../../../../H-i686-mingw32/nios2-elf/lib\libc.a(lib_a-memcmp.o)
 .comment       0x00000000       0x24 c:/altera/13.1/nios2eds/bin/gnu/h-i686-mingw32/bin/../lib/gcc/nios2-elf/4.7.3/../../../../../H-i686-mingw32/nios2-elf/lib\libc.a(lib_a-memcpy.o)
 .comment       0x00000000       0x24 c:/altera/13.1/nios2eds/bin/gnu/h-i686-mingw32/bin/../lib/gcc/nios2-elf/4.7.3/../../../../../H-i686-mingw32/nios2-elf/lib\libc.a(lib_a-memmove.o)
 .comment       0x00000000       0x24 c:/altera/13.1/nios2eds/bin/gnu/h-i686-mingw32/bin/../lib/gcc/nios2-elf/4.7.3/../../../../../H-i686-mingw32/nios2-elf/lib\libc.a(lib_a-memset.o)

.debug
 *(.debug)

.line
 *(.line)

.debug_srcinfo
 *(.debug_srcinfo)

.debug_sfnames
 *(.debug_sfnames)

.debug_aranges  0x00000000      0x758
 *(.debug_aranges)
 .debug_aranges
                0x00000000       0x28 start.o
 .debug_aranges
                0x00000028       0x20 net_buf.o
 .debug_aranges
                0x00000048       0x18 net_count.o
 .debug_aranges
                0x00000060       0x20 net_subr.o
 .debug_aranges
                0x00000080       0x20 net_timer.o
 .debug_aranges
                0x000000a0       0x20 in_subr.o
 .debug_aranges
                0x000000c0       0x20 tinet_cfg.o
 .debug_aranges
                0x000000e0       0x18 route_cfg.o
 .debug_aranges
                0x000000f8       0x20 ip_input.o
 .debug_aranges
                0x00000118       0x20 ip_output.o
 .debug_aranges
                0x00000138       0x20 ip_icmp.o
 .debug_aranges
                0x00000158       0x18 tinet_target_config.o
 .debug_aranges
                0x00000170       0x20 if.o
 .debug_aranges
                0x00000190       0x20 ethernet.o
 .debug_aranges
                0x000001b0       0x20 if_ether.o
 .debug_aranges
                0x000001d0       0x20 if_tse.o
 .debug_aranges
                0x000001f0       0x20 avalon_tse.o
 .debug_aranges
                0x00000210       0x20 avalon_sgdma.o
 .debug_aranges
                0x00000230       0x20 udp_input.o
 .debug_aranges
                0x00000250       0x18 udp_output.o
 .debug_aranges
                0x00000268       0x20 udp_subr.o
 .debug_aranges
                0x00000288       0x20 udp_usrreq.o
 .debug_aranges
                0x000002a8       0x28 test_histogram.o
 .debug_aranges
                0x000002d0       0x20 histogram.o
 .debug_aranges
                0x000002f0       0x20 eventflag.o
 .debug_aranges
                0x00000310       0x20 dataqueue.o
 .debug_aranges
                0x00000330       0x20 mempfix.o
 .debug_aranges
                0x00000350       0x20 ethernet_cfg.o
 .debug_aranges
                0x00000370       0x20 net_atk2_cfg.o
 .debug_aranges
                0x00000390       0x20 jtag_uart.o
 .debug_aranges
                0x000003b0       0x20 banner.o
 .debug_aranges
                0x000003d0       0x20 syslog.o
 .debug_aranges
                0x000003f0       0x20 serial.o
 .debug_aranges
                0x00000410       0x20 log_output.o
 .debug_aranges
                0x00000430       0x20 vasyslog.o
 .debug_aranges
                0x00000450       0x20 t_perror.o
 .debug_aranges
                0x00000470       0x20 strerror.o
 .debug_aranges
                0x00000490       0x20 Os_Lcfg.o
 .debug_aranges
                0x000004b0       0x28 libkernel.a(prc_support.o)
 .debug_aranges
                0x000004d8       0x20 libkernel.a(target_config.o)
 .debug_aranges
                0x000004f8       0x20 libkernel.a(target_hw_counter.o)
 .debug_aranges
                0x00000518       0x20 libkernel.a(prc_config.o)
 .debug_aranges
                0x00000538       0x20 libkernel.a(vic.o)
 .debug_aranges
                0x00000558       0x20 libkernel.a(avalon_timer.o)
 .debug_aranges
                0x00000578       0x20 libkernel.a(counter_manage.o)
 .debug_aranges
                0x00000598       0x20 libkernel.a(counter.o)
 .debug_aranges
                0x000005b8       0x20 libkernel.a(alarm.o)
 .debug_aranges
                0x000005d8       0x20 libkernel.a(osctl_manage.o)
 .debug_aranges
                0x000005f8       0x20 libkernel.a(osctl.o)
 .debug_aranges
                0x00000618       0x20 libkernel.a(task_manage.o)
 .debug_aranges
                0x00000638       0x20 libkernel.a(event.o)
 .debug_aranges
                0x00000658       0x20 libkernel.a(resource.o)
 .debug_aranges
                0x00000678       0x20 libkernel.a(interrupt_manage.o)
 .debug_aranges
                0x00000698       0x20 libkernel.a(interrupt.o)
 .debug_aranges
                0x000006b8       0x20 libkernel.a(task.o)
 .debug_aranges
                0x000006d8       0x20 c:/altera/13.1/nios2eds/bin/gnu/h-i686-mingw32/bin/../lib/gcc/nios2-elf/4.7.3/../../../../../H-i686-mingw32/nios2-elf/lib\libc.a(lib_a-memcmp.o)
 .debug_aranges
                0x000006f8       0x20 c:/altera/13.1/nios2eds/bin/gnu/h-i686-mingw32/bin/../lib/gcc/nios2-elf/4.7.3/../../../../../H-i686-mingw32/nios2-elf/lib\libc.a(lib_a-memcpy.o)
 .debug_aranges
                0x00000718       0x20 c:/altera/13.1/nios2eds/bin/gnu/h-i686-mingw32/bin/../lib/gcc/nios2-elf/4.7.3/../../../../../H-i686-mingw32/nios2-elf/lib\libc.a(lib_a-memmove.o)
 .debug_aranges
                0x00000738       0x20 c:/altera/13.1/nios2eds/bin/gnu/h-i686-mingw32/bin/../lib/gcc/nios2-elf/4.7.3/../../../../../H-i686-mingw32/nios2-elf/lib\libc.a(lib_a-memset.o)

.debug_pubnames
 *(.debug_pubnames)

.debug_info     0x00000000    0x1d029
 *(.debug_info .gnu.linkonce.wi.*)
 .debug_info    0x00000000       0x82 start.o
 .debug_info    0x00000082      0x723 net_buf.o
 .debug_info    0x000007a5      0x18e net_count.o
 .debug_info    0x00000933      0x442 net_subr.o
 .debug_info    0x00000d75      0x480 net_timer.o
 .debug_info    0x000011f5      0xf7e in_subr.o
 .debug_info    0x00002173      0x520 tinet_cfg.o
 .debug_info    0x00002693      0x121 route_cfg.o
 .debug_info    0x000027b4      0xab3 ip_input.o
 .debug_info    0x00003267      0x533 ip_output.o
 .debug_info    0x0000379a      0x948 ip_icmp.o
 .debug_info    0x000040e2       0x79 tinet_target_config.o
 .debug_info    0x0000415b      0x28b if.o
 .debug_info    0x000043e6      0x9b3 ethernet.o
 .debug_info    0x00004d99      0xdd2 if_ether.o
 .debug_info    0x00005b6b     0x1bca if_tse.o
 .debug_info    0x00007735     0x306a avalon_tse.o
 .debug_info    0x0000a79f      0x7e7 avalon_sgdma.o
 .debug_info    0x0000af86      0x7de udp_input.o
 .debug_info    0x0000b764       0x80 udp_output.o
 .debug_info    0x0000b7e4      0x3a4 udp_subr.o
 .debug_info    0x0000bb88      0xac5 udp_usrreq.o
 .debug_info    0x0000c64d      0xd3f test_histogram.o
 .debug_info    0x0000d38c      0x5c5 histogram.o
 .debug_info    0x0000d951      0x45c eventflag.o
 .debug_info    0x0000ddad      0x4bf dataqueue.o
 .debug_info    0x0000e26c      0x3d2 mempfix.o
 .debug_info    0x0000e63e      0x378 ethernet_cfg.o
 .debug_info    0x0000e9b6      0x535 net_atk2_cfg.o
 .debug_info    0x0000eeeb      0x242 jtag_uart.o
 .debug_info    0x0000f12d      0x22e banner.o
 .debug_info    0x0000f35b      0x2b5 syslog.o
 .debug_info    0x0000f610      0x1b3 serial.o
 .debug_info    0x0000f7c3      0x454 log_output.o
 .debug_info    0x0000fc17      0x20c vasyslog.o
 .debug_info    0x0000fe23      0x2c1 t_perror.o
 .debug_info    0x000100e4      0x107 strerror.o
 .debug_info    0x000101eb      0xfde Os_Lcfg.o
 .debug_info    0x000111c9       0x88 libkernel.a(prc_support.o)
 .debug_info    0x00011251      0x3d5 libkernel.a(target_config.o)
 .debug_info    0x00011626     0x13e9 libkernel.a(target_hw_counter.o)
 .debug_info    0x00012a0f      0x399 libkernel.a(prc_config.o)
 .debug_info    0x00012da8      0x196 libkernel.a(vic.o)
 .debug_info    0x00012f3e      0x78b libkernel.a(avalon_timer.o)
 .debug_info    0x000136c9     0x10e6 libkernel.a(counter_manage.o)
 .debug_info    0x000147af     0x1031 libkernel.a(counter.o)
 .debug_info    0x000157e0     0x1527 libkernel.a(alarm.o)
 .debug_info    0x00016d07      0x9dc libkernel.a(osctl_manage.o)
 .debug_info    0x000176e3      0x969 libkernel.a(osctl.o)
 .debug_info    0x0001804c     0x1107 libkernel.a(task_manage.o)
 .debug_info    0x00019153      0xe71 libkernel.a(event.o)
 .debug_info    0x00019fc4      0xd0a libkernel.a(resource.o)
 .debug_info    0x0001acce      0xc32 libkernel.a(interrupt_manage.o)
 .debug_info    0x0001b900      0x766 libkernel.a(interrupt.o)
 .debug_info    0x0001c066      0xb41 libkernel.a(task.o)
 .debug_info    0x0001cba7      0x117 c:/altera/13.1/nios2eds/bin/gnu/h-i686-mingw32/bin/../lib/gcc/nios2-elf/4.7.3/../../../../../H-i686-mingw32/nios2-elf/lib\libc.a(lib_a-memcmp.o)
 .debug_info    0x0001ccbe      0x10e c:/altera/13.1/nios2eds/bin/gnu/h-i686-mingw32/bin/../lib/gcc/nios2-elf/4.7.3/../../../../../H-i686-mingw32/nios2-elf/lib\libc.a(lib_a-memcpy.o)
 .debug_info    0x0001cdcc      0x146 c:/altera/13.1/nios2eds/bin/gnu/h-i686-mingw32/bin/../lib/gcc/nios2-elf/4.7.3/../../../../../H-i686-mingw32/nios2-elf/lib\libc.a(lib_a-memmove.o)
 .debug_info    0x0001cf12      0x117 c:/altera/13.1/nios2eds/bin/gnu/h-i686-mingw32/bin/../lib/gcc/nios2-elf/4.7.3/../../../../../H-i686-mingw32/nios2-elf/lib\libc.a(lib_a-memset.o)

.debug_abbrev   0x00000000     0x6dac
 *(.debug_abbrev)
 .debug_abbrev  0x00000000       0x12 start.o
 .debug_abbrev  0x00000012      0x292 net_buf.o
 .debug_abbrev  0x000002a4       0x74 net_count.o
 .debug_abbrev  0x00000318      0x190 net_subr.o
 .debug_abbrev  0x000004a8      0x1a3 net_timer.o
 .debug_abbrev  0x0000064b      0x3fa in_subr.o
 .debug_abbrev  0x00000a45      0x16a tinet_cfg.o
 .debug_abbrev  0x00000baf       0x74 route_cfg.o
 .debug_abbrev  0x00000c23      0x305 ip_input.o
 .debug_abbrev  0x00000f28      0x197 ip_output.o
 .debug_abbrev  0x000010bf      0x274 ip_icmp.o
 .debug_abbrev  0x00001333       0x26 tinet_target_config.o
 .debug_abbrev  0x00001359      0x15b if.o
 .debug_abbrev  0x000014b4      0x255 ethernet.o
 .debug_abbrev  0x00001709      0x357 if_ether.o
 .debug_abbrev  0x00001a60      0x3ae if_tse.o
 .debug_abbrev  0x00001e0e      0x35b avalon_tse.o
 .debug_abbrev  0x00002169      0x1de avalon_sgdma.o
 .debug_abbrev  0x00002347      0x1f9 udp_input.o
 .debug_abbrev  0x00002540       0x26 udp_output.o
 .debug_abbrev  0x00002566      0x170 udp_subr.o
 .debug_abbrev  0x000026d6      0x27c udp_usrreq.o
 .debug_abbrev  0x00002952      0x27a test_histogram.o
 .debug_abbrev  0x00002bcc      0x242 histogram.o
 .debug_abbrev  0x00002e0e      0x178 eventflag.o
 .debug_abbrev  0x00002f86      0x1a2 dataqueue.o
 .debug_abbrev  0x00003128      0x156 mempfix.o
 .debug_abbrev  0x0000327e      0x15b ethernet_cfg.o
 .debug_abbrev  0x000033d9      0x189 net_atk2_cfg.o
 .debug_abbrev  0x00003562      0x12b jtag_uart.o
 .debug_abbrev  0x0000368d      0x12d banner.o
 .debug_abbrev  0x000037ba      0x1b6 syslog.o
 .debug_abbrev  0x00003970       0xbc serial.o
 .debug_abbrev  0x00003a2c      0x185 log_output.o
 .debug_abbrev  0x00003bb1      0x10c vasyslog.o
 .debug_abbrev  0x00003cbd      0x161 t_perror.o
 .debug_abbrev  0x00003e1e       0xa0 strerror.o
 .debug_abbrev  0x00003ebe      0x25b Os_Lcfg.o
 .debug_abbrev  0x00004119       0x12 libkernel.a(prc_support.o)
 .debug_abbrev  0x0000412b      0x1b7 libkernel.a(target_config.o)
 .debug_abbrev  0x000042e2      0x218 libkernel.a(target_hw_counter.o)
 .debug_abbrev  0x000044fa      0x1cd libkernel.a(prc_config.o)
 .debug_abbrev  0x000046c7       0xdb libkernel.a(vic.o)
 .debug_abbrev  0x000047a2      0x212 libkernel.a(avalon_timer.o)
 .debug_abbrev  0x000049b4      0x30a libkernel.a(counter_manage.o)
 .debug_abbrev  0x00004cbe      0x37d libkernel.a(counter.o)
 .debug_abbrev  0x0000503b      0x36e libkernel.a(alarm.o)
 .debug_abbrev  0x000053a9      0x2d3 libkernel.a(osctl_manage.o)
 .debug_abbrev  0x0000567c      0x312 libkernel.a(osctl.o)
 .debug_abbrev  0x0000598e      0x318 libkernel.a(task_manage.o)
 .debug_abbrev  0x00005ca6      0x318 libkernel.a(event.o)
 .debug_abbrev  0x00005fbe      0x2dd libkernel.a(resource.o)
 .debug_abbrev  0x0000629b      0x282 libkernel.a(interrupt_manage.o)
 .debug_abbrev  0x0000651d      0x237 libkernel.a(interrupt.o)
 .debug_abbrev  0x00006754      0x3f5 libkernel.a(task.o)
 .debug_abbrev  0x00006b49       0x7f c:/altera/13.1/nios2eds/bin/gnu/h-i686-mingw32/bin/../lib/gcc/nios2-elf/4.7.3/../../../../../H-i686-mingw32/nios2-elf/lib\libc.a(lib_a-memcmp.o)
 .debug_abbrev  0x00006bc8       0x9c c:/altera/13.1/nios2eds/bin/gnu/h-i686-mingw32/bin/../lib/gcc/nios2-elf/4.7.3/../../../../../H-i686-mingw32/nios2-elf/lib\libc.a(lib_a-memcpy.o)
 .debug_abbrev  0x00006c64       0x9c c:/altera/13.1/nios2eds/bin/gnu/h-i686-mingw32/bin/../lib/gcc/nios2-elf/4.7.3/../../../../../H-i686-mingw32/nios2-elf/lib\libc.a(lib_a-memmove.o)
 .debug_abbrev  0x00006d00       0xac c:/altera/13.1/nios2eds/bin/gnu/h-i686-mingw32/bin/../lib/gcc/nios2-elf/4.7.3/../../../../../H-i686-mingw32/nios2-elf/lib\libc.a(lib_a-memset.o)

.debug_line     0x00000000     0x86e4
 *(.debug_line)
 .debug_line    0x00000000       0x75 start.o
 .debug_line    0x00000075      0x28d net_buf.o
 .debug_line    0x00000302       0xd6 net_count.o
 .debug_line    0x000003d8      0x214 net_subr.o
 .debug_line    0x000005ec      0x1b2 net_timer.o
 .debug_line    0x0000079e      0x4d8 in_subr.o
 .debug_line    0x00000c76      0x216 tinet_cfg.o
 .debug_line    0x00000e8c       0xf8 route_cfg.o
 .debug_line    0x00000f84      0x488 ip_input.o
 .debug_line    0x0000140c      0x33b ip_output.o
 .debug_line    0x00001747      0x33c ip_icmp.o
 .debug_line    0x00001a83       0x1d tinet_target_config.o
 .debug_line    0x00001aa0      0x1ac if.o
 .debug_line    0x00001c4c      0x2fd ethernet.o
 .debug_line    0x00001f49      0x40c if_ether.o
 .debug_line    0x00002355      0x533 if_tse.o
 .debug_line    0x00002888      0x6e7 avalon_tse.o
 .debug_line    0x00002f6f      0x221 avalon_sgdma.o
 .debug_line    0x00003190      0x2dd udp_input.o
 .debug_line    0x0000346d       0x1d udp_output.o
 .debug_line    0x0000348a      0x230 udp_subr.o
 .debug_line    0x000036ba      0x402 udp_usrreq.o
 .debug_line    0x00003abc      0x384 test_histogram.o
 .debug_line    0x00003e40      0x1b8 histogram.o
 .debug_line    0x00003ff8      0x16b eventflag.o
 .debug_line    0x00004163      0x172 dataqueue.o
 .debug_line    0x000042d5      0x141 mempfix.o
 .debug_line    0x00004416      0x10b ethernet_cfg.o
 .debug_line    0x00004521      0x10b net_atk2_cfg.o
 .debug_line    0x0000462c       0xba jtag_uart.o
 .debug_line    0x000046e6       0xca banner.o
 .debug_line    0x000047b0      0x123 syslog.o
 .debug_line    0x000048d3       0xb9 serial.o
 .debug_line    0x0000498c      0x1a5 log_output.o
 .debug_line    0x00004b31      0x157 vasyslog.o
 .debug_line    0x00004c88       0xe6 t_perror.o
 .debug_line    0x00004d6e       0x95 strerror.o
 .debug_line    0x00004e03      0x18d Os_Lcfg.o
 .debug_line    0x00004f90      0x202 libkernel.a(prc_support.o)
 .debug_line    0x00005192      0x142 libkernel.a(target_config.o)
 .debug_line    0x000052d4      0x29e libkernel.a(target_hw_counter.o)
 .debug_line    0x00005572      0x141 libkernel.a(prc_config.o)
 .debug_line    0x000056b3       0xa1 libkernel.a(vic.o)
 .debug_line    0x00005754      0x197 libkernel.a(avalon_timer.o)
 .debug_line    0x000058eb      0x40b libkernel.a(counter_manage.o)
 .debug_line    0x00005cf6      0x47c libkernel.a(counter.o)
 .debug_line    0x00006172      0x4d5 libkernel.a(alarm.o)
 .debug_line    0x00006647      0x2b5 libkernel.a(osctl_manage.o)
 .debug_line    0x000068fc      0x22a libkernel.a(osctl.o)
 .debug_line    0x00006b26      0x4b8 libkernel.a(task_manage.o)
 .debug_line    0x00006fde      0x3e7 libkernel.a(event.o)
 .debug_line    0x000073c5      0x355 libkernel.a(resource.o)
 .debug_line    0x0000771a      0x3ea libkernel.a(interrupt_manage.o)
 .debug_line    0x00007b04      0x260 libkernel.a(interrupt.o)
 .debug_line    0x00007d64      0x2d8 libkernel.a(task.o)
 .debug_line    0x0000803c      0x18d c:/altera/13.1/nios2eds/bin/gnu/h-i686-mingw32/bin/../lib/gcc/nios2-elf/4.7.3/../../../../../H-i686-mingw32/nios2-elf/lib\libc.a(lib_a-memcmp.o)
 .debug_line    0x000081c9      0x13d c:/altera/13.1/nios2eds/bin/gnu/h-i686-mingw32/bin/../lib/gcc/nios2-elf/4.7.3/../../../../../H-i686-mingw32/nios2-elf/lib\libc.a(lib_a-memcpy.o)
 .debug_line    0x00008306      0x1ed c:/altera/13.1/nios2eds/bin/gnu/h-i686-mingw32/bin/../lib/gcc/nios2-elf/4.7.3/../../../../../H-i686-mingw32/nios2-elf/lib\libc.a(lib_a-memmove.o)
 .debug_line    0x000084f3      0x1f1 c:/altera/13.1/nios2eds/bin/gnu/h-i686-mingw32/bin/../lib/gcc/nios2-elf/4.7.3/../../../../../H-i686-mingw32/nios2-elf/lib\libc.a(lib_a-memset.o)

.debug_frame    0x00000000     0x1bf8
 *(.debug_frame)
 .debug_frame   0x00000000       0xc4 net_buf.o
 .debug_frame   0x000000c4       0x84 net_subr.o
 .debug_frame   0x00000148       0x7c net_timer.o
 .debug_frame   0x000001c4      0x1e8 in_subr.o
 .debug_frame   0x000003ac       0x40 tinet_cfg.o
 .debug_frame   0x000003ec       0xb0 ip_input.o
 .debug_frame   0x0000049c       0x38 ip_output.o
 .debug_frame   0x000004d4       0x54 ip_icmp.o
 .debug_frame   0x00000528       0x38 if.o
 .debug_frame   0x00000560       0x94 ethernet.o
 .debug_frame   0x000005f4       0xd8 if_ether.o
 .debug_frame   0x000006cc      0x104 if_tse.o
 .debug_frame   0x000007d0       0xe8 avalon_tse.o
 .debug_frame   0x000008b8       0x50 avalon_sgdma.o
 .debug_frame   0x00000908       0x38 udp_input.o
 .debug_frame   0x00000940       0x54 udp_subr.o
 .debug_frame   0x00000994       0xbc udp_usrreq.o
 .debug_frame   0x00000a50       0xd4 test_histogram.o
 .debug_frame   0x00000b24       0x70 histogram.o
 .debug_frame   0x00000b94       0x84 eventflag.o
 .debug_frame   0x00000c18       0x98 dataqueue.o
 .debug_frame   0x00000cb0       0x68 mempfix.o
 .debug_frame   0x00000d18       0x40 ethernet_cfg.o
 .debug_frame   0x00000d58       0x40 net_atk2_cfg.o
 .debug_frame   0x00000d98       0x40 jtag_uart.o
 .debug_frame   0x00000dd8       0x28 banner.o
 .debug_frame   0x00000e00       0x48 syslog.o
 .debug_frame   0x00000e48       0x68 serial.o
 .debug_frame   0x00000eb0       0x68 log_output.o
 .debug_frame   0x00000f18       0x2c vasyslog.o
 .debug_frame   0x00000f44       0x34 t_perror.o
 .debug_frame   0x00000f78       0x20 strerror.o
 .debug_frame   0x00000f98       0xf8 Os_Lcfg.o
 .debug_frame   0x00001090       0x70 libkernel.a(target_config.o)
 .debug_frame   0x00001100      0x200 libkernel.a(target_hw_counter.o)
 .debug_frame   0x00001300       0x70 libkernel.a(prc_config.o)
 .debug_frame   0x00001370       0x20 libkernel.a(vic.o)
 .debug_frame   0x00001390       0x68 libkernel.a(avalon_timer.o)
 .debug_frame   0x000013f8       0xa4 libkernel.a(counter_manage.o)
 .debug_frame   0x0000149c       0xf4 libkernel.a(counter.o)
 .debug_frame   0x00001590       0xe4 libkernel.a(alarm.o)
 .debug_frame   0x00001674       0x74 libkernel.a(osctl_manage.o)
 .debug_frame   0x000016e8       0xd4 libkernel.a(osctl.o)
 .debug_frame   0x000017bc       0xc8 libkernel.a(task_manage.o)
 .debug_frame   0x00001884       0x94 libkernel.a(event.o)
 .debug_frame   0x00001918       0x78 libkernel.a(resource.o)
 .debug_frame   0x00001990       0xac libkernel.a(interrupt_manage.o)
 .debug_frame   0x00001a3c       0x70 libkernel.a(interrupt.o)
 .debug_frame   0x00001aac       0xcc libkernel.a(task.o)
 .debug_frame   0x00001b78       0x20 c:/altera/13.1/nios2eds/bin/gnu/h-i686-mingw32/bin/../lib/gcc/nios2-elf/4.7.3/../../../../../H-i686-mingw32/nios2-elf/lib\libc.a(lib_a-memcmp.o)
 .debug_frame   0x00001b98       0x20 c:/altera/13.1/nios2eds/bin/gnu/h-i686-mingw32/bin/../lib/gcc/nios2-elf/4.7.3/../../../../../H-i686-mingw32/nios2-elf/lib\libc.a(lib_a-memcpy.o)
 .debug_frame   0x00001bb8       0x20 c:/altera/13.1/nios2eds/bin/gnu/h-i686-mingw32/bin/../lib/gcc/nios2-elf/4.7.3/../../../../../H-i686-mingw32/nios2-elf/lib\libc.a(lib_a-memmove.o)
 .debug_frame   0x00001bd8       0x20 c:/altera/13.1/nios2eds/bin/gnu/h-i686-mingw32/bin/../lib/gcc/nios2-elf/4.7.3/../../../../../H-i686-mingw32/nios2-elf/lib\libc.a(lib_a-memset.o)

.debug_str      0x00000000     0x4ab4
 *(.debug_str)
 .debug_str     0x00000000      0x266 net_buf.o
                                0x348 (size before relaxing)
 .debug_str     0x00000266      0x109 net_count.o
                                0x1f4 (size before relaxing)
 .debug_str     0x0000036f       0xf1 net_subr.o
                                0x213 (size before relaxing)
 .debug_str     0x00000460       0xd7 net_timer.o
                                0x232 (size before relaxing)
 .debug_str     0x00000537      0x2b0 in_subr.o
                                0x4ea (size before relaxing)
 .debug_str     0x000007e7      0x1cc tinet_cfg.o
                                0x358 (size before relaxing)
 .debug_str     0x000009b3       0x25 route_cfg.o
                                0x175 (size before relaxing)
 .debug_str     0x000009d8       0xdf ip_input.o
                                0x3ed (size before relaxing)
 .debug_str     0x00000ab7       0x84 ip_output.o
                                0x285 (size before relaxing)
 .debug_str     0x00000b3b       0xb0 ip_icmp.o
                                0x360 (size before relaxing)
 .debug_str     0x00000beb       0x31 tinet_target_config.o
                                0x113 (size before relaxing)
 .debug_str     0x00000c1c       0x56 if.o
                                0x202 (size before relaxing)
 .debug_str     0x00000c72      0x133 ethernet.o
                                0x4d3 (size before relaxing)
 .debug_str     0x00000da5      0x13c if_ether.o
                                0x54b (size before relaxing)
 .debug_str     0x00000ee1      0x935 if_tse.o
                                0xc77 (size before relaxing)
 .debug_str     0x00001816      0xa83 avalon_tse.o
                               0x13fd (size before relaxing)
 .debug_str     0x00002299       0x81 avalon_sgdma.o
                                0x320 (size before relaxing)
 .debug_str     0x0000231a       0x73 udp_input.o
                                0x47c (size before relaxing)
 .debug_str     0x0000238d       0x34 udp_output.o
                                0x11f (size before relaxing)
 .debug_str     0x000023c1       0x70 udp_subr.o
                                0x270 (size before relaxing)
 .debug_str     0x00002431       0xa6 udp_usrreq.o
                                0x44b (size before relaxing)
 .debug_str     0x000024d7      0x35f test_histogram.o
                                0x5be (size before relaxing)
 .debug_str     0x00002836      0x103 histogram.o
                                0x29e (size before relaxing)
 .debug_str     0x00002939      0x132 eventflag.o
                                0x263 (size before relaxing)
 .debug_str     0x00002a6b       0x63 dataqueue.o
                                0x28c (size before relaxing)
 .debug_str     0x00002ace      0x136 mempfix.o
                                0x2a1 (size before relaxing)
 .debug_str     0x00002c04       0x75 ethernet_cfg.o
                                0x29c (size before relaxing)
 .debug_str     0x00002c79      0x196 net_atk2_cfg.o
                                0x446 (size before relaxing)
 .debug_str     0x00002e0f       0x7e jtag_uart.o
                                0x192 (size before relaxing)
 .debug_str     0x00002e8d       0x25 banner.o
                                0x1a2 (size before relaxing)
 .debug_str     0x00002eb2       0x95 syslog.o
                                0x20a (size before relaxing)
 .debug_str     0x00002f47       0x6b serial.o
                                0x197 (size before relaxing)
 .debug_str     0x00002fb2       0x6b log_output.o
                                0x1da (size before relaxing)
 .debug_str     0x0000301d       0x40 vasyslog.o
                                0x1bb (size before relaxing)
 .debug_str     0x0000305d       0x40 t_perror.o
                                0x1cd (size before relaxing)
 .debug_str     0x0000309d       0x22 strerror.o
                                0x137 (size before relaxing)
 .debug_str     0x000030bf      0x933 Os_Lcfg.o
                                0xc0a (size before relaxing)
 .debug_str     0x000039f2       0xc9 libkernel.a(target_config.o)
                                0x247 (size before relaxing)
 .debug_str     0x00003abb      0x4a6 libkernel.a(target_hw_counter.o)
                                0x665 (size before relaxing)
 .debug_str     0x00003f61       0xf1 libkernel.a(prc_config.o)
                                0x2ed (size before relaxing)
 .debug_str     0x00004052       0x39 libkernel.a(vic.o)
                                0x1aa (size before relaxing)
 .debug_str     0x0000408b       0xbb libkernel.a(avalon_timer.o)
                                0x31d (size before relaxing)
 .debug_str     0x00004146      0x15b libkernel.a(counter_manage.o)
                                0x7a7 (size before relaxing)
 .debug_str     0x000042a1       0xdb libkernel.a(counter.o)
                                0x7b6 (size before relaxing)
 .debug_str     0x0000437c       0x74 libkernel.a(alarm.o)
                                0x8dc (size before relaxing)
 .debug_str     0x000043f0       0xe3 libkernel.a(osctl_manage.o)
                                0x559 (size before relaxing)
 .debug_str     0x000044d3      0x112 libkernel.a(osctl.o)
                                0x687 (size before relaxing)
 .debug_str     0x000045e5       0xac libkernel.a(task_manage.o)
                                0x6b2 (size before relaxing)
 .debug_str     0x00004691       0x31 libkernel.a(event.o)
                                0x674 (size before relaxing)
 .debug_str     0x000046c2       0x43 libkernel.a(resource.o)
                                0x700 (size before relaxing)
 .debug_str     0x00004705       0x9c libkernel.a(interrupt_manage.o)
                                0x4c7 (size before relaxing)
 .debug_str     0x000047a1       0x5a libkernel.a(interrupt.o)
                                0x45c (size before relaxing)
 .debug_str     0x000047fb       0xf7 libkernel.a(task.o)
                                0x5b2 (size before relaxing)
 .debug_str     0x000048f2       0xca c:/altera/13.1/nios2eds/bin/gnu/h-i686-mingw32/bin/../lib/gcc/nios2-elf/4.7.3/../../../../../H-i686-mingw32/nios2-elf/lib\libc.a(lib_a-memcmp.o)
                                0x176 (size before relaxing)
 .debug_str     0x000049bc       0x62 c:/altera/13.1/nios2eds/bin/gnu/h-i686-mingw32/bin/../lib/gcc/nios2-elf/4.7.3/../../../../../H-i686-mingw32/nios2-elf/lib\libc.a(lib_a-memcpy.o)
                                0x126 (size before relaxing)
 .debug_str     0x00004a1e       0x4e c:/altera/13.1/nios2eds/bin/gnu/h-i686-mingw32/bin/../lib/gcc/nios2-elf/4.7.3/../../../../../H-i686-mingw32/nios2-elf/lib\libc.a(lib_a-memmove.o)
                                0x1a9 (size before relaxing)
 .debug_str     0x00004a6c       0x48 c:/altera/13.1/nios2eds/bin/gnu/h-i686-mingw32/bin/../lib/gcc/nios2-elf/4.7.3/../../../../../H-i686-mingw32/nios2-elf/lib\libc.a(lib_a-memset.o)
                                0x18a (size before relaxing)

.debug_loc      0x00000000     0xf499
 *(.debug_loc)
 .debug_loc     0x00000000      0x4fa net_buf.o
 .debug_loc     0x000004fa      0x349 net_subr.o
 .debug_loc     0x00000843      0x26b net_timer.o
 .debug_loc     0x00000aae      0xe65 in_subr.o
 .debug_loc     0x00001913       0xb0 tinet_cfg.o
 .debug_loc     0x000019c3      0x7f3 ip_input.o
 .debug_loc     0x000021b6      0x20e ip_output.o
 .debug_loc     0x000023c4      0x408 ip_icmp.o
 .debug_loc     0x000027cc       0x5f if.o
 .debug_loc     0x0000282b      0x40b ethernet.o
 .debug_loc     0x00002c36      0x6bd if_ether.o
 .debug_loc     0x000032f3     0x13ef if_tse.o
 .debug_loc     0x000046e2     0x2aff avalon_tse.o
 .debug_loc     0x000071e1      0x35f avalon_sgdma.o
 .debug_loc     0x00007540      0x266 udp_input.o
 .debug_loc     0x000077a6      0x150 udp_subr.o
 .debug_loc     0x000078f6      0xa54 udp_usrreq.o
 .debug_loc     0x0000834a      0x206 test_histogram.o
 .debug_loc     0x00008550      0x4e1 histogram.o
 .debug_loc     0x00008a31      0x5a7 eventflag.o
 .debug_loc     0x00008fd8      0x47f dataqueue.o
 .debug_loc     0x00009457      0x35f mempfix.o
 .debug_loc     0x000097b6       0xb0 ethernet_cfg.o
 .debug_loc     0x00009866       0xb0 net_atk2_cfg.o
 .debug_loc     0x00009916       0x45 jtag_uart.o
 .debug_loc     0x0000995b       0x20 banner.o
 .debug_loc     0x0000997b       0xd7 syslog.o
 .debug_loc     0x00009a52       0xc6 serial.o
 .debug_loc     0x00009b18      0x4cb log_output.o
 .debug_loc     0x00009fe3      0x142 vasyslog.o
 .debug_loc     0x0000a125      0x167 t_perror.o
 .debug_loc     0x0000a28c       0x21 strerror.o
 .debug_loc     0x0000a2ad       0x20 Os_Lcfg.o
 .debug_loc     0x0000a2cd       0xea libkernel.a(target_config.o)
 .debug_loc     0x0000a3b7      0x577 libkernel.a(target_hw_counter.o)
 .debug_loc     0x0000a92e      0x15f libkernel.a(prc_config.o)
 .debug_loc     0x0000aa8d      0x1c7 libkernel.a(avalon_timer.o)
 .debug_loc     0x0000ac54      0x99f libkernel.a(counter_manage.o)
 .debug_loc     0x0000b5f3      0xbc7 libkernel.a(counter.o)
 .debug_loc     0x0000c1ba      0xc34 libkernel.a(alarm.o)
 .debug_loc     0x0000cdee      0x1e2 libkernel.a(osctl_manage.o)
 .debug_loc     0x0000cfd0      0x2b9 libkernel.a(osctl.o)
 .debug_loc     0x0000d289      0x71d libkernel.a(task_manage.o)
 .debug_loc     0x0000d9a6      0x674 libkernel.a(event.o)
 .debug_loc     0x0000e01a      0x464 libkernel.a(resource.o)
 .debug_loc     0x0000e47e      0x2d4 libkernel.a(interrupt_manage.o)
 .debug_loc     0x0000e752      0x26f libkernel.a(interrupt.o)
 .debug_loc     0x0000e9c1      0x3ec libkernel.a(task.o)
 .debug_loc     0x0000edad      0x103 c:/altera/13.1/nios2eds/bin/gnu/h-i686-mingw32/bin/../lib/gcc/nios2-elf/4.7.3/../../../../../H-i686-mingw32/nios2-elf/lib\libc.a(lib_a-memcmp.o)
 .debug_loc     0x0000eeb0      0x1f2 c:/altera/13.1/nios2eds/bin/gnu/h-i686-mingw32/bin/../lib/gcc/nios2-elf/4.7.3/../../../../../H-i686-mingw32/nios2-elf/lib\libc.a(lib_a-memcpy.o)
 .debug_loc     0x0000f0a2      0x240 c:/altera/13.1/nios2eds/bin/gnu/h-i686-mingw32/bin/../lib/gcc/nios2-elf/4.7.3/../../../../../H-i686-mingw32/nios2-elf/lib\libc.a(lib_a-memmove.o)
 .debug_loc     0x0000f2e2      0x1b7 c:/altera/13.1/nios2eds/bin/gnu/h-i686-mingw32/bin/../lib/gcc/nios2-elf/4.7.3/../../../../../H-i686-mingw32/nios2-elf/lib\libc.a(lib_a-memset.o)

.debug_macinfo
 *(.debug_macinfo)

.debug_weaknames
 *(.debug_weaknames)

.debug_funcnames
 *(.debug_funcnames)

.debug_typenames
 *(.debug_typenames)

.debug_varnames
 *(.debug_varnames)
OUTPUT(atk2-sc1.exe elf32-littlenios2)

.debug_alt_sim_info
                0x00000000       0x10
 .debug_alt_sim_info
                0x00000000       0x10 start.o

.debug_ranges   0x00000000     0x1a70
 .debug_ranges  0x00000000       0x20 start.o
 .debug_ranges  0x00000020       0x80 net_buf.o
 .debug_ranges  0x000000a0      0x120 in_subr.o
 .debug_ranges  0x000001c0       0x70 ip_input.o
 .debug_ranges  0x00000230       0x18 ip_output.o
 .debug_ranges  0x00000248       0x40 ip_icmp.o
 .debug_ranges  0x00000288      0x170 if_tse.o
 .debug_ranges  0x000003f8      0x6f8 avalon_tse.o
 .debug_ranges  0x00000af0       0x30 udp_input.o
 .debug_ranges  0x00000b20       0x70 udp_usrreq.o
 .debug_ranges  0x00000b90       0x18 test_histogram.o
 .debug_ranges  0x00000ba8       0x30 histogram.o
 .debug_ranges  0x00000bd8       0x28 eventflag.o
 .debug_ranges  0x00000c00       0x30 banner.o
 .debug_ranges  0x00000c30       0x18 syslog.o
 .debug_ranges  0x00000c48       0x30 t_perror.o
 .debug_ranges  0x00000c78       0x20 libkernel.a(prc_support.o)
 .debug_ranges  0x00000c98       0x60 libkernel.a(target_config.o)
 .debug_ranges  0x00000cf8       0x90 libkernel.a(target_hw_counter.o)
 .debug_ranges  0x00000d88       0x18 libkernel.a(prc_config.o)
 .debug_ranges  0x00000da0      0x108 libkernel.a(avalon_timer.o)
 .debug_ranges  0x00000ea8      0x1e0 libkernel.a(counter_manage.o)
 .debug_ranges  0x00001088      0x2c0 libkernel.a(counter.o)
 .debug_ranges  0x00001348      0x168 libkernel.a(alarm.o)
 .debug_ranges  0x000014b0       0x48 libkernel.a(osctl_manage.o)
 .debug_ranges  0x000014f8       0x30 libkernel.a(osctl.o)
 .debug_ranges  0x00001528      0x110 libkernel.a(task_manage.o)
 .debug_ranges  0x00001638       0xe0 libkernel.a(event.o)
 .debug_ranges  0x00001718       0x80 libkernel.a(resource.o)
 .debug_ranges  0x00001798       0x78 libkernel.a(interrupt_manage.o)
 .debug_ranges  0x00001810       0xc0 libkernel.a(interrupt.o)
 .debug_ranges  0x000018d0      0x1a0 libkernel.a(task.o)
