
atk2-sc1.exe:     file format elf32-littlenios2


Disassembly of section .entry:

05000000 <__reset>:
 5000000:	00840014 	movui	r2,4096
 5000004:	1001483a 	initi	r2
 5000008:	10bff804 	addi	r2,r2,-32
 500000c:	00bffd16 	blt	zero,r2,5000004 <__reset+0x4>
 5000010:	00c00034 	movhi	r3,0
 5000014:	18c1b804 	addi	r3,r3,1760
 5000018:	1800683a 	jmp	r3
 500001c:	00000000 	call	0 <__alt_mem_ext_flash>

Disassembly of section .exceptions:

00000020 <exception_entry>:
  20:	ee3fff17 	ldw	et,-4(ea)
  24:	c6000efc 	xorhi	et,et,59
  28:	c61a0e9c 	xori	et,et,26682
  2c:	c0011d26 	beq	et,zero,4a4 <trap_handler>

00000030 <exception>:
  30:	deffee04 	addi	sp,sp,-72
  34:	d8400015 	stw	at,0(sp)
  38:	d8800115 	stw	r2,4(sp)
  3c:	d8c00215 	stw	r3,8(sp)
  40:	d9000315 	stw	r4,12(sp)
  44:	d9400415 	stw	r5,16(sp)
  48:	d9800515 	stw	r6,20(sp)
  4c:	d9c00615 	stw	r7,24(sp)
  50:	da000715 	stw	r8,28(sp)
  54:	da400815 	stw	r9,32(sp)
  58:	da800915 	stw	r10,36(sp)
  5c:	dac00a15 	stw	r11,40(sp)
  60:	db000b15 	stw	r12,44(sp)
  64:	db400c15 	stw	r13,48(sp)
  68:	db800d15 	stw	r14,52(sp)
  6c:	dbc00e15 	stw	r15,56(sp)
  70:	dfc00f15 	stw	ra,60(sp)
  74:	df401015 	stw	ea,64(sp)
  78:	0031307a 	rdctl	et,estatus
  7c:	de001115 	stw	et,68(sp)
  80:	0009303a 	rdctl	r4,status
  84:	21c0fc0c 	andi	r7,r4,1008
  88:	d0a00f17 	ldw	r2,-32708(gp)
  8c:	11c00836 	bltu	r2,r7,b0 <exception_1>
  90:	d0e03503 	ldbu	r3,-32556(gp)
  94:	18400044 	addi	at,r3,1
  98:	d0603505 	stb	at,-32556(gp)
  9c:	00c0041e 	bne	zero,r3,b0 <exception_1>
  a0:	00ff03c4 	movi	r3,-1009
  a4:	20c6703a 	and	r3,r4,r3
  a8:	1886b03a 	or	r3,r3,r2
  ac:	1801703a 	wrctl	status,r3

000000b0 <exception_1>:
  b0:	000b31fa 	rdctl	r5,exception
  b4:	0011333a 	rdctl	r8,badaddr
  b8:	0007307a 	rdctl	r3,estatus
  bc:	18c0004c 	andi	r3,r3,1
  c0:	18000326 	beq	r3,zero,d0 <exception_2>
  c4:	0003303a 	rdctl	at,status
  c8:	08400054 	ori	at,at,1
  cc:	0801703a 	wrctl	status,at

000000d0 <exception_2>:
  d0:	d0e03e07 	ldb	r3,-32520(gp)
  d4:	00c03e26 	beq	zero,r3,1d0 <infinity_loop>
  d8:	d0e03a17 	ldw	r3,-32536(gp)
  dc:	19000044 	addi	r4,r3,1
  e0:	d1203a15 	stw	r4,-32536(gp)
  e4:	d809883a 	mov	r4,sp
  e8:	00c00536 	bltu	zero,r3,100 <exception_3>
  ec:	11c00436 	bltu	r2,r7,100 <exception_3>
  f0:	d0a01017 	ldw	r2,-32704(gp)
  f4:	10bfff04 	addi	r2,r2,-4
  f8:	16c00015 	stw	sp,0(r2)
  fc:	1037883a 	mov	sp,r2

00000100 <exception_3>:
 100:	defffc04 	addi	sp,sp,-16
 104:	d1a03917 	ldw	r6,-32540(gp)
 108:	d9800315 	stw	r6,12(sp)
 10c:	29401fcc 	andi	r5,r5,127
 110:	280ad0ba 	srli	r5,r5,2
 114:	d1603915 	stw	r5,-32540(gp)
 118:	d1a03817 	ldw	r6,-32544(gp)
 11c:	d9800215 	stw	r6,8(sp)
 120:	21801017 	ldw	r6,64(r4)
 124:	31bfff04 	addi	r6,r6,-4
 128:	d1a03815 	stw	r6,-32544(gp)
 12c:	d1a03717 	ldw	r6,-32548(gp)
 130:	d9800115 	stw	r6,4(sp)
 134:	d2203715 	stw	r8,-32548(gp)
 138:	d1a03617 	ldw	r6,-32552(gp)
 13c:	d9800015 	stw	r6,0(sp)
 140:	d1203615 	stw	r4,-32552(gp)
 144:	01000584 	movi	r4,22
 148:	000b8600 	call	b860 <call_protectionhk_main>
 14c:	d9800317 	ldw	r6,12(sp)
 150:	d1a03915 	stw	r6,-32540(gp)
 154:	d9800217 	ldw	r6,8(sp)
 158:	d1a03815 	stw	r6,-32544(gp)
 15c:	d9800117 	ldw	r6,4(sp)
 160:	d1a03715 	stw	r6,-32548(gp)
 164:	d9800017 	ldw	r6,0(sp)
 168:	d1a03615 	stw	r6,-32552(gp)
 16c:	dec00404 	addi	sp,sp,16

00000170 <ret_exc>:
 170:	d0e03a17 	ldw	r3,-32536(gp)
 174:	18ffffc4 	addi	r3,r3,-1
 178:	d0e03a15 	stw	r3,-32536(gp)
 17c:	0009303a 	rdctl	r4,status
 180:	2140fc0c 	andi	r5,r4,1008
 184:	d1a00f17 	ldw	r6,-32708(gp)
 188:	31400636 	bltu	r6,r5,1a4 <ret_exc_2>
 18c:	00c0021e 	bne	zero,r3,198 <ret_exc_1>
 190:	d8800017 	ldw	r2,0(sp)
 194:	1037883a 	mov	sp,r2

00000198 <ret_exc_1>:
 198:	d0e03503 	ldbu	r3,-32556(gp)
 19c:	18ffffc4 	addi	r3,r3,-1
 1a0:	d0e03505 	stb	r3,-32556(gp)

000001a4 <ret_exc_2>:
 1a4:	2100004c 	andi	r4,r4,1
 1a8:	d8401117 	ldw	at,68(sp)
 1ac:	00bfff84 	movi	r2,-2
 1b0:	0882703a 	and	at,at,r2
 1b4:	0902b03a 	or	at,at,r4
 1b8:	d8401115 	stw	at,68(sp)
 1bc:	0003303a 	rdctl	at,status
 1c0:	00bfff84 	movi	r2,-2
 1c4:	0882703a 	and	at,at,r2
 1c8:	0801703a 	wrctl	status,at
 1cc:	0000a006 	br	450 <ret_int_1>

000001d0 <infinity_loop>:
 1d0:	003fff06 	br	1d0 <infinity_loop>
	...

000001e0 <interrupt>:
 1e0:	ef7fff04 	addi	ea,ea,-4
 1e4:	deffee04 	addi	sp,sp,-72
 1e8:	d8400015 	stw	at,0(sp)
 1ec:	d8800115 	stw	r2,4(sp)
 1f0:	d8c00215 	stw	r3,8(sp)
 1f4:	d9000315 	stw	r4,12(sp)
 1f8:	d9400415 	stw	r5,16(sp)
 1fc:	d9800515 	stw	r6,20(sp)
 200:	d9c00615 	stw	r7,24(sp)
 204:	da000715 	stw	r8,28(sp)
 208:	da400815 	stw	r9,32(sp)
 20c:	da800915 	stw	r10,36(sp)
 210:	dac00a15 	stw	r11,40(sp)
 214:	db000b15 	stw	r12,44(sp)
 218:	db400c15 	stw	r13,48(sp)
 21c:	db800d15 	stw	r14,52(sp)
 220:	dbc00e15 	stw	r15,56(sp)
 224:	dfc00f15 	stw	ra,60(sp)
 228:	df401015 	stw	ea,64(sp)
 22c:	c009883a 	mov	r4,et
 230:	0031307a 	rdctl	et,estatus
 234:	de001115 	stw	et,68(sp)
 238:	d0e03a17 	ldw	r3,-32536(gp)
 23c:	19400044 	addi	r5,r3,1
 240:	d1603a15 	stw	r5,-32536(gp)
 244:	00c00436 	bltu	zero,r3,258 <interrupt_1>
 248:	d0a01017 	ldw	r2,-32704(gp)
 24c:	10bfff04 	addi	r2,r2,-4
 250:	16c00015 	stw	sp,0(r2)
 254:	1037883a 	mov	sp,r2

00000258 <interrupt_1>:
 258:	0003303a 	rdctl	at,status
 25c:	08400054 	ori	at,at,1
 260:	0801703a 	wrctl	status,at
 264:	00c00a36 	bltu	zero,r3,290 <int_nested>
 268:	d9c00017 	ldw	r7,0(sp)
 26c:	d1a04d17 	ldw	r6,-32460(gp)
 270:	31800217 	ldw	r6,8(r6)
 274:	31800217 	ldw	r6,8(r6)
 278:	31c1042e 	bgeu	r6,r7,68c <stack_monitoring_error_isr>
 27c:	32000017 	ldw	r8,0(r6)
 280:	019390f4 	movhi	r6,20035
 284:	319154c4 	addi	r6,r6,17747
 288:	41800f26 	beq	r8,r6,2c8 <stack_monitoring_exit>
 28c:	0000ff06 	br	68c <stack_monitoring_error_isr>

00000290 <int_nested>:
 290:	00800074 	movhi	r2,1
 294:	1081ab04 	addi	r2,r2,1708
 298:	200690ba 	slli	r3,r4,2
 29c:	10c5883a 	add	r2,r2,r3
 2a0:	11400017 	ldw	r5,0(r2)
 2a4:	29c00017 	ldw	r7,0(r5)
 2a8:	39c00317 	ldw	r7,12(r7)
 2ac:	d1a01117 	ldw	r6,-32700(gp)
 2b0:	398f883a 	add	r7,r7,r6
 2b4:	3ec0f52e 	bgeu	r7,sp,68c <stack_monitoring_error_isr>
 2b8:	31c00017 	ldw	r7,0(r6)
 2bc:	019390f4 	movhi	r6,20035
 2c0:	319154c4 	addi	r6,r6,17747
 2c4:	3980f11e 	bne	r7,r6,68c <stack_monitoring_error_isr>

000002c8 <stack_monitoring_exit>:
 2c8:	d0e0400f 	ldh	r3,-32512(gp)
 2cc:	deffff04 	addi	sp,sp,-4
 2d0:	d8c00015 	stw	r3,0(sp)
 2d4:	19800094 	ori	r6,r3,2
 2d8:	d1a0400d 	sth	r6,-32512(gp)
 2dc:	d0e04917 	ldw	r3,-32476(gp)
 2e0:	deffff04 	addi	sp,sp,-4
 2e4:	d8c00015 	stw	r3,0(sp)
 2e8:	00800074 	movhi	r2,1
 2ec:	1081ab04 	addi	r2,r2,1708
 2f0:	200690ba 	slli	r3,r4,2
 2f4:	10c5883a 	add	r2,r2,r3
 2f8:	11400017 	ldw	r5,0(r2)
 2fc:	d1604915 	stw	r5,-32476(gp)
 300:	00800074 	movhi	r2,1
 304:	1081cb04 	addi	r2,r2,1836
 308:	10c5883a 	add	r2,r2,r3
 30c:	11800017 	ldw	r6,0(r2)
 310:	303ee83a 	callr	r6
 314:	d1a01117 	ldw	r6,-32700(gp)
 318:	31c00017 	ldw	r7,0(r6)
 31c:	019390f4 	movhi	r6,20035
 320:	319154c4 	addi	r6,r6,17747
 324:	3980d91e 	bne	r7,r6,68c <stack_monitoring_error_isr>
 328:	000e3000 	call	e300 <exit_isr2>
 32c:	d8c00017 	ldw	r3,0(sp)
 330:	dec00104 	addi	sp,sp,4
 334:	d0e04915 	stw	r3,-32476(gp)
 338:	d8c00017 	ldw	r3,0(sp)
 33c:	dec00104 	addi	sp,sp,4
 340:	d0e0400d 	sth	r3,-32512(gp)

00000344 <ret_int>:
 344:	0003303a 	rdctl	at,status
 348:	00bfff84 	movi	r2,-2
 34c:	0882703a 	and	at,at,r2
 350:	0801703a 	wrctl	status,at
 354:	d0e03a17 	ldw	r3,-32536(gp)
 358:	18ffffc4 	addi	r3,r3,-1
 35c:	d0e03a15 	stw	r3,-32536(gp)
 360:	00c00126 	beq	zero,r3,368 <ret_int_task>
 364:	00003a06 	br	450 <ret_int_1>

00000368 <ret_int_task>:
 368:	d8800017 	ldw	r2,0(sp)
 36c:	1037883a 	mov	sp,r2
 370:	d1204d17 	ldw	r4,-32460(gp)
 374:	d1604c17 	ldw	r5,-32464(gp)
 378:	21403526 	beq	r4,r5,450 <ret_int_1>
 37c:	0003303a 	rdctl	at,status
 380:	00bf03c4 	movi	r2,-1009
 384:	0882703a 	and	at,at,r2
 388:	d0a00f17 	ldw	r2,-32708(gp)
 38c:	0882b03a 	or	at,at,r2
 390:	0801703a 	wrctl	status,at
 394:	00400044 	movi	at,1
 398:	d0603505 	stb	at,-32556(gp)
 39c:	d0203415 	stw	zero,-32560(gp)
 3a0:	0003303a 	rdctl	at,status
 3a4:	08400054 	ori	at,at,1
 3a8:	0801703a 	wrctl	status,at
 3ac:	defff704 	addi	sp,sp,-36
 3b0:	dc000015 	stw	r16,0(sp)
 3b4:	dc400115 	stw	r17,4(sp)
 3b8:	dc800215 	stw	r18,8(sp)
 3bc:	dcc00315 	stw	r19,12(sp)
 3c0:	dd000415 	stw	r20,16(sp)
 3c4:	dd400515 	stw	r21,20(sp)
 3c8:	dd800615 	stw	r22,24(sp)
 3cc:	ddc00715 	stw	r23,28(sp)
 3d0:	df000815 	stw	fp,32(sp)
 3d4:	26c00815 	stw	sp,32(r4)
 3d8:	00800034 	movhi	r2,0
 3dc:	1080fa04 	addi	r2,r2,1000
 3e0:	20800915 	stw	r2,36(r4)
 3e4:	00007606 	br	5c0 <dispatcher>

000003e8 <ret_int_r>:
 3e8:	dc000017 	ldw	r16,0(sp)
 3ec:	dc400117 	ldw	r17,4(sp)
 3f0:	dc800217 	ldw	r18,8(sp)
 3f4:	dcc00317 	ldw	r19,12(sp)
 3f8:	dd000417 	ldw	r20,16(sp)
 3fc:	dd400517 	ldw	r21,20(sp)
 400:	dd800617 	ldw	r22,24(sp)
 404:	ddc00717 	ldw	r23,28(sp)
 408:	df000817 	ldw	fp,32(sp)
 40c:	dec00904 	addi	sp,sp,36
 410:	0005303a 	rdctl	r2,status
 414:	1080004c 	andi	r2,r2,1
 418:	d8401117 	ldw	at,68(sp)
 41c:	00ffff84 	movi	r3,-2
 420:	08c2703a 	and	at,at,r3
 424:	0882b03a 	or	at,at,r2
 428:	d8401115 	stw	at,68(sp)
 42c:	0003303a 	rdctl	at,status
 430:	00bfff84 	movi	r2,-2
 434:	0882703a 	and	at,at,r2
 438:	0801703a 	wrctl	status,at
 43c:	d0203505 	stb	zero,-32556(gp)
 440:	0003303a 	rdctl	at,status
 444:	00bf03c4 	movi	r2,-1009
 448:	0882703a 	and	at,at,r2
 44c:	0801703a 	wrctl	status,at

00000450 <ret_int_1>:
 450:	d8400017 	ldw	at,0(sp)
 454:	d8800117 	ldw	r2,4(sp)
 458:	d8c00217 	ldw	r3,8(sp)
 45c:	d9000317 	ldw	r4,12(sp)
 460:	d9400417 	ldw	r5,16(sp)
 464:	d9800517 	ldw	r6,20(sp)
 468:	d9c00617 	ldw	r7,24(sp)
 46c:	da000717 	ldw	r8,28(sp)
 470:	da400817 	ldw	r9,32(sp)
 474:	da800917 	ldw	r10,36(sp)
 478:	dac00a17 	ldw	r11,40(sp)
 47c:	db000b17 	ldw	r12,44(sp)
 480:	db400c17 	ldw	r13,48(sp)
 484:	db800d17 	ldw	r14,52(sp)
 488:	dbc00e17 	ldw	r15,56(sp)
 48c:	dfc00f17 	ldw	ra,60(sp)
 490:	df401017 	ldw	ea,64(sp)
 494:	de001117 	ldw	et,68(sp)
 498:	c001707a 	wrctl	estatus,et
 49c:	dec01204 	addi	sp,sp,72
 4a0:	ef80083a 	eret

000004a4 <trap_handler>:
 4a4:	ef80083a 	eret
	...

000004c0 <dispatch>:
 4c0:	defff604 	addi	sp,sp,-40
 4c4:	dc000015 	stw	r16,0(sp)
 4c8:	dc400115 	stw	r17,4(sp)
 4cc:	dc800215 	stw	r18,8(sp)
 4d0:	dcc00315 	stw	r19,12(sp)
 4d4:	dd000415 	stw	r20,16(sp)
 4d8:	dd400515 	stw	r21,20(sp)
 4dc:	dd800615 	stw	r22,24(sp)
 4e0:	ddc00715 	stw	r23,28(sp)
 4e4:	df000815 	stw	fp,32(sp)
 4e8:	dfc00915 	stw	ra,36(sp)
 4ec:	d1204d17 	ldw	r4,-32460(gp)
 4f0:	26c00815 	stw	sp,32(r4)
 4f4:	01400034 	movhi	r5,0
 4f8:	29414904 	addi	r5,r5,1316
 4fc:	21400915 	stw	r5,36(r4)
 500:	d1a04d17 	ldw	r6,-32460(gp)
 504:	31800217 	ldw	r6,8(r6)
 508:	31800217 	ldw	r6,8(r6)
 50c:	36c0682e 	bgeu	r6,sp,6b0 <stack_monitoring_error>
 510:	31c00017 	ldw	r7,0(r6)
 514:	019390f4 	movhi	r6,20035
 518:	319154c4 	addi	r6,r6,17747
 51c:	3980641e 	bne	r7,r6,6b0 <stack_monitoring_error>
 520:	00002706 	br	5c0 <dispatcher>

00000524 <dispatch_r>:
 524:	dc000017 	ldw	r16,0(sp)
 528:	dc400117 	ldw	r17,4(sp)
 52c:	dc800217 	ldw	r18,8(sp)
 530:	dcc00317 	ldw	r19,12(sp)
 534:	dd000417 	ldw	r20,16(sp)
 538:	dd400517 	ldw	r21,20(sp)
 53c:	dd800617 	ldw	r22,24(sp)
 540:	ddc00717 	ldw	r23,28(sp)
 544:	df000817 	ldw	fp,32(sp)
 548:	dfc00917 	ldw	ra,36(sp)
 54c:	dec00a04 	addi	sp,sp,40
 550:	f800283a 	ret
	...

00000560 <start_dispatch>:
 560:	0003303a 	rdctl	at,status
 564:	00bf03c4 	movi	r2,-1009
 568:	0882703a 	and	at,at,r2
 56c:	d0a00f17 	ldw	r2,-32708(gp)
 570:	0882b03a 	or	at,at,r2
 574:	0801703a 	wrctl	status,at
 578:	00400044 	movi	at,1
 57c:	d0603505 	stb	at,-32556(gp)
 580:	d0203415 	stw	zero,-32560(gp)
 584:	0003303a 	rdctl	at,status
 588:	08400054 	ori	at,at,1
 58c:	0801703a 	wrctl	status,at
 590:	00001106 	br	5d8 <dispatcher_0>
	...

000005a0 <exit_and_dispatch>:
 5a0:	d1a04d17 	ldw	r6,-32460(gp)
 5a4:	31800217 	ldw	r6,8(r6)
 5a8:	31800217 	ldw	r6,8(r6)
 5ac:	36c0402e 	bgeu	r6,sp,6b0 <stack_monitoring_error>
 5b0:	31c00017 	ldw	r7,0(r6)
 5b4:	019390f4 	movhi	r6,20035
 5b8:	319154c4 	addi	r6,r6,17747
 5bc:	39803c1e 	bne	r7,r6,6b0 <stack_monitoring_error>

000005c0 <dispatcher>:
 5c0:	00800034 	movhi	r2,0
 5c4:	109af004 	addi	r2,r2,27584
 5c8:	10000326 	beq	r2,zero,5d8 <dispatcher_0>

000005cc <posttaskhook_call>:
 5cc:	01000074 	movhi	r4,1
 5d0:	212da804 	addi	r4,r4,-18784
 5d4:	00085600 	call	8560 <stack_change_and_call_func_1>

000005d8 <dispatcher_0>:
 5d8:	d160400f 	ldh	r5,-32512(gp)
 5dc:	2904000c 	andi	r4,r5,4096
 5e0:	20000526 	beq	r4,zero,5f8 <dispatcher_1>
 5e4:	297bffcc 	andi	r5,r5,61439
 5e8:	d160400d 	sth	r5,-32512(gp)
 5ec:	0005303a 	rdctl	r2,status
 5f0:	10800054 	ori	r2,r2,1
 5f4:	1001703a 	wrctl	status,r2

000005f8 <dispatcher_1>:
 5f8:	d1604c17 	ldw	r5,-32464(gp)
 5fc:	d1604d15 	stw	r5,-32460(gp)
 600:	28000b26 	beq	r5,zero,630 <dispatcher_3>
 604:	2ec00817 	ldw	sp,32(r5)
 608:	d0203a15 	stw	zero,-32536(gp)
 60c:	00800034 	movhi	r2,0
 610:	109ae804 	addi	r2,r2,27552
 614:	10000326 	beq	r2,zero,624 <dispatcher_2>

00000618 <pretaskhook_call>:
 618:	01000074 	movhi	r4,1
 61c:	212dc004 	addi	r4,r4,-18688
 620:	00085600 	call	8560 <stack_change_and_call_func_1>

00000624 <dispatcher_2>:
 624:	d1604d17 	ldw	r5,-32460(gp)
 628:	29400917 	ldw	r5,36(r5)
 62c:	2800683a 	jmp	r5

00000630 <dispatcher_3>:
 630:	d0a01017 	ldw	r2,-32704(gp)
 634:	1037883a 	mov	sp,r2
 638:	01400044 	movi	r5,1
 63c:	d1603a15 	stw	r5,-32536(gp)
 640:	d0203505 	stb	zero,-32556(gp)
 644:	0003303a 	rdctl	at,status
 648:	00bf03c4 	movi	r2,-1009
 64c:	0882703a 	and	at,at,r2
 650:	0801703a 	wrctl	status,at
 654:	0001883a 	nop
 658:	0001883a 	nop
 65c:	0001883a 	nop
 660:	0001883a 	nop
 664:	0003303a 	rdctl	at,status
 668:	00bf03c4 	movi	r2,-1009
 66c:	0882703a 	and	at,at,r2
 670:	d0a00f17 	ldw	r2,-32708(gp)
 674:	0882b03a 	or	at,at,r2
 678:	0801703a 	wrctl	status,at
 67c:	00400044 	movi	at,1
 680:	d0603505 	stb	at,-32556(gp)
 684:	d0203415 	stw	zero,-32560(gp)
 688:	003fdb06 	br	5f8 <dispatcher_1>

0000068c <stack_monitoring_error_isr>:
 68c:	0003303a 	rdctl	at,status
 690:	00bf03c4 	movi	r2,-1009
 694:	0882703a 	and	at,at,r2
 698:	d0a00f17 	ldw	r2,-32708(gp)
 69c:	0882b03a 	or	at,at,r2
 6a0:	0801703a 	wrctl	status,at
 6a4:	00400044 	movi	at,1
 6a8:	d0603505 	stb	at,-32556(gp)
 6ac:	d0203415 	stw	zero,-32560(gp)

000006b0 <stack_monitoring_error>:
 6b0:	d0a03a17 	ldw	r2,-32536(gp)
 6b4:	10800044 	addi	r2,r2,1
 6b8:	d0a03a15 	stw	r2,-32536(gp)
 6bc:	d6e01017 	ldw	sp,-32704(gp)
 6c0:	01000344 	movi	r4,13
 6c4:	000b8600 	call	b860 <call_protectionhk_main>
	...

Disassembly of section .text:

000006e0 <start>:
     6e0:	0001703a 	wrctl	status,zero
     6e4:	068000b4 	movhi	gp,2
     6e8:	d6a2f504 	addi	gp,gp,-29740
     6ec:	d6e01017 	ldw	sp,-32704(gp)

000006f0 <start_0>:
     6f0:	00800034 	movhi	r2,0
     6f4:	10800004 	addi	r2,r2,0
     6f8:	00800126 	beq	zero,r2,700 <start_1>
     6fc:	103ee83a 	callr	r2

00000700 <start_1>:
     700:	00c00074 	movhi	r3,1
     704:	18c31304 	addi	r3,r3,3148
     708:	00800174 	movhi	r2,5
     70c:	108ed204 	addi	r2,r2,15176
     710:	18800326 	beq	r3,r2,720 <start_3>

00000714 <start_2>:
     714:	18000015 	stw	zero,0(r3)
     718:	18c00104 	addi	r3,r3,4
     71c:	18bffd36 	bltu	r3,r2,714 <start_2>

00000720 <start_3>:
     720:	00800034 	movhi	r2,0
     724:	10800004 	addi	r2,r2,0
     728:	00800126 	beq	zero,r2,730 <start_4>
     72c:	103ee83a 	callr	r2

00000730 <start_4>:
     730:	00086200 	call	8620 <target_hardware_initialize>
     734:	0006de00 	call	6de0 <main>

00000738 <crt0_end>:
     738:	003fff06 	br	738 <crt0_end>
     73c:	00000000 	call	0 <__alt_mem_ext_flash>

00000740 <nbuf_get_tbl>:
     740:	00800074 	movhi	r2,1
     744:	10828404 	addi	r2,r2,2576
     748:	f800283a 	ret
     74c:	0001883a 	nop
     750:	0001883a 	nop
     754:	0001883a 	nop
     758:	0001883a 	nop
     75c:	0001883a 	nop

00000760 <nbuf_get_tbl_size>:
     760:	008001c4 	movi	r2,7
     764:	f800283a 	ret
     768:	0001883a 	nop
     76c:	0001883a 	nop
     770:	0001883a 	nop
     774:	0001883a 	nop
     778:	0001883a 	nop
     77c:	0001883a 	nop

00000780 <get_net_buf_ex>:
     780:	defff304 	addi	sp,sp,-52
     784:	dd800915 	stw	r22,36(sp)
     788:	dcc00615 	stw	r19,24(sp)
     78c:	dc000315 	stw	r16,12(sp)
     790:	dfc00c15 	stw	ra,48(sp)
     794:	df000b15 	stw	fp,44(sp)
     798:	ddc00a15 	stw	r23,40(sp)
     79c:	dd400815 	stw	r21,32(sp)
     7a0:	dd000715 	stw	r20,28(sp)
     7a4:	dc800515 	stw	r18,20(sp)
     7a8:	dc400415 	stw	r17,16(sp)
     7ac:	3888000c 	andi	r2,r7,8192
     7b0:	2027883a 	mov	r19,r4
     7b4:	282d883a 	mov	r22,r5
     7b8:	3021883a 	mov	r16,r6
     7bc:	10000126 	beq	r2,zero,7c4 <get_net_buf_ex+0x44>
     7c0:	31408336 	bltu	r6,r5,9d0 <get_net_buf_ex+0x250>
     7c4:	05c00074 	movhi	r23,1
     7c8:	bdc28404 	addi	r23,r23,2576
     7cc:	bd000117 	ldw	r20,4(r23)
     7d0:	a5807636 	bltu	r20,r22,9ac <get_net_buf_ex+0x22c>
     7d4:	a4007536 	bltu	r20,r16,9ac <get_net_buf_ex+0x22c>
     7d8:	1000451e 	bne	r2,zero,8f0 <get_net_buf_ex+0x170>
     7dc:	3884000c 	andi	r2,r7,4096
     7e0:	10009126 	beq	r2,zero,a28 <get_net_buf_ex+0x2a8>
     7e4:	b8802504 	addi	r2,r23,148
     7e8:	05400184 	movi	r21,6
     7ec:	013fffc4 	movi	r4,-1
     7f0:	10c00017 	ldw	r3,0(r2)
     7f4:	10bffa04 	addi	r2,r2,-24
     7f8:	1d80022e 	bgeu	r3,r22,804 <get_net_buf_ex+0x84>
     7fc:	ad7fffc4 	addi	r21,r21,-1
     800:	a93ffb1e 	bne	r21,r4,7f0 <get_net_buf_ex+0x70>
     804:	af000624 	muli	fp,r21,24
     808:	a823883a 	mov	r17,r21
     80c:	bf21883a 	add	r16,r23,fp
     810:	80800304 	addi	r2,r16,12
     814:	10c00017 	ldw	r3,0(r2)
     818:	e4800104 	addi	r18,fp,4
     81c:	bca5883a 	add	r18,r23,r18
     820:	18c00044 	addi	r3,r3,1
     824:	10c00015 	stw	r3,0(r2)
     828:	00000506 	br	840 <get_net_buf_ex+0xc0>
     82c:	88002126 	beq	r17,zero,8b4 <get_net_buf_ex+0x134>
     830:	90c00017 	ldw	r3,0(r18)
     834:	8c7fffc4 	addi	r17,r17,-1
     838:	94bffa04 	addi	r18,r18,-24
     83c:	a0c01d36 	bltu	r20,r3,8b4 <get_net_buf_ex+0x134>
     840:	8100000b 	ldhu	r4,0(r16)
     844:	980b883a 	mov	r5,r19
     848:	843ffa04 	addi	r16,r16,-24
     84c:	00079600 	call	7960 <net_atk2_get_mpf>
     850:	103ff61e 	bne	r2,zero,82c <get_net_buf_ex+0xac>
     854:	98c00017 	ldw	r3,0(r19)
     858:	89000624 	muli	r4,r17,24
     85c:	1c400085 	stb	r17,2(r3)
     860:	98c00017 	ldw	r3,0(r19)
     864:	b92f883a 	add	r23,r23,r4
     868:	bdc00404 	addi	r23,r23,16
     86c:	1d80000d 	sth	r22,0(r3)
     870:	98c00017 	ldw	r3,0(r19)
     874:	180000c5 	stb	zero,3(r3)
     878:	b8c00017 	ldw	r3,0(r23)
     87c:	18c00044 	addi	r3,r3,1
     880:	b8c00015 	stw	r3,0(r23)
     884:	dfc00c17 	ldw	ra,48(sp)
     888:	df000b17 	ldw	fp,44(sp)
     88c:	ddc00a17 	ldw	r23,40(sp)
     890:	dd800917 	ldw	r22,36(sp)
     894:	dd400817 	ldw	r21,32(sp)
     898:	dd000717 	ldw	r20,28(sp)
     89c:	dcc00617 	ldw	r19,24(sp)
     8a0:	dc800517 	ldw	r18,20(sp)
     8a4:	dc400417 	ldw	r17,16(sp)
     8a8:	dc000317 	ldw	r16,12(sp)
     8ac:	dec00d04 	addi	sp,sp,52
     8b0:	f800283a 	ret
     8b4:	bf2f883a 	add	r23,r23,fp
     8b8:	01000104 	movi	r4,4
     8bc:	01400074 	movhi	r5,1
     8c0:	297b9504 	addi	r5,r5,-4524
     8c4:	a9bfffcc 	andi	r6,r21,65535
     8c8:	b00f883a 	mov	r7,r22
     8cc:	d8800215 	stw	r2,8(sp)
     8d0:	bdc00504 	addi	r23,r23,20
     8d4:	00080400 	call	8040 <syslog>
     8d8:	98000015 	stw	zero,0(r19)
     8dc:	b8c00017 	ldw	r3,0(r23)
     8e0:	18c00044 	addi	r3,r3,1
     8e4:	b8c00015 	stw	r3,0(r23)
     8e8:	d8800217 	ldw	r2,8(sp)
     8ec:	003fe506 	br	884 <get_net_buf_ex+0x104>
     8f0:	b8802504 	addi	r2,r23,148
     8f4:	05400184 	movi	r21,6
     8f8:	013fffc4 	movi	r4,-1
     8fc:	10c00017 	ldw	r3,0(r2)
     900:	10bffa04 	addi	r2,r2,-24
     904:	1c00022e 	bgeu	r3,r16,910 <get_net_buf_ex+0x190>
     908:	ad7fffc4 	addi	r21,r21,-1
     90c:	a93ffb1e 	bne	r21,r4,8fc <get_net_buf_ex+0x17c>
     910:	a8c00624 	muli	r3,r21,24
     914:	af000044 	addi	fp,r21,1
     918:	e7000624 	muli	fp,fp,24
     91c:	b8e3883a 	add	r17,r23,r3
     920:	88800304 	addi	r2,r17,12
     924:	d8c00115 	stw	r3,4(sp)
     928:	10c00017 	ldw	r3,0(r2)
     92c:	e7000104 	addi	fp,fp,4
     930:	bf39883a 	add	fp,r23,fp
     934:	18c00044 	addi	r3,r3,1
     938:	10c00015 	stw	r3,0(r2)
     93c:	a825883a 	mov	r18,r21
     940:	050001c4 	movi	r20,7
     944:	8900000b 	ldhu	r4,0(r17)
     948:	980b883a 	mov	r5,r19
     94c:	8c400604 	addi	r17,r17,24
     950:	00079600 	call	7960 <net_atk2_get_mpf>
     954:	10002626 	beq	r2,zero,9f0 <get_net_buf_ex+0x270>
     958:	94800044 	addi	r18,r18,1
     95c:	95000326 	beq	r18,r20,96c <get_net_buf_ex+0x1ec>
     960:	e0c00017 	ldw	r3,0(fp)
     964:	e7000604 	addi	fp,fp,24
     968:	1dbff62e 	bgeu	r3,r22,944 <get_net_buf_ex+0x1c4>
     96c:	a9bfffcc 	andi	r6,r21,65535
     970:	01000104 	movi	r4,4
     974:	01400074 	movhi	r5,1
     978:	297b9504 	addi	r5,r5,-4524
     97c:	800f883a 	mov	r7,r16
     980:	d8800215 	stw	r2,8(sp)
     984:	00080400 	call	8040 <syslog>
     988:	d8c00117 	ldw	r3,4(sp)
     98c:	98000015 	stw	zero,0(r19)
     990:	b8eb883a 	add	r21,r23,r3
     994:	ad400504 	addi	r21,r21,20
     998:	a8c00017 	ldw	r3,0(r21)
     99c:	18c00044 	addi	r3,r3,1
     9a0:	a8c00015 	stw	r3,0(r21)
     9a4:	d8800217 	ldw	r2,8(sp)
     9a8:	003fb606 	br	884 <get_net_buf_ex+0x104>
     9ac:	dd000015 	stw	r20,0(sp)
     9b0:	01000104 	movi	r4,4
     9b4:	01400074 	movhi	r5,1
     9b8:	297b8904 	addi	r5,r5,-4572
     9bc:	b00d883a 	mov	r6,r22
     9c0:	800f883a 	mov	r7,r16
     9c4:	00080400 	call	8040 <syslog>
     9c8:	00bffbc4 	movi	r2,-17
     9cc:	003fad06 	br	884 <get_net_buf_ex+0x104>
     9d0:	01000104 	movi	r4,4
     9d4:	01400074 	movhi	r5,1
     9d8:	297b7e04 	addi	r5,r5,-4616
     9dc:	b00d883a 	mov	r6,r22
     9e0:	800f883a 	mov	r7,r16
     9e4:	00080400 	call	8040 <syslog>
     9e8:	00bffbc4 	movi	r2,-17
     9ec:	003fa506 	br	884 <get_net_buf_ex+0x104>
     9f0:	99000017 	ldw	r4,0(r19)
     9f4:	90c00624 	muli	r3,r18,24
     9f8:	24800085 	stb	r18,2(r4)
     9fc:	b8c7883a 	add	r3,r23,r3
     a00:	19400117 	ldw	r5,4(r3)
     a04:	99000017 	ldw	r4,0(r19)
     a08:	18c00404 	addi	r3,r3,16
     a0c:	2140000d 	sth	r5,0(r4)
     a10:	99000017 	ldw	r4,0(r19)
     a14:	200000c5 	stb	zero,3(r4)
     a18:	19000017 	ldw	r4,0(r3)
     a1c:	21000044 	addi	r4,r4,1
     a20:	19000015 	stw	r4,0(r3)
     a24:	003f9706 	br	884 <get_net_buf_ex+0x104>
     a28:	01000104 	movi	r4,4
     a2c:	01400074 	movhi	r5,1
     a30:	297b9e04 	addi	r5,r5,-4488
     a34:	380d883a 	mov	r6,r7
     a38:	00080400 	call	8040 <syslog>
     a3c:	00bffbc4 	movi	r2,-17
     a40:	003f9006 	br	884 <get_net_buf_ex+0x104>
     a44:	0001883a 	nop
     a48:	0001883a 	nop
     a4c:	0001883a 	nop
     a50:	0001883a 	nop
     a54:	0001883a 	nop
     a58:	0001883a 	nop
     a5c:	0001883a 	nop

00000a60 <get_net_buf>:
     a60:	00800074 	movhi	r2,1
     a64:	10828404 	addi	r2,r2,2576
     a68:	11800117 	ldw	r6,4(r2)
     a6c:	01c40004 	movi	r7,4096
     a70:	00007801 	jmpi	780 <get_net_buf_ex>
     a74:	0001883a 	nop
     a78:	0001883a 	nop
     a7c:	0001883a 	nop

00000a80 <rel_net_buf>:
     a80:	defffd04 	addi	sp,sp,-12
     a84:	dc400115 	stw	r17,4(sp)
     a88:	dfc00215 	stw	ra,8(sp)
     a8c:	dc000015 	stw	r16,0(sp)
     a90:	21800083 	ldbu	r6,2(r4)
     a94:	00800184 	movi	r2,6
     a98:	2023883a 	mov	r17,r4
     a9c:	11801736 	bltu	r2,r6,afc <rel_net_buf+0x7c>
     aa0:	31800624 	muli	r6,r6,24
     aa4:	00800074 	movhi	r2,1
     aa8:	10828404 	addi	r2,r2,2576
     aac:	200b883a 	mov	r5,r4
     ab0:	118d883a 	add	r6,r2,r6
     ab4:	3100000b 	ldhu	r4,0(r6)
     ab8:	00079800 	call	7980 <net_atk2_rel_mpf>
     abc:	1021883a 	mov	r16,r2
     ac0:	10000826 	beq	r2,zero,ae4 <rel_net_buf+0x64>
     ac4:	11003fcc 	andi	r4,r2,255
     ac8:	00082800 	call	8280 <atk2_strerror>
     acc:	89c00083 	ldbu	r7,2(r17)
     ad0:	01000104 	movi	r4,4
     ad4:	01400074 	movhi	r5,1
     ad8:	297bac04 	addi	r5,r5,-4432
     adc:	100d883a 	mov	r6,r2
     ae0:	00080400 	call	8040 <syslog>
     ae4:	8005883a 	mov	r2,r16
     ae8:	dfc00217 	ldw	ra,8(sp)
     aec:	dc400117 	ldw	r17,4(sp)
     af0:	dc000017 	ldw	r16,0(sp)
     af4:	dec00304 	addi	sp,sp,12
     af8:	f800283a 	ret
     afc:	01000104 	movi	r4,4
     b00:	01400074 	movhi	r5,1
     b04:	297ba604 	addi	r5,r5,-4456
     b08:	00080400 	call	8040 <syslog>
     b0c:	043ffb84 	movi	r16,-18
     b10:	003ff406 	br	ae4 <rel_net_buf+0x64>
     b14:	0001883a 	nop
     b18:	0001883a 	nop
     b1c:	0001883a 	nop

00000b20 <rus_net_buf>:
     b20:	deffff04 	addi	sp,sp,-4
     b24:	dfc00015 	stw	ra,0(sp)
     b28:	21800083 	ldbu	r6,2(r4)
     b2c:	00800184 	movi	r2,6
     b30:	11800b36 	bltu	r2,r6,b60 <rus_net_buf+0x40>
     b34:	31800624 	muli	r6,r6,24
     b38:	00c00074 	movhi	r3,1
     b3c:	18c28504 	addi	r3,r3,2580
     b40:	0005883a 	mov	r2,zero
     b44:	30cd883a 	add	r6,r6,r3
     b48:	30c00017 	ldw	r3,0(r6)
     b4c:	200000c5 	stb	zero,3(r4)
     b50:	20c0000d 	sth	r3,0(r4)
     b54:	dfc00017 	ldw	ra,0(sp)
     b58:	dec00104 	addi	sp,sp,4
     b5c:	f800283a 	ret
     b60:	01000104 	movi	r4,4
     b64:	01400074 	movhi	r5,1
     b68:	297ba604 	addi	r5,r5,-4456
     b6c:	00080400 	call	8040 <syslog>
     b70:	00bffb84 	movi	r2,-18
     b74:	003ff706 	br	b54 <rus_net_buf+0x34>
     b78:	0001883a 	nop
     b7c:	0001883a 	nop

00000b80 <net_buf_siz>:
     b80:	deffff04 	addi	sp,sp,-4
     b84:	dfc00015 	stw	ra,0(sp)
     b88:	21800083 	ldbu	r6,2(r4)
     b8c:	00800184 	movi	r2,6
     b90:	11800836 	bltu	r2,r6,bb4 <net_buf_siz+0x34>
     b94:	31800624 	muli	r6,r6,24
     b98:	00800074 	movhi	r2,1
     b9c:	10828504 	addi	r2,r2,2580
     ba0:	308d883a 	add	r6,r6,r2
     ba4:	30800017 	ldw	r2,0(r6)
     ba8:	dfc00017 	ldw	ra,0(sp)
     bac:	dec00104 	addi	sp,sp,4
     bb0:	f800283a 	ret
     bb4:	01000104 	movi	r4,4
     bb8:	01400074 	movhi	r5,1
     bbc:	297bb204 	addi	r5,r5,-4408
     bc0:	00080400 	call	8040 <syslog>
     bc4:	00bffb84 	movi	r2,-18
     bc8:	003ff706 	br	ba8 <net_buf_siz+0x28>
     bcc:	0001883a 	nop
     bd0:	0001883a 	nop
     bd4:	0001883a 	nop
     bd8:	0001883a 	nop
     bdc:	0001883a 	nop

00000be0 <net_buf_max_siz>:
     be0:	00800074 	movhi	r2,1
     be4:	10828404 	addi	r2,r2,2576
     be8:	10800117 	ldw	r2,4(r2)
     bec:	f800283a 	ret
	...

00000c00 <net_rand>:
     c00:	d0e00417 	ldw	r3,-32752(gp)
     c04:	009071b4 	movhi	r2,16838
     c08:	10939b44 	addi	r2,r2,20077
     c0c:	1885383a 	mul	r2,r3,r2
     c10:	00e00034 	movhi	r3,32768
     c14:	18ffffc4 	addi	r3,r3,-1
     c18:	108c0e44 	addi	r2,r2,12345
     c1c:	10c4703a 	and	r2,r2,r3
     c20:	d0a00415 	stw	r2,-32752(gp)
     c24:	f800283a 	ret
     c28:	0001883a 	nop
     c2c:	0001883a 	nop
     c30:	0001883a 	nop
     c34:	0001883a 	nop
     c38:	0001883a 	nop
     c3c:	0001883a 	nop

00000c40 <net_srand>:
     c40:	d0a00417 	ldw	r2,-32752(gp)
     c44:	1109883a 	add	r4,r2,r4
     c48:	d1200415 	stw	r4,-32752(gp)
     c4c:	f800283a 	ret
     c50:	0001883a 	nop
     c54:	0001883a 	nop
     c58:	0001883a 	nop
     c5c:	0001883a 	nop

00000c60 <convert_hexdigit>:
     c60:	defffd04 	addi	sp,sp,-12
     c64:	d8800303 	ldbu	r2,12(sp)
     c68:	0011883a 	mov	r8,zero
     c6c:	03000074 	movhi	r12,1
     c70:	633bb804 	addi	r12,r12,-4384
     c74:	00000106 	br	c7c <convert_hexdigit+0x1c>
     c78:	5011883a 	mov	r8,r10
     c7c:	2993203a 	divu	r9,r5,r6
     c80:	4987383a 	mul	r3,r9,r6
     c84:	da17883a 	add	r11,sp,r8
     c88:	42800044 	addi	r10,r8,1
     c8c:	28cbc83a 	sub	r5,r5,r3
     c90:	294003cc 	andi	r5,r5,15
     c94:	614b883a 	add	r5,r12,r5
     c98:	28c00003 	ldbu	r3,0(r5)
     c9c:	480b883a 	mov	r5,r9
     ca0:	58c00005 	stb	r3,0(r11)
     ca4:	283ff41e 	bne	r5,zero,c78 <convert_hexdigit+0x18>
     ca8:	51c0220e 	bge	r10,r7,d34 <convert_hexdigit+0xd4>
     cac:	3a8dc83a 	sub	r6,r7,r10
     cb0:	218d883a 	add	r6,r4,r6
     cb4:	200b883a 	mov	r5,r4
     cb8:	28800005 	stb	r2,0(r5)
     cbc:	29400044 	addi	r5,r5,1
     cc0:	29bffd1e 	bne	r5,r6,cb8 <convert_hexdigit+0x58>
     cc4:	3a95c83a 	sub	r10,r7,r10
     cc8:	2295883a 	add	r10,r4,r10
     ccc:	417fffc4 	addi	r5,r8,-1
     cd0:	01c00044 	movi	r7,1
     cd4:	d94b883a 	add	r5,sp,r5
     cd8:	500d883a 	mov	r6,r10
     cdc:	3ecfc83a 	sub	r7,r7,sp
     ce0:	00000206 	br	cec <convert_hexdigit+0x8c>
     ce4:	28c00003 	ldbu	r3,0(r5)
     ce8:	297fffc4 	addi	r5,r5,-1
     cec:	30c00005 	stb	r3,0(r6)
     cf0:	3947883a 	add	r3,r7,r5
     cf4:	31800044 	addi	r6,r6,1
     cf8:	00fffa16 	blt	zero,r3,ce4 <convert_hexdigit+0x84>
     cfc:	40000616 	blt	r8,zero,d18 <convert_hexdigit+0xb8>
     d00:	42000044 	addi	r8,r8,1
     d04:	5205883a 	add	r2,r10,r8
     d08:	10000005 	stb	zero,0(r2)
     d0c:	1105c83a 	sub	r2,r2,r4
     d10:	dec00304 	addi	sp,sp,12
     d14:	f800283a 	ret
     d18:	0011883a 	mov	r8,zero
     d1c:	42000044 	addi	r8,r8,1
     d20:	5205883a 	add	r2,r10,r8
     d24:	10000005 	stb	zero,0(r2)
     d28:	1105c83a 	sub	r2,r2,r4
     d2c:	dec00304 	addi	sp,sp,12
     d30:	f800283a 	ret
     d34:	2015883a 	mov	r10,r4
     d38:	003fe406 	br	ccc <convert_hexdigit+0x6c>
     d3c:	0001883a 	nop

00000d40 <mac2str>:
     d40:	defff904 	addi	sp,sp,-28
     d44:	dcc00415 	stw	r19,16(sp)
     d48:	dc400215 	stw	r17,8(sp)
     d4c:	dfc00615 	stw	ra,24(sp)
     d50:	dd000515 	stw	r20,20(sp)
     d54:	dc800315 	stw	r18,12(sp)
     d58:	dc000115 	stw	r16,4(sp)
     d5c:	2027883a 	mov	r19,r4
     d60:	2823883a 	mov	r17,r5
     d64:	20004026 	beq	r4,zero,e68 <mac2str+0x128>
     d68:	89400003 	ldbu	r5,0(r17)
     d6c:	04000c04 	movi	r16,48
     d70:	9809883a 	mov	r4,r19
     d74:	01800404 	movi	r6,16
     d78:	01c00084 	movi	r7,2
     d7c:	dc000015 	stw	r16,0(sp)
     d80:	0000c600 	call	c60 <convert_hexdigit>
     d84:	04800e84 	movi	r18,58
     d88:	9885883a 	add	r2,r19,r2
     d8c:	14800005 	stb	r18,0(r2)
     d90:	89400043 	ldbu	r5,1(r17)
     d94:	15000044 	addi	r20,r2,1
     d98:	a009883a 	mov	r4,r20
     d9c:	01800404 	movi	r6,16
     da0:	01c00084 	movi	r7,2
     da4:	dc000015 	stw	r16,0(sp)
     da8:	0000c600 	call	c60 <convert_hexdigit>
     dac:	a085883a 	add	r2,r20,r2
     db0:	14800005 	stb	r18,0(r2)
     db4:	89400083 	ldbu	r5,2(r17)
     db8:	15000044 	addi	r20,r2,1
     dbc:	a009883a 	mov	r4,r20
     dc0:	01800404 	movi	r6,16
     dc4:	01c00084 	movi	r7,2
     dc8:	dc000015 	stw	r16,0(sp)
     dcc:	0000c600 	call	c60 <convert_hexdigit>
     dd0:	a085883a 	add	r2,r20,r2
     dd4:	14800005 	stb	r18,0(r2)
     dd8:	894000c3 	ldbu	r5,3(r17)
     ddc:	15000044 	addi	r20,r2,1
     de0:	a009883a 	mov	r4,r20
     de4:	01800404 	movi	r6,16
     de8:	01c00084 	movi	r7,2
     dec:	dc000015 	stw	r16,0(sp)
     df0:	0000c600 	call	c60 <convert_hexdigit>
     df4:	a085883a 	add	r2,r20,r2
     df8:	14800005 	stb	r18,0(r2)
     dfc:	89400103 	ldbu	r5,4(r17)
     e00:	15000044 	addi	r20,r2,1
     e04:	a009883a 	mov	r4,r20
     e08:	01800404 	movi	r6,16
     e0c:	01c00084 	movi	r7,2
     e10:	dc000015 	stw	r16,0(sp)
     e14:	0000c600 	call	c60 <convert_hexdigit>
     e18:	a085883a 	add	r2,r20,r2
     e1c:	14800005 	stb	r18,0(r2)
     e20:	89400143 	ldbu	r5,5(r17)
     e24:	14400044 	addi	r17,r2,1
     e28:	dc000015 	stw	r16,0(sp)
     e2c:	8809883a 	mov	r4,r17
     e30:	01800404 	movi	r6,16
     e34:	01c00084 	movi	r7,2
     e38:	0000c600 	call	c60 <convert_hexdigit>
     e3c:	8885883a 	add	r2,r17,r2
     e40:	10000005 	stb	zero,0(r2)
     e44:	9805883a 	mov	r2,r19
     e48:	dfc00617 	ldw	ra,24(sp)
     e4c:	dd000517 	ldw	r20,20(sp)
     e50:	dcc00417 	ldw	r19,16(sp)
     e54:	dc800317 	ldw	r18,12(sp)
     e58:	dc400217 	ldw	r17,8(sp)
     e5c:	dc000117 	ldw	r16,4(sp)
     e60:	dec00704 	addi	sp,sp,28
     e64:	f800283a 	ret
     e68:	01000084 	movi	r4,2
     e6c:	000d0400 	call	d040 <GetResource>
     e70:	d0a00517 	ldw	r2,-32748(gp)
     e74:	00c00074 	movhi	r3,1
     e78:	18c3b304 	addi	r3,r3,3788
     e7c:	10bfffc4 	addi	r2,r2,-1
     e80:	14c004a4 	muli	r19,r2,18
     e84:	98e7883a 	add	r19,r19,r3
     e88:	0080040e 	bge	zero,r2,e9c <mac2str+0x15c>
     e8c:	01000084 	movi	r4,2
     e90:	d0a00515 	stw	r2,-32748(gp)
     e94:	000d3e00 	call	d3e0 <ReleaseResource>
     e98:	003fb306 	br	d68 <mac2str+0x28>
     e9c:	00800044 	movi	r2,1
     ea0:	003ffa06 	br	e8c <mac2str+0x14c>
     ea4:	0001883a 	nop
     ea8:	0001883a 	nop
     eac:	0001883a 	nop
     eb0:	0001883a 	nop
     eb4:	0001883a 	nop
     eb8:	0001883a 	nop
     ebc:	0001883a 	nop

00000ec0 <rev_memcpy_word>:
     ec0:	288000c3 	ldbu	r2,3(r5)
     ec4:	20800005 	stb	r2,0(r4)
     ec8:	28800083 	ldbu	r2,2(r5)
     ecc:	20800045 	stb	r2,1(r4)
     ed0:	28800043 	ldbu	r2,1(r5)
     ed4:	20800085 	stb	r2,2(r4)
     ed8:	28800003 	ldbu	r2,0(r5)
     edc:	208000c5 	stb	r2,3(r4)
     ee0:	f800283a 	ret
     ee4:	0001883a 	nop
     ee8:	0001883a 	nop
     eec:	0001883a 	nop
     ef0:	0001883a 	nop
     ef4:	0001883a 	nop
     ef8:	0001883a 	nop
     efc:	0001883a 	nop

00000f00 <rev_memcmp_word>:
     f00:	01800104 	movi	r6,4
     f04:	00c000c4 	movi	r3,3
     f08:	3011883a 	mov	r8,r6
     f0c:	418dc83a 	sub	r6,r8,r6
     f10:	20c5883a 	add	r2,r4,r3
     f14:	298d883a 	add	r6,r5,r6
     f18:	11c00003 	ldbu	r7,0(r2)
     f1c:	30800003 	ldbu	r2,0(r6)
     f20:	180d883a 	mov	r6,r3
     f24:	18ffffc4 	addi	r3,r3,-1
     f28:	3885c83a 	sub	r2,r7,r2
     f2c:	1000011e 	bne	r2,zero,f34 <rev_memcmp_word+0x34>
     f30:	303ff61e 	bne	r6,zero,f0c <rev_memcmp_word+0xc>
     f34:	f800283a 	ret
	...

00000f40 <timeout>:
     f40:	defffc04 	addi	sp,sp,-16
     f44:	dc000015 	stw	r16,0(sp)
     f48:	2021883a 	mov	r16,r4
     f4c:	01000184 	movi	r4,6
     f50:	dc800215 	stw	r18,8(sp)
     f54:	dc400115 	stw	r17,4(sp)
     f58:	dfc00315 	stw	ra,12(sp)
     f5c:	2825883a 	mov	r18,r5
     f60:	3023883a 	mov	r17,r6
     f64:	000d0400 	call	d040 <GetResource>
     f68:	00c00074 	movhi	r3,1
     f6c:	18c3d304 	addi	r3,r3,3916
     f70:	00800284 	movi	r2,10
     f74:	19c00017 	ldw	r7,0(r3)
     f78:	10bfffc4 	addi	r2,r2,-1
     f7c:	18fffd04 	addi	r3,r3,-12
     f80:	38000d26 	beq	r7,zero,fb8 <timeout+0x78>
     f84:	103ffb1e 	bne	r2,zero,f74 <timeout+0x34>
     f88:	01000104 	movi	r4,4
     f8c:	01400074 	movhi	r5,1
     f90:	297bbd04 	addi	r5,r5,-4364
     f94:	01800284 	movi	r6,10
     f98:	00080400 	call	8040 <syslog>
     f9c:	01000184 	movi	r4,6
     fa0:	dfc00317 	ldw	ra,12(sp)
     fa4:	dc800217 	ldw	r18,8(sp)
     fa8:	dc400117 	ldw	r17,4(sp)
     fac:	dc000017 	ldw	r16,0(sp)
     fb0:	dec00404 	addi	sp,sp,16
     fb4:	000d3e01 	jmpi	d3e0 <ReleaseResource>
     fb8:	10800324 	muli	r2,r2,12
     fbc:	00c00074 	movhi	r3,1
     fc0:	18c3b804 	addi	r3,r3,3808
     fc4:	01000184 	movi	r4,6
     fc8:	1885883a 	add	r2,r3,r2
     fcc:	14000015 	stw	r16,0(r2)
     fd0:	14800115 	stw	r18,4(r2)
     fd4:	14400215 	stw	r17,8(r2)
     fd8:	dfc00317 	ldw	ra,12(sp)
     fdc:	dc800217 	ldw	r18,8(sp)
     fe0:	dc400117 	ldw	r17,4(sp)
     fe4:	dc000017 	ldw	r16,0(sp)
     fe8:	dec00404 	addi	sp,sp,16
     fec:	000d3e01 	jmpi	d3e0 <ReleaseResource>
     ff0:	0001883a 	nop
     ff4:	0001883a 	nop
     ff8:	0001883a 	nop
     ffc:	0001883a 	nop

00001000 <untimeout>:
    1000:	defff804 	addi	sp,sp,-32
    1004:	dc000015 	stw	r16,0(sp)
    1008:	04000074 	movhi	r16,1
    100c:	8403d304 	addi	r16,r16,3916
    1010:	dd800615 	stw	r22,24(sp)
    1014:	dd400515 	stw	r21,20(sp)
    1018:	dd000415 	stw	r20,16(sp)
    101c:	dcc00315 	stw	r19,12(sp)
    1020:	dc800215 	stw	r18,8(sp)
    1024:	dc400115 	stw	r17,4(sp)
    1028:	dfc00715 	stw	ra,28(sp)
    102c:	2029883a 	mov	r20,r4
    1030:	282d883a 	mov	r22,r5
    1034:	84800104 	addi	r18,r16,4
    1038:	84c00204 	addi	r19,r16,8
    103c:	04400244 	movi	r17,9
    1040:	057fffc4 	movi	r21,-1
    1044:	00000506 	br	105c <untimeout+0x5c>
    1048:	8c7fffc4 	addi	r17,r17,-1
    104c:	000d3e00 	call	d3e0 <ReleaseResource>
    1050:	94bffd04 	addi	r18,r18,-12
    1054:	9cfffd04 	addi	r19,r19,-12
    1058:	8d401926 	beq	r17,r21,10c0 <untimeout+0xc0>
    105c:	01000184 	movi	r4,6
    1060:	000d0400 	call	d040 <GetResource>
    1064:	80800017 	ldw	r2,0(r16)
    1068:	01000184 	movi	r4,6
    106c:	843ffd04 	addi	r16,r16,-12
    1070:	153ff51e 	bne	r2,r20,1048 <untimeout+0x48>
    1074:	90800017 	ldw	r2,0(r18)
    1078:	15bff31e 	bne	r2,r22,1048 <untimeout+0x48>
    107c:	98800017 	ldw	r2,0(r19)
    1080:	103ff126 	beq	r2,zero,1048 <untimeout+0x48>
    1084:	8c400324 	muli	r17,r17,12
    1088:	00800074 	movhi	r2,1
    108c:	1083b804 	addi	r2,r2,3808
    1090:	1445883a 	add	r2,r2,r17
    1094:	10000015 	stw	zero,0(r2)
    1098:	dfc00717 	ldw	ra,28(sp)
    109c:	dd800617 	ldw	r22,24(sp)
    10a0:	dd400517 	ldw	r21,20(sp)
    10a4:	dd000417 	ldw	r20,16(sp)
    10a8:	dcc00317 	ldw	r19,12(sp)
    10ac:	dc800217 	ldw	r18,8(sp)
    10b0:	dc400117 	ldw	r17,4(sp)
    10b4:	dc000017 	ldw	r16,0(sp)
    10b8:	dec00804 	addi	sp,sp,32
    10bc:	000d3e01 	jmpi	d3e0 <ReleaseResource>
    10c0:	dfc00717 	ldw	ra,28(sp)
    10c4:	dd800617 	ldw	r22,24(sp)
    10c8:	dd400517 	ldw	r21,20(sp)
    10cc:	dd000417 	ldw	r20,16(sp)
    10d0:	dcc00317 	ldw	r19,12(sp)
    10d4:	dc800217 	ldw	r18,8(sp)
    10d8:	dc400117 	ldw	r17,4(sp)
    10dc:	dc000017 	ldw	r16,0(sp)
    10e0:	dec00804 	addi	sp,sp,32
    10e4:	f800283a 	ret
    10e8:	0001883a 	nop
    10ec:	0001883a 	nop
    10f0:	0001883a 	nop
    10f4:	0001883a 	nop
    10f8:	0001883a 	nop
    10fc:	0001883a 	nop

00001100 <TaskMainNET_TIMER_TASK>:
    1100:	defff704 	addi	sp,sp,-36
    1104:	d9000104 	addi	r4,sp,4
    1108:	dfc00815 	stw	ra,32(sp)
    110c:	dcc00515 	stw	r19,20(sp)
    1110:	dd400715 	stw	r21,28(sp)
    1114:	dd000615 	stw	r20,24(sp)
    1118:	dc800415 	stw	r18,16(sp)
    111c:	dc400315 	stw	r17,12(sp)
    1120:	dc000215 	stw	r16,8(sp)
    1124:	000c1c00 	call	c1c0 <GetTaskID>
    1128:	01000144 	movi	r4,5
    112c:	008000c4 	movi	r2,3
    1130:	200f883a 	mov	r7,r4
    1134:	01400074 	movhi	r5,1
    1138:	297bcb04 	addi	r5,r5,-4308
    113c:	01800044 	movi	r6,1
    1140:	d8800015 	stw	r2,0(sp)
    1144:	00080400 	call	8040 <syslog>
    1148:	d9800117 	ldw	r6,4(sp)
    114c:	01000144 	movi	r4,5
    1150:	01400074 	movhi	r5,1
    1154:	297bc504 	addi	r5,r5,-4332
    1158:	00080400 	call	8040 <syslog>
    115c:	04c00074 	movhi	r19,1
    1160:	9cc3b504 	addi	r19,r19,3796
    1164:	0001fc00 	call	1fc0 <ip_init>
    1168:	01000044 	movi	r4,1
    116c:	000cc600 	call	cc60 <WaitEvent>
    1170:	04000074 	movhi	r16,1
    1174:	8403d304 	addi	r16,r16,3916
    1178:	01000044 	movi	r4,1
    117c:	000c8200 	call	c820 <ClearEvent>
    1180:	84800104 	addi	r18,r16,4
    1184:	84400204 	addi	r17,r16,8
    1188:	00000c06 	br	11bc <TaskMainNET_TIMER_TASK+0xbc>
    118c:	88c00015 	stw	r3,0(r17)
    1190:	1800121e 	bne	r3,zero,11dc <TaskMainNET_TIMER_TASK+0xdc>
    1194:	95400017 	ldw	r21,0(r18)
    1198:	85000017 	ldw	r20,0(r16)
    119c:	80000015 	stw	zero,0(r16)
    11a0:	000d3e00 	call	d3e0 <ReleaseResource>
    11a4:	a809883a 	mov	r4,r21
    11a8:	a03ee83a 	callr	r20
    11ac:	843ffd04 	addi	r16,r16,-12
    11b0:	94bffd04 	addi	r18,r18,-12
    11b4:	8c7ffd04 	addi	r17,r17,-12
    11b8:	84ffeb26 	beq	r16,r19,1168 <TaskMainNET_TIMER_TASK+0x68>
    11bc:	01000184 	movi	r4,6
    11c0:	000d0400 	call	d040 <GetResource>
    11c4:	80800017 	ldw	r2,0(r16)
    11c8:	01000184 	movi	r4,6
    11cc:	10000326 	beq	r2,zero,11dc <TaskMainNET_TIMER_TASK+0xdc>
    11d0:	88800017 	ldw	r2,0(r17)
    11d4:	10ffffc4 	addi	r3,r2,-1
    11d8:	103fec1e 	bne	r2,zero,118c <TaskMainNET_TIMER_TASK+0x8c>
    11dc:	000d3e00 	call	d3e0 <ReleaseResource>
    11e0:	003ff206 	br	11ac <TaskMainNET_TIMER_TASK+0xac>
	...

00001200 <in4_get_ifaddr>:
    1200:	deffff04 	addi	sp,sp,-4
    1204:	dfc00015 	stw	ra,0(sp)
    1208:	00031800 	call	3180 <ether_get_ifnet>
    120c:	10800104 	addi	r2,r2,4
    1210:	dfc00017 	ldw	ra,0(sp)
    1214:	dec00104 	addi	sp,sp,4
    1218:	f800283a 	ret
    121c:	0001883a 	nop

00001220 <ip2str>:
    1220:	defff904 	addi	sp,sp,-28
    1224:	dc800315 	stw	r18,12(sp)
    1228:	dc000115 	stw	r16,4(sp)
    122c:	dfc00615 	stw	ra,24(sp)
    1230:	dd000515 	stw	r20,20(sp)
    1234:	dcc00415 	stw	r19,16(sp)
    1238:	dc400215 	stw	r17,8(sp)
    123c:	2021883a 	mov	r16,r4
    1240:	2825883a 	mov	r18,r5
    1244:	20002f26 	beq	r4,zero,1304 <ip2str+0xe4>
    1248:	91400017 	ldw	r5,0(r18)
    124c:	04400804 	movi	r17,32
    1250:	8009883a 	mov	r4,r16
    1254:	280ad63a 	srli	r5,r5,24
    1258:	01800284 	movi	r6,10
    125c:	000f883a 	mov	r7,zero
    1260:	dc400015 	stw	r17,0(sp)
    1264:	0000c600 	call	c60 <convert_hexdigit>
    1268:	8085883a 	add	r2,r16,r2
    126c:	04c00b84 	movi	r19,46
    1270:	14c00005 	stb	r19,0(r2)
    1274:	91400083 	ldbu	r5,2(r18)
    1278:	15000044 	addi	r20,r2,1
    127c:	a009883a 	mov	r4,r20
    1280:	01800284 	movi	r6,10
    1284:	000f883a 	mov	r7,zero
    1288:	dc400015 	stw	r17,0(sp)
    128c:	0000c600 	call	c60 <convert_hexdigit>
    1290:	a085883a 	add	r2,r20,r2
    1294:	14c00005 	stb	r19,0(r2)
    1298:	91400043 	ldbu	r5,1(r18)
    129c:	15000044 	addi	r20,r2,1
    12a0:	a009883a 	mov	r4,r20
    12a4:	01800284 	movi	r6,10
    12a8:	000f883a 	mov	r7,zero
    12ac:	dc400015 	stw	r17,0(sp)
    12b0:	0000c600 	call	c60 <convert_hexdigit>
    12b4:	a085883a 	add	r2,r20,r2
    12b8:	14c00005 	stb	r19,0(r2)
    12bc:	91400003 	ldbu	r5,0(r18)
    12c0:	14800044 	addi	r18,r2,1
    12c4:	dc400015 	stw	r17,0(sp)
    12c8:	9009883a 	mov	r4,r18
    12cc:	01800284 	movi	r6,10
    12d0:	000f883a 	mov	r7,zero
    12d4:	0000c600 	call	c60 <convert_hexdigit>
    12d8:	9085883a 	add	r2,r18,r2
    12dc:	10000005 	stb	zero,0(r2)
    12e0:	8005883a 	mov	r2,r16
    12e4:	dfc00617 	ldw	ra,24(sp)
    12e8:	dd000517 	ldw	r20,20(sp)
    12ec:	dcc00417 	ldw	r19,16(sp)
    12f0:	dc800317 	ldw	r18,12(sp)
    12f4:	dc400217 	ldw	r17,8(sp)
    12f8:	dc000117 	ldw	r16,4(sp)
    12fc:	dec00704 	addi	sp,sp,28
    1300:	f800283a 	ret
    1304:	010001c4 	movi	r4,7
    1308:	000d0400 	call	d040 <GetResource>
    130c:	d0a00617 	ldw	r2,-32744(gp)
    1310:	00c00074 	movhi	r3,1
    1314:	18c3d604 	addi	r3,r3,3928
    1318:	10bfffc4 	addi	r2,r2,-1
    131c:	1020913a 	slli	r16,r2,4
    1320:	80e1883a 	add	r16,r16,r3
    1324:	0080040e 	bge	zero,r2,1338 <ip2str+0x118>
    1328:	010001c4 	movi	r4,7
    132c:	d0a00615 	stw	r2,-32744(gp)
    1330:	000d3e00 	call	d3e0 <ReleaseResource>
    1334:	003fc406 	br	1248 <ip2str+0x28>
    1338:	00800044 	movi	r2,1
    133c:	003ffa06 	br	1328 <ip2str+0x108>

00001340 <in4_set_header>:
    1340:	defff904 	addi	sp,sp,-28
    1344:	dd400515 	stw	r21,20(sp)
    1348:	dd000415 	stw	r20,16(sp)
    134c:	dcc00315 	stw	r19,12(sp)
    1350:	dc800215 	stw	r18,8(sp)
    1354:	3027883a 	mov	r19,r6
    1358:	dc400115 	stw	r17,4(sp)
    135c:	dc000015 	stw	r16,0(sp)
    1360:	2825883a 	mov	r18,r5
    1364:	2021883a 	mov	r16,r4
    1368:	dd400717 	ldw	r21,28(sp)
    136c:	dd000817 	ldw	r20,32(sp)
    1370:	dfc00615 	stw	ra,24(sp)
    1374:	3823883a 	mov	r17,r7
    1378:	00031800 	call	3180 <ether_get_ifnet>
    137c:	91400504 	addi	r5,r18,20
    1380:	297fffcc 	andi	r5,r5,65535
    1384:	2806923a 	slli	r3,r5,8
    1388:	280ad23a 	srli	r5,r5,8
    138c:	01001144 	movi	r4,69
    1390:	81000505 	stb	r4,20(r16)
    1394:	194ab03a 	or	r5,r3,r5
    1398:	8140058d 	sth	r5,22(r16)
    139c:	85400745 	stb	r21,29(r16)
    13a0:	85000705 	stb	r20,28(r16)
    13a4:	80000545 	stb	zero,21(r16)
    13a8:	8000078d 	sth	zero,30(r16)
    13ac:	8000068d 	sth	zero,26(r16)
    13b0:	8000060d 	sth	zero,24(r16)
    13b4:	98c00017 	ldw	r3,0(r19)
    13b8:	1808d63a 	srli	r4,r3,24
    13bc:	180c963a 	slli	r6,r3,24
    13c0:	197fc00c 	andi	r5,r3,65280
    13c4:	280a923a 	slli	r5,r5,8
    13c8:	1806d23a 	srli	r3,r3,8
    13cc:	2188b03a 	or	r4,r4,r6
    13d0:	2148b03a 	or	r4,r4,r5
    13d4:	18ffc00c 	andi	r3,r3,65280
    13d8:	20c6b03a 	or	r3,r4,r3
    13dc:	80c00915 	stw	r3,36(r16)
    13e0:	88001626 	beq	r17,zero,143c <in4_set_header+0xfc>
    13e4:	88c00017 	ldw	r3,0(r17)
    13e8:	18001426 	beq	r3,zero,143c <in4_set_header+0xfc>
    13ec:	1804d63a 	srli	r2,r3,24
    13f0:	180a963a 	slli	r5,r3,24
    13f4:	193fc00c 	andi	r4,r3,65280
    13f8:	2008923a 	slli	r4,r4,8
    13fc:	1806d23a 	srli	r3,r3,8
    1400:	1144b03a 	or	r2,r2,r5
    1404:	1104b03a 	or	r2,r2,r4
    1408:	18ffc00c 	andi	r3,r3,65280
    140c:	10c6b03a 	or	r3,r2,r3
    1410:	80c00815 	stw	r3,32(r16)
    1414:	0005883a 	mov	r2,zero
    1418:	dfc00617 	ldw	ra,24(sp)
    141c:	dd400517 	ldw	r21,20(sp)
    1420:	dd000417 	ldw	r20,16(sp)
    1424:	dcc00317 	ldw	r19,12(sp)
    1428:	dc800217 	ldw	r18,8(sp)
    142c:	dc400117 	ldw	r17,4(sp)
    1430:	dc000017 	ldw	r16,0(sp)
    1434:	dec00704 	addi	sp,sp,28
    1438:	f800283a 	ret
    143c:	10800117 	ldw	r2,4(r2)
    1440:	1006d63a 	srli	r3,r2,24
    1444:	100a963a 	slli	r5,r2,24
    1448:	113fc00c 	andi	r4,r2,65280
    144c:	2008923a 	slli	r4,r4,8
    1450:	1004d23a 	srli	r2,r2,8
    1454:	1946b03a 	or	r3,r3,r5
    1458:	1906b03a 	or	r3,r3,r4
    145c:	10bfc00c 	andi	r2,r2,65280
    1460:	1884b03a 	or	r2,r3,r2
    1464:	80800815 	stw	r2,32(r16)
    1468:	003fea06 	br	1414 <in4_set_header+0xd4>
    146c:	0001883a 	nop
    1470:	0001883a 	nop
    1474:	0001883a 	nop
    1478:	0001883a 	nop
    147c:	0001883a 	nop

00001480 <in4_get_datagram>:
    1480:	defff504 	addi	sp,sp,-44
    1484:	dc800415 	stw	r18,16(sp)
    1488:	dc800e17 	ldw	r18,56(sp)
    148c:	dcc00515 	stw	r19,20(sp)
    1490:	00bfff04 	movi	r2,-4
    1494:	2cc000c4 	addi	r19,r5,3
    1498:	98a6703a 	and	r19,r19,r2
    149c:	dd400715 	stw	r21,28(sp)
    14a0:	dc400315 	stw	r17,12(sp)
    14a4:	382b883a 	mov	r21,r7
    14a8:	2823883a 	mov	r17,r5
    14ac:	31800904 	addi	r6,r6,36
    14b0:	99400904 	addi	r5,r19,36
    14b4:	900f883a 	mov	r7,r18
    14b8:	ddc00915 	stw	r23,36(sp)
    14bc:	dd800815 	stw	r22,32(sp)
    14c0:	dd000615 	stw	r20,24(sp)
    14c4:	dc000215 	stw	r16,8(sp)
    14c8:	dfc00a15 	stw	ra,40(sp)
    14cc:	2029883a 	mov	r20,r4
    14d0:	ddc00c03 	ldbu	r23,48(sp)
    14d4:	dd800d03 	ldbu	r22,52(sp)
    14d8:	00007800 	call	780 <get_net_buf_ex>
    14dc:	1021883a 	mov	r16,r2
    14e0:	1000111e 	bne	r2,zero,1528 <in4_get_datagram+0xa8>
    14e4:	9484000c 	andi	r18,r18,4096
    14e8:	90000326 	beq	r18,zero,14f8 <in4_get_datagram+0x78>
    14ec:	a0800017 	ldw	r2,0(r20)
    14f0:	88c00904 	addi	r3,r17,36
    14f4:	10c0000d 	sth	r3,0(r2)
    14f8:	a1000017 	ldw	r4,0(r20)
    14fc:	d9c00b17 	ldw	r7,44(sp)
    1500:	bdc03fcc 	andi	r23,r23,255
    1504:	b5803fcc 	andi	r22,r22,255
    1508:	ddc00015 	stw	r23,0(sp)
    150c:	dd800115 	stw	r22,4(sp)
    1510:	880b883a 	mov	r5,r17
    1514:	a80d883a 	mov	r6,r21
    1518:	00013400 	call	1340 <in4_set_header>
    151c:	1021883a 	mov	r16,r2
    1520:	1000011e 	bne	r2,zero,1528 <in4_get_datagram+0xa8>
    1524:	8cc00c36 	bltu	r17,r19,1558 <in4_get_datagram+0xd8>
    1528:	8005883a 	mov	r2,r16
    152c:	dfc00a17 	ldw	ra,40(sp)
    1530:	ddc00917 	ldw	r23,36(sp)
    1534:	dd800817 	ldw	r22,32(sp)
    1538:	dd400717 	ldw	r21,28(sp)
    153c:	dd000617 	ldw	r20,24(sp)
    1540:	dcc00517 	ldw	r19,20(sp)
    1544:	dc800417 	ldw	r18,16(sp)
    1548:	dc400317 	ldw	r17,12(sp)
    154c:	dc000217 	ldw	r16,8(sp)
    1550:	dec00b04 	addi	sp,sp,44
    1554:	f800283a 	ret
    1558:	a0800017 	ldw	r2,0(r20)
    155c:	9c4dc83a 	sub	r6,r19,r17
    1560:	000b883a 	mov	r5,zero
    1564:	10c00503 	ldbu	r3,20(r2)
    1568:	18c003cc 	andi	r3,r3,15
    156c:	18c7883a 	add	r3,r3,r3
    1570:	18c7883a 	add	r3,r3,r3
    1574:	88e3883a 	add	r17,r17,r3
    1578:	89000504 	addi	r4,r17,20
    157c:	1109883a 	add	r4,r2,r4
    1580:	000ed1c0 	call	ed1c <memset>
    1584:	003fe806 	br	1528 <in4_get_datagram+0xa8>
    1588:	0001883a 	nop
    158c:	0001883a 	nop
    1590:	0001883a 	nop
    1594:	0001883a 	nop
    1598:	0001883a 	nop
    159c:	0001883a 	nop

000015a0 <in4_cksum>:
    15a0:	defffa04 	addi	sp,sp,-24
    15a4:	dc000115 	stw	r16,4(sp)
    15a8:	00bfff04 	movi	r2,-4
    15ac:	3c0000c4 	addi	r16,r7,3
    15b0:	dcc00415 	stw	r19,16(sp)
    15b4:	dc800315 	stw	r18,12(sp)
    15b8:	dc400215 	stw	r17,8(sp)
    15bc:	dfc00515 	stw	ra,20(sp)
    15c0:	80a0703a 	and	r16,r16,r2
    15c4:	2023883a 	mov	r17,r4
    15c8:	3025883a 	mov	r18,r6
    15cc:	2827883a 	mov	r19,r5
    15d0:	3c003336 	bltu	r7,r16,16a0 <in4_cksum+0x100>
    15d4:	31800104 	addi	r6,r6,4
    15d8:	218d883a 	add	r6,r4,r6
    15dc:	80003b26 	beq	r16,zero,16cc <in4_cksum+0x12c>
    15e0:	0005883a 	mov	r2,zero
    15e4:	30c0000b 	ldhu	r3,0(r6)
    15e8:	843fff84 	addi	r16,r16,-2
    15ec:	31800084 	addi	r6,r6,2
    15f0:	10c5883a 	add	r2,r2,r3
    15f4:	803ffb1e 	bne	r16,zero,15e4 <in4_cksum+0x44>
    15f8:	100ad23a 	srli	r5,r2,8
    15fc:	1012923a 	slli	r9,r2,8
    1600:	1004d63a 	srli	r2,r2,24
    1604:	297fffcc 	andi	r5,r5,65535
    1608:	4a7fffcc 	andi	r9,r9,65535
    160c:	89800804 	addi	r6,r17,32
    1610:	89000a04 	addi	r4,r17,40
    1614:	0011883a 	mov	r8,zero
    1618:	30c0000b 	ldhu	r3,0(r6)
    161c:	31800084 	addi	r6,r6,2
    1620:	40d1883a 	add	r8,r8,r3
    1624:	313ffc1e 	bne	r6,r4,1618 <in4_cksum+0x78>
    1628:	9cc03fcc 	andi	r19,r19,255
    162c:	3ccf883a 	add	r7,r7,r19
    1630:	394f883a 	add	r7,r7,r5
    1634:	4008d23a 	srli	r4,r8,8
    1638:	400ad63a 	srli	r5,r8,24
    163c:	3a47883a 	add	r3,r7,r9
    1640:	4010923a 	slli	r8,r8,8
    1644:	1887883a 	add	r3,r3,r2
    1648:	213fffcc 	andi	r4,r4,65535
    164c:	1947883a 	add	r3,r3,r5
    1650:	1907883a 	add	r3,r3,r4
    1654:	423fffcc 	andi	r8,r8,65535
    1658:	1a07883a 	add	r3,r3,r8
    165c:	013fffd4 	movui	r4,65535
    1660:	20c0042e 	bgeu	r4,r3,1674 <in4_cksum+0xd4>
    1664:	1804d43a 	srli	r2,r3,16
    1668:	18ffffcc 	andi	r3,r3,65535
    166c:	1887883a 	add	r3,r3,r2
    1670:	20fffc36 	bltu	r4,r3,1664 <in4_cksum+0xc4>
    1674:	18bfffcc 	andi	r2,r3,65535
    1678:	1004d23a 	srli	r2,r2,8
    167c:	1806923a 	slli	r3,r3,8
    1680:	10c4303a 	nor	r2,r2,r3
    1684:	dfc00517 	ldw	ra,20(sp)
    1688:	dcc00417 	ldw	r19,16(sp)
    168c:	dc800317 	ldw	r18,12(sp)
    1690:	dc400217 	ldw	r17,8(sp)
    1694:	dc000117 	ldw	r16,4(sp)
    1698:	dec00604 	addi	sp,sp,24
    169c:	f800283a 	ret
    16a0:	3989883a 	add	r4,r7,r6
    16a4:	21000104 	addi	r4,r4,4
    16a8:	81cdc83a 	sub	r6,r16,r7
    16ac:	8909883a 	add	r4,r17,r4
    16b0:	000b883a 	mov	r5,zero
    16b4:	d9c00015 	stw	r7,0(sp)
    16b8:	000ed1c0 	call	ed1c <memset>
    16bc:	91800104 	addi	r6,r18,4
    16c0:	898d883a 	add	r6,r17,r6
    16c4:	d9c00017 	ldw	r7,0(sp)
    16c8:	003fc506 	br	15e0 <in4_cksum+0x40>
    16cc:	0005883a 	mov	r2,zero
    16d0:	0013883a 	mov	r9,zero
    16d4:	000b883a 	mov	r5,zero
    16d8:	003fcc06 	br	160c <in4_cksum+0x6c>
    16dc:	0001883a 	nop

000016e0 <in_cksum>:
    16e0:	28001826 	beq	r5,zero,1744 <in_cksum+0x64>
    16e4:	0007883a 	mov	r3,zero
    16e8:	2080000b 	ldhu	r2,0(r4)
    16ec:	297fff84 	addi	r5,r5,-2
    16f0:	21000084 	addi	r4,r4,2
    16f4:	1887883a 	add	r3,r3,r2
    16f8:	283ffb1e 	bne	r5,zero,16e8 <in_cksum+0x8>
    16fc:	1808d23a 	srli	r4,r3,8
    1700:	1804923a 	slli	r2,r3,8
    1704:	1806d63a 	srli	r3,r3,24
    1708:	213fffcc 	andi	r4,r4,65535
    170c:	10bfffcc 	andi	r2,r2,65535
    1710:	2085883a 	add	r2,r4,r2
    1714:	10c7883a 	add	r3,r2,r3
    1718:	013fffd4 	movui	r4,65535
    171c:	20c0042e 	bgeu	r4,r3,1730 <in_cksum+0x50>
    1720:	1804d43a 	srli	r2,r3,16
    1724:	18ffffcc 	andi	r3,r3,65535
    1728:	1887883a 	add	r3,r3,r2
    172c:	20fffc36 	bltu	r4,r3,1720 <in_cksum+0x40>
    1730:	18bfffcc 	andi	r2,r3,65535
    1734:	1004d23a 	srli	r2,r2,8
    1738:	1806923a 	slli	r3,r3,8
    173c:	10c4303a 	nor	r2,r2,r3
    1740:	f800283a 	ret
    1744:	00bfffc4 	movi	r2,-1
    1748:	f800283a 	ret
    174c:	0001883a 	nop
    1750:	0001883a 	nop
    1754:	0001883a 	nop
    1758:	0001883a 	nop
    175c:	0001883a 	nop

00001760 <in4_is_dstaddr_accept>:
    1760:	defffe04 	addi	sp,sp,-8
    1764:	dfc00115 	stw	ra,4(sp)
    1768:	dc000015 	stw	r16,0(sp)
    176c:	20800017 	ldw	r2,0(r4)
    1770:	10000f26 	beq	r2,zero,17b0 <in4_is_dstaddr_accept+0x50>
    1774:	28c00017 	ldw	r3,0(r5)
    1778:	180c963a 	slli	r6,r3,24
    177c:	1808d63a 	srli	r4,r3,24
    1780:	197fc00c 	andi	r5,r3,65280
    1784:	280a923a 	slli	r5,r5,8
    1788:	1806d23a 	srli	r3,r3,8
    178c:	2188b03a 	or	r4,r4,r6
    1790:	2148b03a 	or	r4,r4,r5
    1794:	18ffc00c 	andi	r3,r3,65280
    1798:	20c6b03a 	or	r3,r4,r3
    179c:	10c5003a 	cmpeq	r2,r2,r3
    17a0:	dfc00117 	ldw	ra,4(sp)
    17a4:	dc000017 	ldw	r16,0(sp)
    17a8:	dec00204 	addi	sp,sp,8
    17ac:	f800283a 	ret
    17b0:	28800017 	ldw	r2,0(r5)
    17b4:	1008963a 	slli	r4,r2,24
    17b8:	1020d63a 	srli	r16,r2,24
    17bc:	10ffc00c 	andi	r3,r2,65280
    17c0:	1806923a 	slli	r3,r3,8
    17c4:	1004d23a 	srli	r2,r2,8
    17c8:	8120b03a 	or	r16,r16,r4
    17cc:	80e0b03a 	or	r16,r16,r3
    17d0:	10bfc00c 	andi	r2,r2,65280
    17d4:	80a0b03a 	or	r16,r16,r2
    17d8:	00031800 	call	3180 <ether_get_ifnet>
    17dc:	10800117 	ldw	r2,4(r2)
    17e0:	8085003a 	cmpeq	r2,r16,r2
    17e4:	dfc00117 	ldw	ra,4(sp)
    17e8:	dc000017 	ldw	r16,0(sp)
    17ec:	dec00204 	addi	sp,sp,8
    17f0:	f800283a 	ret
    17f4:	0001883a 	nop
    17f8:	0001883a 	nop
    17fc:	0001883a 	nop

00001800 <in4_ifawithifp>:
    1800:	20800104 	addi	r2,r4,4
    1804:	f800283a 	ret
    1808:	0001883a 	nop
    180c:	0001883a 	nop
    1810:	0001883a 	nop
    1814:	0001883a 	nop
    1818:	0001883a 	nop
    181c:	0001883a 	nop

00001820 <in4_add_ifaddr>:
    1820:	defffd04 	addi	sp,sp,-12
    1824:	dc400115 	stw	r17,4(sp)
    1828:	dc000015 	stw	r16,0(sp)
    182c:	2823883a 	mov	r17,r5
    1830:	2021883a 	mov	r16,r4
    1834:	dfc00215 	stw	ra,8(sp)
    1838:	00031800 	call	3180 <ether_get_ifnet>
    183c:	14000115 	stw	r16,4(r2)
    1840:	14400215 	stw	r17,8(r2)
    1844:	0005883a 	mov	r2,zero
    1848:	dfc00217 	ldw	ra,8(sp)
    184c:	dc400117 	ldw	r17,4(sp)
    1850:	dc000017 	ldw	r16,0(sp)
    1854:	dec00304 	addi	sp,sp,12
    1858:	f800283a 	ret
    185c:	0001883a 	nop

00001860 <in4_add_route>:
    1860:	00800084 	movi	r2,2
    1864:	11000936 	bltu	r2,r4,188c <in4_add_route+0x2c>
    1868:	21000524 	muli	r4,r4,20
    186c:	00c00074 	movhi	r3,1
    1870:	18c2b704 	addi	r3,r3,2780
    1874:	0005883a 	mov	r2,zero
    1878:	1909883a 	add	r4,r3,r4
    187c:	21400015 	stw	r5,0(r4)
    1880:	21800115 	stw	r6,4(r4)
    1884:	21c00215 	stw	r7,8(r4)
    1888:	f800283a 	ret
    188c:	00bffbc4 	movi	r2,-17
    1890:	f800283a 	ret
    1894:	0001883a 	nop
    1898:	0001883a 	nop
    189c:	0001883a 	nop

000018a0 <in4_rtalloc>:
    18a0:	00c00074 	movhi	r3,1
    18a4:	18c2ca04 	addi	r3,r3,2856
    18a8:	2005883a 	mov	r2,r4
    18ac:	19fffd04 	addi	r7,r3,-12
    18b0:	19bffc04 	addi	r6,r3,-16
    18b4:	014000c4 	movi	r5,3
    18b8:	027fffc4 	movi	r9,-1
    18bc:	1a000003 	ldbu	r8,0(r3)
    18c0:	18fffb04 	addi	r3,r3,-20
    18c4:	4200004c 	andi	r8,r8,1
    18c8:	40000426 	beq	r8,zero,18dc <in4_rtalloc+0x3c>
    18cc:	3a000017 	ldw	r8,0(r7)
    18d0:	31000017 	ldw	r4,0(r6)
    18d4:	1210703a 	and	r8,r2,r8
    18d8:	41000526 	beq	r8,r4,18f0 <in4_rtalloc+0x50>
    18dc:	297fffc4 	addi	r5,r5,-1
    18e0:	39fffb04 	addi	r7,r7,-20
    18e4:	31bffb04 	addi	r6,r6,-20
    18e8:	2a7ff41e 	bne	r5,r9,18bc <in4_rtalloc+0x1c>
    18ec:	f800283a 	ret
    18f0:	29400524 	muli	r5,r5,20
    18f4:	00c00074 	movhi	r3,1
    18f8:	18c2b904 	addi	r3,r3,2788
    18fc:	28cb883a 	add	r5,r5,r3
    1900:	28c00017 	ldw	r3,0(r5)
    1904:	183ff926 	beq	r3,zero,18ec <in4_rtalloc+0x4c>
    1908:	1805883a 	mov	r2,r3
    190c:	f800283a 	ret
    1910:	0001883a 	nop
    1914:	0001883a 	nop
    1918:	0001883a 	nop
    191c:	0001883a 	nop

00001920 <in4_init>:
    1920:	00800074 	movhi	r2,1
    1924:	1082b704 	addi	r2,r2,2780
    1928:	00c00044 	movi	r3,1
    192c:	01000034 	movhi	r4,0
    1930:	2106d004 	addi	r4,r4,6976
    1934:	000b883a 	mov	r5,zero
    1938:	01800284 	movi	r6,10
    193c:	10c00405 	stb	r3,16(r2)
    1940:	10c00905 	stb	r3,36(r2)
    1944:	10c00e05 	stb	r3,56(r2)
    1948:	10001305 	stb	zero,76(r2)
    194c:	0000f401 	jmpi	f40 <timeout>
    1950:	0001883a 	nop
    1954:	0001883a 	nop
    1958:	0001883a 	nop
    195c:	0001883a 	nop

00001960 <in_rtinit>:
    1960:	00800074 	movhi	r2,1
    1964:	1082b704 	addi	r2,r2,2780
    1968:	00c00044 	movi	r3,1
    196c:	10c00405 	stb	r3,16(r2)
    1970:	10c00905 	stb	r3,36(r2)
    1974:	10c00e05 	stb	r3,56(r2)
    1978:	10001305 	stb	zero,76(r2)
    197c:	f800283a 	ret

00001980 <in_rtnewentry>:
    1980:	defffb04 	addi	sp,sp,-20
    1984:	dcc00315 	stw	r19,12(sp)
    1988:	dc800215 	stw	r18,8(sp)
    198c:	dc000015 	stw	r16,0(sp)
    1990:	dfc00415 	stw	ra,16(sp)
    1994:	dc400115 	stw	r17,4(sp)
    1998:	04000074 	movhi	r16,1
    199c:	8402b704 	addi	r16,r16,2780
    19a0:	80801303 	ldbu	r2,76(r16)
    19a4:	2025883a 	mov	r18,r4
    19a8:	2827883a 	mov	r19,r5
    19ac:	1080004c 	andi	r2,r2,1
    19b0:	10002026 	beq	r2,zero,1a34 <in_rtnewentry+0xb4>
    19b4:	0008f200 	call	8f20 <get_tim_utime>
    19b8:	00c0fa04 	movi	r3,1000
    19bc:	10c5203a 	divu	r2,r2,r3
    19c0:	01000044 	movi	r4,1
    19c4:	10e3203a 	divu	r17,r2,r3
    19c8:	000d0400 	call	d040 <GetResource>
    19cc:	80801217 	ldw	r2,72(r16)
    19d0:	1445c83a 	sub	r2,r2,r17
    19d4:	0080030e 	bge	zero,r2,19e4 <in_rtnewentry+0x64>
    19d8:	00e00034 	movhi	r3,32768
    19dc:	18ffffc4 	addi	r3,r3,-1
    19e0:	10c01226 	beq	r2,r3,1a2c <in_rtnewentry+0xac>
    19e4:	84000f04 	addi	r16,r16,60
    19e8:	80000405 	stb	zero,16(r16)
    19ec:	01000044 	movi	r4,1
    19f0:	000d3e00 	call	d3e0 <ReleaseResource>
    19f4:	0080fa04 	movi	r2,1000
    19f8:	98a7203a 	divu	r19,r19,r2
    19fc:	94800054 	ori	r18,r18,1
    1a00:	8ce3883a 	add	r17,r17,r19
    1a04:	8005883a 	mov	r2,r16
    1a08:	84800405 	stb	r18,16(r16)
    1a0c:	84400315 	stw	r17,12(r16)
    1a10:	dfc00417 	ldw	ra,16(sp)
    1a14:	dcc00317 	ldw	r19,12(sp)
    1a18:	dc800217 	ldw	r18,8(sp)
    1a1c:	dc400117 	ldw	r17,4(sp)
    1a20:	dc000017 	ldw	r16,0(sp)
    1a24:	dec00504 	addi	sp,sp,20
    1a28:	f800283a 	ret
    1a2c:	0021883a 	mov	r16,zero
    1a30:	003fed06 	br	19e8 <in_rtnewentry+0x68>
    1a34:	0008f200 	call	8f20 <get_tim_utime>
    1a38:	00c0fa04 	movi	r3,1000
    1a3c:	10c5203a 	divu	r2,r2,r3
    1a40:	10e3203a 	divu	r17,r2,r3
    1a44:	84000f04 	addi	r16,r16,60
    1a48:	003fea06 	br	19f4 <in_rtnewentry+0x74>
    1a4c:	0001883a 	nop
    1a50:	0001883a 	nop
    1a54:	0001883a 	nop
    1a58:	0001883a 	nop
    1a5c:	0001883a 	nop

00001a60 <in4_rtredirect>:
    1a60:	defffd04 	addi	sp,sp,-12
    1a64:	dc400115 	stw	r17,4(sp)
    1a68:	dc000015 	stw	r16,0(sp)
    1a6c:	2023883a 	mov	r17,r4
    1a70:	2821883a 	mov	r16,r5
    1a74:	31003fcc 	andi	r4,r6,255
    1a78:	380b883a 	mov	r5,r7
    1a7c:	dfc00215 	stw	ra,8(sp)
    1a80:	00019800 	call	1980 <in_rtnewentry>
    1a84:	00ffffc4 	movi	r3,-1
    1a88:	14400215 	stw	r17,8(r2)
    1a8c:	14000015 	stw	r16,0(r2)
    1a90:	10c00115 	stw	r3,4(r2)
    1a94:	dfc00217 	ldw	ra,8(sp)
    1a98:	dc400117 	ldw	r17,4(sp)
    1a9c:	dc000017 	ldw	r16,0(sp)
    1aa0:	dec00304 	addi	sp,sp,12
    1aa4:	f800283a 	ret
    1aa8:	0001883a 	nop
    1aac:	0001883a 	nop
    1ab0:	0001883a 	nop
    1ab4:	0001883a 	nop
    1ab8:	0001883a 	nop
    1abc:	0001883a 	nop

00001ac0 <in_rttimer>:
    1ac0:	defffe04 	addi	sp,sp,-8
    1ac4:	dfc00115 	stw	ra,4(sp)
    1ac8:	dc000015 	stw	r16,0(sp)
    1acc:	0008f200 	call	8f20 <get_tim_utime>
    1ad0:	01000044 	movi	r4,1
    1ad4:	1021883a 	mov	r16,r2
    1ad8:	000d0400 	call	d040 <GetResource>
    1adc:	00c00074 	movhi	r3,1
    1ae0:	18c2b704 	addi	r3,r3,2780
    1ae4:	19001303 	ldbu	r4,76(r3)
    1ae8:	2100004c 	andi	r4,r4,1
    1aec:	20000626 	beq	r4,zero,1b08 <in_rttimer+0x48>
    1af0:	0080fa04 	movi	r2,1000
    1af4:	19001217 	ldw	r4,72(r3)
    1af8:	80a1203a 	divu	r16,r16,r2
    1afc:	8085203a 	divu	r2,r16,r2
    1b00:	2085c83a 	sub	r2,r4,r2
    1b04:	0080050e 	bge	zero,r2,1b1c <in_rttimer+0x5c>
    1b08:	01000044 	movi	r4,1
    1b0c:	dfc00117 	ldw	ra,4(sp)
    1b10:	dc000017 	ldw	r16,0(sp)
    1b14:	dec00204 	addi	sp,sp,8
    1b18:	000d3e01 	jmpi	d3e0 <ReleaseResource>
    1b1c:	01000044 	movi	r4,1
    1b20:	18001305 	stb	zero,76(r3)
    1b24:	dfc00117 	ldw	ra,4(sp)
    1b28:	dc000017 	ldw	r16,0(sp)
    1b2c:	dec00204 	addi	sp,sp,8
    1b30:	000d3e01 	jmpi	d3e0 <ReleaseResource>
    1b34:	0001883a 	nop
    1b38:	0001883a 	nop
    1b3c:	0001883a 	nop

00001b40 <in4_timer>:
    1b40:	deffff04 	addi	sp,sp,-4
    1b44:	dfc00015 	stw	ra,0(sp)
    1b48:	0001ac00 	call	1ac0 <in_rttimer>
    1b4c:	0001ee00 	call	1ee0 <ip_frag_timer>
    1b50:	01000034 	movhi	r4,0
    1b54:	2106d004 	addi	r4,r4,6976
    1b58:	000b883a 	mov	r5,zero
    1b5c:	01800284 	movi	r6,10
    1b60:	dfc00017 	ldw	ra,0(sp)
    1b64:	dec00104 	addi	sp,sp,4
    1b68:	0000f401 	jmpi	f40 <timeout>
    1b6c:	0001883a 	nop
    1b70:	0001883a 	nop
    1b74:	0001883a 	nop
    1b78:	0001883a 	nop
    1b7c:	0001883a 	nop

00001b80 <in_cksum_sum>:
    1b80:	0005883a 	mov	r2,zero
    1b84:	28000d26 	beq	r5,zero,1bbc <in_cksum_sum+0x3c>
    1b88:	20c0000b 	ldhu	r3,0(r4)
    1b8c:	297fff84 	addi	r5,r5,-2
    1b90:	21000084 	addi	r4,r4,2
    1b94:	10c5883a 	add	r2,r2,r3
    1b98:	283ffb1e 	bne	r5,zero,1b88 <in_cksum_sum+0x8>
    1b9c:	1008d23a 	srli	r4,r2,8
    1ba0:	1006923a 	slli	r3,r2,8
    1ba4:	1004d63a 	srli	r2,r2,24
    1ba8:	213fffcc 	andi	r4,r4,65535
    1bac:	18ffffcc 	andi	r3,r3,65535
    1bb0:	20c7883a 	add	r3,r4,r3
    1bb4:	1885883a 	add	r2,r3,r2
    1bb8:	f800283a 	ret
    1bbc:	f800283a 	ret

00001bc0 <in_cksum_carry>:
    1bc0:	2005883a 	mov	r2,r4
    1bc4:	013fffd4 	movui	r4,65535
    1bc8:	2080042e 	bgeu	r4,r2,1bdc <in_cksum_carry+0x1c>
    1bcc:	1006d43a 	srli	r3,r2,16
    1bd0:	10bfffcc 	andi	r2,r2,65535
    1bd4:	10c5883a 	add	r2,r2,r3
    1bd8:	20bffc36 	bltu	r4,r2,1bcc <in_cksum_carry+0xc>
    1bdc:	f800283a 	ret

00001be0 <in_strtfn>:
    1be0:	00bf7cc4 	movi	r2,-525
    1be4:	20806f26 	beq	r4,r2,1da4 <in_strtfn+0x1c4>
    1be8:	11000d0e 	bge	r2,r4,1c20 <in_strtfn+0x40>
    1bec:	00bf7e84 	movi	r2,-518
    1bf0:	20807226 	beq	r4,r2,1dbc <in_strtfn+0x1dc>
    1bf4:	1100160e 	bge	r2,r4,1c50 <in_strtfn+0x70>
    1bf8:	00bf7f44 	movi	r2,-515
    1bfc:	20804226 	beq	r4,r2,1d08 <in_strtfn+0x128>
    1c00:	1100330e 	bge	r2,r4,1cd0 <in_strtfn+0xf0>
    1c04:	00bf7fc4 	movi	r2,-513
    1c08:	20806026 	beq	r4,r2,1d8c <in_strtfn+0x1ac>
    1c0c:	20805c16 	blt	r4,r2,1d80 <in_strtfn+0x1a0>
    1c10:	2000251e 	bne	r4,zero,1ca8 <in_strtfn+0xc8>
    1c14:	00800074 	movhi	r2,1
    1c18:	10bc4404 	addi	r2,r2,-3824
    1c1c:	f800283a 	ret
    1c20:	00bf77c4 	movi	r2,-545
    1c24:	20806226 	beq	r4,r2,1db0 <in_strtfn+0x1d0>
    1c28:	1100120e 	bge	r2,r4,1c74 <in_strtfn+0x94>
    1c2c:	00bf7bc4 	movi	r2,-529
    1c30:	20804726 	beq	r4,r2,1d50 <in_strtfn+0x170>
    1c34:	1100180e 	bge	r2,r4,1c98 <in_strtfn+0xb8>
    1c38:	00bf7c44 	movi	r2,-527
    1c3c:	20804d26 	beq	r4,r2,1d74 <in_strtfn+0x194>
    1c40:	1100490e 	bge	r2,r4,1d68 <in_strtfn+0x188>
    1c44:	00800074 	movhi	r2,1
    1c48:	10bc2c04 	addi	r2,r2,-3920
    1c4c:	f800283a 	ret
    1c50:	00bf7d84 	movi	r2,-522
    1c54:	20805026 	beq	r4,r2,1d98 <in_strtfn+0x1b8>
    1c58:	1100240e 	bge	r2,r4,1cec <in_strtfn+0x10c>
    1c5c:	00bf7e04 	movi	r2,-520
    1c60:	20803226 	beq	r4,r2,1d2c <in_strtfn+0x14c>
    1c64:	11002e0e 	bge	r2,r4,1d20 <in_strtfn+0x140>
    1c68:	00800074 	movhi	r2,1
    1c6c:	10bc1004 	addi	r2,r2,-4032
    1c70:	f800283a 	ret
    1c74:	00bf76c4 	movi	r2,-549
    1c78:	20802626 	beq	r4,r2,1d14 <in_strtfn+0x134>
    1c7c:	11000d0e 	bge	r2,r4,1cb4 <in_strtfn+0xd4>
    1c80:	00bf7744 	movi	r2,-547
    1c84:	20805326 	beq	r4,r2,1dd4 <in_strtfn+0x1f4>
    1c88:	11004f0e 	bge	r2,r4,1dc8 <in_strtfn+0x1e8>
    1c8c:	00800074 	movhi	r2,1
    1c90:	10bc4904 	addi	r2,r2,-3804
    1c94:	f800283a 	ret
    1c98:	00bf7b44 	movi	r2,-531
    1c9c:	20802926 	beq	r4,r2,1d44 <in_strtfn+0x164>
    1ca0:	00bf7b84 	movi	r2,-530
    1ca4:	20802426 	beq	r4,r2,1d38 <in_strtfn+0x158>
    1ca8:	00800074 	movhi	r2,1
    1cac:	10bc6104 	addi	r2,r2,-3708
    1cb0:	f800283a 	ret
    1cb4:	00bf7644 	movi	r2,-551
    1cb8:	20802826 	beq	r4,r2,1d5c <in_strtfn+0x17c>
    1cbc:	00bf7684 	movi	r2,-550
    1cc0:	20bff91e 	bne	r4,r2,1ca8 <in_strtfn+0xc8>
    1cc4:	00800074 	movhi	r2,1
    1cc8:	10bc5904 	addi	r2,r2,-3740
    1ccc:	f800283a 	ret
    1cd0:	00bf7ec4 	movi	r2,-517
    1cd4:	20804226 	beq	r4,r2,1de0 <in_strtfn+0x200>
    1cd8:	00bf7f04 	movi	r2,-516
    1cdc:	20bff21e 	bne	r4,r2,1ca8 <in_strtfn+0xc8>
    1ce0:	00800074 	movhi	r2,1
    1ce4:	10bc0404 	addi	r2,r2,-4080
    1ce8:	f800283a 	ret
    1cec:	00bf7d04 	movi	r2,-524
    1cf0:	20803e26 	beq	r4,r2,1dec <in_strtfn+0x20c>
    1cf4:	00bf7d44 	movi	r2,-523
    1cf8:	20bfeb1e 	bne	r4,r2,1ca8 <in_strtfn+0xc8>
    1cfc:	00800074 	movhi	r2,1
    1d00:	10bc2004 	addi	r2,r2,-3968
    1d04:	f800283a 	ret
    1d08:	00800074 	movhi	r2,1
    1d0c:	10bc0004 	addi	r2,r2,-4096
    1d10:	f800283a 	ret
    1d14:	00800074 	movhi	r2,1
    1d18:	10bc5504 	addi	r2,r2,-3756
    1d1c:	f800283a 	ret
    1d20:	00800074 	movhi	r2,1
    1d24:	10bc1804 	addi	r2,r2,-4000
    1d28:	f800283a 	ret
    1d2c:	00800074 	movhi	r2,1
    1d30:	10bc1404 	addi	r2,r2,-4016
    1d34:	f800283a 	ret
    1d38:	00800074 	movhi	r2,1
    1d3c:	10bc3c04 	addi	r2,r2,-3856
    1d40:	f800283a 	ret
    1d44:	00800074 	movhi	r2,1
    1d48:	10bc4004 	addi	r2,r2,-3840
    1d4c:	f800283a 	ret
    1d50:	00800074 	movhi	r2,1
    1d54:	10bc3804 	addi	r2,r2,-3872
    1d58:	f800283a 	ret
    1d5c:	00800074 	movhi	r2,1
    1d60:	10bc5d04 	addi	r2,r2,-3724
    1d64:	f800283a 	ret
    1d68:	00800074 	movhi	r2,1
    1d6c:	10bc3404 	addi	r2,r2,-3888
    1d70:	f800283a 	ret
    1d74:	00800074 	movhi	r2,1
    1d78:	10bc3004 	addi	r2,r2,-3904
    1d7c:	f800283a 	ret
    1d80:	00800074 	movhi	r2,1
    1d84:	10bbfc04 	addi	r2,r2,-4112
    1d88:	f800283a 	ret
    1d8c:	00800074 	movhi	r2,1
    1d90:	10bbf804 	addi	r2,r2,-4128
    1d94:	f800283a 	ret
    1d98:	00800074 	movhi	r2,1
    1d9c:	10bc1c04 	addi	r2,r2,-3984
    1da0:	f800283a 	ret
    1da4:	00800074 	movhi	r2,1
    1da8:	10bc2804 	addi	r2,r2,-3936
    1dac:	f800283a 	ret
    1db0:	00800074 	movhi	r2,1
    1db4:	10bc4504 	addi	r2,r2,-3820
    1db8:	f800283a 	ret
    1dbc:	00800074 	movhi	r2,1
    1dc0:	10bc0c04 	addi	r2,r2,-4048
    1dc4:	f800283a 	ret
    1dc8:	00800074 	movhi	r2,1
    1dcc:	10bc5104 	addi	r2,r2,-3772
    1dd0:	f800283a 	ret
    1dd4:	00800074 	movhi	r2,1
    1dd8:	10bc4d04 	addi	r2,r2,-3788
    1ddc:	f800283a 	ret
    1de0:	00800074 	movhi	r2,1
    1de4:	10bc0804 	addi	r2,r2,-4064
    1de8:	f800283a 	ret
    1dec:	00800074 	movhi	r2,1
    1df0:	10bc2404 	addi	r2,r2,-3952
    1df4:	f800283a 	ret
	...

00001e00 <tinet_initialize>:
    1e00:	01000044 	movi	r4,1
    1e04:	d1600704 	addi	r5,gp,-32740
    1e08:	01800074 	movhi	r6,1
    1e0c:	3183da04 	addi	r6,r6,3944
    1e10:	00073801 	jmpi	7380 <dataqueue_initialize>
    1e14:	0001883a 	nop
    1e18:	0001883a 	nop
    1e1c:	0001883a 	nop

00001e20 <tinet_snd_dtq>:
    1e20:	200d883a 	mov	r6,r4
    1e24:	280f883a 	mov	r7,r5
    1e28:	01000044 	movi	r4,1
    1e2c:	01400074 	movhi	r5,1
    1e30:	2943da04 	addi	r5,r5,3944
    1e34:	00075a01 	jmpi	75a0 <snd_dtq>
    1e38:	0001883a 	nop
    1e3c:	0001883a 	nop

00001e40 <tinet_rcv_dtq>:
    1e40:	200d883a 	mov	r6,r4
    1e44:	280f883a 	mov	r7,r5
    1e48:	01000044 	movi	r4,1
    1e4c:	01400074 	movhi	r5,1
    1e50:	2943da04 	addi	r5,r5,3944
    1e54:	00076201 	jmpi	7620 <rcv_dtq>
	...

00001e60 <ip_freef>:
    1e60:	defffc04 	addi	sp,sp,-16
    1e64:	dc400115 	stw	r17,4(sp)
    1e68:	2123883a 	add	r17,r4,r4
    1e6c:	dc800215 	stw	r18,8(sp)
    1e70:	8c45883a 	add	r2,r17,r17
    1e74:	d4a01f04 	addi	r18,gp,-32644
    1e78:	dfc00315 	stw	ra,12(sp)
    1e7c:	dc000015 	stw	r16,0(sp)
    1e80:	9085883a 	add	r2,r18,r2
    1e84:	11000017 	ldw	r4,0(r2)
    1e88:	20000426 	beq	r4,zero,1e9c <ip_freef+0x3c>
    1e8c:	24000917 	ldw	r16,36(r4)
    1e90:	0000a800 	call	a80 <rel_net_buf>
    1e94:	8009883a 	mov	r4,r16
    1e98:	803ffc1e 	bne	r16,zero,1e8c <ip_freef+0x2c>
    1e9c:	8c63883a 	add	r17,r17,r17
    1ea0:	9465883a 	add	r18,r18,r17
    1ea4:	90000015 	stw	zero,0(r18)
    1ea8:	dfc00317 	ldw	ra,12(sp)
    1eac:	dc800217 	ldw	r18,8(sp)
    1eb0:	dc400117 	ldw	r17,4(sp)
    1eb4:	dc000017 	ldw	r16,0(sp)
    1eb8:	dec00404 	addi	sp,sp,16
    1ebc:	f800283a 	ret

00001ec0 <ip_get_frag_queue>:
    1ec0:	d0a01f04 	addi	r2,gp,-32644
    1ec4:	f800283a 	ret
    1ec8:	0001883a 	nop
    1ecc:	0001883a 	nop
    1ed0:	0001883a 	nop
    1ed4:	0001883a 	nop
    1ed8:	0001883a 	nop
    1edc:	0001883a 	nop

00001ee0 <ip_frag_timer>:
    1ee0:	defffb04 	addi	sp,sp,-20
    1ee4:	0009883a 	mov	r4,zero
    1ee8:	dcc00315 	stw	r19,12(sp)
    1eec:	dc800215 	stw	r18,8(sp)
    1ef0:	dc400115 	stw	r17,4(sp)
    1ef4:	dc000015 	stw	r16,0(sp)
    1ef8:	dfc00415 	stw	ra,16(sp)
    1efc:	04000044 	movi	r16,1
    1f00:	000d0400 	call	d040 <GetResource>
    1f04:	d4a01f04 	addi	r18,gp,-32644
    1f08:	04c00074 	movhi	r19,1
    1f0c:	9cc35b04 	addi	r19,r19,3436
    1f10:	047fffc4 	movi	r17,-1
    1f14:	8405883a 	add	r2,r16,r16
    1f18:	1085883a 	add	r2,r2,r2
    1f1c:	9085883a 	add	r2,r18,r2
    1f20:	10800017 	ldw	r2,0(r2)
    1f24:	10000726 	beq	r2,zero,1f44 <ip_frag_timer+0x64>
    1f28:	10c00703 	ldbu	r3,28(r2)
    1f2c:	193fffc4 	addi	r4,r3,-1
    1f30:	18c03fcc 	andi	r3,r3,255
    1f34:	21403fcc 	andi	r5,r4,255
    1f38:	18000226 	beq	r3,zero,1f44 <ip_frag_timer+0x64>
    1f3c:	11000705 	stb	r4,28(r2)
    1f40:	28000a26 	beq	r5,zero,1f6c <ip_frag_timer+0x8c>
    1f44:	843fffc4 	addi	r16,r16,-1
    1f48:	847ff21e 	bne	r16,r17,1f14 <ip_frag_timer+0x34>
    1f4c:	0009883a 	mov	r4,zero
    1f50:	dfc00417 	ldw	ra,16(sp)
    1f54:	dcc00317 	ldw	r19,12(sp)
    1f58:	dc800217 	ldw	r18,8(sp)
    1f5c:	dc400117 	ldw	r17,4(sp)
    1f60:	dc000017 	ldw	r16,0(sp)
    1f64:	dec00504 	addi	sp,sp,20
    1f68:	000d3e01 	jmpi	d3e0 <ReleaseResource>
    1f6c:	99400a17 	ldw	r5,40(r19)
    1f70:	99000e17 	ldw	r4,56(r19)
    1f74:	99c00b17 	ldw	r7,44(r19)
    1f78:	99800f17 	ldw	r6,60(r19)
    1f7c:	28c00044 	addi	r3,r5,1
    1f80:	20800044 	addi	r2,r4,1
    1f84:	1109803a 	cmpltu	r4,r2,r4
    1f88:	194b803a 	cmpltu	r5,r3,r5
    1f8c:	218d883a 	add	r6,r4,r6
    1f90:	29cb883a 	add	r5,r5,r7
    1f94:	8009883a 	mov	r4,r16
    1f98:	98c00a15 	stw	r3,40(r19)
    1f9c:	99400b15 	stw	r5,44(r19)
    1fa0:	98800e15 	stw	r2,56(r19)
    1fa4:	99800f15 	stw	r6,60(r19)
    1fa8:	0001e600 	call	1e60 <ip_freef>
    1fac:	003fe506 	br	1f44 <ip_frag_timer+0x64>
    1fb0:	0001883a 	nop
    1fb4:	0001883a 	nop
    1fb8:	0001883a 	nop
    1fbc:	0001883a 	nop

00001fc0 <ip_init>:
    1fc0:	00019201 	jmpi	1920 <in4_init>
    1fc4:	0001883a 	nop
    1fc8:	0001883a 	nop
    1fcc:	0001883a 	nop
    1fd0:	0001883a 	nop
    1fd4:	0001883a 	nop
    1fd8:	0001883a 	nop
    1fdc:	0001883a 	nop

00001fe0 <ip_remove_options>:
    1fe0:	defffe04 	addi	sp,sp,-8
    1fe4:	dc000015 	stw	r16,0(sp)
    1fe8:	dfc00115 	stw	ra,4(sp)
    1fec:	21800503 	ldbu	r6,20(r4)
    1ff0:	00800504 	movi	r2,20
    1ff4:	2021883a 	mov	r16,r4
    1ff8:	318003cc 	andi	r6,r6,15
    1ffc:	318d883a 	add	r6,r6,r6
    2000:	318d883a 	add	r6,r6,r6
    2004:	1180082e 	bgeu	r2,r6,2028 <ip_remove_options+0x48>
    2008:	2080058b 	ldhu	r2,22(r4)
    200c:	31400504 	addi	r5,r6,20
    2010:	21000a04 	addi	r4,r4,40
    2014:	814b883a 	add	r5,r16,r5
    2018:	118dc83a 	sub	r6,r2,r6
    201c:	000ebf40 	call	ebf4 <memmove>
    2020:	00801144 	movi	r2,69
    2024:	80800505 	stb	r2,20(r16)
    2028:	0005883a 	mov	r2,zero
    202c:	dfc00117 	ldw	ra,4(sp)
    2030:	dc000017 	ldw	r16,0(sp)
    2034:	dec00204 	addi	sp,sp,8
    2038:	f800283a 	ret
    203c:	0001883a 	nop

00002040 <ip_input>:
    2040:	defff004 	addi	sp,sp,-64
    2044:	dc800815 	stw	r18,32(sp)
    2048:	dc400715 	stw	r17,28(sp)
    204c:	dc000615 	stw	r16,24(sp)
    2050:	d9000315 	stw	r4,12(sp)
    2054:	dfc00f15 	stw	ra,60(sp)
    2058:	df000e15 	stw	fp,56(sp)
    205c:	ddc00d15 	stw	r23,52(sp)
    2060:	dd800c15 	stw	r22,48(sp)
    2064:	dd400b15 	stw	r21,44(sp)
    2068:	dd000a15 	stw	r20,40(sp)
    206c:	dcc00915 	stw	r19,36(sp)
    2070:	00031800 	call	3180 <ether_get_ifnet>
    2074:	dc400317 	ldw	r17,12(sp)
    2078:	04000074 	movhi	r16,1
    207c:	84035b04 	addi	r16,r16,3436
    2080:	81402417 	ldw	r5,144(r16)
    2084:	8980000b 	ldhu	r6,0(r17)
    2088:	81002617 	ldw	r4,152(r16)
    208c:	82002717 	ldw	r8,156(r16)
    2090:	31bffc04 	addi	r6,r6,-16
    2094:	81c02517 	ldw	r7,148(r16)
    2098:	3109883a 	add	r4,r6,r4
    209c:	28c00044 	addi	r3,r5,1
    20a0:	218d803a 	cmpltu	r6,r4,r6
    20a4:	194b803a 	cmpltu	r5,r3,r5
    20a8:	320d883a 	add	r6,r6,r8
    20ac:	29cb883a 	add	r5,r5,r7
    20b0:	81002615 	stw	r4,152(r16)
    20b4:	81802715 	stw	r6,156(r16)
    20b8:	80c02415 	stw	r3,144(r16)
    20bc:	81402515 	stw	r5,148(r16)
    20c0:	88c0000b 	ldhu	r3,0(r17)
    20c4:	010008c4 	movi	r4,35
    20c8:	1025883a 	mov	r18,r2
    20cc:	20c0212e 	bgeu	r4,r3,2154 <ip_input+0x114>
    20d0:	89000503 	ldbu	r4,20(r17)
    20d4:	00800104 	movi	r2,4
    20d8:	21403fcc 	andi	r5,r4,255
    20dc:	280ad13a 	srli	r5,r5,4
    20e0:	28800826 	beq	r5,r2,2104 <ip_input+0xc4>
    20e4:	80c01c17 	ldw	r3,112(r16)
    20e8:	81001d17 	ldw	r4,116(r16)
    20ec:	18800044 	addi	r2,r3,1
    20f0:	10c7803a 	cmpltu	r3,r2,r3
    20f4:	1907883a 	add	r3,r3,r4
    20f8:	80801c15 	stw	r2,112(r16)
    20fc:	80c01d15 	stw	r3,116(r16)
    2100:	00001b06 	br	2170 <ip_input+0x130>
    2104:	210003cc 	andi	r4,r4,15
    2108:	2109883a 	add	r4,r4,r4
    210c:	2127883a 	add	r19,r4,r4
    2110:	00800504 	movi	r2,20
    2114:	14c0082e 	bgeu	r2,r19,2138 <ip_input+0xf8>
    2118:	80c01617 	ldw	r3,88(r16)
    211c:	81001717 	ldw	r4,92(r16)
    2120:	18800044 	addi	r2,r3,1
    2124:	10c7803a 	cmpltu	r3,r2,r3
    2128:	1907883a 	add	r3,r3,r4
    212c:	80801615 	stw	r2,88(r16)
    2130:	80c01715 	stw	r3,92(r16)
    2134:	88c0000b 	ldhu	r3,0(r17)
    2138:	8880058b 	ldhu	r2,22(r17)
    213c:	18fffc04 	addi	r3,r3,-16
    2140:	1008923a 	slli	r4,r2,8
    2144:	1004d23a 	srli	r2,r2,8
    2148:	2084b03a 	or	r2,r4,r2
    214c:	113fffcc 	andi	r4,r2,65535
    2150:	19001c2e 	bgeu	r3,r4,21c4 <ip_input+0x184>
    2154:	80c01e17 	ldw	r3,120(r16)
    2158:	81001f17 	ldw	r4,124(r16)
    215c:	18800044 	addi	r2,r3,1
    2160:	10c7803a 	cmpltu	r3,r2,r3
    2164:	1907883a 	add	r3,r3,r4
    2168:	80801e15 	stw	r2,120(r16)
    216c:	80c01f15 	stw	r3,124(r16)
    2170:	80c02217 	ldw	r3,136(r16)
    2174:	81402317 	ldw	r5,140(r16)
    2178:	8809883a 	mov	r4,r17
    217c:	18800044 	addi	r2,r3,1
    2180:	10c7803a 	cmpltu	r3,r2,r3
    2184:	1947883a 	add	r3,r3,r5
    2188:	80802215 	stw	r2,136(r16)
    218c:	80c02315 	stw	r3,140(r16)
    2190:	0000a800 	call	a80 <rel_net_buf>
    2194:	dfc00f17 	ldw	ra,60(sp)
    2198:	df000e17 	ldw	fp,56(sp)
    219c:	ddc00d17 	ldw	r23,52(sp)
    21a0:	dd800c17 	ldw	r22,48(sp)
    21a4:	dd400b17 	ldw	r21,44(sp)
    21a8:	dd000a17 	ldw	r20,40(sp)
    21ac:	dcc00917 	ldw	r19,36(sp)
    21b0:	dc800817 	ldw	r18,32(sp)
    21b4:	dc400717 	ldw	r17,28(sp)
    21b8:	dc000617 	ldw	r16,24(sp)
    21bc:	dec01004 	addi	sp,sp,64
    21c0:	f800283a 	ret
    21c4:	10800404 	addi	r2,r2,16
    21c8:	8880000d 	sth	r2,0(r17)
    21cc:	89000504 	addi	r4,r17,20
    21d0:	980b883a 	mov	r5,r19
    21d4:	00016e00 	call	16e0 <in_cksum>
    21d8:	10bfffcc 	andi	r2,r2,65535
    21dc:	10000926 	beq	r2,zero,2204 <ip_input+0x1c4>
    21e0:	80c02017 	ldw	r3,128(r16)
    21e4:	81002117 	ldw	r4,132(r16)
    21e8:	dc400317 	ldw	r17,12(sp)
    21ec:	18800044 	addi	r2,r3,1
    21f0:	10c7803a 	cmpltu	r3,r2,r3
    21f4:	1907883a 	add	r3,r3,r4
    21f8:	80802015 	stw	r2,128(r16)
    21fc:	80c02115 	stw	r3,132(r16)
    2200:	003fdb06 	br	2170 <ip_input+0x130>
    2204:	00800504 	movi	r2,20
    2208:	14c0072e 	bgeu	r2,r19,2228 <ip_input+0x1e8>
    220c:	88c00743 	ldbu	r3,29(r17)
    2210:	00800044 	movi	r2,1
    2214:	18800426 	beq	r3,r2,2228 <ip_input+0x1e8>
    2218:	89000a04 	addi	r4,r17,40
    221c:	000b883a 	mov	r5,zero
    2220:	99bffb04 	addi	r6,r19,-20
    2224:	000ed1c0 	call	ed1c <memset>
    2228:	88800817 	ldw	r2,32(r17)
    222c:	90c00117 	ldw	r3,4(r18)
    2230:	91000217 	ldw	r4,8(r18)
    2234:	100ad63a 	srli	r5,r2,24
    2238:	100e963a 	slli	r7,r2,24
    223c:	11bfc00c 	andi	r6,r2,65280
    2240:	300c923a 	slli	r6,r6,8
    2244:	1004d23a 	srli	r2,r2,8
    2248:	29cab03a 	or	r5,r5,r7
    224c:	298ab03a 	or	r5,r5,r6
    2250:	10bfc00c 	andi	r2,r2,65280
    2254:	2884b03a 	or	r2,r5,r2
    2258:	10c03226 	beq	r2,r3,2324 <ip_input+0x2e4>
    225c:	010a303a 	nor	r5,zero,r4
    2260:	20c8703a 	and	r4,r4,r3
    2264:	2908b03a 	or	r4,r5,r4
    2268:	11002e26 	beq	r2,r4,2324 <ip_input+0x2e4>
    226c:	017fffc4 	movi	r5,-1
    2270:	11402c26 	beq	r2,r5,2324 <ip_input+0x2e4>
    2274:	10002b26 	beq	r2,zero,2324 <ip_input+0x2e4>
    2278:	88800917 	ldw	r2,36(r17)
    227c:	1028d63a 	srli	r20,r2,24
    2280:	100e963a 	slli	r7,r2,24
    2284:	11bfc00c 	andi	r6,r2,65280
    2288:	300c923a 	slli	r6,r6,8
    228c:	1004d23a 	srli	r2,r2,8
    2290:	a1e8b03a 	or	r20,r20,r7
    2294:	a1a8b03a 	or	r20,r20,r6
    2298:	10bfc00c 	andi	r2,r2,65280
    229c:	a0a8b03a 	or	r20,r20,r2
    22a0:	1d000326 	beq	r3,r20,22b0 <ip_input+0x270>
    22a4:	a1000226 	beq	r20,r4,22b0 <ip_input+0x270>
    22a8:	a1400126 	beq	r20,r5,22b0 <ip_input+0x270>
    22ac:	a0001d1e 	bne	r20,zero,2324 <ip_input+0x2e4>
    22b0:	8880068b 	ldhu	r2,26(r17)
    22b4:	1006923a 	slli	r3,r2,8
    22b8:	1004d23a 	srli	r2,r2,8
    22bc:	1884b03a 	or	r2,r3,r2
    22c0:	108fffcc 	andi	r2,r2,16383
    22c4:	10002a1e 	bne	r2,zero,2370 <ip_input+0x330>
    22c8:	d8c00317 	ldw	r3,12(sp)
    22cc:	89000743 	ldbu	r4,29(r17)
    22d0:	18800503 	ldbu	r2,20(r3)
    22d4:	108003cc 	andi	r2,r2,15
    22d8:	1085883a 	add	r2,r2,r2
    22dc:	1085883a 	add	r2,r2,r2
    22e0:	10800404 	addi	r2,r2,16
    22e4:	d8800215 	stw	r2,8(sp)
    22e8:	00800044 	movi	r2,1
    22ec:	20801b26 	beq	r4,r2,235c <ip_input+0x31c>
    22f0:	00800444 	movi	r2,17
    22f4:	20801426 	beq	r4,r2,2348 <ip_input+0x308>
    22f8:	81001817 	ldw	r4,96(r16)
    22fc:	81401917 	ldw	r5,100(r16)
    2300:	20800044 	addi	r2,r4,1
    2304:	1109803a 	cmpltu	r4,r2,r4
    2308:	2149883a 	add	r4,r4,r5
    230c:	80801815 	stw	r2,96(r16)
    2310:	81001915 	stw	r4,100(r16)
    2314:	90800117 	ldw	r2,4(r18)
    2318:	15008d26 	beq	r2,r20,2550 <ip_input+0x510>
    231c:	1823883a 	mov	r17,r3
    2320:	003f9306 	br	2170 <ip_input+0x130>
    2324:	80c01a17 	ldw	r3,104(r16)
    2328:	81001b17 	ldw	r4,108(r16)
    232c:	dc400317 	ldw	r17,12(sp)
    2330:	18800044 	addi	r2,r3,1
    2334:	10c7803a 	cmpltu	r3,r2,r3
    2338:	1907883a 	add	r3,r3,r4
    233c:	80801a15 	stw	r2,104(r16)
    2340:	80c01b15 	stw	r3,108(r16)
    2344:	003f8a06 	br	2170 <ip_input+0x130>
    2348:	d9000304 	addi	r4,sp,12
    234c:	d9400204 	addi	r5,sp,8
    2350:	000d883a 	mov	r6,zero
    2354:	00056c00 	call	56c0 <udp_input>
    2358:	003f8e06 	br	2194 <ip_input+0x154>
    235c:	d9000304 	addi	r4,sp,12
    2360:	d9400204 	addi	r5,sp,8
    2364:	000d883a 	mov	r6,zero
    2368:	0002c000 	call	2c00 <icmp_input>
    236c:	003f8906 	br	2194 <ip_input+0x154>
    2370:	80c01217 	ldw	r3,72(r16)
    2374:	81001317 	ldw	r4,76(r16)
    2378:	d7201f04 	addi	fp,gp,-32644
    237c:	18800044 	addi	r2,r3,1
    2380:	10c7803a 	cmpltu	r3,r2,r3
    2384:	1907883a 	add	r3,r3,r4
    2388:	80c01315 	stw	r3,76(r16)
    238c:	80801215 	stw	r2,72(r16)
    2390:	8940060b 	ldhu	r5,24(r17)
    2394:	88800917 	ldw	r2,36(r17)
    2398:	8900068b 	ldhu	r4,26(r17)
    239c:	2806923a 	slli	r3,r5,8
    23a0:	280ad23a 	srli	r5,r5,8
    23a4:	1010963a 	slli	r8,r2,24
    23a8:	200e923a 	slli	r7,r4,8
    23ac:	1026d63a 	srli	r19,r2,24
    23b0:	11bfc00c 	andi	r6,r2,65280
    23b4:	2008d23a 	srli	r4,r4,8
    23b8:	300c923a 	slli	r6,r6,8
    23bc:	1004d23a 	srli	r2,r2,8
    23c0:	1946b03a 	or	r3,r3,r5
    23c4:	d9400317 	ldw	r5,12(sp)
    23c8:	3908b03a 	or	r4,r7,r4
    23cc:	9a26b03a 	or	r19,r19,r8
    23d0:	1d40004c 	andi	r21,r3,1
    23d4:	88c0060d 	sth	r3,24(r17)
    23d8:	8900068d 	sth	r4,26(r17)
    23dc:	99a6b03a 	or	r19,r19,r6
    23e0:	10bfc00c 	andi	r2,r2,65280
    23e4:	0009883a 	mov	r4,zero
    23e8:	8d800817 	ldw	r22,32(r17)
    23ec:	ad6f883a 	add	r23,r21,r21
    23f0:	d8c00515 	stw	r3,20(sp)
    23f4:	d9400015 	stw	r5,0(sp)
    23f8:	98a6b03a 	or	r19,r19,r2
    23fc:	000d0400 	call	d040 <GetResource>
    2400:	bdc9883a 	add	r4,r23,r23
    2404:	e105883a 	add	r2,fp,r4
    2408:	10800017 	ldw	r2,0(r2)
    240c:	d8c00517 	ldw	r3,20(sp)
    2410:	1000de26 	beq	r2,zero,278c <ip_input+0x74c>
    2414:	1140060b 	ldhu	r5,24(r2)
    2418:	18ffffcc 	andi	r3,r3,65535
    241c:	1940041e 	bne	r3,r5,2430 <ip_input+0x3f0>
    2420:	d0e02104 	addi	r3,gp,-32636
    2424:	1909883a 	add	r4,r3,r4
    2428:	20c00017 	ldw	r3,0(r4)
    242c:	98c06226 	beq	r19,r3,25b8 <ip_input+0x578>
    2430:	80c00e17 	ldw	r3,56(r16)
    2434:	81400f17 	ldw	r5,60(r16)
    2438:	a809883a 	mov	r4,r21
    243c:	18800044 	addi	r2,r3,1
    2440:	10c7803a 	cmpltu	r3,r2,r3
    2444:	1947883a 	add	r3,r3,r5
    2448:	80800e15 	stw	r2,56(r16)
    244c:	80c00f15 	stw	r3,60(r16)
    2450:	0001e600 	call	1e60 <ip_freef>
    2454:	bdc5883a 	add	r2,r23,r23
    2458:	e085883a 	add	r2,fp,r2
    245c:	10800017 	ldw	r2,0(r2)
    2460:	1000ca26 	beq	r2,zero,278c <ip_input+0x74c>
    2464:	8940068b 	ldhu	r5,26(r17)
    2468:	0009883a 	mov	r4,zero
    246c:	2947ffcc 	andi	r5,r5,8191
    2470:	00000406 	br	2484 <ip_input+0x444>
    2474:	10c00917 	ldw	r3,36(r2)
    2478:	1009883a 	mov	r4,r2
    247c:	18003226 	beq	r3,zero,2548 <ip_input+0x508>
    2480:	1805883a 	mov	r2,r3
    2484:	10c0068b 	ldhu	r3,26(r2)
    2488:	18c7ffcc 	andi	r3,r3,8191
    248c:	197ff916 	blt	r3,r5,2474 <ip_input+0x434>
    2490:	88800915 	stw	r2,36(r17)
    2494:	20006026 	beq	r4,zero,2618 <ip_input+0x5d8>
    2498:	d8800017 	ldw	r2,0(sp)
    249c:	20800915 	stw	r2,36(r4)
    24a0:	bdc5883a 	add	r2,r23,r23
    24a4:	e085883a 	add	r2,fp,r2
    24a8:	14c00017 	ldw	r19,0(r2)
    24ac:	d8000015 	stw	zero,0(sp)
    24b0:	9800c926 	beq	r19,zero,27d8 <ip_input+0x798>
    24b4:	9880068b 	ldhu	r2,26(r19)
    24b8:	100490fa 	slli	r2,r2,3
    24bc:	10bfffcc 	andi	r2,r2,65535
    24c0:	10001e1e 	bne	r2,zero,253c <ip_input+0x4fc>
    24c4:	0007883a 	mov	r3,zero
    24c8:	00000506 	br	24e0 <ip_input+0x4a0>
    24cc:	10c0068b 	ldhu	r3,26(r2)
    24d0:	1027883a 	mov	r19,r2
    24d4:	180690fa 	slli	r3,r3,3
    24d8:	18ffffcc 	andi	r3,r3,65535
    24dc:	1d80171e 	bne	r3,r22,253c <ip_input+0x4fc>
    24e0:	9940058b 	ldhu	r5,22(r19)
    24e4:	99000503 	ldbu	r4,20(r19)
    24e8:	98800917 	ldw	r2,36(r19)
    24ec:	282c923a 	slli	r22,r5,8
    24f0:	280ad23a 	srli	r5,r5,8
    24f4:	210003cc 	andi	r4,r4,15
    24f8:	2109883a 	add	r4,r4,r4
    24fc:	b16cb03a 	or	r22,r22,r5
    2500:	b5bfffcc 	andi	r22,r22,65535
    2504:	2109883a 	add	r4,r4,r4
    2508:	b12dc83a 	sub	r22,r22,r4
    250c:	1dad883a 	add	r22,r3,r22
    2510:	103fee1e 	bne	r2,zero,24cc <ip_input+0x48c>
    2514:	9880068b 	ldhu	r2,26(r19)
    2518:	1088000c 	andi	r2,r2,8192
    251c:	10bfffcc 	andi	r2,r2,65535
    2520:	10004426 	beq	r2,zero,2634 <ip_input+0x5f4>
    2524:	0009883a 	mov	r4,zero
    2528:	000d3e00 	call	d3e0 <ReleaseResource>
    252c:	d8800017 	ldw	r2,0(sp)
    2530:	d8800315 	stw	r2,12(sp)
    2534:	103f641e 	bne	r2,zero,22c8 <ip_input+0x288>
    2538:	003f1606 	br	2194 <ip_input+0x154>
    253c:	0009883a 	mov	r4,zero
    2540:	000d3e00 	call	d3e0 <ReleaseResource>
    2544:	003f1306 	br	2194 <ip_input+0x154>
    2548:	88000915 	stw	zero,36(r17)
    254c:	003fd206 	br	2498 <ip_input+0x458>
    2550:	88800817 	ldw	r2,32(r17)
    2554:	8c400743 	ldbu	r17,29(r17)
    2558:	0009883a 	mov	r4,zero
    255c:	100cd63a 	srli	r6,r2,24
    2560:	100a963a 	slli	r5,r2,24
    2564:	10ffc00c 	andi	r3,r2,65280
    2568:	1806923a 	slli	r3,r3,8
    256c:	1004d23a 	srli	r2,r2,8
    2570:	314ab03a 	or	r5,r6,r5
    2574:	28c6b03a 	or	r3,r5,r3
    2578:	10bfc00c 	andi	r2,r2,65280
    257c:	1884b03a 	or	r2,r3,r2
    2580:	d9400104 	addi	r5,sp,4
    2584:	d8800115 	stw	r2,4(sp)
    2588:	00012200 	call	1220 <ip2str>
    258c:	880d883a 	mov	r6,r17
    2590:	01000184 	movi	r4,6
    2594:	01400074 	movhi	r5,1
    2598:	297c6404 	addi	r5,r5,-3696
    259c:	100f883a 	mov	r7,r2
    25a0:	00080400 	call	8040 <syslog>
    25a4:	d9400317 	ldw	r5,12(sp)
    25a8:	01000084 	movi	r4,2
    25ac:	0002f200 	call	2f20 <icmp_error>
    25b0:	dc400317 	ldw	r17,12(sp)
    25b4:	003eee06 	br	2170 <ip_input+0x130>
    25b8:	10c00817 	ldw	r3,32(r2)
    25bc:	b014d63a 	srli	r10,r22,24
    25c0:	b010963a 	slli	r8,r22,24
    25c4:	1812d63a 	srli	r9,r3,24
    25c8:	180e963a 	slli	r7,r3,24
    25cc:	197fc00c 	andi	r5,r3,65280
    25d0:	b1bfc00c 	andi	r6,r22,65280
    25d4:	300c923a 	slli	r6,r6,8
    25d8:	b008d23a 	srli	r4,r22,8
    25dc:	280a923a 	slli	r5,r5,8
    25e0:	1806d23a 	srli	r3,r3,8
    25e4:	5210b03a 	or	r8,r10,r8
    25e8:	49ceb03a 	or	r7,r9,r7
    25ec:	418cb03a 	or	r6,r8,r6
    25f0:	213fc00c 	andi	r4,r4,65280
    25f4:	394ab03a 	or	r5,r7,r5
    25f8:	18ffc00c 	andi	r3,r3,65280
    25fc:	3108b03a 	or	r4,r6,r4
    2600:	28c6b03a 	or	r3,r5,r3
    2604:	20ff8a1e 	bne	r4,r3,2430 <ip_input+0x3f0>
    2608:	89000743 	ldbu	r4,29(r17)
    260c:	10c00743 	ldbu	r3,29(r2)
    2610:	20ff871e 	bne	r4,r3,2430 <ip_input+0x3f0>
    2614:	003f9306 	br	2464 <ip_input+0x424>
    2618:	10c00703 	ldbu	r3,28(r2)
    261c:	bdc5883a 	add	r2,r23,r23
    2620:	e085883a 	add	r2,fp,r2
    2624:	88c00705 	stb	r3,28(r17)
    2628:	d8c00017 	ldw	r3,0(sp)
    262c:	10c00015 	stw	r3,0(r2)
    2630:	003f9b06 	br	24a0 <ip_input+0x460>
    2634:	d809883a 	mov	r4,sp
    2638:	b1400904 	addi	r5,r22,36
    263c:	0000a600 	call	a60 <get_net_buf>
    2640:	1000431e 	bne	r2,zero,2750 <ip_input+0x710>
    2644:	bdcf883a 	add	r7,r23,r23
    2648:	81001017 	ldw	r4,64(r16)
    264c:	ddc00017 	ldw	r23,0(sp)
    2650:	e1f9883a 	add	fp,fp,r7
    2654:	e7000017 	ldw	fp,0(fp)
    2658:	81401117 	ldw	r5,68(r16)
    265c:	20800044 	addi	r2,r4,1
    2660:	1109803a 	cmpltu	r4,r2,r4
    2664:	b8c00504 	addi	r3,r23,20
    2668:	2151883a 	add	r8,r4,r5
    266c:	01800504 	movi	r6,20
    2670:	1809883a 	mov	r4,r3
    2674:	e1400504 	addi	r5,fp,20
    2678:	82001115 	stw	r8,68(r16)
    267c:	d9c00515 	stw	r7,20(sp)
    2680:	d8c00415 	stw	r3,16(sp)
    2684:	80801015 	stw	r2,64(r16)
    2688:	000eafc0 	call	eafc <memcpy>
    268c:	d9c00517 	ldw	r7,20(sp)
    2690:	d0a02104 	addi	r2,gp,-32636
    2694:	b1000504 	addi	r4,r22,20
    2698:	11cf883a 	add	r7,r2,r7
    269c:	38800017 	ldw	r2,0(r7)
    26a0:	213fffcc 	andi	r4,r4,65535
    26a4:	1010d63a 	srli	r8,r2,24
    26a8:	100e963a 	slli	r7,r2,24
    26ac:	11bfc00c 	andi	r6,r2,65280
    26b0:	100ad23a 	srli	r5,r2,8
    26b4:	300c923a 	slli	r6,r6,8
    26b8:	2004923a 	slli	r2,r4,8
    26bc:	2008d23a 	srli	r4,r4,8
    26c0:	41ceb03a 	or	r7,r8,r7
    26c4:	398cb03a 	or	r6,r7,r6
    26c8:	1104b03a 	or	r2,r2,r4
    26cc:	297fc00c 	andi	r5,r5,65280
    26d0:	b880058d 	sth	r2,22(r23)
    26d4:	314ab03a 	or	r5,r6,r5
    26d8:	00801144 	movi	r2,69
    26dc:	b9400915 	stw	r5,36(r23)
    26e0:	b8800505 	stb	r2,20(r23)
    26e4:	98800703 	ldbu	r2,28(r19)
    26e8:	04c00504 	movi	r19,20
    26ec:	b800060d 	sth	zero,24(r23)
    26f0:	b8800705 	stb	r2,28(r23)
    26f4:	b800068d 	sth	zero,26(r23)
    26f8:	e140058b 	ldhu	r5,22(fp)
    26fc:	e0800503 	ldbu	r2,20(fp)
    2700:	d8c00417 	ldw	r3,16(sp)
    2704:	282c923a 	slli	r22,r5,8
    2708:	280ad23a 	srli	r5,r5,8
    270c:	108003cc 	andi	r2,r2,15
    2710:	1085883a 	add	r2,r2,r2
    2714:	b16cb03a 	or	r22,r22,r5
    2718:	1085883a 	add	r2,r2,r2
    271c:	b5bfffcc 	andi	r22,r22,65535
    2720:	b0adc83a 	sub	r22,r22,r2
    2724:	11400504 	addi	r5,r2,20
    2728:	1cc9883a 	add	r4,r3,r19
    272c:	e14b883a 	add	r5,fp,r5
    2730:	b00d883a 	mov	r6,r22
    2734:	000eafc0 	call	eafc <memcpy>
    2738:	e7000917 	ldw	fp,36(fp)
    273c:	9da7883a 	add	r19,r19,r22
    2740:	e03fed1e 	bne	fp,zero,26f8 <ip_input+0x6b8>
    2744:	a809883a 	mov	r4,r21
    2748:	0001e600 	call	1e60 <ip_freef>
    274c:	003f7506 	br	2524 <ip_input+0x4e4>
    2750:	81400c17 	ldw	r5,48(r16)
    2754:	81000e17 	ldw	r4,56(r16)
    2758:	81c00d17 	ldw	r7,52(r16)
    275c:	81800f17 	ldw	r6,60(r16)
    2760:	28c00044 	addi	r3,r5,1
    2764:	20800044 	addi	r2,r4,1
    2768:	194b803a 	cmpltu	r5,r3,r5
    276c:	1109803a 	cmpltu	r4,r2,r4
    2770:	29cb883a 	add	r5,r5,r7
    2774:	2189883a 	add	r4,r4,r6
    2778:	80c00c15 	stw	r3,48(r16)
    277c:	81400d15 	stw	r5,52(r16)
    2780:	80800e15 	stw	r2,56(r16)
    2784:	81000f15 	stw	r4,60(r16)
    2788:	003fee06 	br	2744 <ip_input+0x704>
    278c:	80c01417 	ldw	r3,80(r16)
    2790:	81001517 	ldw	r4,84(r16)
    2794:	bdef883a 	add	r23,r23,r23
    2798:	18800044 	addi	r2,r3,1
    279c:	80801415 	stw	r2,80(r16)
    27a0:	10c7803a 	cmpltu	r3,r2,r3
    27a4:	d8800017 	ldw	r2,0(sp)
    27a8:	1909883a 	add	r4,r3,r4
    27ac:	d0e02104 	addi	r3,gp,-32636
    27b0:	81001515 	stw	r4,84(r16)
    27b4:	1dc7883a 	add	r3,r3,r23
    27b8:	e5ef883a 	add	r23,fp,r23
    27bc:	b8800015 	stw	r2,0(r23)
    27c0:	1cc00015 	stw	r19,0(r3)
    27c4:	00800f04 	movi	r2,60
    27c8:	88000915 	stw	zero,36(r17)
    27cc:	d8000015 	stw	zero,0(sp)
    27d0:	88800705 	stb	r2,28(r17)
    27d4:	003f5306 	br	2524 <ip_input+0x4e4>
    27d8:	2027883a 	mov	r19,r4
    27dc:	002d883a 	mov	r22,zero
    27e0:	003f4c06 	br	2514 <ip_input+0x4d4>
	...

00002800 <ip_output>:
    2800:	defff204 	addi	sp,sp,-56
    2804:	df000c15 	stw	fp,48(sp)
    2808:	dcc00715 	stw	r19,28(sp)
    280c:	dfc00d15 	stw	ra,52(sp)
    2810:	ddc00b15 	stw	r23,44(sp)
    2814:	dd800a15 	stw	r22,40(sp)
    2818:	dd400915 	stw	r21,36(sp)
    281c:	dd000815 	stw	r20,32(sp)
    2820:	dc800615 	stw	r18,24(sp)
    2824:	dc400515 	stw	r17,20(sp)
    2828:	dc000415 	stw	r16,16(sp)
    282c:	20800917 	ldw	r2,36(r4)
    2830:	2039883a 	mov	fp,r4
    2834:	21000504 	addi	r4,r4,20
    2838:	100a963a 	slli	r5,r2,24
    283c:	d9000315 	stw	r4,12(sp)
    2840:	10ffc00c 	andi	r3,r2,65280
    2844:	1008d63a 	srli	r4,r2,24
    2848:	1806923a 	slli	r3,r3,8
    284c:	1004d23a 	srli	r2,r2,8
    2850:	2148b03a 	or	r4,r4,r5
    2854:	20c8b03a 	or	r4,r4,r3
    2858:	10bfc00c 	andi	r2,r2,65280
    285c:	2088b03a 	or	r4,r4,r2
    2860:	00018a00 	call	18a0 <in4_rtalloc>
    2864:	e0c0058b 	ldhu	r3,22(fp)
    2868:	d8800115 	stw	r2,4(sp)
    286c:	00817704 	movi	r2,1500
    2870:	1826923a 	slli	r19,r3,8
    2874:	1806d23a 	srli	r3,r3,8
    2878:	98e6b03a 	or	r19,r19,r3
    287c:	9cffffcc 	andi	r19,r19,65535
    2880:	14c0a92e 	bgeu	r2,r19,2b28 <ip_output+0x328>
    2884:	05c00074 	movhi	r23,1
    2888:	bdc35b04 	addi	r23,r23,3436
    288c:	b8c00217 	ldw	r3,8(r23)
    2890:	b9000317 	ldw	r4,12(r23)
    2894:	18800044 	addi	r2,r3,1
    2898:	10c7803a 	cmpltu	r3,r2,r3
    289c:	1907883a 	add	r3,r3,r4
    28a0:	b8800215 	stw	r2,8(r23)
    28a4:	b8c00315 	stw	r3,12(r23)
    28a8:	e5800503 	ldbu	r22,20(fp)
    28ac:	b58003cc 	andi	r22,r22,15
    28b0:	b5ad883a 	add	r22,r22,r22
    28b4:	b5ad883a 	add	r22,r22,r22
    28b8:	dd800215 	stw	r22,8(sp)
    28bc:	b4c0c92e 	bgeu	r22,r19,2be4 <ip_output+0x3e4>
    28c0:	9da9c83a 	sub	r20,r19,r22
    28c4:	b023883a 	mov	r17,r22
    28c8:	0025883a 	mov	r18,zero
    28cc:	00006906 	br	2a74 <ip_output+0x274>
    28d0:	a14000c4 	addi	r5,r20,3
    28d4:	00bfff04 	movi	r2,-4
    28d8:	288a703a 	and	r5,r5,r2
    28dc:	29400904 	addi	r5,r5,36
    28e0:	d809883a 	mov	r4,sp
    28e4:	a021883a 	mov	r16,r20
    28e8:	0000a600 	call	a60 <get_net_buf>
    28ec:	1000681e 	bne	r2,zero,2a90 <ip_output+0x290>
    28f0:	d8800017 	ldw	r2,0(sp)
    28f4:	d9000317 	ldw	r4,12(sp)
    28f8:	d8c00217 	ldw	r3,8(sp)
    28fc:	800d883a 	mov	r6,r16
    2900:	8463883a 	add	r17,r16,r17
    2904:	20cb883a 	add	r5,r4,r3
    2908:	10c00503 	ldbu	r3,20(r2)
    290c:	2c8b883a 	add	r5,r5,r18
    2910:	18c003cc 	andi	r3,r3,15
    2914:	18c7883a 	add	r3,r3,r3
    2918:	18c7883a 	add	r3,r3,r3
    291c:	19000504 	addi	r4,r3,20
    2920:	1109883a 	add	r4,r2,r4
    2924:	000eafc0 	call	eafc <memcpy>
    2928:	e0800517 	ldw	r2,20(fp)
    292c:	dd800017 	ldw	r22,0(sp)
    2930:	b0800515 	stw	r2,20(r22)
    2934:	e0800617 	ldw	r2,24(fp)
    2938:	b1000504 	addi	r4,r22,20
    293c:	b0800615 	stw	r2,24(r22)
    2940:	e0800717 	ldw	r2,28(fp)
    2944:	b0800715 	stw	r2,28(r22)
    2948:	e0800817 	ldw	r2,32(fp)
    294c:	b0800815 	stw	r2,32(r22)
    2950:	e0800917 	ldw	r2,36(fp)
    2954:	b0800915 	stw	r2,36(r22)
    2958:	8cc05826 	beq	r17,r19,2abc <ip_output+0x2bc>
    295c:	9004d0fa 	srli	r2,r18,3
    2960:	02880004 	movi	r10,8192
    2964:	127fffcc 	andi	r9,r2,65535
    2968:	4a480014 	ori	r9,r9,8192
    296c:	4812923a 	slli	r9,r9,8
    2970:	100b883a 	mov	r5,r2
    2974:	d0a0230b 	ldhu	r2,-32628(gp)
    2978:	2a8cb03a 	or	r6,r5,r10
    297c:	84000504 	addi	r16,r16,20
    2980:	843fffcc 	andi	r16,r16,65535
    2984:	b1400503 	ldbu	r5,20(r22)
    2988:	31bfffcc 	andi	r6,r6,65535
    298c:	8018923a 	slli	r12,r16,8
    2990:	1016923a 	slli	r11,r2,8
    2994:	300cd23a 	srli	r6,r6,8
    2998:	8020d23a 	srli	r16,r16,8
    299c:	1004d23a 	srli	r2,r2,8
    29a0:	294003cc 	andi	r5,r5,15
    29a4:	324cb03a 	or	r6,r6,r9
    29a8:	6420b03a 	or	r16,r12,r16
    29ac:	5884b03a 	or	r2,r11,r2
    29b0:	294b883a 	add	r5,r5,r5
    29b4:	294b883a 	add	r5,r5,r5
    29b8:	b180068d 	sth	r6,26(r22)
    29bc:	b400058d 	sth	r16,22(r22)
    29c0:	b080060d 	sth	r2,24(r22)
    29c4:	b000078d 	sth	zero,30(r22)
    29c8:	00016e00 	call	16e0 <in_cksum>
    29cc:	b100058b 	ldhu	r4,22(r22)
    29d0:	b080078d 	sth	r2,30(r22)
    29d4:	ba400617 	ldw	r9,24(r23)
    29d8:	2014923a 	slli	r10,r4,8
    29dc:	2008d23a 	srli	r4,r4,8
    29e0:	b9800017 	ldw	r6,0(r23)
    29e4:	b9400817 	ldw	r5,32(r23)
    29e8:	5114b03a 	or	r10,r10,r4
    29ec:	bb400917 	ldw	r13,36(r23)
    29f0:	bb000717 	ldw	r12,28(r23)
    29f4:	bac00117 	ldw	r11,4(r23)
    29f8:	52bfffcc 	andi	r10,r10,65535
    29fc:	514b883a 	add	r5,r10,r5
    2a00:	48c00044 	addi	r3,r9,1
    2a04:	30800044 	addi	r2,r6,1
    2a08:	d9000017 	ldw	r4,0(sp)
    2a0c:	2a95803a 	cmpltu	r10,r5,r10
    2a10:	1a53803a 	cmpltu	r9,r3,r9
    2a14:	118d803a 	cmpltu	r6,r2,r6
    2a18:	32cd883a 	add	r6,r6,r11
    2a1c:	5355883a 	add	r10,r10,r13
    2a20:	4b13883a 	add	r9,r9,r12
    2a24:	b9400815 	stw	r5,32(r23)
    2a28:	b8800015 	stw	r2,0(r23)
    2a2c:	b9800115 	stw	r6,4(r23)
    2a30:	ba800915 	stw	r10,36(r23)
    2a34:	b8c00615 	stw	r3,24(r23)
    2a38:	ba400715 	stw	r9,28(r23)
    2a3c:	00800204 	movi	r2,8
    2a40:	20800485 	stb	r2,18(r4)
    2a44:	200004c5 	stb	zero,19(r4)
    2a48:	d9400104 	addi	r5,sp,4
    2a4c:	000d883a 	mov	r6,zero
    2a50:	00032600 	call	3260 <ether_output>
    2a54:	1021883a 	mov	r16,r2
    2a58:	04400074 	movhi	r17,1
    2a5c:	8c435b04 	addi	r17,r17,3436
    2a60:	10001b1e 	bne	r2,zero,2ad0 <ip_output+0x2d0>
    2a64:	a823883a 	mov	r17,r21
    2a68:	94817204 	addi	r18,r18,1480
    2a6c:	a53e8e04 	addi	r20,r20,-1480
    2a70:	acc05c2e 	bgeu	r21,r19,2be4 <ip_output+0x3e4>
    2a74:	8d417204 	addi	r21,r17,1480
    2a78:	acff952e 	bgeu	r21,r19,28d0 <ip_output+0xd0>
    2a7c:	01417b04 	movi	r5,1516
    2a80:	d809883a 	mov	r4,sp
    2a84:	04017204 	movi	r16,1480
    2a88:	0000a600 	call	a60 <get_net_buf>
    2a8c:	103f9826 	beq	r2,zero,28f0 <ip_output+0xf0>
    2a90:	e009883a 	mov	r4,fp
    2a94:	0000a800 	call	a80 <rel_net_buf>
    2a98:	b8c00417 	ldw	r3,16(r23)
    2a9c:	b9000517 	ldw	r4,20(r23)
    2aa0:	043ff7c4 	movi	r16,-33
    2aa4:	18800044 	addi	r2,r3,1
    2aa8:	10c7803a 	cmpltu	r3,r2,r3
    2aac:	1907883a 	add	r3,r3,r4
    2ab0:	b8800415 	stw	r2,16(r23)
    2ab4:	b8c00515 	stw	r3,20(r23)
    2ab8:	00000e06 	br	2af4 <ip_output+0x2f4>
    2abc:	900ad0fa 	srli	r5,r18,3
    2ac0:	0015883a 	mov	r10,zero
    2ac4:	2a7fffcc 	andi	r9,r5,65535
    2ac8:	4812923a 	slli	r9,r9,8
    2acc:	003fa906 	br	2974 <ip_output+0x174>
    2ad0:	e009883a 	mov	r4,fp
    2ad4:	0000a800 	call	a80 <rel_net_buf>
    2ad8:	88c00417 	ldw	r3,16(r17)
    2adc:	89000517 	ldw	r4,20(r17)
    2ae0:	18800044 	addi	r2,r3,1
    2ae4:	10c7803a 	cmpltu	r3,r2,r3
    2ae8:	1907883a 	add	r3,r3,r4
    2aec:	88800415 	stw	r2,16(r17)
    2af0:	88c00515 	stw	r3,20(r17)
    2af4:	8005883a 	mov	r2,r16
    2af8:	dfc00d17 	ldw	ra,52(sp)
    2afc:	df000c17 	ldw	fp,48(sp)
    2b00:	ddc00b17 	ldw	r23,44(sp)
    2b04:	dd800a17 	ldw	r22,40(sp)
    2b08:	dd400917 	ldw	r21,36(sp)
    2b0c:	dd000817 	ldw	r20,32(sp)
    2b10:	dcc00717 	ldw	r19,28(sp)
    2b14:	dc800617 	ldw	r18,24(sp)
    2b18:	dc400517 	ldw	r17,20(sp)
    2b1c:	dc000417 	ldw	r16,16(sp)
    2b20:	dec00e04 	addi	sp,sp,56
    2b24:	f800283a 	ret
    2b28:	d0a0230b 	ldhu	r2,-32628(gp)
    2b2c:	e1400503 	ldbu	r5,20(fp)
    2b30:	d9000317 	ldw	r4,12(sp)
    2b34:	10ffffcc 	andi	r3,r2,65535
    2b38:	180c923a 	slli	r6,r3,8
    2b3c:	1806d23a 	srli	r3,r3,8
    2b40:	294003cc 	andi	r5,r5,15
    2b44:	294b883a 	add	r5,r5,r5
    2b48:	30c6b03a 	or	r3,r6,r3
    2b4c:	10800044 	addi	r2,r2,1
    2b50:	294b883a 	add	r5,r5,r5
    2b54:	e0c0060d 	sth	r3,24(fp)
    2b58:	e000078d 	sth	zero,30(fp)
    2b5c:	d0a0230d 	sth	r2,-32628(gp)
    2b60:	00016e00 	call	16e0 <in_cksum>
    2b64:	e0c0058b 	ldhu	r3,22(fp)
    2b68:	e080078d 	sth	r2,30(fp)
    2b6c:	04400074 	movhi	r17,1
    2b70:	8c435b04 	addi	r17,r17,3436
    2b74:	1804923a 	slli	r2,r3,8
    2b78:	1806d23a 	srli	r3,r3,8
    2b7c:	89400617 	ldw	r5,24(r17)
    2b80:	89000817 	ldw	r4,32(r17)
    2b84:	10c6b03a 	or	r3,r2,r3
    2b88:	89800717 	ldw	r6,28(r17)
    2b8c:	89c00917 	ldw	r7,36(r17)
    2b90:	18ffffcc 	andi	r3,r3,65535
    2b94:	1909883a 	add	r4,r3,r4
    2b98:	28800044 	addi	r2,r5,1
    2b9c:	20c7803a 	cmpltu	r3,r4,r3
    2ba0:	114b803a 	cmpltu	r5,r2,r5
    2ba4:	298b883a 	add	r5,r5,r6
    2ba8:	19c7883a 	add	r3,r3,r7
    2bac:	89000815 	stw	r4,32(r17)
    2bb0:	88800615 	stw	r2,24(r17)
    2bb4:	89400715 	stw	r5,28(r17)
    2bb8:	88c00915 	stw	r3,36(r17)
    2bbc:	00800204 	movi	r2,8
    2bc0:	e0800485 	stb	r2,18(fp)
    2bc4:	e00004c5 	stb	zero,19(fp)
    2bc8:	e009883a 	mov	r4,fp
    2bcc:	d9400104 	addi	r5,sp,4
    2bd0:	000d883a 	mov	r6,zero
    2bd4:	00032600 	call	3260 <ether_output>
    2bd8:	1021883a 	mov	r16,r2
    2bdc:	103fc526 	beq	r2,zero,2af4 <ip_output+0x2f4>
    2be0:	003fbd06 	br	2ad8 <ip_output+0x2d8>
    2be4:	e009883a 	mov	r4,fp
    2be8:	0000a800 	call	a80 <rel_net_buf>
    2bec:	d0a0230b 	ldhu	r2,-32628(gp)
    2bf0:	0021883a 	mov	r16,zero
    2bf4:	10800044 	addi	r2,r2,1
    2bf8:	d0a0230d 	sth	r2,-32628(gp)
    2bfc:	003fbd06 	br	2af4 <ip_output+0x2f4>

00002c00 <icmp_input>:
    2c00:	defff904 	addi	sp,sp,-28
    2c04:	dc800315 	stw	r18,12(sp)
    2c08:	dc000115 	stw	r16,4(sp)
    2c0c:	dfc00615 	stw	ra,24(sp)
    2c10:	dd000515 	stw	r20,20(sp)
    2c14:	dcc00415 	stw	r19,16(sp)
    2c18:	dc400215 	stw	r17,8(sp)
    2c1c:	24400017 	ldw	r17,0(r4)
    2c20:	04000074 	movhi	r16,1
    2c24:	84034f04 	addi	r16,r16,3388
    2c28:	81000417 	ldw	r4,16(r16)
    2c2c:	88800503 	ldbu	r2,20(r17)
    2c30:	8980000b 	ldhu	r6,0(r17)
    2c34:	80c00017 	ldw	r3,0(r16)
    2c38:	108003cc 	andi	r2,r2,15
    2c3c:	1085883a 	add	r2,r2,r2
    2c40:	1085883a 	add	r2,r2,r2
    2c44:	31bffc04 	addi	r6,r6,-16
    2c48:	308dc83a 	sub	r6,r6,r2
    2c4c:	82000117 	ldw	r8,4(r16)
    2c50:	81c00517 	ldw	r7,20(r16)
    2c54:	30c7883a 	add	r3,r6,r3
    2c58:	20800044 	addi	r2,r4,1
    2c5c:	198d803a 	cmpltu	r6,r3,r6
    2c60:	1109803a 	cmpltu	r4,r2,r4
    2c64:	320d883a 	add	r6,r6,r8
    2c68:	21c9883a 	add	r4,r4,r7
    2c6c:	80c00015 	stw	r3,0(r16)
    2c70:	81800115 	stw	r6,4(r16)
    2c74:	80800415 	stw	r2,16(r16)
    2c78:	81000515 	stw	r4,20(r16)
    2c7c:	8880000b 	ldhu	r2,0(r17)
    2c80:	00c00ac4 	movi	r3,43
    2c84:	2825883a 	mov	r18,r5
    2c88:	18800d2e 	bgeu	r3,r2,2cc0 <icmp_input+0xc0>
    2c8c:	29000017 	ldw	r4,0(r5)
    2c90:	00ffff04 	movi	r3,-4
    2c94:	110dc83a 	sub	r6,r2,r4
    2c98:	34c000c4 	addi	r19,r6,3
    2c9c:	21000104 	addi	r4,r4,4
    2ca0:	98e6703a 	and	r19,r19,r3
    2ca4:	8929883a 	add	r20,r17,r4
    2ca8:	34c02136 	bltu	r6,r19,2d30 <icmp_input+0x130>
    2cac:	a009883a 	mov	r4,r20
    2cb0:	980b883a 	mov	r5,r19
    2cb4:	00016e00 	call	16e0 <in_cksum>
    2cb8:	10bfffcc 	andi	r2,r2,65535
    2cbc:	10001226 	beq	r2,zero,2d08 <icmp_input+0x108>
    2cc0:	80c00817 	ldw	r3,32(r16)
    2cc4:	81000917 	ldw	r4,36(r16)
    2cc8:	18800044 	addi	r2,r3,1
    2ccc:	10c7803a 	cmpltu	r3,r2,r3
    2cd0:	1907883a 	add	r3,r3,r4
    2cd4:	80800815 	stw	r2,32(r16)
    2cd8:	80c00915 	stw	r3,36(r16)
    2cdc:	8809883a 	mov	r4,r17
    2ce0:	0000a800 	call	a80 <rel_net_buf>
    2ce4:	00804044 	movi	r2,257
    2ce8:	dfc00617 	ldw	ra,24(sp)
    2cec:	dd000517 	ldw	r20,20(sp)
    2cf0:	dcc00417 	ldw	r19,16(sp)
    2cf4:	dc800317 	ldw	r18,12(sp)
    2cf8:	dc400217 	ldw	r17,8(sp)
    2cfc:	dc000117 	ldw	r16,4(sp)
    2d00:	dec00704 	addi	sp,sp,28
    2d04:	f800283a 	ret
    2d08:	a1800003 	ldbu	r6,0(r20)
    2d0c:	04c000c4 	movi	r19,3
    2d10:	34c01226 	beq	r6,r19,2d5c <icmp_input+0x15c>
    2d14:	99801e36 	bltu	r19,r6,2d90 <icmp_input+0x190>
    2d18:	303ff026 	beq	r6,zero,2cdc <icmp_input+0xdc>
    2d1c:	01000184 	movi	r4,6
    2d20:	01400074 	movhi	r5,1
    2d24:	297c7904 	addi	r5,r5,-3612
    2d28:	00080400 	call	8040 <syslog>
    2d2c:	003fe406 	br	2cc0 <icmp_input+0xc0>
    2d30:	11000104 	addi	r4,r2,4
    2d34:	8909883a 	add	r4,r17,r4
    2d38:	000b883a 	mov	r5,zero
    2d3c:	998dc83a 	sub	r6,r19,r6
    2d40:	000ed1c0 	call	ed1c <memset>
    2d44:	a009883a 	mov	r4,r20
    2d48:	980b883a 	mov	r5,r19
    2d4c:	00016e00 	call	16e0 <in_cksum>
    2d50:	10bfffcc 	andi	r2,r2,65535
    2d54:	103fec26 	beq	r2,zero,2d08 <icmp_input+0x108>
    2d58:	003fd906 	br	2cc0 <icmp_input+0xc0>
    2d5c:	90800017 	ldw	r2,0(r18)
    2d60:	8887883a 	add	r3,r17,r2
    2d64:	18c00543 	ldbu	r3,21(r3)
    2d68:	8885883a 	add	r2,r17,r2
    2d6c:	11800143 	ldbu	r6,5(r2)
    2d70:	00800184 	movi	r2,6
    2d74:	18bfd926 	beq	r3,r2,2cdc <icmp_input+0xdc>
    2d78:	01000144 	movi	r4,5
    2d7c:	01400074 	movhi	r5,1
    2d80:	297c6c04 	addi	r5,r5,-3664
    2d84:	31803fcc 	andi	r6,r6,255
    2d88:	00080400 	call	8040 <syslog>
    2d8c:	003fd306 	br	2cdc <icmp_input+0xdc>
    2d90:	00800144 	movi	r2,5
    2d94:	30802f26 	beq	r6,r2,2e54 <icmp_input+0x254>
    2d98:	00800204 	movi	r2,8
    2d9c:	30bfdf1e 	bne	r6,r2,2d1c <icmp_input+0x11c>
    2da0:	94800017 	ldw	r18,0(r18)
    2da4:	94800104 	addi	r18,r18,4
    2da8:	8ca5883a 	add	r18,r17,r18
    2dac:	90000005 	stb	zero,0(r18)
    2db0:	88c00817 	ldw	r3,32(r17)
    2db4:	88800917 	ldw	r2,36(r17)
    2db8:	9009883a 	mov	r4,r18
    2dbc:	88c00915 	stw	r3,36(r17)
    2dc0:	88800815 	stw	r2,32(r17)
    2dc4:	9000008d 	sth	zero,2(r18)
    2dc8:	88800503 	ldbu	r2,20(r17)
    2dcc:	8940000b 	ldhu	r5,0(r17)
    2dd0:	00ffff04 	movi	r3,-4
    2dd4:	108003cc 	andi	r2,r2,15
    2dd8:	1085883a 	add	r2,r2,r2
    2ddc:	1085883a 	add	r2,r2,r2
    2de0:	297ffcc4 	addi	r5,r5,-13
    2de4:	288bc83a 	sub	r5,r5,r2
    2de8:	28ca703a 	and	r5,r5,r3
    2dec:	00016e00 	call	16e0 <in_cksum>
    2df0:	9080008d 	sth	r2,2(r18)
    2df4:	88800503 	ldbu	r2,20(r17)
    2df8:	8940000b 	ldhu	r5,0(r17)
    2dfc:	81000617 	ldw	r4,24(r16)
    2e00:	108003cc 	andi	r2,r2,15
    2e04:	80c00217 	ldw	r3,8(r16)
    2e08:	1085883a 	add	r2,r2,r2
    2e0c:	1085883a 	add	r2,r2,r2
    2e10:	297ffc04 	addi	r5,r5,-16
    2e14:	288bc83a 	sub	r5,r5,r2
    2e18:	81c00317 	ldw	r7,12(r16)
    2e1c:	81800717 	ldw	r6,28(r16)
    2e20:	28c7883a 	add	r3,r5,r3
    2e24:	20800044 	addi	r2,r4,1
    2e28:	194b803a 	cmpltu	r5,r3,r5
    2e2c:	1109803a 	cmpltu	r4,r2,r4
    2e30:	218d883a 	add	r6,r4,r6
    2e34:	29cb883a 	add	r5,r5,r7
    2e38:	8809883a 	mov	r4,r17
    2e3c:	80c00215 	stw	r3,8(r16)
    2e40:	81400315 	stw	r5,12(r16)
    2e44:	80800615 	stw	r2,24(r16)
    2e48:	81800715 	stw	r6,28(r16)
    2e4c:	00028000 	call	2800 <ip_output>
    2e50:	003fa406 	br	2ce4 <icmp_input+0xe4>
    2e54:	a0800117 	ldw	r2,4(r20)
    2e58:	0009883a 	mov	r4,zero
    2e5c:	d80b883a 	mov	r5,sp
    2e60:	100e963a 	slli	r7,r2,24
    2e64:	1006d63a 	srli	r3,r2,24
    2e68:	11bfc00c 	andi	r6,r2,65280
    2e6c:	300c923a 	slli	r6,r6,8
    2e70:	1004d23a 	srli	r2,r2,8
    2e74:	19c6b03a 	or	r3,r3,r7
    2e78:	1986b03a 	or	r3,r3,r6
    2e7c:	10bfc00c 	andi	r2,r2,65280
    2e80:	1884b03a 	or	r2,r3,r2
    2e84:	d8800015 	stw	r2,0(sp)
    2e88:	00012200 	call	1220 <ip2str>
    2e8c:	01000184 	movi	r4,6
    2e90:	100d883a 	mov	r6,r2
    2e94:	01400074 	movhi	r5,1
    2e98:	297c7204 	addi	r5,r5,-3640
    2e9c:	00080400 	call	8040 <syslog>
    2ea0:	90800017 	ldw	r2,0(r18)
    2ea4:	10c00104 	addi	r3,r2,4
    2ea8:	88c7883a 	add	r3,r17,r3
    2eac:	19000043 	ldbu	r4,1(r3)
    2eb0:	993f8336 	bltu	r19,r4,2cc0 <icmp_input+0xc0>
    2eb4:	89000503 	ldbu	r4,20(r17)
    2eb8:	8940058b 	ldhu	r5,22(r17)
    2ebc:	210003cc 	andi	r4,r4,15
    2ec0:	2109883a 	add	r4,r4,r4
    2ec4:	2109883a 	add	r4,r4,r4
    2ec8:	21800904 	addi	r6,r4,36
    2ecc:	29bf7c36 	bltu	r5,r6,2cc0 <icmp_input+0xc0>
    2ed0:	10800304 	addi	r2,r2,12
    2ed4:	8885883a 	add	r2,r17,r2
    2ed8:	11800003 	ldbu	r6,0(r2)
    2edc:	318003cc 	andi	r6,r6,15
    2ee0:	318d883a 	add	r6,r6,r6
    2ee4:	318d883a 	add	r6,r6,r6
    2ee8:	2189883a 	add	r4,r4,r6
    2eec:	21000404 	addi	r4,r4,16
    2ef0:	293f7336 	bltu	r5,r4,2cc0 <icmp_input+0xc0>
    2ef4:	19000117 	ldw	r4,4(r3)
    2ef8:	11400417 	ldw	r5,16(r2)
    2efc:	01800404 	movi	r6,16
    2f00:	01c5dc04 	movi	r7,6000
    2f04:	0001a600 	call	1a60 <in4_rtredirect>
    2f08:	003f7406 	br	2cdc <icmp_input+0xdc>
    2f0c:	0001883a 	nop
    2f10:	0001883a 	nop
    2f14:	0001883a 	nop
    2f18:	0001883a 	nop
    2f1c:	0001883a 	nop

00002f20 <icmp_error>:
    2f20:	defff304 	addi	sp,sp,-52
    2f24:	dd400b15 	stw	r21,44(sp)
    2f28:	dc000615 	stw	r16,24(sp)
    2f2c:	dfc00c15 	stw	ra,48(sp)
    2f30:	dd000a15 	stw	r20,40(sp)
    2f34:	dcc00915 	stw	r19,36(sp)
    2f38:	dc800815 	stw	r18,32(sp)
    2f3c:	dc400715 	stw	r17,28(sp)
    2f40:	2c800503 	ldbu	r18,20(r5)
    2f44:	2c40000b 	ldhu	r17,0(r5)
    2f48:	008001c4 	movi	r2,7
    2f4c:	948003cc 	andi	r18,r18,15
    2f50:	94a5883a 	add	r18,r18,r18
    2f54:	94a5883a 	add	r18,r18,r18
    2f58:	8ca3c83a 	sub	r17,r17,r18
    2f5c:	2821883a 	mov	r16,r5
    2f60:	202b883a 	mov	r21,r4
    2f64:	1440012e 	bgeu	r2,r17,2f6c <icmp_error+0x4c>
    2f68:	04400204 	movi	r17,8
    2f6c:	80800817 	ldw	r2,32(r16)
    2f70:	8ca7883a 	add	r19,r17,r18
    2f74:	d8000015 	stw	zero,0(sp)
    2f78:	100a963a 	slli	r5,r2,24
    2f7c:	1006d63a 	srli	r3,r2,24
    2f80:	113fc00c 	andi	r4,r2,65280
    2f84:	2008923a 	slli	r4,r4,8
    2f88:	1004d23a 	srli	r2,r2,8
    2f8c:	1946b03a 	or	r3,r3,r5
    2f90:	1906b03a 	or	r3,r3,r4
    2f94:	10bfc00c 	andi	r2,r2,65280
    2f98:	1884b03a 	or	r2,r3,r2
    2f9c:	00c00044 	movi	r3,1
    2fa0:	d8c00115 	stw	r3,4(sp)
    2fa4:	00c01004 	movi	r3,64
    2fa8:	d8c00215 	stw	r3,8(sp)
    2fac:	00c40004 	movi	r3,4096
    2fb0:	d8c00315 	stw	r3,12(sp)
    2fb4:	d9000504 	addi	r4,sp,20
    2fb8:	99400204 	addi	r5,r19,8
    2fbc:	000d883a 	mov	r6,zero
    2fc0:	d9c00404 	addi	r7,sp,16
    2fc4:	d8800415 	stw	r2,16(sp)
    2fc8:	00014800 	call	1480 <in4_get_datagram>
    2fcc:	10000926 	beq	r2,zero,2ff4 <icmp_error+0xd4>
    2fd0:	dfc00c17 	ldw	ra,48(sp)
    2fd4:	dd400b17 	ldw	r21,44(sp)
    2fd8:	dd000a17 	ldw	r20,40(sp)
    2fdc:	dcc00917 	ldw	r19,36(sp)
    2fe0:	dc800817 	ldw	r18,32(sp)
    2fe4:	dc400717 	ldw	r17,28(sp)
    2fe8:	dc000617 	ldw	r16,24(sp)
    2fec:	dec00d04 	addi	sp,sp,52
    2ff0:	f800283a 	ret
    2ff4:	dd000517 	ldw	r20,20(sp)
    2ff8:	008000c4 	movi	r2,3
    2ffc:	81400504 	addi	r5,r16,20
    3000:	a5400a45 	stb	r21,41(r20)
    3004:	a0800a05 	stb	r2,40(r20)
    3008:	a0000b15 	stw	zero,44(r20)
    300c:	a1000c04 	addi	r4,r20,48
    3010:	980d883a 	mov	r6,r19
    3014:	000eafc0 	call	eafc <memcpy>
    3018:	8c0000c4 	addi	r16,r17,3
    301c:	00bfff04 	movi	r2,-4
    3020:	80a0703a 	and	r16,r16,r2
    3024:	a5400a04 	addi	r21,r20,40
    3028:	8c002036 	bltu	r17,r16,30ac <icmp_error+0x18c>
    302c:	91400204 	addi	r5,r18,8
    3030:	a809883a 	mov	r4,r21
    3034:	2c0b883a 	add	r5,r5,r16
    3038:	a0000a8d 	sth	zero,42(r20)
    303c:	00016e00 	call	16e0 <in_cksum>
    3040:	d9000517 	ldw	r4,20(sp)
    3044:	a0800a8d 	sth	r2,42(r20)
    3048:	00800074 	movhi	r2,1
    304c:	10834f04 	addi	r2,r2,3388
    3050:	20c00503 	ldbu	r3,20(r4)
    3054:	21c0000b 	ldhu	r7,0(r4)
    3058:	11800617 	ldw	r6,24(r2)
    305c:	18c003cc 	andi	r3,r3,15
    3060:	11400217 	ldw	r5,8(r2)
    3064:	18c7883a 	add	r3,r3,r3
    3068:	18c7883a 	add	r3,r3,r3
    306c:	39fffc04 	addi	r7,r7,-16
    3070:	38cfc83a 	sub	r7,r7,r3
    3074:	12400317 	ldw	r9,12(r2)
    3078:	12000717 	ldw	r8,28(r2)
    307c:	394b883a 	add	r5,r7,r5
    3080:	30c00044 	addi	r3,r6,1
    3084:	29cf803a 	cmpltu	r7,r5,r7
    3088:	198d803a 	cmpltu	r6,r3,r6
    308c:	3a4f883a 	add	r7,r7,r9
    3090:	320d883a 	add	r6,r6,r8
    3094:	11400215 	stw	r5,8(r2)
    3098:	11c00315 	stw	r7,12(r2)
    309c:	10c00615 	stw	r3,24(r2)
    30a0:	11800715 	stw	r6,28(r2)
    30a4:	00028000 	call	2800 <ip_output>
    30a8:	003fc906 	br	2fd0 <icmp_error+0xb0>
    30ac:	d9000517 	ldw	r4,20(sp)
    30b0:	9cc00c04 	addi	r19,r19,48
    30b4:	000b883a 	mov	r5,zero
    30b8:	24c9883a 	add	r4,r4,r19
    30bc:	844dc83a 	sub	r6,r16,r17
    30c0:	000ed1c0 	call	ed1c <memset>
    30c4:	003fd906 	br	302c <icmp_error+0x10c>
	...

000030e0 <if_slowtimo>:
    30e0:	deffff04 	addi	sp,sp,-4
    30e4:	dfc00015 	stw	ra,0(sp)
    30e8:	00042c00 	call	42c0 <tse_get_softc>
    30ec:	10c0018b 	ldhu	r3,6(r2)
    30f0:	193fffcc 	andi	r4,r3,65535
    30f4:	20000426 	beq	r4,zero,3108 <if_slowtimo+0x28>
    30f8:	18ffffc4 	addi	r3,r3,-1
    30fc:	10c0018d 	sth	r3,6(r2)
    3100:	18ffffcc 	andi	r3,r3,65535
    3104:	18000726 	beq	r3,zero,3124 <if_slowtimo+0x44>
    3108:	01000034 	movhi	r4,0
    310c:	210c3804 	addi	r4,r4,12512
    3110:	000b883a 	mov	r5,zero
    3114:	01800284 	movi	r6,10
    3118:	dfc00017 	ldw	ra,0(sp)
    311c:	dec00104 	addi	sp,sp,4
    3120:	0000f401 	jmpi	f40 <timeout>
    3124:	1009883a 	mov	r4,r2
    3128:	00042e00 	call	42e0 <tse_watchdog>
    312c:	01000034 	movhi	r4,0
    3130:	210c3804 	addi	r4,r4,12512
    3134:	000b883a 	mov	r5,zero
    3138:	01800284 	movi	r6,10
    313c:	dfc00017 	ldw	ra,0(sp)
    3140:	dec00104 	addi	sp,sp,4
    3144:	0000f401 	jmpi	f40 <timeout>
    3148:	0001883a 	nop
    314c:	0001883a 	nop
    3150:	0001883a 	nop
    3154:	0001883a 	nop
    3158:	0001883a 	nop
    315c:	0001883a 	nop

00003160 <ifinit>:
    3160:	01000034 	movhi	r4,0
    3164:	210c3804 	addi	r4,r4,12512
    3168:	000b883a 	mov	r5,zero
    316c:	01800284 	movi	r6,10
    3170:	0000f401 	jmpi	f40 <timeout>
	...

00003180 <ether_get_ifnet>:
    3180:	00800074 	movhi	r2,1
    3184:	1082cb04 	addi	r2,r2,2860
    3188:	f800283a 	ret
    318c:	0001883a 	nop
    3190:	0001883a 	nop
    3194:	0001883a 	nop
    3198:	0001883a 	nop
    319c:	0001883a 	nop

000031a0 <ether_raw_output>:
    31a0:	defffd04 	addi	sp,sp,-12
    31a4:	dc000015 	stw	r16,0(sp)
    31a8:	200b883a 	mov	r5,r4
    31ac:	2021883a 	mov	r16,r4
    31b0:	0009883a 	mov	r4,zero
    31b4:	dc400115 	stw	r17,4(sp)
    31b8:	dfc00215 	stw	ra,8(sp)
    31bc:	00079000 	call	7900 <ethernet_snd_dtq>
    31c0:	1023883a 	mov	r17,r2
    31c4:	10001c26 	beq	r2,zero,3238 <ether_raw_output+0x98>
    31c8:	00c00074 	movhi	r3,1
    31cc:	18c3a704 	addi	r3,r3,3740
    31d0:	19000a17 	ldw	r4,40(r3)
    31d4:	19400b17 	ldw	r5,44(r3)
    31d8:	20800044 	addi	r2,r4,1
    31dc:	1109803a 	cmpltu	r4,r2,r4
    31e0:	2149883a 	add	r4,r4,r5
    31e4:	18800a15 	stw	r2,40(r3)
    31e8:	19000b15 	stw	r4,44(r3)
    31ec:	808000c3 	ldbu	r2,3(r16)
    31f0:	10c03fcc 	andi	r3,r2,255
    31f4:	18c0201c 	xori	r3,r3,128
    31f8:	18ffe004 	addi	r3,r3,-128
    31fc:	18000b16 	blt	r3,zero,322c <ether_raw_output+0x8c>
    3200:	8009883a 	mov	r4,r16
    3204:	0000a800 	call	a80 <rel_net_buf>
    3208:	00042c00 	call	42c0 <tse_get_softc>
    320c:	1009883a 	mov	r4,r2
    3210:	00042400 	call	4240 <tse_reset>
    3214:	8805883a 	mov	r2,r17
    3218:	dfc00217 	ldw	ra,8(sp)
    321c:	dc400117 	ldw	r17,4(sp)
    3220:	dc000017 	ldw	r16,0(sp)
    3224:	dec00304 	addi	sp,sp,12
    3228:	f800283a 	ret
    322c:	10801fcc 	andi	r2,r2,127
    3230:	808000c5 	stb	r2,3(r16)
    3234:	003ff406 	br	3208 <ether_raw_output+0x68>
    3238:	0009883a 	mov	r4,zero
    323c:	01400044 	movi	r5,1
    3240:	000c5c00 	call	c5c0 <SetEvent>
    3244:	8805883a 	mov	r2,r17
    3248:	dfc00217 	ldw	ra,8(sp)
    324c:	dc400117 	ldw	r17,4(sp)
    3250:	dc000017 	ldw	r16,0(sp)
    3254:	dec00304 	addi	sp,sp,12
    3258:	f800283a 	ret
    325c:	0001883a 	nop

00003260 <ether_output>:
    3260:	defffd04 	addi	sp,sp,-12
    3264:	dc400115 	stw	r17,4(sp)
    3268:	dc000015 	stw	r16,0(sp)
    326c:	dfc00215 	stw	ra,8(sp)
    3270:	2021883a 	mov	r16,r4
    3274:	2823883a 	mov	r17,r5
    3278:	00042c00 	call	42c0 <tse_get_softc>
    327c:	11000003 	ldbu	r4,0(r2)
    3280:	80c00304 	addi	r3,r16,12
    3284:	19000005 	stb	r4,0(r3)
    3288:	11000043 	ldbu	r4,1(r2)
    328c:	80c004c3 	ldbu	r3,19(r16)
    3290:	81000345 	stb	r4,13(r16)
    3294:	11000083 	ldbu	r4,2(r2)
    3298:	1806923a 	slli	r3,r3,8
    329c:	81000385 	stb	r4,14(r16)
    32a0:	110000c3 	ldbu	r4,3(r2)
    32a4:	810003c5 	stb	r4,15(r16)
    32a8:	11000103 	ldbu	r4,4(r2)
    32ac:	81000405 	stb	r4,16(r16)
    32b0:	11000143 	ldbu	r4,5(r2)
    32b4:	81000445 	stb	r4,17(r16)
    32b8:	81000483 	ldbu	r4,18(r16)
    32bc:	1906b03a 	or	r3,r3,r4
    32c0:	1808923a 	slli	r4,r3,8
    32c4:	1806d23a 	srli	r3,r3,8
    32c8:	20c6b03a 	or	r3,r4,r3
    32cc:	18ffffcc 	andi	r3,r3,65535
    32d0:	01020004 	movi	r4,2048
    32d4:	19001926 	beq	r3,r4,333c <ether_output+0xdc>
    32d8:	808000c3 	ldbu	r2,3(r16)
    32dc:	10c03fcc 	andi	r3,r2,255
    32e0:	18c0201c 	xori	r3,r3,128
    32e4:	18ffe004 	addi	r3,r3,-128
    32e8:	18001116 	blt	r3,zero,3330 <ether_output+0xd0>
    32ec:	8009883a 	mov	r4,r16
    32f0:	0000a800 	call	a80 <rel_net_buf>
    32f4:	00bffbc4 	movi	r2,-17
    32f8:	00c00074 	movhi	r3,1
    32fc:	18c3a704 	addi	r3,r3,3740
    3300:	19400a17 	ldw	r5,40(r3)
    3304:	19800b17 	ldw	r6,44(r3)
    3308:	29000044 	addi	r4,r5,1
    330c:	214b803a 	cmpltu	r5,r4,r5
    3310:	298b883a 	add	r5,r5,r6
    3314:	19000a15 	stw	r4,40(r3)
    3318:	19400b15 	stw	r5,44(r3)
    331c:	dfc00217 	ldw	ra,8(sp)
    3320:	dc400117 	ldw	r17,4(sp)
    3324:	dc000017 	ldw	r16,0(sp)
    3328:	dec00304 	addi	sp,sp,12
    332c:	f800283a 	ret
    3330:	10801fcc 	andi	r2,r2,127
    3334:	808000c5 	stb	r2,3(r16)
    3338:	003fee06 	br	32f4 <ether_output+0x94>
    333c:	89800017 	ldw	r6,0(r17)
    3340:	1009883a 	mov	r4,r2
    3344:	800b883a 	mov	r5,r16
    3348:	0003d200 	call	3d20 <arp_resolve>
    334c:	10803fcc 	andi	r2,r2,255
    3350:	1000061e 	bne	r2,zero,336c <ether_output+0x10c>
    3354:	0005883a 	mov	r2,zero
    3358:	dfc00217 	ldw	ra,8(sp)
    335c:	dc400117 	ldw	r17,4(sp)
    3360:	dc000017 	ldw	r16,0(sp)
    3364:	dec00304 	addi	sp,sp,12
    3368:	f800283a 	ret
    336c:	8009883a 	mov	r4,r16
    3370:	00031a00 	call	31a0 <ether_raw_output>
    3374:	103fe926 	beq	r2,zero,331c <ether_output+0xbc>
    3378:	003fdf06 	br	32f8 <ether_output+0x98>
    337c:	0001883a 	nop

00003380 <TaskMainETHER_OUTPUT_TASK>:
    3380:	defffb04 	addi	sp,sp,-20
    3384:	d809883a 	mov	r4,sp
    3388:	dfc00415 	stw	ra,16(sp)
    338c:	dc400315 	stw	r17,12(sp)
    3390:	dc000215 	stw	r16,8(sp)
    3394:	000c1c00 	call	c1c0 <GetTaskID>
    3398:	d9800017 	ldw	r6,0(sp)
    339c:	01000144 	movi	r4,5
    33a0:	01400074 	movhi	r5,1
    33a4:	297c8004 	addi	r5,r5,-3584
    33a8:	00080400 	call	8040 <syslog>
    33ac:	00042c00 	call	42c0 <tse_get_softc>
    33b0:	1023883a 	mov	r17,r2
    33b4:	04000074 	movhi	r16,1
    33b8:	8403a704 	addi	r16,r16,3740
    33bc:	0009883a 	mov	r4,zero
    33c0:	d9400104 	addi	r5,sp,4
    33c4:	00079200 	call	7920 <ethernet_rcv_dtq>
    33c8:	01000044 	movi	r4,1
    33cc:	10000826 	beq	r2,zero,33f0 <TaskMainETHER_OUTPUT_TASK+0x70>
    33d0:	000cc600 	call	cc60 <WaitEvent>
    33d4:	01000044 	movi	r4,1
    33d8:	000c8200 	call	c820 <ClearEvent>
    33dc:	0009883a 	mov	r4,zero
    33e0:	d9400104 	addi	r5,sp,4
    33e4:	00079200 	call	7920 <ethernet_rcv_dtq>
    33e8:	01000044 	movi	r4,1
    33ec:	103ff81e 	bne	r2,zero,33d0 <TaskMainETHER_OUTPUT_TASK+0x50>
    33f0:	d8800117 	ldw	r2,4(sp)
    33f4:	81000617 	ldw	r4,24(r16)
    33f8:	80c00217 	ldw	r3,8(r16)
    33fc:	1140000b 	ldhu	r5,0(r2)
    3400:	81c00317 	ldw	r7,12(r16)
    3404:	81800717 	ldw	r6,28(r16)
    3408:	28c7883a 	add	r3,r5,r3
    340c:	20800044 	addi	r2,r4,1
    3410:	194b803a 	cmpltu	r5,r3,r5
    3414:	1109803a 	cmpltu	r4,r2,r4
    3418:	29cb883a 	add	r5,r5,r7
    341c:	2189883a 	add	r4,r4,r6
    3420:	81400315 	stw	r5,12(r16)
    3424:	80c00215 	stw	r3,8(r16)
    3428:	80800615 	stw	r2,24(r16)
    342c:	81000715 	stw	r4,28(r16)
    3430:	89000317 	ldw	r4,12(r17)
    3434:	000cc600 	call	cc60 <WaitEvent>
    3438:	89000317 	ldw	r4,12(r17)
    343c:	000c8200 	call	c820 <ClearEvent>
    3440:	d9400117 	ldw	r5,4(sp)
    3444:	8809883a 	mov	r4,r17
    3448:	00045c00 	call	45c0 <tse_start>
    344c:	003fdb06 	br	33bc <TaskMainETHER_OUTPUT_TASK+0x3c>
    3450:	0001883a 	nop
    3454:	0001883a 	nop
    3458:	0001883a 	nop
    345c:	0001883a 	nop

00003460 <TaskMainETHER_INPUT_TASK>:
    3460:	defff904 	addi	sp,sp,-28
    3464:	dfc00615 	stw	ra,24(sp)
    3468:	dd000515 	stw	r20,20(sp)
    346c:	dcc00415 	stw	r19,16(sp)
    3470:	dc800315 	stw	r18,12(sp)
    3474:	dc400215 	stw	r17,8(sp)
    3478:	dc000115 	stw	r16,4(sp)
    347c:	00031600 	call	3160 <ifinit>
    3480:	00042c00 	call	42c0 <tse_get_softc>
    3484:	1009883a 	mov	r4,r2
    3488:	1021883a 	mov	r16,r2
    348c:	00043400 	call	4340 <tse_probe>
    3490:	8009883a 	mov	r4,r16
    3494:	00043800 	call	4380 <tse_init>
    3498:	0009883a 	mov	r4,zero
    349c:	000b9600 	call	b960 <ActivateTask>
    34a0:	81400317 	ldw	r5,12(r16)
    34a4:	0009883a 	mov	r4,zero
    34a8:	04400074 	movhi	r17,1
    34ac:	8c43a704 	addi	r17,r17,3740
    34b0:	000c5c00 	call	c5c0 <SetEvent>
    34b4:	01000084 	movi	r4,2
    34b8:	000b9600 	call	b960 <ActivateTask>
    34bc:	d809883a 	mov	r4,sp
    34c0:	000c1c00 	call	c1c0 <GetTaskID>
    34c4:	dc800017 	ldw	r18,0(sp)
    34c8:	0009883a 	mov	r4,zero
    34cc:	800b883a 	mov	r5,r16
    34d0:	0000d400 	call	d40 <mac2str>
    34d4:	900d883a 	mov	r6,r18
    34d8:	100f883a 	mov	r7,r2
    34dc:	01000144 	movi	r4,5
    34e0:	01400074 	movhi	r5,1
    34e4:	297c8704 	addi	r5,r5,-3556
    34e8:	00080400 	call	8040 <syslog>
    34ec:	0003ee00 	call	3ee0 <arp_init>
    34f0:	00800074 	movhi	r2,1
    34f4:	1082cb04 	addi	r2,r2,2860
    34f8:	14000015 	stw	r16,0(r2)
    34fc:	8825883a 	mov	r18,r17
    3500:	04c20004 	movi	r19,2048
    3504:	05020184 	movi	r20,2054
    3508:	81000417 	ldw	r4,16(r16)
    350c:	000cc600 	call	cc60 <WaitEvent>
    3510:	81000417 	ldw	r4,16(r16)
    3514:	000c8200 	call	c820 <ClearEvent>
    3518:	8009883a 	mov	r4,r16
    351c:	00043c00 	call	43c0 <tse_read>
    3520:	103ff926 	beq	r2,zero,3508 <TaskMainETHER_INPUT_TASK+0xa8>
    3524:	1180000b 	ldhu	r6,0(r2)
    3528:	89400417 	ldw	r5,16(r17)
    352c:	89000017 	ldw	r4,0(r17)
    3530:	8a000117 	ldw	r8,4(r17)
    3534:	89c00517 	ldw	r7,20(r17)
    3538:	3109883a 	add	r4,r6,r4
    353c:	28c00044 	addi	r3,r5,1
    3540:	218d803a 	cmpltu	r6,r4,r6
    3544:	194b803a 	cmpltu	r5,r3,r5
    3548:	29cb883a 	add	r5,r5,r7
    354c:	320d883a 	add	r6,r6,r8
    3550:	89000015 	stw	r4,0(r17)
    3554:	89800115 	stw	r6,4(r17)
    3558:	88c00415 	stw	r3,16(r17)
    355c:	89400515 	stw	r5,20(r17)
    3560:	10c004c3 	ldbu	r3,19(r2)
    3564:	11400483 	ldbu	r5,18(r2)
    3568:	1009883a 	mov	r4,r2
    356c:	1806923a 	slli	r3,r3,8
    3570:	1946b03a 	or	r3,r3,r5
    3574:	180a923a 	slli	r5,r3,8
    3578:	1806d23a 	srli	r3,r3,8
    357c:	28c6b03a 	or	r3,r5,r3
    3580:	18ffffcc 	andi	r3,r3,65535
    3584:	1cc00a26 	beq	r3,r19,35b0 <TaskMainETHER_INPUT_TASK+0x150>
    3588:	1d000c26 	beq	r3,r20,35bc <TaskMainETHER_INPUT_TASK+0x15c>
    358c:	90c00817 	ldw	r3,32(r18)
    3590:	91400917 	ldw	r5,36(r18)
    3594:	18800044 	addi	r2,r3,1
    3598:	10c7803a 	cmpltu	r3,r2,r3
    359c:	1947883a 	add	r3,r3,r5
    35a0:	90800815 	stw	r2,32(r18)
    35a4:	90c00915 	stw	r3,36(r18)
    35a8:	0000a800 	call	a80 <rel_net_buf>
    35ac:	003fd606 	br	3508 <TaskMainETHER_INPUT_TASK+0xa8>
    35b0:	1009883a 	mov	r4,r2
    35b4:	00020400 	call	2040 <ip_input>
    35b8:	003fd306 	br	3508 <TaskMainETHER_INPUT_TASK+0xa8>
    35bc:	8009883a 	mov	r4,r16
    35c0:	100b883a 	mov	r5,r2
    35c4:	0003a200 	call	3a20 <arp_input>
    35c8:	003fcf06 	br	3508 <TaskMainETHER_INPUT_TASK+0xa8>
	...

000035e0 <arp_timer>:
    35e0:	defff904 	addi	sp,sp,-28
    35e4:	dc000015 	stw	r16,0(sp)
    35e8:	010000c4 	movi	r4,3
    35ec:	04000074 	movhi	r16,1
    35f0:	84040404 	addi	r16,r16,4112
    35f4:	dd400515 	stw	r21,20(sp)
    35f8:	dd000415 	stw	r20,16(sp)
    35fc:	dcc00315 	stw	r19,12(sp)
    3600:	dc800215 	stw	r18,8(sp)
    3604:	dc400115 	stw	r17,4(sp)
    3608:	dfc00615 	stw	ra,24(sp)
    360c:	84bffe04 	addi	r18,r16,-8
    3610:	000d0400 	call	d040 <GetResource>
    3614:	04400244 	movi	r17,9
    3618:	857fda04 	addi	r21,r16,-152
    361c:	05000074 	movhi	r20,1
    3620:	a5035b04 	addi	r20,r20,3436
    3624:	04ffffc4 	movi	r19,-1
    3628:	8080000b 	ldhu	r2,0(r16)
    362c:	10ff6a04 	addi	r3,r2,-600
    3630:	10bfffcc 	andi	r2,r2,65535
    3634:	193fffcc 	andi	r4,r3,65535
    3638:	10001326 	beq	r2,zero,3688 <arp_timer+0xa8>
    363c:	80c0000d 	sth	r3,0(r16)
    3640:	2000111e 	bne	r4,zero,3688 <arp_timer+0xa8>
    3644:	90800017 	ldw	r2,0(r18)
    3648:	1009883a 	mov	r4,r2
    364c:	10000826 	beq	r2,zero,3670 <arp_timer+0x90>
    3650:	a0c00417 	ldw	r3,16(r20)
    3654:	a1400517 	ldw	r5,20(r20)
    3658:	18800044 	addi	r2,r3,1
    365c:	10c7803a 	cmpltu	r3,r2,r3
    3660:	1947883a 	add	r3,r3,r5
    3664:	a0800415 	stw	r2,16(r20)
    3668:	a0c00515 	stw	r3,20(r20)
    366c:	0000a800 	call	a80 <rel_net_buf>
    3670:	8804913a 	slli	r2,r17,4
    3674:	1545883a 	add	r2,r2,r21
    3678:	10000015 	stw	zero,0(r2)
    367c:	10000115 	stw	zero,4(r2)
    3680:	10000215 	stw	zero,8(r2)
    3684:	10000315 	stw	zero,12(r2)
    3688:	8c7fffc4 	addi	r17,r17,-1
    368c:	843ffc04 	addi	r16,r16,-16
    3690:	94bffc04 	addi	r18,r18,-16
    3694:	8cffe41e 	bne	r17,r19,3628 <arp_timer+0x48>
    3698:	010000c4 	movi	r4,3
    369c:	000d3e00 	call	d3e0 <ReleaseResource>
    36a0:	01000034 	movhi	r4,0
    36a4:	210d7804 	addi	r4,r4,13792
    36a8:	000b883a 	mov	r5,zero
    36ac:	01809604 	movi	r6,600
    36b0:	dfc00617 	ldw	ra,24(sp)
    36b4:	dd400517 	ldw	r21,20(sp)
    36b8:	dd000417 	ldw	r20,16(sp)
    36bc:	dcc00317 	ldw	r19,12(sp)
    36c0:	dc800217 	ldw	r18,8(sp)
    36c4:	dc400117 	ldw	r17,4(sp)
    36c8:	dc000017 	ldw	r16,0(sp)
    36cc:	dec00704 	addi	sp,sp,28
    36d0:	0000f401 	jmpi	f40 <timeout>
    36d4:	0001883a 	nop
    36d8:	0001883a 	nop
    36dc:	0001883a 	nop

000036e0 <arp_lookup.constprop.1>:
    36e0:	defffc04 	addi	sp,sp,-16
    36e4:	dc000015 	stw	r16,0(sp)
    36e8:	04000074 	movhi	r16,1
    36ec:	84040404 	addi	r16,r16,4112
    36f0:	dc800215 	stw	r18,8(sp)
    36f4:	dfc00315 	stw	ra,12(sp)
    36f8:	dc400115 	stw	r17,4(sp)
    36fc:	2025883a 	mov	r18,r4
    3700:	817fff04 	addi	r5,r16,-4
    3704:	8005883a 	mov	r2,r16
    3708:	00c00244 	movi	r3,9
    370c:	01ffffc4 	movi	r7,-1
    3710:	1180000b 	ldhu	r6,0(r2)
    3714:	10bffc04 	addi	r2,r2,-16
    3718:	30000226 	beq	r6,zero,3724 <arp_lookup.constprop.1+0x44>
    371c:	29800017 	ldw	r6,0(r5)
    3720:	34803426 	beq	r6,r18,37f4 <arp_lookup.constprop.1+0x114>
    3724:	18ffffc4 	addi	r3,r3,-1
    3728:	297ffc04 	addi	r5,r5,-16
    372c:	19fff81e 	bne	r3,r7,3710 <arp_lookup.constprop.1+0x30>
    3730:	00800074 	movhi	r2,1
    3734:	10840404 	addi	r2,r2,4112
    3738:	04400244 	movi	r17,9
    373c:	013fffc4 	movi	r4,-1
    3740:	10c0000b 	ldhu	r3,0(r2)
    3744:	10bffc04 	addi	r2,r2,-16
    3748:	18001f26 	beq	r3,zero,37c8 <arp_lookup.constprop.1+0xe8>
    374c:	8c7fffc4 	addi	r17,r17,-1
    3750:	893ffb1e 	bne	r17,r4,3740 <arp_lookup.constprop.1+0x60>
    3754:	01000144 	movi	r4,5
    3758:	01400074 	movhi	r5,1
    375c:	297c9204 	addi	r5,r5,-3512
    3760:	01800284 	movi	r6,10
    3764:	00080400 	call	8040 <syslog>
    3768:	01c00284 	movi	r7,10
    376c:	00800244 	movi	r2,9
    3770:	013fffc4 	movi	r4,-1
    3774:	80c0000b 	ldhu	r3,0(r16)
    3778:	897fffcc 	andi	r5,r17,65535
    377c:	843ffc04 	addi	r16,r16,-16
    3780:	19bfffcc 	andi	r6,r3,65535
    3784:	3140022e 	bgeu	r6,r5,3790 <arp_lookup.constprop.1+0xb0>
    3788:	100f883a 	mov	r7,r2
    378c:	1823883a 	mov	r17,r3
    3790:	10bfffc4 	addi	r2,r2,-1
    3794:	113ff71e 	bne	r2,r4,3774 <arp_lookup.constprop.1+0x94>
    3798:	380e913a 	slli	r7,r7,4
    379c:	00800074 	movhi	r2,1
    37a0:	1083de04 	addi	r2,r2,3960
    37a4:	11c5883a 	add	r2,r2,r7
    37a8:	1000020d 	sth	zero,8(r2)
    37ac:	14800115 	stw	r18,4(r2)
    37b0:	dfc00317 	ldw	ra,12(sp)
    37b4:	dc800217 	ldw	r18,8(sp)
    37b8:	dc400117 	ldw	r17,4(sp)
    37bc:	dc000017 	ldw	r16,0(sp)
    37c0:	dec00404 	addi	sp,sp,16
    37c4:	f800283a 	ret
    37c8:	8822913a 	slli	r17,r17,4
    37cc:	00800074 	movhi	r2,1
    37d0:	1083de04 	addi	r2,r2,3960
    37d4:	1445883a 	add	r2,r2,r17
    37d8:	14800115 	stw	r18,4(r2)
    37dc:	dfc00317 	ldw	ra,12(sp)
    37e0:	dc800217 	ldw	r18,8(sp)
    37e4:	dc400117 	ldw	r17,4(sp)
    37e8:	dc000017 	ldw	r16,0(sp)
    37ec:	dec00404 	addi	sp,sp,16
    37f0:	f800283a 	ret
    37f4:	1806913a 	slli	r3,r3,4
    37f8:	00800074 	movhi	r2,1
    37fc:	1083de04 	addi	r2,r2,3960
    3800:	1885883a 	add	r2,r3,r2
    3804:	dfc00317 	ldw	ra,12(sp)
    3808:	dc800217 	ldw	r18,8(sp)
    380c:	dc400117 	ldw	r17,4(sp)
    3810:	dc000017 	ldw	r16,0(sp)
    3814:	dec00404 	addi	sp,sp,16
    3818:	f800283a 	ret
    381c:	0001883a 	nop

00003820 <arp_request>:
    3820:	defff904 	addi	sp,sp,-28
    3824:	dc000315 	stw	r16,12(sp)
    3828:	04000074 	movhi	r16,1
    382c:	84038304 	addi	r16,r16,3596
    3830:	81c00217 	ldw	r7,8(r16)
    3834:	81800617 	ldw	r6,24(r16)
    3838:	82400317 	ldw	r9,12(r16)
    383c:	82000717 	ldw	r8,28(r16)
    3840:	38c00704 	addi	r3,r7,28
    3844:	30800044 	addi	r2,r6,1
    3848:	19cf803a 	cmpltu	r7,r3,r7
    384c:	118d803a 	cmpltu	r6,r2,r6
    3850:	dc400415 	stw	r17,16(sp)
    3854:	d9400215 	stw	r5,8(sp)
    3858:	3a4f883a 	add	r7,r7,r9
    385c:	320d883a 	add	r6,r6,r8
    3860:	2023883a 	mov	r17,r4
    3864:	01400b04 	movi	r5,44
    3868:	d809883a 	mov	r4,sp
    386c:	dfc00615 	stw	ra,24(sp)
    3870:	dc800515 	stw	r18,20(sp)
    3874:	80c00215 	stw	r3,8(r16)
    3878:	81c00315 	stw	r7,12(r16)
    387c:	80800615 	stw	r2,24(r16)
    3880:	81800715 	stw	r6,28(r16)
    3884:	0000a600 	call	a60 <get_net_buf>
    3888:	10000d26 	beq	r2,zero,38c0 <arp_request+0xa0>
    388c:	81000a17 	ldw	r4,40(r16)
    3890:	81400b17 	ldw	r5,44(r16)
    3894:	20c00044 	addi	r3,r4,1
    3898:	1909803a 	cmpltu	r4,r3,r4
    389c:	2149883a 	add	r4,r4,r5
    38a0:	80c00a15 	stw	r3,40(r16)
    38a4:	81000b15 	stw	r4,44(r16)
    38a8:	dfc00617 	ldw	ra,24(sp)
    38ac:	dc800517 	ldw	r18,20(sp)
    38b0:	dc400417 	ldw	r17,16(sp)
    38b4:	dc000317 	ldw	r16,12(sp)
    38b8:	dec00704 	addi	sp,sp,28
    38bc:	f800283a 	ret
    38c0:	00c00074 	movhi	r3,1
    38c4:	18c2ff04 	addi	r3,r3,3068
    38c8:	d8800017 	ldw	r2,0(sp)
    38cc:	1a000003 	ldbu	r8,0(r3)
    38d0:	19c00043 	ldbu	r7,1(r3)
    38d4:	19800083 	ldbu	r6,2(r3)
    38d8:	194000c3 	ldbu	r5,3(r3)
    38dc:	19000103 	ldbu	r4,4(r3)
    38e0:	18c00143 	ldbu	r3,5(r3)
    38e4:	12000185 	stb	r8,6(r2)
    38e8:	11800205 	stb	r6,8(r2)
    38ec:	11400245 	stb	r5,9(r2)
    38f0:	10c002c5 	stb	r3,11(r2)
    38f4:	11c001c5 	stb	r7,7(r2)
    38f8:	11000285 	stb	r4,10(r2)
    38fc:	89000003 	ldbu	r4,0(r17)
    3900:	10c00304 	addi	r3,r2,12
    3904:	01800204 	movi	r6,8
    3908:	19000005 	stb	r4,0(r3)
    390c:	89c00043 	ldbu	r7,1(r17)
    3910:	01400184 	movi	r5,6
    3914:	01004004 	movi	r4,256
    3918:	11c00345 	stb	r7,13(r2)
    391c:	89c00083 	ldbu	r7,2(r17)
    3920:	11c00385 	stb	r7,14(r2)
    3924:	89c000c3 	ldbu	r7,3(r17)
    3928:	11c003c5 	stb	r7,15(r2)
    392c:	89c00103 	ldbu	r7,4(r17)
    3930:	11c00405 	stb	r7,16(r2)
    3934:	89c00143 	ldbu	r7,5(r17)
    3938:	11800485 	stb	r6,18(r2)
    393c:	114004c5 	stb	r5,19(r2)
    3940:	dc800017 	ldw	r18,0(sp)
    3944:	11c00445 	stb	r7,17(r2)
    3948:	00800104 	movi	r2,4
    394c:	9100050d 	sth	r4,20(r18)
    3950:	9180058d 	sth	r6,22(r18)
    3954:	91400605 	stb	r5,24(r18)
    3958:	9100068d 	sth	r4,26(r18)
    395c:	90800645 	stb	r2,25(r18)
    3960:	00031800 	call	3180 <ether_get_ifnet>
    3964:	89000003 	ldbu	r4,0(r17)
    3968:	90c00704 	addi	r3,r18,28
    396c:	11c00117 	ldw	r7,4(r2)
    3970:	19000005 	stb	r4,0(r3)
    3974:	89400043 	ldbu	r5,1(r17)
    3978:	90800984 	addi	r2,r18,38
    397c:	91000884 	addi	r4,r18,34
    3980:	91400745 	stb	r5,29(r18)
    3984:	89800083 	ldbu	r6,2(r17)
    3988:	d9c00115 	stw	r7,4(sp)
    398c:	d9400104 	addi	r5,sp,4
    3990:	91800785 	stb	r6,30(r18)
    3994:	898000c3 	ldbu	r6,3(r17)
    3998:	918007c5 	stb	r6,31(r18)
    399c:	89800103 	ldbu	r6,4(r17)
    39a0:	91800805 	stb	r6,32(r18)
    39a4:	89800143 	ldbu	r6,5(r17)
    39a8:	91800845 	stb	r6,33(r18)
    39ac:	10000005 	stb	zero,0(r2)
    39b0:	900009c5 	stb	zero,39(r18)
    39b4:	90000a05 	stb	zero,40(r18)
    39b8:	90000a45 	stb	zero,41(r18)
    39bc:	90000a85 	stb	zero,42(r18)
    39c0:	90000ac5 	stb	zero,43(r18)
    39c4:	0000ec00 	call	ec0 <rev_memcpy_word>
    39c8:	91000b04 	addi	r4,r18,44
    39cc:	d9400204 	addi	r5,sp,8
    39d0:	0000ec00 	call	ec0 <rev_memcpy_word>
    39d4:	d9000017 	ldw	r4,0(sp)
    39d8:	00031a00 	call	31a0 <ether_raw_output>
    39dc:	103fab1e 	bne	r2,zero,388c <arp_request+0x6c>
    39e0:	dfc00617 	ldw	ra,24(sp)
    39e4:	dc800517 	ldw	r18,20(sp)
    39e8:	dc400417 	ldw	r17,16(sp)
    39ec:	dc000317 	ldw	r16,12(sp)
    39f0:	dec00704 	addi	sp,sp,28
    39f4:	f800283a 	ret
    39f8:	0001883a 	nop
    39fc:	0001883a 	nop

00003a00 <arp_get_cache>:
    3a00:	00800074 	movhi	r2,1
    3a04:	1083de04 	addi	r2,r2,3960
    3a08:	f800283a 	ret
    3a0c:	0001883a 	nop
    3a10:	0001883a 	nop
    3a14:	0001883a 	nop
    3a18:	0001883a 	nop
    3a1c:	0001883a 	nop

00003a20 <arp_input>:
    3a20:	defff604 	addi	sp,sp,-40
    3a24:	dc800415 	stw	r18,16(sp)
    3a28:	dc400315 	stw	r17,12(sp)
    3a2c:	dc000215 	stw	r16,8(sp)
    3a30:	dfc00915 	stw	ra,36(sp)
    3a34:	dd800815 	stw	r22,32(sp)
    3a38:	dd400715 	stw	r21,28(sp)
    3a3c:	dd000615 	stw	r20,24(sp)
    3a40:	dcc00515 	stw	r19,20(sp)
    3a44:	04000074 	movhi	r16,1
    3a48:	84038304 	addi	r16,r16,3596
    3a4c:	2980000b 	ldhu	r6,0(r5)
    3a50:	2823883a 	mov	r17,r5
    3a54:	80c00017 	ldw	r3,0(r16)
    3a58:	81400417 	ldw	r5,16(r16)
    3a5c:	31bffc04 	addi	r6,r6,-16
    3a60:	82000117 	ldw	r8,4(r16)
    3a64:	81c00517 	ldw	r7,20(r16)
    3a68:	30c7883a 	add	r3,r6,r3
    3a6c:	28800044 	addi	r2,r5,1
    3a70:	198d803a 	cmpltu	r6,r3,r6
    3a74:	114b803a 	cmpltu	r5,r2,r5
    3a78:	320d883a 	add	r6,r6,r8
    3a7c:	29cb883a 	add	r5,r5,r7
    3a80:	80800415 	stw	r2,16(r16)
    3a84:	80c00015 	stw	r3,0(r16)
    3a88:	81800115 	stw	r6,4(r16)
    3a8c:	81400515 	stw	r5,20(r16)
    3a90:	88c0000b 	ldhu	r3,0(r17)
    3a94:	008005c4 	movi	r2,23
    3a98:	2025883a 	mov	r18,r4
    3a9c:	10c0092e 	bgeu	r2,r3,3ac4 <arp_input+0xa4>
    3aa0:	8880050b 	ldhu	r2,20(r17)
    3aa4:	100c923a 	slli	r6,r2,8
    3aa8:	1004d23a 	srli	r2,r2,8
    3aac:	3084b03a 	or	r2,r6,r2
    3ab0:	10bfffcc 	andi	r2,r2,65535
    3ab4:	10a0001c 	xori	r2,r2,32768
    3ab8:	10a00004 	addi	r2,r2,-32768
    3abc:	01800044 	movi	r6,1
    3ac0:	11801326 	beq	r2,r6,3b10 <arp_input+0xf0>
    3ac4:	80c00817 	ldw	r3,32(r16)
    3ac8:	81400917 	ldw	r5,36(r16)
    3acc:	8809883a 	mov	r4,r17
    3ad0:	18800044 	addi	r2,r3,1
    3ad4:	10c7803a 	cmpltu	r3,r2,r3
    3ad8:	1947883a 	add	r3,r3,r5
    3adc:	80800815 	stw	r2,32(r16)
    3ae0:	80c00915 	stw	r3,36(r16)
    3ae4:	0000a800 	call	a80 <rel_net_buf>
    3ae8:	dfc00917 	ldw	ra,36(sp)
    3aec:	dd800817 	ldw	r22,32(sp)
    3af0:	dd400717 	ldw	r21,28(sp)
    3af4:	dd000617 	ldw	r20,24(sp)
    3af8:	dcc00517 	ldw	r19,20(sp)
    3afc:	dc800417 	ldw	r18,16(sp)
    3b00:	dc400317 	ldw	r17,12(sp)
    3b04:	dc000217 	ldw	r16,8(sp)
    3b08:	dec00a04 	addi	sp,sp,40
    3b0c:	f800283a 	ret
    3b10:	8880058b 	ldhu	r2,22(r17)
    3b14:	1008923a 	slli	r4,r2,8
    3b18:	1004d23a 	srli	r2,r2,8
    3b1c:	2084b03a 	or	r2,r4,r2
    3b20:	10bfffcc 	andi	r2,r2,65535
    3b24:	10a0001c 	xori	r2,r2,32768
    3b28:	10a00004 	addi	r2,r2,-32768
    3b2c:	01020004 	movi	r4,2048
    3b30:	113fe41e 	bne	r2,r4,3ac4 <arp_input+0xa4>
    3b34:	00800ac4 	movi	r2,43
    3b38:	10ffe22e 	bgeu	r2,r3,3ac4 <arp_input+0xa4>
    3b3c:	00031800 	call	3180 <ether_get_ifnet>
    3b40:	8d000884 	addi	r20,r17,34
    3b44:	d9000104 	addi	r4,sp,4
    3b48:	a00b883a 	mov	r5,r20
    3b4c:	102d883a 	mov	r22,r2
    3b50:	8d400b04 	addi	r21,r17,44
    3b54:	0000ec00 	call	ec0 <rev_memcpy_word>
    3b58:	d809883a 	mov	r4,sp
    3b5c:	a80b883a 	mov	r5,r21
    3b60:	0000ec00 	call	ec0 <rev_memcpy_word>
    3b64:	8cc00704 	addi	r19,r17,28
    3b68:	9809883a 	mov	r4,r19
    3b6c:	900b883a 	mov	r5,r18
    3b70:	01800184 	movi	r6,6
    3b74:	000ea800 	call	ea80 <memcmp>
    3b78:	10000e26 	beq	r2,zero,3bb4 <arp_input+0x194>
    3b7c:	9809883a 	mov	r4,r19
    3b80:	01400074 	movhi	r5,1
    3b84:	2942ff04 	addi	r5,r5,3068
    3b88:	01800184 	movi	r6,6
    3b8c:	000ea800 	call	ea80 <memcmp>
    3b90:	10000826 	beq	r2,zero,3bb4 <arp_input+0x194>
    3b94:	b0800117 	ldw	r2,4(r22)
    3b98:	d8c00117 	ldw	r3,4(sp)
    3b9c:	10c00d26 	beq	r2,r3,3bd4 <arp_input+0x1b4>
    3ba0:	d8c00017 	ldw	r3,0(sp)
    3ba4:	10c03b26 	beq	r2,r3,3c94 <arp_input+0x274>
    3ba8:	8809883a 	mov	r4,r17
    3bac:	0000a800 	call	a80 <rel_net_buf>
    3bb0:	003fcd06 	br	3ae8 <arp_input+0xc8>
    3bb4:	80c00817 	ldw	r3,32(r16)
    3bb8:	81000917 	ldw	r4,36(r16)
    3bbc:	18800044 	addi	r2,r3,1
    3bc0:	10c7803a 	cmpltu	r3,r2,r3
    3bc4:	1907883a 	add	r3,r3,r4
    3bc8:	80800815 	stw	r2,32(r16)
    3bcc:	80c00915 	stw	r3,36(r16)
    3bd0:	003ff506 	br	3ba8 <arp_input+0x188>
    3bd4:	0009883a 	mov	r4,zero
    3bd8:	980b883a 	mov	r5,r19
    3bdc:	0000d400 	call	d40 <mac2str>
    3be0:	100d883a 	mov	r6,r2
    3be4:	010000c4 	movi	r4,3
    3be8:	01400074 	movhi	r5,1
    3bec:	297c9904 	addi	r5,r5,-3484
    3bf0:	00080400 	call	8040 <syslog>
    3bf4:	d8800117 	ldw	r2,4(sp)
    3bf8:	d8800015 	stw	r2,0(sp)
    3bfc:	8880068b 	ldhu	r2,26(r17)
    3c00:	1006923a 	slli	r3,r2,8
    3c04:	1004d23a 	srli	r2,r2,8
    3c08:	1886b03a 	or	r3,r3,r2
    3c0c:	18ffffcc 	andi	r3,r3,65535
    3c10:	18e0001c 	xori	r3,r3,32768
    3c14:	18e00004 	addi	r3,r3,-32768
    3c18:	00800044 	movi	r2,1
    3c1c:	18bfe21e 	bne	r3,r2,3ba8 <arp_input+0x188>
    3c20:	89000984 	addi	r4,r17,38
    3c24:	980b883a 	mov	r5,r19
    3c28:	01800184 	movi	r6,6
    3c2c:	000eafc0 	call	eafc <memcpy>
    3c30:	9809883a 	mov	r4,r19
    3c34:	900b883a 	mov	r5,r18
    3c38:	01800184 	movi	r6,6
    3c3c:	000eafc0 	call	eafc <memcpy>
    3c40:	a809883a 	mov	r4,r21
    3c44:	a00b883a 	mov	r5,r20
    3c48:	01800104 	movi	r6,4
    3c4c:	000eafc0 	call	eafc <memcpy>
    3c50:	a009883a 	mov	r4,r20
    3c54:	d80b883a 	mov	r5,sp
    3c58:	0000ec00 	call	ec0 <rev_memcpy_word>
    3c5c:	8c000304 	addi	r16,r17,12
    3c60:	00808004 	movi	r2,512
    3c64:	89000184 	addi	r4,r17,6
    3c68:	800b883a 	mov	r5,r16
    3c6c:	8880068d 	sth	r2,26(r17)
    3c70:	01800184 	movi	r6,6
    3c74:	000eafc0 	call	eafc <memcpy>
    3c78:	8009883a 	mov	r4,r16
    3c7c:	900b883a 	mov	r5,r18
    3c80:	01800184 	movi	r6,6
    3c84:	000eafc0 	call	eafc <memcpy>
    3c88:	8809883a 	mov	r4,r17
    3c8c:	00031a00 	call	31a0 <ether_raw_output>
    3c90:	003f9506 	br	3ae8 <arp_input+0xc8>
    3c94:	010000c4 	movi	r4,3
    3c98:	000d0400 	call	d040 <GetResource>
    3c9c:	d9000117 	ldw	r4,4(sp)
    3ca0:	00036e00 	call	36e0 <arp_lookup.constprop.1>
    3ca4:	10c00284 	addi	r3,r2,10
    3ca8:	1809883a 	mov	r4,r3
    3cac:	980b883a 	mov	r5,r19
    3cb0:	01800184 	movi	r6,6
    3cb4:	1021883a 	mov	r16,r2
    3cb8:	000eafc0 	call	eafc <memcpy>
    3cbc:	81000017 	ldw	r4,0(r16)
    3cc0:	1007883a 	mov	r3,r2
    3cc4:	008bb804 	movi	r2,12000
    3cc8:	8080020d 	sth	r2,8(r16)
    3ccc:	20000b26 	beq	r4,zero,3cfc <arp_input+0x2dc>
    3cd0:	180b883a 	mov	r5,r3
    3cd4:	01800184 	movi	r6,6
    3cd8:	21000184 	addi	r4,r4,6
    3cdc:	000eafc0 	call	eafc <memcpy>
    3ce0:	85800017 	ldw	r22,0(r16)
    3ce4:	010000c4 	movi	r4,3
    3ce8:	80000015 	stw	zero,0(r16)
    3cec:	000d3e00 	call	d3e0 <ReleaseResource>
    3cf0:	b009883a 	mov	r4,r22
    3cf4:	00031a00 	call	31a0 <ether_raw_output>
    3cf8:	003fc006 	br	3bfc <arp_input+0x1dc>
    3cfc:	010000c4 	movi	r4,3
    3d00:	000d3e00 	call	d3e0 <ReleaseResource>
    3d04:	003fbd06 	br	3bfc <arp_input+0x1dc>
    3d08:	0001883a 	nop
    3d0c:	0001883a 	nop
    3d10:	0001883a 	nop
    3d14:	0001883a 	nop
    3d18:	0001883a 	nop
    3d1c:	0001883a 	nop

00003d20 <arp_resolve>:
    3d20:	defffb04 	addi	sp,sp,-20
    3d24:	dcc00315 	stw	r19,12(sp)
    3d28:	dc400115 	stw	r17,4(sp)
    3d2c:	dc000015 	stw	r16,0(sp)
    3d30:	dfc00415 	stw	ra,16(sp)
    3d34:	dc800215 	stw	r18,8(sp)
    3d38:	2027883a 	mov	r19,r4
    3d3c:	2821883a 	mov	r16,r5
    3d40:	3023883a 	mov	r17,r6
    3d44:	00031800 	call	3180 <ether_get_ifnet>
    3d48:	00ffffc4 	movi	r3,-1
    3d4c:	88c02d26 	beq	r17,r3,3e04 <arp_resolve+0xe4>
    3d50:	10c00217 	ldw	r3,8(r2)
    3d54:	11000117 	ldw	r4,4(r2)
    3d58:	00c4303a 	nor	r2,zero,r3
    3d5c:	1906703a 	and	r3,r3,r4
    3d60:	10c6b03a 	or	r3,r2,r3
    3d64:	1c402726 	beq	r3,r17,3e04 <arp_resolve+0xe4>
    3d68:	010000c4 	movi	r4,3
    3d6c:	000d0400 	call	d040 <GetResource>
    3d70:	8809883a 	mov	r4,r17
    3d74:	00036e00 	call	36e0 <arp_lookup.constprop.1>
    3d78:	1025883a 	mov	r18,r2
    3d7c:	1080020b 	ldhu	r2,8(r2)
    3d80:	10003a1e 	bne	r2,zero,3e6c <arp_resolve+0x14c>
    3d84:	90800017 	ldw	r2,0(r18)
    3d88:	10000b26 	beq	r2,zero,3db8 <arp_resolve+0x98>
    3d8c:	00800074 	movhi	r2,1
    3d90:	10835b04 	addi	r2,r2,3436
    3d94:	11000417 	ldw	r4,16(r2)
    3d98:	11400517 	ldw	r5,20(r2)
    3d9c:	20c00044 	addi	r3,r4,1
    3da0:	1909803a 	cmpltu	r4,r3,r4
    3da4:	2149883a 	add	r4,r4,r5
    3da8:	10c00415 	stw	r3,16(r2)
    3dac:	11000515 	stw	r4,20(r2)
    3db0:	91000017 	ldw	r4,0(r18)
    3db4:	0000a800 	call	a80 <rel_net_buf>
    3db8:	808000c3 	ldbu	r2,3(r16)
    3dbc:	10c03fcc 	andi	r3,r2,255
    3dc0:	18c0201c 	xori	r3,r3,128
    3dc4:	18ffe004 	addi	r3,r3,-128
    3dc8:	18002416 	blt	r3,zero,3e5c <arp_resolve+0x13c>
    3dcc:	94000015 	stw	r16,0(r18)
    3dd0:	010000c4 	movi	r4,3
    3dd4:	000d3e00 	call	d3e0 <ReleaseResource>
    3dd8:	9809883a 	mov	r4,r19
    3ddc:	880b883a 	mov	r5,r17
    3de0:	00038200 	call	3820 <arp_request>
    3de4:	0005883a 	mov	r2,zero
    3de8:	dfc00417 	ldw	ra,16(sp)
    3dec:	dcc00317 	ldw	r19,12(sp)
    3df0:	dc800217 	ldw	r18,8(sp)
    3df4:	dc400117 	ldw	r17,4(sp)
    3df8:	dc000017 	ldw	r16,0(sp)
    3dfc:	dec00504 	addi	sp,sp,20
    3e00:	f800283a 	ret
    3e04:	00800074 	movhi	r2,1
    3e08:	1082ff04 	addi	r2,r2,3068
    3e0c:	11c00003 	ldbu	r7,0(r2)
    3e10:	11800043 	ldbu	r6,1(r2)
    3e14:	11400083 	ldbu	r5,2(r2)
    3e18:	110000c3 	ldbu	r4,3(r2)
    3e1c:	10c00103 	ldbu	r3,4(r2)
    3e20:	10800143 	ldbu	r2,5(r2)
    3e24:	81c00185 	stb	r7,6(r16)
    3e28:	818001c5 	stb	r6,7(r16)
    3e2c:	808002c5 	stb	r2,11(r16)
    3e30:	00800044 	movi	r2,1
    3e34:	81400205 	stb	r5,8(r16)
    3e38:	81000245 	stb	r4,9(r16)
    3e3c:	80c00285 	stb	r3,10(r16)
    3e40:	dfc00417 	ldw	ra,16(sp)
    3e44:	dcc00317 	ldw	r19,12(sp)
    3e48:	dc800217 	ldw	r18,8(sp)
    3e4c:	dc400117 	ldw	r17,4(sp)
    3e50:	dc000017 	ldw	r16,0(sp)
    3e54:	dec00504 	addi	sp,sp,20
    3e58:	f800283a 	ret
    3e5c:	10801fcc 	andi	r2,r2,127
    3e60:	808000c5 	stb	r2,3(r16)
    3e64:	90000015 	stw	zero,0(r18)
    3e68:	003fd906 	br	3dd0 <arp_resolve+0xb0>
    3e6c:	94800284 	addi	r18,r18,10
    3e70:	90800003 	ldbu	r2,0(r18)
    3e74:	84000184 	addi	r16,r16,6
    3e78:	010000c4 	movi	r4,3
    3e7c:	80800005 	stb	r2,0(r16)
    3e80:	90800043 	ldbu	r2,1(r18)
    3e84:	80800045 	stb	r2,1(r16)
    3e88:	90800083 	ldbu	r2,2(r18)
    3e8c:	80800085 	stb	r2,2(r16)
    3e90:	908000c3 	ldbu	r2,3(r18)
    3e94:	808000c5 	stb	r2,3(r16)
    3e98:	90800103 	ldbu	r2,4(r18)
    3e9c:	80800105 	stb	r2,4(r16)
    3ea0:	90800143 	ldbu	r2,5(r18)
    3ea4:	80800145 	stb	r2,5(r16)
    3ea8:	000d3e00 	call	d3e0 <ReleaseResource>
    3eac:	00800044 	movi	r2,1
    3eb0:	dfc00417 	ldw	ra,16(sp)
    3eb4:	dcc00317 	ldw	r19,12(sp)
    3eb8:	dc800217 	ldw	r18,8(sp)
    3ebc:	dc400117 	ldw	r17,4(sp)
    3ec0:	dc000017 	ldw	r16,0(sp)
    3ec4:	dec00504 	addi	sp,sp,20
    3ec8:	f800283a 	ret
    3ecc:	0001883a 	nop
    3ed0:	0001883a 	nop
    3ed4:	0001883a 	nop
    3ed8:	0001883a 	nop
    3edc:	0001883a 	nop

00003ee0 <arp_init>:
    3ee0:	01000034 	movhi	r4,0
    3ee4:	210d7804 	addi	r4,r4,13792
    3ee8:	000b883a 	mov	r5,zero
    3eec:	01809604 	movi	r6,600
    3ef0:	0000f401 	jmpi	f40 <timeout>
	...

00003f00 <tse_init_sub>:
    3f00:	defff604 	addi	sp,sp,-40
    3f04:	dfc00915 	stw	ra,36(sp)
    3f08:	dc800615 	stw	r18,24(sp)
    3f0c:	dc400515 	stw	r17,20(sp)
    3f10:	dd000815 	stw	r20,32(sp)
    3f14:	dcc00715 	stw	r19,28(sp)
    3f18:	dc000415 	stw	r16,16(sp)
    3f1c:	20800217 	ldw	r2,8(r4)
    3f20:	2000018d 	sth	zero,6(r4)
    3f24:	2025883a 	mov	r18,r4
    3f28:	11000317 	ldw	r4,12(r2)
    3f2c:	00056000 	call	5600 <avalon_sgdma_init>
    3f30:	94400217 	ldw	r17,8(r18)
    3f34:	010001c4 	movi	r4,7
    3f38:	01400074 	movhi	r5,1
    3f3c:	297ca104 	addi	r5,r5,-3452
    3f40:	00080400 	call	8040 <syslog>
    3f44:	88800317 	ldw	r2,12(r17)
    3f48:	1000b526 	beq	r2,zero,4220 <tse_init_sub+0x320>
    3f4c:	88800417 	ldw	r2,16(r17)
    3f50:	1000a426 	beq	r2,zero,41e4 <tse_init_sub+0x2e4>
    3f54:	00c00074 	movhi	r3,1
    3f58:	10c00435 	stwio	r3,16(r2)
    3f5c:	88800417 	ldw	r2,16(r17)
    3f60:	10000435 	stwio	zero,16(r2)
    3f64:	8809883a 	mov	r4,r17
    3f68:	0004b600 	call	4b60 <getPHYSpeed>
    3f6c:	1029d07a 	srai	r20,r2,1
    3f70:	88c00017 	ldw	r3,0(r17)
    3f74:	14c0004c 	andi	r19,r2,1
    3f78:	a50001cc 	andi	r20,r20,7
    3f7c:	008800c4 	movi	r2,8195
    3f80:	18800235 	stwio	r2,8(r3)
    3f84:	89c00017 	ldw	r7,0(r17)
    3f88:	0021883a 	mov	r16,zero
    3f8c:	0189c484 	movi	r6,10002
    3f90:	39400204 	addi	r5,r7,8
    3f94:	00000206 	br	3fa0 <tse_init_sub+0xa0>
    3f98:	84000044 	addi	r16,r16,1
    3f9c:	81807726 	beq	r16,r6,417c <tse_init_sub+0x27c>
    3fa0:	28c00037 	ldwio	r3,0(r5)
    3fa4:	18c8000c 	andi	r3,r3,8192
    3fa8:	183ffb1e 	bne	r3,zero,3f98 <tse_init_sub+0x98>
    3fac:	0089c3c4 	movi	r2,9999
    3fb0:	14007216 	blt	r2,r16,417c <tse_init_sub+0x27c>
    3fb4:	39c00237 	ldwio	r7,8(r7)
    3fb8:	388000cc 	andi	r2,r7,3
    3fbc:	1000691e 	bne	r2,zero,4164 <tse_init_sub+0x264>
    3fc0:	010001c4 	movi	r4,7
    3fc4:	01400074 	movhi	r5,1
    3fc8:	297cda04 	addi	r5,r5,-3224
    3fcc:	800d883a 	mov	r6,r16
    3fd0:	00080400 	call	8040 <syslog>
    3fd4:	88800017 	ldw	r2,0(r17)
    3fd8:	00c17c04 	movi	r3,1520
    3fdc:	10c00535 	stwio	r3,20(r2)
    3fe0:	88c00017 	ldw	r3,0(r17)
    3fe4:	00800204 	movi	r2,8
    3fe8:	18800b35 	stwio	r2,44(r3)
    3fec:	88c00017 	ldw	r3,0(r17)
    3ff0:	18800c35 	stwio	r2,48(r3)
    3ff4:	88c00017 	ldw	r3,0(r17)
    3ff8:	18800d35 	stwio	r2,52(r3)
    3ffc:	88800017 	ldw	r2,0(r17)
    4000:	010000c4 	movi	r4,3
    4004:	11000e35 	stwio	r4,56(r2)
    4008:	88c0010b 	ldhu	r3,4(r17)
    400c:	88800017 	ldw	r2,0(r17)
    4010:	18fffc04 	addi	r3,r3,-16
    4014:	10c00935 	stwio	r3,36(r2)
    4018:	88800017 	ldw	r2,0(r17)
    401c:	10000a35 	stwio	zero,40(r2)
    4020:	88c0018b 	ldhu	r3,6(r17)
    4024:	88800017 	ldw	r2,0(r17)
    4028:	18fffc04 	addi	r3,r3,-16
    402c:	10c00735 	stwio	r3,28(r2)
    4030:	88800017 	ldw	r2,0(r17)
    4034:	10000835 	stwio	zero,32(r2)
    4038:	88800017 	ldw	r2,0(r17)
    403c:	00c00134 	movhi	r3,4
    4040:	10c03a35 	stwio	r3,232(r2)
    4044:	88800017 	ldw	r2,0(r17)
    4048:	10c03a37 	ldwio	r3,232(r2)
    404c:	18c0012c 	andhi	r3,r3,4
    4050:	18005626 	beq	r3,zero,41ac <tse_init_sub+0x2ac>
    4054:	00c08034 	movhi	r3,512
    4058:	10c03b35 	stwio	r3,236(r2)
    405c:	89c00017 	ldw	r7,0(r17)
    4060:	38803b37 	ldwio	r2,236(r7)
    4064:	10c4703a 	and	r2,r2,r3
    4068:	10005b26 	beq	r2,zero,41d8 <tse_init_sub+0x2d8>
    406c:	00800044 	movi	r2,1
    4070:	a0804826 	beq	r20,r2,4194 <tse_init_sub+0x294>
    4074:	00800084 	movi	r2,2
    4078:	a0800226 	beq	r20,r2,4084 <tse_init_sub+0x184>
    407c:	00800104 	movi	r2,4
    4080:	a0804726 	beq	r20,r2,41a0 <tse_init_sub+0x2a0>
    4084:	00810034 	movhi	r2,1024
    4088:	108080c4 	addi	r2,r2,515
    408c:	9800011e 	bne	r19,zero,4094 <tse_init_sub+0x194>
    4090:	10810014 	ori	r2,r2,1024
    4094:	38800235 	stwio	r2,8(r7)
    4098:	88800017 	ldw	r2,0(r17)
    409c:	11800237 	ldwio	r6,8(r2)
    40a0:	010001c4 	movi	r4,7
    40a4:	01400074 	movhi	r5,1
    40a8:	297d1104 	addi	r5,r5,-3004
    40ac:	00080400 	call	8040 <syslog>
    40b0:	90c00043 	ldbu	r3,1(r18)
    40b4:	90800083 	ldbu	r2,2(r18)
    40b8:	910000c3 	ldbu	r4,3(r18)
    40bc:	1806923a 	slli	r3,r3,8
    40c0:	1004943a 	slli	r2,r2,16
    40c4:	91400003 	ldbu	r5,0(r18)
    40c8:	2008963a 	slli	r4,r4,24
    40cc:	1886b03a 	or	r3,r3,r2
    40d0:	88800017 	ldw	r2,0(r17)
    40d4:	1946b03a 	or	r3,r3,r5
    40d8:	1906b03a 	or	r3,r3,r4
    40dc:	10c00335 	stwio	r3,12(r2)
    40e0:	90c00143 	ldbu	r3,5(r18)
    40e4:	91000103 	ldbu	r4,4(r18)
    40e8:	88800017 	ldw	r2,0(r17)
    40ec:	1806923a 	slli	r3,r3,8
    40f0:	1906b03a 	or	r3,r3,r4
    40f4:	10c00435 	stwio	r3,16(r2)
    40f8:	89c00c17 	ldw	r7,48(r17)
    40fc:	38004426 	beq	r7,zero,4210 <tse_init_sub+0x310>
    4100:	89400517 	ldw	r5,20(r17)
    4104:	000d883a 	mov	r6,zero
    4108:	39c00104 	addi	r7,r7,4
    410c:	29001004 	addi	r4,r5,64
    4110:	d8000015 	stw	zero,0(sp)
    4114:	29401804 	addi	r5,r5,96
    4118:	d8000115 	stw	zero,4(sp)
    411c:	d8000215 	stw	zero,8(sp)
    4120:	d8000315 	stw	zero,12(sp)
    4124:	00055800 	call	5580 <avalon_sgdma_construct_descriptor>
    4128:	010001c4 	movi	r4,7
    412c:	01400074 	movhi	r5,1
    4130:	297d2d04 	addi	r5,r5,-2892
    4134:	00080400 	call	8040 <syslog>
    4138:	89400517 	ldw	r5,20(r17)
    413c:	8809883a 	mov	r4,r17
    4140:	29401004 	addi	r5,r5,64
    4144:	dfc00917 	ldw	ra,36(sp)
    4148:	dd000817 	ldw	r20,32(sp)
    414c:	dcc00717 	ldw	r19,28(sp)
    4150:	dc800617 	ldw	r18,24(sp)
    4154:	dc400517 	ldw	r17,20(sp)
    4158:	dc000417 	ldw	r16,16(sp)
    415c:	dec00a04 	addi	sp,sp,40
    4160:	0004ae01 	jmpi	4ae0 <tse_mac_aRxRead>
    4164:	01000104 	movi	r4,4
    4168:	01400074 	movhi	r5,1
    416c:	297cc604 	addi	r5,r5,-3304
    4170:	380d883a 	mov	r6,r7
    4174:	00080400 	call	8040 <syslog>
    4178:	003f9606 	br	3fd4 <tse_init_sub+0xd4>
    417c:	010001c4 	movi	r4,7
    4180:	01400074 	movhi	r5,1
    4184:	297cbd04 	addi	r5,r5,-3340
    4188:	00080400 	call	8040 <syslog>
    418c:	89c00017 	ldw	r7,0(r17)
    4190:	003f8806 	br	3fb4 <tse_init_sub+0xb4>
    4194:	00810034 	movhi	r2,1024
    4198:	108082c4 	addi	r2,r2,523
    419c:	003fbb06 	br	408c <tse_init_sub+0x18c>
    41a0:	00818034 	movhi	r2,1536
    41a4:	108080c4 	addi	r2,r2,515
    41a8:	003fb806 	br	408c <tse_init_sub+0x18c>
    41ac:	01400074 	movhi	r5,1
    41b0:	297ce104 	addi	r5,r5,-3196
    41b4:	01800084 	movi	r6,2
    41b8:	dfc00917 	ldw	ra,36(sp)
    41bc:	dd000817 	ldw	r20,32(sp)
    41c0:	dcc00717 	ldw	r19,28(sp)
    41c4:	dc800617 	ldw	r18,24(sp)
    41c8:	dc400517 	ldw	r17,20(sp)
    41cc:	dc000417 	ldw	r16,16(sp)
    41d0:	dec00a04 	addi	sp,sp,40
    41d4:	00080401 	jmpi	8040 <syslog>
    41d8:	01400074 	movhi	r5,1
    41dc:	297cf904 	addi	r5,r5,-3100
    41e0:	003ff406 	br	41b4 <tse_init_sub+0x2b4>
    41e4:	010000c4 	movi	r4,3
    41e8:	01400074 	movhi	r5,1
    41ec:	297cb104 	addi	r5,r5,-3388
    41f0:	dfc00917 	ldw	ra,36(sp)
    41f4:	dd000817 	ldw	r20,32(sp)
    41f8:	dcc00717 	ldw	r19,28(sp)
    41fc:	dc800617 	ldw	r18,24(sp)
    4200:	dc400517 	ldw	r17,20(sp)
    4204:	dc000417 	ldw	r16,16(sp)
    4208:	dec00a04 	addi	sp,sp,40
    420c:	00080401 	jmpi	8040 <syslog>
    4210:	010000c4 	movi	r4,3
    4214:	01400074 	movhi	r5,1
    4218:	297d1c04 	addi	r5,r5,-2960
    421c:	003ff406 	br	41f0 <tse_init_sub+0x2f0>
    4220:	010000c4 	movi	r4,3
    4224:	01400074 	movhi	r5,1
    4228:	297ca504 	addi	r5,r5,-3436
    422c:	003ff006 	br	41f0 <tse_init_sub+0x2f0>
    4230:	0001883a 	nop
    4234:	0001883a 	nop
    4238:	0001883a 	nop
    423c:	0001883a 	nop

00004240 <tse_reset>:
    4240:	defffe04 	addi	sp,sp,-8
    4244:	dc000015 	stw	r16,0(sp)
    4248:	dfc00115 	stw	ra,4(sp)
    424c:	2021883a 	mov	r16,r4
    4250:	000db000 	call	db00 <SuspendOSInterrupts>
    4254:	00800074 	movhi	r2,1
    4258:	10838f04 	addi	r2,r2,3644
    425c:	11000017 	ldw	r4,0(r2)
    4260:	11400117 	ldw	r5,4(r2)
    4264:	20c00044 	addi	r3,r4,1
    4268:	1909803a 	cmpltu	r4,r3,r4
    426c:	2149883a 	add	r4,r4,r5
    4270:	10c00015 	stw	r3,0(r2)
    4274:	11000115 	stw	r4,4(r2)
    4278:	80800217 	ldw	r2,8(r16)
    427c:	10800017 	ldw	r2,0(r2)
    4280:	10800204 	addi	r2,r2,8
    4284:	11000037 	ldwio	r4,0(r2)
    4288:	00ffff44 	movi	r3,-3
    428c:	20c6703a 	and	r3,r4,r3
    4290:	10c00035 	stwio	r3,0(r2)
    4294:	8009883a 	mov	r4,r16
    4298:	0003f000 	call	3f00 <tse_init_sub>
    429c:	000dce00 	call	dce0 <ResumeOSInterrupts>
    42a0:	81400317 	ldw	r5,12(r16)
    42a4:	0009883a 	mov	r4,zero
    42a8:	dfc00117 	ldw	ra,4(sp)
    42ac:	dc000017 	ldw	r16,0(sp)
    42b0:	dec00204 	addi	sp,sp,8
    42b4:	000c5c01 	jmpi	c5c0 <SetEvent>
    42b8:	0001883a 	nop
    42bc:	0001883a 	nop

000042c0 <tse_get_softc>:
    42c0:	00800074 	movhi	r2,1
    42c4:	1082ce04 	addi	r2,r2,2872
    42c8:	f800283a 	ret
    42cc:	0001883a 	nop
    42d0:	0001883a 	nop
    42d4:	0001883a 	nop
    42d8:	0001883a 	nop
    42dc:	0001883a 	nop

000042e0 <tse_watchdog>:
    42e0:	00800074 	movhi	r2,1
    42e4:	10838f04 	addi	r2,r2,3644
    42e8:	11c00817 	ldw	r7,32(r2)
    42ec:	11800417 	ldw	r6,16(r2)
    42f0:	12400917 	ldw	r9,36(r2)
    42f4:	12000517 	ldw	r8,20(r2)
    42f8:	00c00044 	movi	r3,1
    42fc:	38cb883a 	add	r5,r7,r3
    4300:	30c7883a 	add	r3,r6,r3
    4304:	29cf803a 	cmpltu	r7,r5,r7
    4308:	198d803a 	cmpltu	r6,r3,r6
    430c:	3a4f883a 	add	r7,r7,r9
    4310:	320d883a 	add	r6,r6,r8
    4314:	11400815 	stw	r5,32(r2)
    4318:	11c00915 	stw	r7,36(r2)
    431c:	10c00415 	stw	r3,16(r2)
    4320:	11800515 	stw	r6,20(r2)
    4324:	00042401 	jmpi	4240 <tse_reset>
    4328:	0001883a 	nop
    432c:	0001883a 	nop
    4330:	0001883a 	nop
    4334:	0001883a 	nop
    4338:	0001883a 	nop
    433c:	0001883a 	nop

00004340 <tse_probe>:
    4340:	200f883a 	mov	r7,r4
    4344:	21000217 	ldw	r4,8(r4)
    4348:	0005883a 	mov	r2,zero
    434c:	02000184 	movi	r8,6
    4350:	20c00904 	addi	r3,r4,36
    4354:	19800003 	ldbu	r6,0(r3)
    4358:	388b883a 	add	r5,r7,r2
    435c:	10800044 	addi	r2,r2,1
    4360:	29800005 	stb	r6,0(r5)
    4364:	18c00044 	addi	r3,r3,1
    4368:	123ffa1e 	bne	r2,r8,4354 <tse_probe+0x14>
    436c:	00050401 	jmpi	5040 <tse_phy_init>
    4370:	0001883a 	nop
    4374:	0001883a 	nop
    4378:	0001883a 	nop
    437c:	0001883a 	nop

00004380 <tse_init>:
    4380:	defffe04 	addi	sp,sp,-8
    4384:	dfc00115 	stw	ra,4(sp)
    4388:	d9000015 	stw	r4,0(sp)
    438c:	000db000 	call	db00 <SuspendOSInterrupts>
    4390:	d9000017 	ldw	r4,0(sp)
    4394:	0003f000 	call	3f00 <tse_init_sub>
    4398:	dfc00117 	ldw	ra,4(sp)
    439c:	dec00204 	addi	sp,sp,8
    43a0:	000dce01 	jmpi	dce0 <ResumeOSInterrupts>
    43a4:	0001883a 	nop
    43a8:	0001883a 	nop
    43ac:	0001883a 	nop
    43b0:	0001883a 	nop
    43b4:	0001883a 	nop
    43b8:	0001883a 	nop
    43bc:	0001883a 	nop

000043c0 <tse_read>:
    43c0:	defffa04 	addi	sp,sp,-24
    43c4:	dcc00415 	stw	r19,16(sp)
    43c8:	dfc00515 	stw	ra,20(sp)
    43cc:	dc800315 	stw	r18,12(sp)
    43d0:	dc400215 	stw	r17,8(sp)
    43d4:	dc000115 	stw	r16,4(sp)
    43d8:	24000217 	ldw	r16,8(r4)
    43dc:	2027883a 	mov	r19,r4
    43e0:	84400517 	ldw	r17,20(r16)
    43e4:	000db000 	call	db00 <SuspendOSInterrupts>
    43e8:	888017a3 	ldbuio	r2,94(r17)
    43ec:	8c80172b 	ldhuio	r18,92(r17)
    43f0:	10801fcc 	andi	r2,r2,127
    43f4:	1000481e 	bne	r2,zero,4518 <tse_read+0x158>
    43f8:	94bfffcc 	andi	r18,r18,65535
    43fc:	917ffcc4 	addi	r5,r18,-13
    4400:	00bfff04 	movi	r2,-4
    4404:	288a703a 	and	r5,r5,r2
    4408:	29400404 	addi	r5,r5,16
    440c:	297fffcc 	andi	r5,r5,65535
    4410:	d809883a 	mov	r4,sp
    4414:	d8000015 	stw	zero,0(sp)
    4418:	0000a600 	call	a60 <get_net_buf>
    441c:	10002326 	beq	r2,zero,44ac <tse_read+0xec>
    4420:	dc800017 	ldw	r18,0(sp)
    4424:	00c00074 	movhi	r3,1
    4428:	18c38f04 	addi	r3,r3,3644
    442c:	19801217 	ldw	r6,72(r3)
    4430:	19401017 	ldw	r5,64(r3)
    4434:	1a001317 	ldw	r8,76(r3)
    4438:	19c01117 	ldw	r7,68(r3)
    443c:	31000044 	addi	r4,r6,1
    4440:	28800044 	addi	r2,r5,1
    4444:	218d803a 	cmpltu	r6,r4,r6
    4448:	114b803a 	cmpltu	r5,r2,r5
    444c:	320d883a 	add	r6,r6,r8
    4450:	29cb883a 	add	r5,r5,r7
    4454:	19001215 	stw	r4,72(r3)
    4458:	19801315 	stw	r6,76(r3)
    445c:	18801015 	stw	r2,64(r3)
    4460:	19401115 	stw	r5,68(r3)
    4464:	80800c17 	ldw	r2,48(r16)
    4468:	10800104 	addi	r2,r2,4
    446c:	88801235 	stwio	r2,72(r17)
    4470:	00bfe044 	movi	r2,-127
    4474:	888017e5 	stbio	r2,95(r17)
    4478:	81400517 	ldw	r5,20(r16)
    447c:	81000417 	ldw	r4,16(r16)
    4480:	29401004 	addi	r5,r5,64
    4484:	00055200 	call	5520 <avalon_sgdma_do_async_transfer>
    4488:	000dce00 	call	dce0 <ResumeOSInterrupts>
    448c:	9005883a 	mov	r2,r18
    4490:	dfc00517 	ldw	ra,20(sp)
    4494:	dcc00417 	ldw	r19,16(sp)
    4498:	dc800317 	ldw	r18,12(sp)
    449c:	dc400217 	ldw	r17,8(sp)
    44a0:	dc000117 	ldw	r16,4(sp)
    44a4:	dec00604 	addi	sp,sp,24
    44a8:	f800283a 	ret
    44ac:	d9000017 	ldw	r4,0(sp)
    44b0:	20001726 	beq	r4,zero,4510 <tse_read+0x150>
    44b4:	00800074 	movhi	r2,1
    44b8:	10838f04 	addi	r2,r2,3644
    44bc:	11801417 	ldw	r6,80(r2)
    44c0:	10c01617 	ldw	r3,88(r2)
    44c4:	12401517 	ldw	r9,84(r2)
    44c8:	11c01717 	ldw	r7,92(r2)
    44cc:	90c7883a 	add	r3,r18,r3
    44d0:	31400044 	addi	r5,r6,1
    44d4:	1c91803a 	cmpltu	r8,r3,r18
    44d8:	298d803a 	cmpltu	r6,r5,r6
    44dc:	324d883a 	add	r6,r6,r9
    44e0:	41cf883a 	add	r7,r8,r7
    44e4:	11801515 	stw	r6,84(r2)
    44e8:	11401415 	stw	r5,80(r2)
    44ec:	10c01615 	stw	r3,88(r2)
    44f0:	11c01715 	stw	r7,92(r2)
    44f4:	81400c17 	ldw	r5,48(r16)
    44f8:	900d883a 	mov	r6,r18
    44fc:	21000104 	addi	r4,r4,4
    4500:	29400104 	addi	r5,r5,4
    4504:	000eafc0 	call	eafc <memcpy>
    4508:	dc800017 	ldw	r18,0(sp)
    450c:	003fd506 	br	4464 <tse_read+0xa4>
    4510:	0025883a 	mov	r18,zero
    4514:	003fc306 	br	4424 <tse_read+0x64>
    4518:	010000c4 	movi	r4,3
    451c:	01400074 	movhi	r5,1
    4520:	297d3b04 	addi	r5,r5,-2836
    4524:	00080400 	call	8040 <syslog>
    4528:	00800074 	movhi	r2,1
    452c:	10838f04 	addi	r2,r2,3644
    4530:	11801217 	ldw	r6,72(r2)
    4534:	11400017 	ldw	r5,0(r2)
    4538:	12001317 	ldw	r8,76(r2)
    453c:	11c00117 	ldw	r7,4(r2)
    4540:	31000044 	addi	r4,r6,1
    4544:	28c00044 	addi	r3,r5,1
    4548:	218d803a 	cmpltu	r6,r4,r6
    454c:	194b803a 	cmpltu	r5,r3,r5
    4550:	320d883a 	add	r6,r6,r8
    4554:	29cb883a 	add	r5,r5,r7
    4558:	11001215 	stw	r4,72(r2)
    455c:	11801315 	stw	r6,76(r2)
    4560:	10c00015 	stw	r3,0(r2)
    4564:	11400115 	stw	r5,4(r2)
    4568:	80800017 	ldw	r2,0(r16)
    456c:	10800204 	addi	r2,r2,8
    4570:	11000037 	ldwio	r4,0(r2)
    4574:	00ffff44 	movi	r3,-3
    4578:	20c6703a 	and	r3,r4,r3
    457c:	10c00035 	stwio	r3,0(r2)
    4580:	9809883a 	mov	r4,r19
    4584:	0003f000 	call	3f00 <tse_init_sub>
    4588:	000dce00 	call	dce0 <ResumeOSInterrupts>
    458c:	99400317 	ldw	r5,12(r19)
    4590:	0009883a 	mov	r4,zero
    4594:	0025883a 	mov	r18,zero
    4598:	000c5c00 	call	c5c0 <SetEvent>
    459c:	9005883a 	mov	r2,r18
    45a0:	dfc00517 	ldw	ra,20(sp)
    45a4:	dcc00417 	ldw	r19,16(sp)
    45a8:	dc800317 	ldw	r18,12(sp)
    45ac:	dc400217 	ldw	r17,8(sp)
    45b0:	dc000117 	ldw	r16,4(sp)
    45b4:	dec00604 	addi	sp,sp,24
    45b8:	f800283a 	ret
    45bc:	0001883a 	nop

000045c0 <tse_start>:
    45c0:	defff704 	addi	sp,sp,-36
    45c4:	dfc00815 	stw	ra,32(sp)
    45c8:	dcc00715 	stw	r19,28(sp)
    45cc:	dc800615 	stw	r18,24(sp)
    45d0:	dc400515 	stw	r17,20(sp)
    45d4:	dc000415 	stw	r16,16(sp)
    45d8:	24000217 	ldw	r16,8(r4)
    45dc:	2827883a 	mov	r19,r5
    45e0:	2023883a 	mov	r17,r4
    45e4:	000db000 	call	db00 <SuspendOSInterrupts>
    45e8:	84c00b15 	stw	r19,44(r16)
    45ec:	8c800217 	ldw	r18,8(r17)
    45f0:	04000044 	movi	r16,1
    45f4:	000f883a 	mov	r7,zero
    45f8:	91800b17 	ldw	r6,44(r18)
    45fc:	91000517 	ldw	r4,20(r18)
    4600:	3080000b 	ldhu	r2,0(r6)
    4604:	21400804 	addi	r5,r4,32
    4608:	31800104 	addi	r6,r6,4
    460c:	d8800015 	stw	r2,0(sp)
    4610:	dc000115 	stw	r16,4(sp)
    4614:	dc000315 	stw	r16,12(sp)
    4618:	d8000215 	stw	zero,8(sp)
    461c:	00055800 	call	5580 <avalon_sgdma_construct_descriptor>
    4620:	91400517 	ldw	r5,20(r18)
    4624:	9009883a 	mov	r4,r18
    4628:	0004a600 	call	4a60 <tse_mac_aTxWrite>
    462c:	00800084 	movi	r2,2
    4630:	8880018d 	sth	r2,6(r17)
    4634:	00800074 	movhi	r2,1
    4638:	10838f04 	addi	r2,r2,3644
    463c:	11000a17 	ldw	r4,40(r2)
    4640:	11400b17 	ldw	r5,44(r2)
    4644:	10c00c17 	ldw	r3,48(r2)
    4648:	2421883a 	add	r16,r4,r16
    464c:	8109803a 	cmpltu	r4,r16,r4
    4650:	2149883a 	add	r4,r4,r5
    4654:	14000a15 	stw	r16,40(r2)
    4658:	11000b15 	stw	r4,44(r2)
    465c:	9900000b 	ldhu	r4,0(r19)
    4660:	11400d17 	ldw	r5,52(r2)
    4664:	20c7883a 	add	r3,r4,r3
    4668:	1909803a 	cmpltu	r4,r3,r4
    466c:	2149883a 	add	r4,r4,r5
    4670:	10c00c15 	stw	r3,48(r2)
    4674:	11000d15 	stw	r4,52(r2)
    4678:	dfc00817 	ldw	ra,32(sp)
    467c:	dcc00717 	ldw	r19,28(sp)
    4680:	dc800617 	ldw	r18,24(sp)
    4684:	dc400517 	ldw	r17,20(sp)
    4688:	dc000417 	ldw	r16,16(sp)
    468c:	dec00904 	addi	sp,sp,36
    4690:	000dce01 	jmpi	dce0 <ResumeOSInterrupts>
    4694:	0001883a 	nop
    4698:	0001883a 	nop
    469c:	0001883a 	nop

000046a0 <ISRMainif_tse_tx_handler>:
    46a0:	defffe04 	addi	sp,sp,-8
    46a4:	dc000015 	stw	r16,0(sp)
    46a8:	04000074 	movhi	r16,1
    46ac:	8402ce04 	addi	r16,r16,2872
    46b0:	81400217 	ldw	r5,8(r16)
    46b4:	dfc00115 	stw	ra,4(sp)
    46b8:	28800317 	ldw	r2,12(r5)
    46bc:	10800404 	addi	r2,r2,16
    46c0:	10c00037 	ldwio	r3,0(r2)
    46c4:	18e00034 	orhi	r3,r3,32768
    46c8:	10c00035 	stwio	r3,0(r2)
    46cc:	29000317 	ldw	r4,12(r5)
    46d0:	20800437 	ldwio	r2,16(r4)
    46d4:	008003f4 	movhi	r2,15
    46d8:	10909044 	addi	r2,r2,16961
    46dc:	00000106 	br	46e4 <ISRMainif_tse_tx_handler+0x44>
    46e0:	10002426 	beq	r2,zero,4774 <ISRMainif_tse_tx_handler+0xd4>
    46e4:	20c00037 	ldwio	r3,0(r4)
    46e8:	18c0040c 	andi	r3,r3,16
    46ec:	10bfffc4 	addi	r2,r2,-1
    46f0:	183ffb1e 	bne	r3,zero,46e0 <ISRMainif_tse_tx_handler+0x40>
    46f4:	28800517 	ldw	r2,20(r5)
    46f8:	108007e7 	ldbio	r2,31(r2)
    46fc:	10000716 	blt	r2,zero,471c <ISRMainif_tse_tx_handler+0x7c>
    4700:	29000b17 	ldw	r4,44(r5)
    4704:	208000c3 	ldbu	r2,3(r4)
    4708:	10c03fcc 	andi	r3,r2,255
    470c:	18c0201c 	xori	r3,r3,128
    4710:	18ffe004 	addi	r3,r3,-128
    4714:	18001416 	blt	r3,zero,4768 <ISRMainif_tse_tx_handler+0xc8>
    4718:	0000a800 	call	a80 <rel_net_buf>
    471c:	81400317 	ldw	r5,12(r16)
    4720:	0009883a 	mov	r4,zero
    4724:	8000018d 	sth	zero,6(r16)
    4728:	000c5c00 	call	c5c0 <SetEvent>
    472c:	10803fcc 	andi	r2,r2,255
    4730:	10000926 	beq	r2,zero,4758 <ISRMainif_tse_tx_handler+0xb8>
    4734:	00800074 	movhi	r2,1
    4738:	10838f04 	addi	r2,r2,3644
    473c:	11000217 	ldw	r4,8(r2)
    4740:	11400317 	ldw	r5,12(r2)
    4744:	20c00044 	addi	r3,r4,1
    4748:	1909803a 	cmpltu	r4,r3,r4
    474c:	2149883a 	add	r4,r4,r5
    4750:	10c00215 	stw	r3,8(r2)
    4754:	11000315 	stw	r4,12(r2)
    4758:	dfc00117 	ldw	ra,4(sp)
    475c:	dc000017 	ldw	r16,0(sp)
    4760:	dec00204 	addi	sp,sp,8
    4764:	f800283a 	ret
    4768:	10801fcc 	andi	r2,r2,127
    476c:	208000c5 	stb	r2,3(r4)
    4770:	003fea06 	br	471c <ISRMainif_tse_tx_handler+0x7c>
    4774:	01000104 	movi	r4,4
    4778:	01400074 	movhi	r5,1
    477c:	297d4704 	addi	r5,r5,-2788
    4780:	00080400 	call	8040 <syslog>
    4784:	003fe506 	br	471c <ISRMainif_tse_tx_handler+0x7c>
    4788:	0001883a 	nop
    478c:	0001883a 	nop
    4790:	0001883a 	nop
    4794:	0001883a 	nop
    4798:	0001883a 	nop
    479c:	0001883a 	nop

000047a0 <ISRMainif_tse_rx_handler>:
    47a0:	deffff04 	addi	sp,sp,-4
    47a4:	dfc00015 	stw	ra,0(sp)
    47a8:	01000074 	movhi	r4,1
    47ac:	2102ce04 	addi	r4,r4,2872
    47b0:	20800217 	ldw	r2,8(r4)
    47b4:	10c00417 	ldw	r3,16(r2)
    47b8:	18c00404 	addi	r3,r3,16
    47bc:	19400037 	ldwio	r5,0(r3)
    47c0:	29600034 	orhi	r5,r5,32768
    47c4:	19400035 	stwio	r5,0(r3)
    47c8:	10800417 	ldw	r2,16(r2)
    47cc:	10c00437 	ldwio	r3,16(r2)
    47d0:	10800037 	ldwio	r2,0(r2)
    47d4:	1080030c 	andi	r2,r2,12
    47d8:	1000031e 	bne	r2,zero,47e8 <ISRMainif_tse_rx_handler+0x48>
    47dc:	dfc00017 	ldw	ra,0(sp)
    47e0:	dec00104 	addi	sp,sp,4
    47e4:	f800283a 	ret
    47e8:	21400417 	ldw	r5,16(r4)
    47ec:	01000044 	movi	r4,1
    47f0:	000c5c00 	call	c5c0 <SetEvent>
    47f4:	10803fcc 	andi	r2,r2,255
    47f8:	103ff826 	beq	r2,zero,47dc <ISRMainif_tse_rx_handler+0x3c>
    47fc:	00800074 	movhi	r2,1
    4800:	10838f04 	addi	r2,r2,3644
    4804:	11000e17 	ldw	r4,56(r2)
    4808:	11400f17 	ldw	r5,60(r2)
    480c:	20c00044 	addi	r3,r4,1
    4810:	1909803a 	cmpltu	r4,r3,r4
    4814:	2149883a 	add	r4,r4,r5
    4818:	10c00e15 	stw	r3,56(r2)
    481c:	11000f15 	stw	r4,60(r2)
    4820:	dfc00017 	ldw	ra,0(sp)
    4824:	dec00104 	addi	sp,sp,4
    4828:	f800283a 	ret
	...

00004840 <marvell_phy_cfg>:
    4840:	defffe04 	addi	sp,sp,-8
    4844:	dc000015 	stw	r16,0(sp)
    4848:	2021883a 	mov	r16,r4
    484c:	dfc00115 	stw	ra,4(sp)
    4850:	2080a137 	ldwio	r2,644(r4)
    4854:	1080080c 	andi	r2,r2,32
    4858:	10000e1e 	bne	r2,zero,4894 <marvell_phy_cfg+0x54>
    485c:	010001c4 	movi	r4,7
    4860:	01400074 	movhi	r5,1
    4864:	297d4e04 	addi	r5,r5,-2760
    4868:	00080400 	call	8040 <syslog>
    486c:	00801e04 	movi	r2,120
    4870:	8080b035 	stwio	r2,704(r16)
    4874:	010001c4 	movi	r4,7
    4878:	01400074 	movhi	r5,1
    487c:	297d5704 	addi	r5,r5,-2724
    4880:	00080400 	call	8040 <syslog>
    4884:	8400a004 	addi	r16,r16,640
    4888:	80800037 	ldwio	r2,0(r16)
    488c:	10a00014 	ori	r2,r2,32768
    4890:	80800035 	stwio	r2,0(r16)
    4894:	0005883a 	mov	r2,zero
    4898:	dfc00117 	ldw	ra,4(sp)
    489c:	dc000017 	ldw	r16,0(sp)
    48a0:	dec00204 	addi	sp,sp,8
    48a4:	f800283a 	ret
    48a8:	0001883a 	nop
    48ac:	0001883a 	nop
    48b0:	0001883a 	nop
    48b4:	0001883a 	nop
    48b8:	0001883a 	nop
    48bc:	0001883a 	nop

000048c0 <tse_phy_wr_mdio_reg.constprop.2>:
    48c0:	20800017 	ldw	r2,0(r4)
    48c4:	294b883a 	add	r5,r5,r5
    48c8:	294b883a 	add	r5,r5,r5
    48cc:	1080a004 	addi	r2,r2,640
    48d0:	114b883a 	add	r5,r2,r5
    48d4:	29000037 	ldwio	r4,0(r5)
    48d8:	00800044 	movi	r2,1
    48dc:	1184983a 	sll	r2,r2,r6
    48e0:	39ffffcc 	andi	r7,r7,65535
    48e4:	398c983a 	sll	r6,r7,r6
    48e8:	0086303a 	nor	r3,zero,r2
    48ec:	20c6703a 	and	r3,r4,r3
    48f0:	3084703a 	and	r2,r6,r2
    48f4:	1884b03a 	or	r2,r3,r2
    48f8:	10bfffcc 	andi	r2,r2,65535
    48fc:	28800035 	stwio	r2,0(r5)
    4900:	0005883a 	mov	r2,zero
    4904:	f800283a 	ret
    4908:	0001883a 	nop
    490c:	0001883a 	nop
    4910:	0001883a 	nop
    4914:	0001883a 	nop
    4918:	0001883a 	nop
    491c:	0001883a 	nop

00004920 <tse_phy_restart_an>:
    4920:	defffc04 	addi	sp,sp,-16
    4924:	dc400115 	stw	r17,4(sp)
    4928:	dc000015 	stw	r16,0(sp)
    492c:	dfc00315 	stw	ra,12(sp)
    4930:	dc800215 	stw	r18,8(sp)
    4934:	20800017 	ldw	r2,0(r4)
    4938:	2021883a 	mov	r16,r4
    493c:	2823883a 	mov	r17,r5
    4940:	10801004 	addi	r2,r2,64
    4944:	14800037 	ldwio	r18,0(r2)
    4948:	20c00603 	ldbu	r3,24(r4)
    494c:	10c00035 	stwio	r3,0(r2)
    4950:	20800017 	ldw	r2,0(r4)
    4954:	1080a137 	ldwio	r2,644(r2)
    4958:	1004d0fa 	srli	r2,r2,3
    495c:	1080004c 	andi	r2,r2,1
    4960:	10003226 	beq	r2,zero,4a2c <tse_phy_restart_an+0x10c>
    4964:	000b883a 	mov	r5,zero
    4968:	01800304 	movi	r6,12
    496c:	01c00044 	movi	r7,1
    4970:	00048c00 	call	48c0 <tse_phy_wr_mdio_reg.constprop.2>
    4974:	8009883a 	mov	r4,r16
    4978:	000b883a 	mov	r5,zero
    497c:	01800244 	movi	r6,9
    4980:	01c00044 	movi	r7,1
    4984:	00048c00 	call	48c0 <tse_phy_wr_mdio_reg.constprop.2>
    4988:	010001c4 	movi	r4,7
    498c:	01400074 	movhi	r5,1
    4990:	297d6a04 	addi	r5,r5,-2648
    4994:	00080400 	call	8040 <syslog>
    4998:	81000017 	ldw	r4,0(r16)
    499c:	0005883a 	mov	r2,zero
    49a0:	2100a104 	addi	r4,r4,644
    49a4:	20c00037 	ldwio	r3,0(r4)
    49a8:	10800044 	addi	r2,r2,1
    49ac:	18c0080c 	andi	r3,r3,32
    49b0:	11bfffc4 	addi	r6,r2,-1
    49b4:	18000f1e 	bne	r3,zero,49f4 <tse_phy_restart_an+0xd4>
    49b8:	89bffa2e 	bgeu	r17,r6,49a4 <tse_phy_restart_an+0x84>
    49bc:	01000104 	movi	r4,4
    49c0:	01400074 	movhi	r5,1
    49c4:	297d7a04 	addi	r5,r5,-2584
    49c8:	00080400 	call	8040 <syslog>
    49cc:	80800017 	ldw	r2,0(r16)
    49d0:	94803fcc 	andi	r18,r18,255
    49d4:	14801035 	stwio	r18,64(r2)
    49d8:	00bfffc4 	movi	r2,-1
    49dc:	dfc00317 	ldw	ra,12(sp)
    49e0:	dc800217 	ldw	r18,8(sp)
    49e4:	dc400117 	ldw	r17,4(sp)
    49e8:	dc000017 	ldw	r16,0(sp)
    49ec:	dec00404 	addi	sp,sp,16
    49f0:	f800283a 	ret
    49f4:	010001c4 	movi	r4,7
    49f8:	01400074 	movhi	r5,1
    49fc:	297d8404 	addi	r5,r5,-2544
    4a00:	00080400 	call	8040 <syslog>
    4a04:	80800017 	ldw	r2,0(r16)
    4a08:	94803fcc 	andi	r18,r18,255
    4a0c:	14801035 	stwio	r18,64(r2)
    4a10:	0005883a 	mov	r2,zero
    4a14:	dfc00317 	ldw	ra,12(sp)
    4a18:	dc800217 	ldw	r18,8(sp)
    4a1c:	dc400117 	ldw	r17,4(sp)
    4a20:	dc000017 	ldw	r16,0(sp)
    4a24:	dec00404 	addi	sp,sp,16
    4a28:	f800283a 	ret
    4a2c:	01000104 	movi	r4,4
    4a30:	01400074 	movhi	r5,1
    4a34:	297d5c04 	addi	r5,r5,-2704
    4a38:	00080400 	call	8040 <syslog>
    4a3c:	80800017 	ldw	r2,0(r16)
    4a40:	94803fcc 	andi	r18,r18,255
    4a44:	14801035 	stwio	r18,64(r2)
    4a48:	00bfff84 	movi	r2,-2
    4a4c:	003fe306 	br	49dc <tse_phy_restart_an+0xbc>
    4a50:	0001883a 	nop
    4a54:	0001883a 	nop
    4a58:	0001883a 	nop
    4a5c:	0001883a 	nop

00004a60 <tse_mac_aTxWrite>:
    4a60:	deffff04 	addi	sp,sp,-4
    4a64:	dfc00015 	stw	ra,0(sp)
    4a68:	008003f4 	movhi	r2,15
    4a6c:	10909044 	addi	r2,r2,16961
    4a70:	21800317 	ldw	r6,12(r4)
    4a74:	00000106 	br	4a7c <tse_mac_aTxWrite+0x1c>
    4a78:	10001026 	beq	r2,zero,4abc <tse_mac_aTxWrite+0x5c>
    4a7c:	30c00037 	ldwio	r3,0(r6)
    4a80:	18c0040c 	andi	r3,r3,16
    4a84:	10bfffc4 	addi	r2,r2,-1
    4a88:	183ffb1e 	bne	r3,zero,4a78 <tse_mac_aTxWrite+0x18>
    4a8c:	30000435 	stwio	zero,16(r6)
    4a90:	20800317 	ldw	r2,12(r4)
    4a94:	00c03fc4 	movi	r3,255
    4a98:	10c00035 	stwio	r3,0(r2)
    4a9c:	21000317 	ldw	r4,12(r4)
    4aa0:	00055200 	call	5520 <avalon_sgdma_do_async_transfer>
    4aa4:	10803fcc 	andi	r2,r2,255
    4aa8:	1005003a 	cmpeq	r2,r2,zero
    4aac:	10bfffc4 	addi	r2,r2,-1
    4ab0:	dfc00017 	ldw	ra,0(sp)
    4ab4:	dec00104 	addi	sp,sp,4
    4ab8:	f800283a 	ret
    4abc:	01000104 	movi	r4,4
    4ac0:	01400074 	movhi	r5,1
    4ac4:	297d4704 	addi	r5,r5,-2788
    4ac8:	00080400 	call	8040 <syslog>
    4acc:	00bffa84 	movi	r2,-22
    4ad0:	dfc00017 	ldw	ra,0(sp)
    4ad4:	dec00104 	addi	sp,sp,4
    4ad8:	f800283a 	ret
    4adc:	0001883a 	nop

00004ae0 <tse_mac_aRxRead>:
    4ae0:	deffff04 	addi	sp,sp,-4
    4ae4:	dfc00015 	stw	ra,0(sp)
    4ae8:	008003f4 	movhi	r2,15
    4aec:	10909044 	addi	r2,r2,16961
    4af0:	21000417 	ldw	r4,16(r4)
    4af4:	00000106 	br	4afc <tse_mac_aRxRead+0x1c>
    4af8:	10000b26 	beq	r2,zero,4b28 <tse_mac_aRxRead+0x48>
    4afc:	20c00037 	ldwio	r3,0(r4)
    4b00:	18c0040c 	andi	r3,r3,16
    4b04:	10bfffc4 	addi	r2,r2,-1
    4b08:	183ffb1e 	bne	r3,zero,4af8 <tse_mac_aRxRead+0x18>
    4b0c:	00055200 	call	5520 <avalon_sgdma_do_async_transfer>
    4b10:	10803fcc 	andi	r2,r2,255
    4b14:	1005003a 	cmpeq	r2,r2,zero
    4b18:	10bfffc4 	addi	r2,r2,-1
    4b1c:	dfc00017 	ldw	ra,0(sp)
    4b20:	dec00104 	addi	sp,sp,4
    4b24:	f800283a 	ret
    4b28:	01000104 	movi	r4,4
    4b2c:	01400074 	movhi	r5,1
    4b30:	297d8e04 	addi	r5,r5,-2504
    4b34:	00080400 	call	8040 <syslog>
    4b38:	00bffa84 	movi	r2,-22
    4b3c:	dfc00017 	ldw	ra,0(sp)
    4b40:	dec00104 	addi	sp,sp,4
    4b44:	f800283a 	ret
    4b48:	0001883a 	nop
    4b4c:	0001883a 	nop
    4b50:	0001883a 	nop
    4b54:	0001883a 	nop
    4b58:	0001883a 	nop
    4b5c:	0001883a 	nop

00004b60 <getPHYSpeed>:
    4b60:	defffb04 	addi	sp,sp,-20
    4b64:	dc000115 	stw	r16,4(sp)
    4b68:	dfc00415 	stw	ra,16(sp)
    4b6c:	dc800315 	stw	r18,12(sp)
    4b70:	dc400215 	stw	r17,8(sp)
    4b74:	2021883a 	mov	r16,r4
    4b78:	20009b26 	beq	r4,zero,4de8 <getPHYSpeed+0x288>
    4b7c:	20800017 	ldw	r2,0(r4)
    4b80:	20c00203 	ldbu	r3,8(r4)
    4b84:	01400044 	movi	r5,1
    4b88:	1023883a 	mov	r17,r2
    4b8c:	1940ad26 	beq	r3,r5,4e44 <getPHYSpeed+0x2e4>
    4b90:	01400084 	movi	r5,2
    4b94:	1940cb26 	beq	r3,r5,4ec4 <getPHYSpeed+0x364>
    4b98:	10801004 	addi	r2,r2,64
    4b9c:	14800037 	ldwio	r18,0(r2)
    4ba0:	80c00603 	ldbu	r3,24(r16)
    4ba4:	10c00035 	stwio	r3,0(r2)
    4ba8:	010001c4 	movi	r4,7
    4bac:	01400074 	movhi	r5,1
    4bb0:	297e3004 	addi	r5,r5,-1856
    4bb4:	00080400 	call	8040 <syslog>
    4bb8:	80800017 	ldw	r2,0(r16)
    4bbc:	10c0a037 	ldwio	r3,640(r2)
    4bc0:	1806d3ba 	srli	r3,r3,14
    4bc4:	18c0004c 	andi	r3,r3,1
    4bc8:	1800371e 	bne	r3,zero,4ca8 <getPHYSpeed+0x148>
    4bcc:	1080a137 	ldwio	r2,644(r2)
    4bd0:	1004d17a 	srli	r2,r2,5
    4bd4:	1080004c 	andi	r2,r2,1
    4bd8:	10003326 	beq	r2,zero,4ca8 <getPHYSpeed+0x148>
    4bdc:	010001c4 	movi	r4,7
    4be0:	01400074 	movhi	r5,1
    4be4:	297e6804 	addi	r5,r5,-1632
    4be8:	00080400 	call	8040 <syslog>
    4bec:	80800017 	ldw	r2,0(r16)
    4bf0:	94803fcc 	andi	r18,r18,255
    4bf4:	14801035 	stwio	r18,64(r2)
    4bf8:	80800603 	ldbu	r2,24(r16)
    4bfc:	88801035 	stwio	r2,64(r17)
    4c00:	8009883a 	mov	r4,r16
    4c04:	000b883a 	mov	r5,zero
    4c08:	01800384 	movi	r6,14
    4c0c:	000f883a 	mov	r7,zero
    4c10:	00048c00 	call	48c0 <tse_phy_wr_mdio_reg.constprop.2>
    4c14:	80800717 	ldw	r2,28(r16)
    4c18:	1000f626 	beq	r2,zero,4ff4 <getPHYSpeed+0x494>
    4c1c:	10c01817 	ldw	r3,96(r2)
    4c20:	18004326 	beq	r3,zero,4d30 <getPHYSpeed+0x1d0>
    4c24:	8809883a 	mov	r4,r17
    4c28:	183ee83a 	callr	r3
    4c2c:	1100008c 	andi	r4,r2,2
    4c30:	1007883a 	mov	r3,r2
    4c34:	20003826 	beq	r4,zero,4d18 <getPHYSpeed+0x1b8>
    4c38:	04400084 	movi	r17,2
    4c3c:	1900006c 	andhi	r4,r3,1
    4c40:	1c00004c 	andi	r16,r3,1
    4c44:	2000db1e 	bne	r4,zero,4fb4 <getPHYSpeed+0x454>
    4c48:	89003fcc 	andi	r4,r17,255
    4c4c:	00c00084 	movi	r3,2
    4c50:	20c06226 	beq	r4,r3,4ddc <getPHYSpeed+0x27c>
    4c54:	00c00044 	movi	r3,1
    4c58:	20c0f126 	beq	r4,r3,5020 <getPHYSpeed+0x4c0>
    4c5c:	2000761e 	bne	r4,zero,4e38 <getPHYSpeed+0x2d8>
    4c60:	01800074 	movhi	r6,1
    4c64:	31bd9a04 	addi	r6,r6,-2456
    4c68:	84003fcc 	andi	r16,r16,255
    4c6c:	8000581e 	bne	r16,zero,4dd0 <getPHYSpeed+0x270>
    4c70:	01c00074 	movhi	r7,1
    4c74:	39fd9d04 	addi	r7,r7,-2444
    4c78:	010001c4 	movi	r4,7
    4c7c:	01400074 	movhi	r5,1
    4c80:	297e9d04 	addi	r5,r5,-1420
    4c84:	d8800015 	stw	r2,0(sp)
    4c88:	00080400 	call	8040 <syslog>
    4c8c:	d8800017 	ldw	r2,0(sp)
    4c90:	dfc00417 	ldw	ra,16(sp)
    4c94:	dc800317 	ldw	r18,12(sp)
    4c98:	dc400217 	ldw	r17,8(sp)
    4c9c:	dc000117 	ldw	r16,4(sp)
    4ca0:	dec00504 	addi	sp,sp,20
    4ca4:	f800283a 	ret
    4ca8:	01400074 	movhi	r5,1
    4cac:	297e3904 	addi	r5,r5,-1820
    4cb0:	010001c4 	movi	r4,7
    4cb4:	00080400 	call	8040 <syslog>
    4cb8:	8009883a 	mov	r4,r16
    4cbc:	01400134 	movhi	r5,4
    4cc0:	29742404 	addi	r5,r5,-12144
    4cc4:	00049200 	call	4920 <tse_phy_restart_an>
    4cc8:	00ffffc4 	movi	r3,-1
    4ccc:	10ffc31e 	bne	r2,r3,4bdc <getPHYSpeed+0x7c>
    4cd0:	01000104 	movi	r4,4
    4cd4:	01400074 	movhi	r5,1
    4cd8:	297e4b04 	addi	r5,r5,-1748
    4cdc:	00080400 	call	8040 <syslog>
    4ce0:	80800017 	ldw	r2,0(r16)
    4ce4:	94803fcc 	andi	r18,r18,255
    4ce8:	14801035 	stwio	r18,64(r2)
    4cec:	01000104 	movi	r4,4
    4cf0:	01400074 	movhi	r5,1
    4cf4:	297e5604 	addi	r5,r5,-1704
    4cf8:	01800074 	movhi	r6,1
    4cfc:	31bd9504 	addi	r6,r6,-2476
    4d00:	01c00074 	movhi	r7,1
    4d04:	39fd9b04 	addi	r7,r7,-2452
    4d08:	00080400 	call	8040 <syslog>
    4d0c:	00800234 	movhi	r2,8
    4d10:	10800144 	addi	r2,r2,5
    4d14:	003fde06 	br	4c90 <getPHYSpeed+0x130>
    4d18:	1900010c 	andi	r4,r3,4
    4d1c:	2000ad1e 	bne	r4,zero,4fd4 <getPHYSpeed+0x474>
    4d20:	1900020c 	andi	r4,r3,8
    4d24:	2000ad26 	beq	r4,zero,4fdc <getPHYSpeed+0x47c>
    4d28:	0023883a 	mov	r17,zero
    4d2c:	003fc306 	br	4c3c <getPHYSpeed+0xdc>
    4d30:	10c01583 	ldbu	r3,86(r2)
    4d34:	18001e26 	beq	r3,zero,4db0 <getPHYSpeed+0x250>
    4d38:	81400017 	ldw	r5,0(r16)
    4d3c:	18c7883a 	add	r3,r3,r3
    4d40:	144015c3 	ldbu	r17,87(r2)
    4d44:	2940a004 	addi	r5,r5,640
    4d48:	18c7883a 	add	r3,r3,r3
    4d4c:	28c7883a 	add	r3,r5,r3
    4d50:	19000037 	ldwio	r4,0(r3)
    4d54:	10c01583 	ldbu	r3,86(r2)
    4d58:	213fffcc 	andi	r4,r4,65535
    4d5c:	2463d83a 	sra	r17,r4,r17
    4d60:	18c7883a 	add	r3,r3,r3
    4d64:	10801603 	ldbu	r2,88(r2)
    4d68:	18c7883a 	add	r3,r3,r3
    4d6c:	8c4000cc 	andi	r17,r17,3
    4d70:	28cb883a 	add	r5,r5,r3
    4d74:	28c00037 	ldwio	r3,0(r5)
    4d78:	18ffffcc 	andi	r3,r3,65535
    4d7c:	1885d83a 	sra	r2,r3,r2
    4d80:	89003fcc 	andi	r4,r17,255
    4d84:	00c00084 	movi	r3,2
    4d88:	1080004c 	andi	r2,r2,1
    4d8c:	1021883a 	mov	r16,r2
    4d90:	20c09f26 	beq	r4,r3,5010 <getPHYSpeed+0x4b0>
    4d94:	00c00044 	movi	r3,1
    4d98:	20c09226 	beq	r4,r3,4fe4 <getPHYSpeed+0x484>
    4d9c:	2000a31e 	bne	r4,zero,502c <getPHYSpeed+0x4cc>
    4da0:	10800214 	ori	r2,r2,8
    4da4:	0007883a 	mov	r3,zero
    4da8:	10c4b03a 	or	r2,r2,r3
    4dac:	003fa706 	br	4c4c <getPHYSpeed+0xec>
    4db0:	01000104 	movi	r4,4
    4db4:	01400074 	movhi	r5,1
    4db8:	297e8804 	addi	r5,r5,-1504
    4dbc:	00080400 	call	8040 <syslog>
    4dc0:	008000b4 	movhi	r2,2
    4dc4:	10800144 	addi	r2,r2,5
    4dc8:	01800074 	movhi	r6,1
    4dcc:	31bd9504 	addi	r6,r6,-2476
    4dd0:	01c00074 	movhi	r7,1
    4dd4:	39fd9b04 	addi	r7,r7,-2452
    4dd8:	003fa706 	br	4c78 <getPHYSpeed+0x118>
    4ddc:	01800074 	movhi	r6,1
    4de0:	31bd9604 	addi	r6,r6,-2472
    4de4:	003fa006 	br	4c68 <getPHYSpeed+0x108>
    4de8:	01800074 	movhi	r6,1
    4dec:	31bd9504 	addi	r6,r6,-2476
    4df0:	01c00074 	movhi	r7,1
    4df4:	39fd9b04 	addi	r7,r7,-2452
    4df8:	010000c4 	movi	r4,3
    4dfc:	01400074 	movhi	r5,1
    4e00:	297d9f04 	addi	r5,r5,-2436
    4e04:	00080400 	call	8040 <syslog>
    4e08:	010000c4 	movi	r4,3
    4e0c:	01400074 	movhi	r5,1
    4e10:	297db104 	addi	r5,r5,-2364
    4e14:	00080400 	call	8040 <syslog>
    4e18:	00802034 	movhi	r2,128
    4e1c:	10800144 	addi	r2,r2,5
    4e20:	dfc00417 	ldw	ra,16(sp)
    4e24:	dc800317 	ldw	r18,12(sp)
    4e28:	dc400217 	ldw	r17,8(sp)
    4e2c:	dc000117 	ldw	r16,4(sp)
    4e30:	dec00504 	addi	sp,sp,20
    4e34:	f800283a 	ret
    4e38:	01800074 	movhi	r6,1
    4e3c:	31bd9804 	addi	r6,r6,-2464
    4e40:	003f8906 	br	4c68 <getPHYSpeed+0x108>
    4e44:	10801004 	addi	r2,r2,64
    4e48:	14800037 	ldwio	r18,0(r2)
    4e4c:	20c00603 	ldbu	r3,24(r4)
    4e50:	10c00035 	stwio	r3,0(r2)
    4e54:	01400244 	movi	r5,9
    4e58:	280d883a 	mov	r6,r5
    4e5c:	000f883a 	mov	r7,zero
    4e60:	00048c00 	call	48c0 <tse_phy_wr_mdio_reg.constprop.2>
    4e64:	01400074 	movhi	r5,1
    4e68:	297dbd04 	addi	r5,r5,-2316
    4e6c:	000d883a 	mov	r6,zero
    4e70:	010001c4 	movi	r4,7
    4e74:	00080400 	call	8040 <syslog>
    4e78:	8009883a 	mov	r4,r16
    4e7c:	01400244 	movi	r5,9
    4e80:	000f883a 	mov	r7,zero
    4e84:	01800204 	movi	r6,8
    4e88:	00048c00 	call	48c0 <tse_phy_wr_mdio_reg.constprop.2>
    4e8c:	010001c4 	movi	r4,7
    4e90:	01400074 	movhi	r5,1
    4e94:	297dce04 	addi	r5,r5,-2248
    4e98:	000d883a 	mov	r6,zero
    4e9c:	00080400 	call	8040 <syslog>
    4ea0:	80800017 	ldw	r2,0(r16)
    4ea4:	94803fcc 	andi	r18,r18,255
    4ea8:	14801035 	stwio	r18,64(r2)
    4eac:	8009883a 	mov	r4,r16
    4eb0:	01400134 	movhi	r5,4
    4eb4:	29742404 	addi	r5,r5,-12144
    4eb8:	00049200 	call	4920 <tse_phy_restart_an>
    4ebc:	80800017 	ldw	r2,0(r16)
    4ec0:	003f3506 	br	4b98 <getPHYSpeed+0x38>
    4ec4:	10801004 	addi	r2,r2,64
    4ec8:	14800037 	ldwio	r18,0(r2)
    4ecc:	20c00603 	ldbu	r3,24(r4)
    4ed0:	10c00035 	stwio	r3,0(r2)
    4ed4:	000f883a 	mov	r7,zero
    4ed8:	01400104 	movi	r5,4
    4edc:	01800244 	movi	r6,9
    4ee0:	00048c00 	call	48c0 <tse_phy_wr_mdio_reg.constprop.2>
    4ee4:	01400074 	movhi	r5,1
    4ee8:	297dde04 	addi	r5,r5,-2184
    4eec:	000d883a 	mov	r6,zero
    4ef0:	010001c4 	movi	r4,7
    4ef4:	00080400 	call	8040 <syslog>
    4ef8:	8009883a 	mov	r4,r16
    4efc:	000f883a 	mov	r7,zero
    4f00:	01400104 	movi	r5,4
    4f04:	01800204 	movi	r6,8
    4f08:	00048c00 	call	48c0 <tse_phy_wr_mdio_reg.constprop.2>
    4f0c:	01400074 	movhi	r5,1
    4f10:	297dec04 	addi	r5,r5,-2128
    4f14:	000d883a 	mov	r6,zero
    4f18:	010001c4 	movi	r4,7
    4f1c:	00080400 	call	8040 <syslog>
    4f20:	8009883a 	mov	r4,r16
    4f24:	000f883a 	mov	r7,zero
    4f28:	01400104 	movi	r5,4
    4f2c:	018001c4 	movi	r6,7
    4f30:	00048c00 	call	48c0 <tse_phy_wr_mdio_reg.constprop.2>
    4f34:	010001c4 	movi	r4,7
    4f38:	01400074 	movhi	r5,1
    4f3c:	297dfd04 	addi	r5,r5,-2060
    4f40:	000d883a 	mov	r6,zero
    4f44:	00080400 	call	8040 <syslog>
    4f48:	80800017 	ldw	r2,0(r16)
    4f4c:	94803fcc 	andi	r18,r18,255
    4f50:	14801035 	stwio	r18,64(r2)
    4f54:	80800017 	ldw	r2,0(r16)
    4f58:	10801004 	addi	r2,r2,64
    4f5c:	14800037 	ldwio	r18,0(r2)
    4f60:	80c00603 	ldbu	r3,24(r16)
    4f64:	10c00035 	stwio	r3,0(r2)
    4f68:	000f883a 	mov	r7,zero
    4f6c:	8009883a 	mov	r4,r16
    4f70:	01400104 	movi	r5,4
    4f74:	01800184 	movi	r6,6
    4f78:	00048c00 	call	48c0 <tse_phy_wr_mdio_reg.constprop.2>
    4f7c:	01400074 	movhi	r5,1
    4f80:	297e0e04 	addi	r5,r5,-1992
    4f84:	000d883a 	mov	r6,zero
    4f88:	010001c4 	movi	r4,7
    4f8c:	00080400 	call	8040 <syslog>
    4f90:	8009883a 	mov	r4,r16
    4f94:	01400104 	movi	r5,4
    4f98:	000f883a 	mov	r7,zero
    4f9c:	01800144 	movi	r6,5
    4fa0:	00048c00 	call	48c0 <tse_phy_wr_mdio_reg.constprop.2>
    4fa4:	010001c4 	movi	r4,7
    4fa8:	01400074 	movhi	r5,1
    4fac:	297e1f04 	addi	r5,r5,-1924
    4fb0:	003fb906 	br	4e98 <getPHYSpeed+0x338>
    4fb4:	01000104 	movi	r4,4
    4fb8:	01400074 	movhi	r5,1
    4fbc:	297e7d04 	addi	r5,r5,-1548
    4fc0:	d8800015 	stw	r2,0(sp)
    4fc4:	00080400 	call	8040 <syslog>
    4fc8:	89003fcc 	andi	r4,r17,255
    4fcc:	d8800017 	ldw	r2,0(sp)
    4fd0:	003f1e06 	br	4c4c <getPHYSpeed+0xec>
    4fd4:	04400044 	movi	r17,1
    4fd8:	003f1806 	br	4c3c <getPHYSpeed+0xdc>
    4fdc:	044000c4 	movi	r17,3
    4fe0:	003f1606 	br	4c3c <getPHYSpeed+0xdc>
    4fe4:	10800114 	ori	r2,r2,4
    4fe8:	0007883a 	mov	r3,zero
    4fec:	10c4b03a 	or	r2,r2,r3
    4ff0:	003f1606 	br	4c4c <getPHYSpeed+0xec>
    4ff4:	01000104 	movi	r4,4
    4ff8:	01400074 	movhi	r5,1
    4ffc:	297e7104 	addi	r5,r5,-1596
    5000:	00080400 	call	8040 <syslog>
    5004:	00800134 	movhi	r2,4
    5008:	10800144 	addi	r2,r2,5
    500c:	003f6e06 	br	4dc8 <getPHYSpeed+0x268>
    5010:	10800094 	ori	r2,r2,2
    5014:	0007883a 	mov	r3,zero
    5018:	10c4b03a 	or	r2,r2,r3
    501c:	003f0b06 	br	4c4c <getPHYSpeed+0xec>
    5020:	01800074 	movhi	r6,1
    5024:	31bd9504 	addi	r6,r6,-2476
    5028:	003f0f06 	br	4c68 <getPHYSpeed+0x108>
    502c:	20c000e0 	cmpeqi	r3,r4,3
    5030:	1806943a 	slli	r3,r3,16
    5034:	10c4b03a 	or	r2,r2,r3
    5038:	003f0406 	br	4c4c <getPHYSpeed+0xec>
    503c:	0001883a 	nop

00005040 <tse_phy_init>:
    5040:	defff904 	addi	sp,sp,-28
    5044:	dfc00615 	stw	ra,24(sp)
    5048:	dc000015 	stw	r16,0(sp)
    504c:	dd400515 	stw	r21,20(sp)
    5050:	dd000415 	stw	r20,16(sp)
    5054:	dcc00315 	stw	r19,12(sp)
    5058:	dc800215 	stw	r18,8(sp)
    505c:	dc400115 	stw	r17,4(sp)
    5060:	21800317 	ldw	r6,12(r4)
    5064:	2021883a 	mov	r16,r4
    5068:	01400074 	movhi	r5,1
    506c:	297ea704 	addi	r5,r5,-1380
    5070:	010001c4 	movi	r4,7
    5074:	00080400 	call	8040 <syslog>
    5078:	81800417 	ldw	r6,16(r16)
    507c:	010001c4 	movi	r4,7
    5080:	01400074 	movhi	r5,1
    5084:	297eb104 	addi	r5,r5,-1340
    5088:	00080400 	call	8040 <syslog>
    508c:	80800317 	ldw	r2,12(r16)
    5090:	1000ec26 	beq	r2,zero,5444 <tse_phy_init+0x404>
    5094:	80800417 	ldw	r2,16(r16)
    5098:	1000ea26 	beq	r2,zero,5444 <tse_phy_init+0x404>
    509c:	80800203 	ldbu	r2,8(r16)
    50a0:	00c00044 	movi	r3,1
    50a4:	10c0e026 	beq	r2,r3,5428 <tse_phy_init+0x3e8>
    50a8:	1000cf26 	beq	r2,zero,53e8 <tse_phy_init+0x3a8>
    50ac:	00c00084 	movi	r3,2
    50b0:	010001c4 	movi	r4,7
    50b4:	01400074 	movhi	r5,1
    50b8:	297ec604 	addi	r5,r5,-1256
    50bc:	10c0d626 	beq	r2,r3,5418 <tse_phy_init+0x3d8>
    50c0:	01800074 	movhi	r6,1
    50c4:	31bd9804 	addi	r6,r6,-2464
    50c8:	00080400 	call	8040 <syslog>
    50cc:	81800017 	ldw	r6,0(r16)
    50d0:	010001c4 	movi	r4,7
    50d4:	01400074 	movhi	r5,1
    50d8:	297ee204 	addi	r5,r5,-1144
    50dc:	00080400 	call	8040 <syslog>
    50e0:	84400017 	ldw	r17,0(r16)
    50e4:	8c801004 	addi	r18,r17,64
    50e8:	95000037 	ldwio	r20,0(r18)
    50ec:	80800603 	ldbu	r2,24(r16)
    50f0:	90800035 	stwio	r2,0(r18)
    50f4:	8880a237 	ldwio	r2,648(r17)
    50f8:	8cc0a337 	ldwio	r19,652(r17)
    50fc:	14c0c126 	beq	r2,r19,5404 <tse_phy_init+0x3c4>
    5100:	980dd2ba 	srai	r6,r19,10
    5104:	100491ba 	slli	r2,r2,6
    5108:	010001c4 	movi	r4,7
    510c:	31800fcc 	andi	r6,r6,63
    5110:	308cb03a 	or	r6,r6,r2
    5114:	01400074 	movhi	r5,1
    5118:	297eed04 	addi	r5,r5,-1100
    511c:	00080400 	call	8040 <syslog>
    5120:	980dd13a 	srai	r6,r19,4
    5124:	010001c4 	movi	r4,7
    5128:	01400074 	movhi	r5,1
    512c:	297ef704 	addi	r5,r5,-1060
    5130:	31800fcc 	andi	r6,r6,63
    5134:	00080400 	call	8040 <syslog>
    5138:	998003cc 	andi	r6,r19,15
    513c:	01400074 	movhi	r5,1
    5140:	297f0104 	addi	r5,r5,-1020
    5144:	010001c4 	movi	r4,7
    5148:	00080400 	call	8040 <syslog>
    514c:	8009883a 	mov	r4,r16
    5150:	000b883a 	mov	r5,zero
    5154:	01800384 	movi	r6,14
    5158:	000f883a 	mov	r7,zero
    515c:	00048c00 	call	48c0 <tse_phy_wr_mdio_reg.constprop.2>
    5160:	80800017 	ldw	r2,0(r16)
    5164:	10801004 	addi	r2,r2,64
    5168:	15400037 	ldwio	r21,0(r2)
    516c:	80c00603 	ldbu	r3,24(r16)
    5170:	10c00035 	stwio	r3,0(r2)
    5174:	80800017 	ldw	r2,0(r16)
    5178:	14c0af37 	ldwio	r19,700(r2)
    517c:	01400244 	movi	r5,9
    5180:	9826d37a 	srli	r19,r19,13
    5184:	8009883a 	mov	r4,r16
    5188:	280d883a 	mov	r6,r5
    518c:	9cc0004c 	andi	r19,r19,1
    5190:	980f883a 	mov	r7,r19
    5194:	00048c00 	call	48c0 <tse_phy_wr_mdio_reg.constprop.2>
    5198:	010001c4 	movi	r4,7
    519c:	01400074 	movhi	r5,1
    51a0:	297dbd04 	addi	r5,r5,-2316
    51a4:	980d883a 	mov	r6,r19
    51a8:	00080400 	call	8040 <syslog>
    51ac:	80800017 	ldw	r2,0(r16)
    51b0:	14c0af37 	ldwio	r19,700(r2)
    51b4:	01400244 	movi	r5,9
    51b8:	9826d33a 	srli	r19,r19,12
    51bc:	8009883a 	mov	r4,r16
    51c0:	01800204 	movi	r6,8
    51c4:	9cc0004c 	andi	r19,r19,1
    51c8:	980f883a 	mov	r7,r19
    51cc:	00048c00 	call	48c0 <tse_phy_wr_mdio_reg.constprop.2>
    51d0:	010001c4 	movi	r4,7
    51d4:	01400074 	movhi	r5,1
    51d8:	297f0b04 	addi	r5,r5,-980
    51dc:	980d883a 	mov	r6,r19
    51e0:	00080400 	call	8040 <syslog>
    51e4:	80800017 	ldw	r2,0(r16)
    51e8:	ad403fcc 	andi	r21,r21,255
    51ec:	15401035 	stwio	r21,64(r2)
    51f0:	80800017 	ldw	r2,0(r16)
    51f4:	10801004 	addi	r2,r2,64
    51f8:	15400037 	ldwio	r21,0(r2)
    51fc:	80c00603 	ldbu	r3,24(r16)
    5200:	10c00035 	stwio	r3,0(r2)
    5204:	80800017 	ldw	r2,0(r16)
    5208:	14c0a137 	ldwio	r19,644(r2)
    520c:	01400104 	movi	r5,4
    5210:	9cffffcc 	andi	r19,r19,65535
    5214:	9827d3fa 	srai	r19,r19,15
    5218:	8009883a 	mov	r4,r16
    521c:	01800244 	movi	r6,9
    5220:	980f883a 	mov	r7,r19
    5224:	00048c00 	call	48c0 <tse_phy_wr_mdio_reg.constprop.2>
    5228:	010001c4 	movi	r4,7
    522c:	01400074 	movhi	r5,1
    5230:	297dde04 	addi	r5,r5,-2184
    5234:	980d883a 	mov	r6,r19
    5238:	00080400 	call	8040 <syslog>
    523c:	80800017 	ldw	r2,0(r16)
    5240:	14c0a137 	ldwio	r19,644(r2)
    5244:	01400104 	movi	r5,4
    5248:	9826d3ba 	srli	r19,r19,14
    524c:	8009883a 	mov	r4,r16
    5250:	01800204 	movi	r6,8
    5254:	9cc0004c 	andi	r19,r19,1
    5258:	980f883a 	mov	r7,r19
    525c:	00048c00 	call	48c0 <tse_phy_wr_mdio_reg.constprop.2>
    5260:	010001c4 	movi	r4,7
    5264:	01400074 	movhi	r5,1
    5268:	297dec04 	addi	r5,r5,-2128
    526c:	980d883a 	mov	r6,r19
    5270:	00080400 	call	8040 <syslog>
    5274:	80800017 	ldw	r2,0(r16)
    5278:	14c0a137 	ldwio	r19,644(r2)
    527c:	01400104 	movi	r5,4
    5280:	9826d37a 	srli	r19,r19,13
    5284:	8009883a 	mov	r4,r16
    5288:	018001c4 	movi	r6,7
    528c:	9cc0004c 	andi	r19,r19,1
    5290:	980f883a 	mov	r7,r19
    5294:	00048c00 	call	48c0 <tse_phy_wr_mdio_reg.constprop.2>
    5298:	010001c4 	movi	r4,7
    529c:	01400074 	movhi	r5,1
    52a0:	297dfd04 	addi	r5,r5,-2060
    52a4:	980d883a 	mov	r6,r19
    52a8:	00080400 	call	8040 <syslog>
    52ac:	80800017 	ldw	r2,0(r16)
    52b0:	ad403fcc 	andi	r21,r21,255
    52b4:	15401035 	stwio	r21,64(r2)
    52b8:	80800017 	ldw	r2,0(r16)
    52bc:	10801004 	addi	r2,r2,64
    52c0:	15400037 	ldwio	r21,0(r2)
    52c4:	80c00603 	ldbu	r3,24(r16)
    52c8:	10c00035 	stwio	r3,0(r2)
    52cc:	80800017 	ldw	r2,0(r16)
    52d0:	14c0a137 	ldwio	r19,644(r2)
    52d4:	01400104 	movi	r5,4
    52d8:	9826d33a 	srli	r19,r19,12
    52dc:	8009883a 	mov	r4,r16
    52e0:	01800184 	movi	r6,6
    52e4:	9cc0004c 	andi	r19,r19,1
    52e8:	980f883a 	mov	r7,r19
    52ec:	00048c00 	call	48c0 <tse_phy_wr_mdio_reg.constprop.2>
    52f0:	010001c4 	movi	r4,7
    52f4:	01400074 	movhi	r5,1
    52f8:	297e0e04 	addi	r5,r5,-1992
    52fc:	980d883a 	mov	r6,r19
    5300:	00080400 	call	8040 <syslog>
    5304:	80800017 	ldw	r2,0(r16)
    5308:	14c0a137 	ldwio	r19,644(r2)
    530c:	01400104 	movi	r5,4
    5310:	9826d2fa 	srli	r19,r19,11
    5314:	8009883a 	mov	r4,r16
    5318:	01800144 	movi	r6,5
    531c:	9cc0004c 	andi	r19,r19,1
    5320:	980f883a 	mov	r7,r19
    5324:	00048c00 	call	48c0 <tse_phy_wr_mdio_reg.constprop.2>
    5328:	010001c4 	movi	r4,7
    532c:	01400074 	movhi	r5,1
    5330:	297e1f04 	addi	r5,r5,-1924
    5334:	980d883a 	mov	r6,r19
    5338:	00080400 	call	8040 <syslog>
    533c:	80800017 	ldw	r2,0(r16)
    5340:	ad403fcc 	andi	r21,r21,255
    5344:	15401035 	stwio	r21,64(r2)
    5348:	8009883a 	mov	r4,r16
    534c:	014003f4 	movhi	r5,15
    5350:	29509004 	addi	r5,r5,16960
    5354:	00049200 	call	4920 <tse_phy_restart_an>
    5358:	81800717 	ldw	r6,28(r16)
    535c:	30000a26 	beq	r6,zero,5388 <tse_phy_init+0x348>
    5360:	30801717 	ldw	r2,92(r6)
    5364:	10000826 	beq	r2,zero,5388 <tse_phy_init+0x348>
    5368:	010001c4 	movi	r4,7
    536c:	01400074 	movhi	r5,1
    5370:	297f1c04 	addi	r5,r5,-912
    5374:	00080400 	call	8040 <syslog>
    5378:	80800717 	ldw	r2,28(r16)
    537c:	8809883a 	mov	r4,r17
    5380:	10801717 	ldw	r2,92(r2)
    5384:	103ee83a 	callr	r2
    5388:	80800817 	ldw	r2,32(r16)
    538c:	10000726 	beq	r2,zero,53ac <tse_phy_init+0x36c>
    5390:	010001c4 	movi	r4,7
    5394:	01400074 	movhi	r5,1
    5398:	297f2a04 	addi	r5,r5,-856
    539c:	00080400 	call	8040 <syslog>
    53a0:	80800817 	ldw	r2,32(r16)
    53a4:	8809883a 	mov	r4,r17
    53a8:	103ee83a 	callr	r2
    53ac:	010001c4 	movi	r4,7
    53b0:	01400074 	movhi	r5,1
    53b4:	29424504 	addi	r5,r5,2324
    53b8:	00080400 	call	8040 <syslog>
    53bc:	95000035 	stwio	r20,0(r18)
    53c0:	0005883a 	mov	r2,zero
    53c4:	dfc00617 	ldw	ra,24(sp)
    53c8:	dd400517 	ldw	r21,20(sp)
    53cc:	dd000417 	ldw	r20,16(sp)
    53d0:	dcc00317 	ldw	r19,12(sp)
    53d4:	dc800217 	ldw	r18,8(sp)
    53d8:	dc400117 	ldw	r17,4(sp)
    53dc:	dc000017 	ldw	r16,0(sp)
    53e0:	dec00704 	addi	sp,sp,28
    53e4:	f800283a 	ret
    53e8:	010001c4 	movi	r4,7
    53ec:	01400074 	movhi	r5,1
    53f0:	297ec604 	addi	r5,r5,-1256
    53f4:	01800074 	movhi	r6,1
    53f8:	31bedb04 	addi	r6,r6,-1172
    53fc:	00080400 	call	8040 <syslog>
    5400:	003f3206 	br	50cc <tse_phy_init+0x8c>
    5404:	010000c4 	movi	r4,3
    5408:	01400074 	movhi	r5,1
    540c:	297f3804 	addi	r5,r5,-800
    5410:	00080400 	call	8040 <syslog>
    5414:	003fe906 	br	53bc <tse_phy_init+0x37c>
    5418:	01800074 	movhi	r6,1
    541c:	31bed004 	addi	r6,r6,-1216
    5420:	00080400 	call	8040 <syslog>
    5424:	003f2906 	br	50cc <tse_phy_init+0x8c>
    5428:	010001c4 	movi	r4,7
    542c:	01400074 	movhi	r5,1
    5430:	297ec604 	addi	r5,r5,-1256
    5434:	01800074 	movhi	r6,1
    5438:	31bed504 	addi	r6,r6,-1196
    543c:	00080400 	call	8040 <syslog>
    5440:	003f2206 	br	50cc <tse_phy_init+0x8c>
    5444:	010000c4 	movi	r4,3
    5448:	01400074 	movhi	r5,1
    544c:	297ebb04 	addi	r5,r5,-1300
    5450:	00080400 	call	8040 <syslog>
    5454:	003f2206 	br	50e0 <tse_phy_init+0xa0>
    5458:	0001883a 	nop
    545c:	0001883a 	nop

00005460 <marvell_cfg_rgmii>:
    5460:	defffb04 	addi	sp,sp,-20
    5464:	dc800215 	stw	r18,8(sp)
    5468:	dc000015 	stw	r16,0(sp)
    546c:	2480bb04 	addi	r18,r4,748
    5470:	2021883a 	mov	r16,r4
    5474:	dfc00415 	stw	ra,16(sp)
    5478:	dcc00315 	stw	r19,12(sp)
    547c:	dc400115 	stw	r17,4(sp)
    5480:	94c00037 	ldwio	r19,0(r18)
    5484:	044001c4 	movi	r17,7
    5488:	8809883a 	mov	r4,r17
    548c:	01400074 	movhi	r5,1
    5490:	297f4104 	addi	r5,r5,-764
    5494:	9cfffc0c 	andi	r19,r19,65520
    5498:	00080400 	call	8040 <syslog>
    549c:	9cc002d4 	ori	r19,r19,11
    54a0:	94c00035 	stwio	r19,0(r18)
    54a4:	8809883a 	mov	r4,r17
    54a8:	01400074 	movhi	r5,1
    54ac:	297f5004 	addi	r5,r5,-704
    54b0:	00080400 	call	8040 <syslog>
    54b4:	8080b404 	addi	r2,r16,720
    54b8:	10c00037 	ldwio	r3,0(r2)
    54bc:	18ffdf4c 	andi	r3,r3,65405
    54c0:	18c02094 	ori	r3,r3,130
    54c4:	10c00035 	stwio	r3,0(r2)
    54c8:	8809883a 	mov	r4,r17
    54cc:	01400074 	movhi	r5,1
    54d0:	297d5704 	addi	r5,r5,-2724
    54d4:	00080400 	call	8040 <syslog>
    54d8:	8400a004 	addi	r16,r16,640
    54dc:	80800037 	ldwio	r2,0(r16)
    54e0:	10a00014 	ori	r2,r2,32768
    54e4:	80800035 	stwio	r2,0(r16)
    54e8:	00800044 	movi	r2,1
    54ec:	dfc00417 	ldw	ra,16(sp)
    54f0:	dcc00317 	ldw	r19,12(sp)
    54f4:	dc800217 	ldw	r18,8(sp)
    54f8:	dc400117 	ldw	r17,4(sp)
    54fc:	dc000017 	ldw	r16,0(sp)
    5500:	dec00504 	addi	sp,sp,20
    5504:	f800283a 	ret
	...

00005520 <avalon_sgdma_do_async_transfer>:
    5520:	20800037 	ldwio	r2,0(r4)
    5524:	1080040c 	andi	r2,r2,16
    5528:	10000d1e 	bne	r2,zero,5560 <avalon_sgdma_do_async_transfer+0x40>
    552c:	20800404 	addi	r2,r4,16
    5530:	11800037 	ldwio	r6,0(r2)
    5534:	00fff7c4 	movi	r3,-33
    5538:	30c6703a 	and	r3,r6,r3
    553c:	10c00035 	stwio	r3,0(r2)
    5540:	00c03fc4 	movi	r3,255
    5544:	20c00035 	stwio	r3,0(r4)
    5548:	21400835 	stwio	r5,32(r4)
    554c:	10c00037 	ldwio	r3,0(r2)
    5550:	18c01e14 	ori	r3,r3,120
    5554:	10c00035 	stwio	r3,0(r2)
    5558:	0005883a 	mov	r2,zero
    555c:	f800283a 	ret
    5560:	00bffc04 	movi	r2,-16
    5564:	f800283a 	ret
    5568:	0001883a 	nop
    556c:	0001883a 	nop
    5570:	0001883a 	nop
    5574:	0001883a 	nop
    5578:	0001883a 	nop
    557c:	0001883a 	nop

00005580 <avalon_sgdma_construct_descriptor>:
    5580:	d8c0000b 	ldhu	r3,0(sp)
    5584:	288007c4 	addi	r2,r5,31
    5588:	12000023 	ldbuio	r8,0(r2)
    558c:	42001fcc 	andi	r8,r8,127
    5590:	12000025 	stbio	r8,0(r2)
    5594:	21800035 	stwio	r6,0(r4)
    5598:	21c00235 	stwio	r7,8(r4)
    559c:	21400435 	stwio	r5,16(r4)
    55a0:	20000135 	stwio	zero,4(r4)
    55a4:	20000335 	stwio	zero,12(r4)
    55a8:	20000535 	stwio	zero,20(r4)
    55ac:	20c0062d 	sthio	r3,24(r4)
    55b0:	2000072d 	sthio	zero,28(r4)
    55b4:	200007a5 	stbio	zero,30(r4)
    55b8:	200006a5 	stbio	zero,26(r4)
    55bc:	200006e5 	stbio	zero,27(r4)
    55c0:	d9400217 	ldw	r5,8(sp)
    55c4:	d8c00317 	ldw	r3,12(sp)
    55c8:	d9800117 	ldw	r6,4(sp)
    55cc:	280ac03a 	cmpne	r5,r5,zero
    55d0:	280a907a 	slli	r5,r5,1
    55d4:	1806c03a 	cmpne	r3,r3,zero
    55d8:	300d003a 	cmpeq	r6,r6,zero
    55dc:	180690ba 	slli	r3,r3,2
    55e0:	00bfe044 	movi	r2,-127
    55e4:	1185c83a 	sub	r2,r2,r6
    55e8:	2884b03a 	or	r2,r5,r2
    55ec:	10c4b03a 	or	r2,r2,r3
    55f0:	208007e5 	stbio	r2,31(r4)
    55f4:	f800283a 	ret
    55f8:	0001883a 	nop
    55fc:	0001883a 	nop

00005600 <avalon_sgdma_init>:
    5600:	defffb04 	addi	sp,sp,-20
    5604:	dc400115 	stw	r17,4(sp)
    5608:	dc000015 	stw	r16,0(sp)
    560c:	04400184 	movi	r17,6
    5610:	24000404 	addi	r16,r4,16
    5614:	dc800215 	stw	r18,8(sp)
    5618:	800d883a 	mov	r6,r16
    561c:	2025883a 	mov	r18,r4
    5620:	01400074 	movhi	r5,1
    5624:	297f5a04 	addi	r5,r5,-664
    5628:	8809883a 	mov	r4,r17
    562c:	dfc00415 	stw	ra,16(sp)
    5630:	dcc00315 	stw	r19,12(sp)
    5634:	00080400 	call	8040 <syslog>
    5638:	04c00074 	movhi	r19,1
    563c:	980d883a 	mov	r6,r19
    5640:	8809883a 	mov	r4,r17
    5644:	01400074 	movhi	r5,1
    5648:	297f5f04 	addi	r5,r5,-644
    564c:	00080400 	call	8040 <syslog>
    5650:	8809883a 	mov	r4,r17
    5654:	800d883a 	mov	r6,r16
    5658:	01400074 	movhi	r5,1
    565c:	297f6404 	addi	r5,r5,-624
    5660:	00080400 	call	8040 <syslog>
    5664:	8809883a 	mov	r4,r17
    5668:	01400074 	movhi	r5,1
    566c:	297f6904 	addi	r5,r5,-604
    5670:	900d883a 	mov	r6,r18
    5674:	00080400 	call	8040 <syslog>
    5678:	84c00035 	stwio	r19,0(r16)
    567c:	84c00035 	stwio	r19,0(r16)
    5680:	80000035 	stwio	zero,0(r16)
    5684:	00803fc4 	movi	r2,255
    5688:	90800035 	stwio	r2,0(r18)
    568c:	dfc00417 	ldw	ra,16(sp)
    5690:	dcc00317 	ldw	r19,12(sp)
    5694:	dc800217 	ldw	r18,8(sp)
    5698:	dc400117 	ldw	r17,4(sp)
    569c:	dc000017 	ldw	r16,0(sp)
    56a0:	dec00504 	addi	sp,sp,20
    56a4:	f800283a 	ret
	...

000056c0 <udp_input>:
    56c0:	defff704 	addi	sp,sp,-36
    56c4:	dc000015 	stw	r16,0(sp)
    56c8:	dfc00815 	stw	ra,32(sp)
    56cc:	ddc00715 	stw	r23,28(sp)
    56d0:	dd800615 	stw	r22,24(sp)
    56d4:	dd400515 	stw	r21,20(sp)
    56d8:	dd000415 	stw	r20,16(sp)
    56dc:	dcc00315 	stw	r19,12(sp)
    56e0:	dc800215 	stw	r18,8(sp)
    56e4:	dc400115 	stw	r17,4(sp)
    56e8:	24800017 	ldw	r18,0(r4)
    56ec:	04000074 	movhi	r16,1
    56f0:	84034304 	addi	r16,r16,3340
    56f4:	81800417 	ldw	r6,16(r16)
    56f8:	90800503 	ldbu	r2,20(r18)
    56fc:	9200000b 	ldhu	r8,0(r18)
    5700:	81000017 	ldw	r4,0(r16)
    5704:	108003cc 	andi	r2,r2,15
    5708:	1085883a 	add	r2,r2,r2
    570c:	1085883a 	add	r2,r2,r2
    5710:	11c00404 	addi	r7,r2,16
    5714:	41d1c83a 	sub	r8,r8,r7
    5718:	82800117 	ldw	r10,4(r16)
    571c:	82400517 	ldw	r9,20(r16)
    5720:	30c00044 	addi	r3,r6,1
    5724:	4109883a 	add	r4,r8,r4
    5728:	198d803a 	cmpltu	r6,r3,r6
    572c:	2211803a 	cmpltu	r8,r4,r8
    5730:	4291883a 	add	r8,r8,r10
    5734:	324d883a 	add	r6,r6,r9
    5738:	81000015 	stw	r4,0(r16)
    573c:	82000115 	stw	r8,4(r16)
    5740:	80c00415 	stw	r3,16(r16)
    5744:	81800515 	stw	r6,20(r16)
    5748:	90c0000b 	ldhu	r3,0(r18)
    574c:	10800604 	addi	r2,r2,24
    5750:	18800a36 	bltu	r3,r2,577c <udp_input+0xbc>
    5754:	29800017 	ldw	r6,0(r5)
    5758:	19cfc83a 	sub	r7,r3,r7
    575c:	35800104 	addi	r22,r6,4
    5760:	95ad883a 	add	r22,r18,r22
    5764:	b080010b 	ldhu	r2,4(r22)
    5768:	1006923a 	slli	r3,r2,8
    576c:	1004d23a 	srli	r2,r2,8
    5770:	1884b03a 	or	r2,r3,r2
    5774:	10bfffcc 	andi	r2,r2,65535
    5778:	38801526 	beq	r7,r2,57d0 <udp_input+0x110>
    577c:	80c00817 	ldw	r3,32(r16)
    5780:	81400917 	ldw	r5,36(r16)
    5784:	9009883a 	mov	r4,r18
    5788:	18800044 	addi	r2,r3,1
    578c:	10c7803a 	cmpltu	r3,r2,r3
    5790:	1947883a 	add	r3,r3,r5
    5794:	80800815 	stw	r2,32(r16)
    5798:	80c00915 	stw	r3,36(r16)
    579c:	0000a800 	call	a80 <rel_net_buf>
    57a0:	00804044 	movi	r2,257
    57a4:	dfc00817 	ldw	ra,32(sp)
    57a8:	ddc00717 	ldw	r23,28(sp)
    57ac:	dd800617 	ldw	r22,24(sp)
    57b0:	dd400517 	ldw	r21,20(sp)
    57b4:	dd000417 	ldw	r20,16(sp)
    57b8:	dcc00317 	ldw	r19,12(sp)
    57bc:	dc800217 	ldw	r18,8(sp)
    57c0:	dc400117 	ldw	r17,4(sp)
    57c4:	dc000017 	ldw	r16,0(sp)
    57c8:	dec00904 	addi	sp,sp,36
    57cc:	f800283a 	ret
    57d0:	b080008b 	ldhu	r2,2(r22)
    57d4:	103fe926 	beq	r2,zero,577c <udp_input+0xbc>
    57d8:	b080018b 	ldhu	r2,6(r22)
    57dc:	10004f1e 	bne	r2,zero,591c <udp_input+0x25c>
    57e0:	00800074 	movhi	r2,1
    57e4:	1082fe04 	addi	r2,r2,3064
    57e8:	14400017 	ldw	r17,0(r2)
    57ec:	05c00074 	movhi	r23,1
    57f0:	bdc2ae04 	addi	r23,r23,2744
    57f4:	057fffc4 	movi	r21,-1
    57f8:	95000904 	addi	r20,r18,36
    57fc:	8c7fffc4 	addi	r17,r17,-1
    5800:	88800044 	addi	r2,r17,1
    5804:	8cc00924 	muli	r19,r17,36
    5808:	00802a0e 	bge	zero,r2,58b4 <udp_input+0x1f4>
    580c:	9de7883a 	add	r19,r19,r23
    5810:	9880030b 	ldhu	r2,12(r19)
    5814:	1082000c 	andi	r2,r2,2048
    5818:	10bfffcc 	andi	r2,r2,65535
    581c:	103ff726 	beq	r2,zero,57fc <udp_input+0x13c>
    5820:	00031800 	call	3180 <ether_get_ifnet>
    5824:	90c00917 	ldw	r3,36(r18)
    5828:	99000104 	addi	r4,r19,4
    582c:	a00b883a 	mov	r5,r20
    5830:	180cd63a 	srli	r6,r3,24
    5834:	1810963a 	slli	r8,r3,24
    5838:	19ffc00c 	andi	r7,r3,65280
    583c:	380e923a 	slli	r7,r7,8
    5840:	1806d23a 	srli	r3,r3,8
    5844:	320cb03a 	or	r6,r6,r8
    5848:	31ccb03a 	or	r6,r6,r7
    584c:	18ffc00c 	andi	r3,r3,65280
    5850:	30c6b03a 	or	r3,r6,r3
    5854:	1d400926 	beq	r3,r21,587c <udp_input+0x1bc>
    5858:	11800217 	ldw	r6,8(r2)
    585c:	11c00117 	ldw	r7,4(r2)
    5860:	0184303a 	nor	r2,zero,r6
    5864:	31cc703a 	and	r6,r6,r7
    5868:	118cb03a 	or	r6,r2,r6
    586c:	19800326 	beq	r3,r6,587c <udp_input+0x1bc>
    5870:	00017600 	call	1760 <in4_is_dstaddr_accept>
    5874:	10803fcc 	andi	r2,r2,255
    5878:	103fe026 	beq	r2,zero,57fc <udp_input+0x13c>
    587c:	b080008b 	ldhu	r2,2(r22)
    5880:	98c0020b 	ldhu	r3,8(r19)
    5884:	1008923a 	slli	r4,r2,8
    5888:	1004d23a 	srli	r2,r2,8
    588c:	2084b03a 	or	r2,r4,r2
    5890:	10bfffcc 	andi	r2,r2,65535
    5894:	18bfd91e 	bne	r3,r2,57fc <udp_input+0x13c>
    5898:	98800617 	ldw	r2,24(r19)
    589c:	103fb726 	beq	r2,zero,577c <udp_input+0xbc>
    58a0:	99000717 	ldw	r4,28(r19)
    58a4:	900b883a 	mov	r5,r18
    58a8:	0001e200 	call	1e20 <tinet_snd_dtq>
    58ac:	103fb31e 	bne	r2,zero,577c <udp_input+0xbc>
    58b0:	003fbb06 	br	57a0 <udp_input+0xe0>
    58b4:	90800917 	ldw	r2,36(r18)
    58b8:	1008963a 	slli	r4,r2,24
    58bc:	1022d63a 	srli	r17,r2,24
    58c0:	10ffc00c 	andi	r3,r2,65280
    58c4:	1806923a 	slli	r3,r3,8
    58c8:	1004d23a 	srli	r2,r2,8
    58cc:	8922b03a 	or	r17,r17,r4
    58d0:	88e2b03a 	or	r17,r17,r3
    58d4:	10bfc00c 	andi	r2,r2,65280
    58d8:	88a2b03a 	or	r17,r17,r2
    58dc:	00031800 	call	3180 <ether_get_ifnet>
    58e0:	10800117 	ldw	r2,4(r2)
    58e4:	88bfa51e 	bne	r17,r2,577c <udp_input+0xbc>
    58e8:	b080008b 	ldhu	r2,2(r22)
    58ec:	01000184 	movi	r4,6
    58f0:	01400074 	movhi	r5,1
    58f4:	297f6e04 	addi	r5,r5,-584
    58f8:	100c923a 	slli	r6,r2,8
    58fc:	1004d23a 	srli	r2,r2,8
    5900:	308cb03a 	or	r6,r6,r2
    5904:	31bfffcc 	andi	r6,r6,65535
    5908:	00080400 	call	8040 <syslog>
    590c:	010000c4 	movi	r4,3
    5910:	900b883a 	mov	r5,r18
    5914:	0002f200 	call	2f20 <icmp_error>
    5918:	003f9806 	br	577c <udp_input+0xbc>
    591c:	9009883a 	mov	r4,r18
    5920:	01400444 	movi	r5,17
    5924:	00015a00 	call	15a0 <in4_cksum>
    5928:	10bfffcc 	andi	r2,r2,65535
    592c:	103f931e 	bne	r2,zero,577c <udp_input+0xbc>
    5930:	003fab06 	br	57e0 <udp_input+0x120>
	...

00005940 <udp_alloc_auto_port>:
    5940:	defff804 	addi	sp,sp,-32
    5944:	00800074 	movhi	r2,1
    5948:	1082fe04 	addi	r2,r2,3064
    594c:	dc400115 	stw	r17,4(sp)
    5950:	14400017 	ldw	r17,0(r2)
    5954:	dc000015 	stw	r16,0(sp)
    5958:	d4200b8b 	ldhu	r16,-32722(gp)
    595c:	88ffffc4 	addi	r3,r17,-1
    5960:	18c00924 	muli	r3,r3,36
    5964:	00800074 	movhi	r2,1
    5968:	1082ae04 	addi	r2,r2,2744
    596c:	dcc00315 	stw	r19,12(sp)
    5970:	1cc00204 	addi	r19,r3,8
    5974:	18c00304 	addi	r3,r3,12
    5978:	dd800615 	stw	r22,24(sp)
    597c:	dd400515 	stw	r21,20(sp)
    5980:	dd000415 	stw	r20,16(sp)
    5984:	dc800215 	stw	r18,8(sp)
    5988:	dfc00715 	stw	ra,28(sp)
    598c:	2029883a 	mov	r20,r4
    5990:	802d883a 	mov	r22,r16
    5994:	857fffcc 	andi	r21,r16,65535
    5998:	14e7883a 	add	r19,r2,r19
    599c:	10e5883a 	add	r18,r2,r3
    59a0:	b0800044 	addi	r2,r22,1
    59a4:	d0a00b8d 	sth	r2,-32722(gp)
    59a8:	00c4e1c4 	movi	r3,4999
    59ac:	10bfffcc 	andi	r2,r2,65535
    59b0:	1880022e 	bgeu	r3,r2,59bc <udp_alloc_auto_port+0x7c>
    59b4:	00810004 	movi	r2,1024
    59b8:	d0a00b8d 	sth	r2,-32722(gp)
    59bc:	01000104 	movi	r4,4
    59c0:	000d0400 	call	d040 <GetResource>
    59c4:	8805883a 	mov	r2,r17
    59c8:	980b883a 	mov	r5,r19
    59cc:	9007883a 	mov	r3,r18
    59d0:	00800a0e 	bge	zero,r2,59fc <udp_alloc_auto_port+0xbc>
    59d4:	1980000b 	ldhu	r6,0(r3)
    59d8:	10bfffc4 	addi	r2,r2,-1
    59dc:	18fff704 	addi	r3,r3,-36
    59e0:	3182000c 	andi	r6,r6,2048
    59e4:	31bfffcc 	andi	r6,r6,65535
    59e8:	30000226 	beq	r6,zero,59f4 <udp_alloc_auto_port+0xb4>
    59ec:	2900000b 	ldhu	r4,0(r5)
    59f0:	25400326 	beq	r4,r21,5a00 <udp_alloc_auto_port+0xc0>
    59f4:	297ff704 	addi	r5,r5,-36
    59f8:	00bff616 	blt	zero,r2,59d4 <udp_alloc_auto_port+0x94>
    59fc:	a800111e 	bne	r21,zero,5a44 <udp_alloc_auto_port+0x104>
    5a00:	01000104 	movi	r4,4
    5a04:	000d3e00 	call	d3e0 <ReleaseResource>
    5a08:	d5a00b8b 	ldhu	r22,-32722(gp)
    5a0c:	80bfffcc 	andi	r2,r16,65535
    5a10:	b57fffcc 	andi	r21,r22,65535
    5a14:	157fe21e 	bne	r2,r21,59a0 <udp_alloc_auto_port+0x60>
    5a18:	00bff784 	movi	r2,-34
    5a1c:	dfc00717 	ldw	ra,28(sp)
    5a20:	dd800617 	ldw	r22,24(sp)
    5a24:	dd400517 	ldw	r21,20(sp)
    5a28:	dd000417 	ldw	r20,16(sp)
    5a2c:	dcc00317 	ldw	r19,12(sp)
    5a30:	dc800217 	ldw	r18,8(sp)
    5a34:	dc400117 	ldw	r17,4(sp)
    5a38:	dc000017 	ldw	r16,0(sp)
    5a3c:	dec00804 	addi	sp,sp,32
    5a40:	f800283a 	ret
    5a44:	a580020d 	sth	r22,8(r20)
    5a48:	01000104 	movi	r4,4
    5a4c:	000d3e00 	call	d3e0 <ReleaseResource>
    5a50:	0005883a 	mov	r2,zero
    5a54:	003ff106 	br	5a1c <udp_alloc_auto_port+0xdc>
    5a58:	0001883a 	nop
    5a5c:	0001883a 	nop

00005a60 <udp_alloc_port>:
    5a60:	defffd04 	addi	sp,sp,-12
    5a64:	dc000015 	stw	r16,0(sp)
    5a68:	2021883a 	mov	r16,r4
    5a6c:	01000104 	movi	r4,4
    5a70:	dc400115 	stw	r17,4(sp)
    5a74:	dfc00215 	stw	ra,8(sp)
    5a78:	2823883a 	mov	r17,r5
    5a7c:	000d0400 	call	d040 <GetResource>
    5a80:	00800074 	movhi	r2,1
    5a84:	1082fe04 	addi	r2,r2,3064
    5a88:	10800017 	ldw	r2,0(r2)
    5a8c:	01000074 	movhi	r4,1
    5a90:	2102ae04 	addi	r4,r4,2744
    5a94:	8a3fffcc 	andi	r8,r17,65535
    5a98:	10ffffc4 	addi	r3,r2,-1
    5a9c:	18c00924 	muli	r3,r3,36
    5aa0:	19800204 	addi	r6,r3,8
    5aa4:	18c00304 	addi	r3,r3,12
    5aa8:	310d883a 	add	r6,r6,r4
    5aac:	1907883a 	add	r3,r3,r4
    5ab0:	00800a0e 	bge	zero,r2,5adc <udp_alloc_port+0x7c>
    5ab4:	19c0000b 	ldhu	r7,0(r3)
    5ab8:	10bfffc4 	addi	r2,r2,-1
    5abc:	18fff704 	addi	r3,r3,-36
    5ac0:	39c2000c 	andi	r7,r7,2048
    5ac4:	39ffffcc 	andi	r7,r7,65535
    5ac8:	38000226 	beq	r7,zero,5ad4 <udp_alloc_port+0x74>
    5acc:	31c0000b 	ldhu	r7,0(r6)
    5ad0:	3a000b26 	beq	r7,r8,5b00 <udp_alloc_port+0xa0>
    5ad4:	31bff704 	addi	r6,r6,-36
    5ad8:	00bff616 	blt	zero,r2,5ab4 <udp_alloc_port+0x54>
    5adc:	8440020d 	sth	r17,8(r16)
    5ae0:	01000104 	movi	r4,4
    5ae4:	000d3e00 	call	d3e0 <ReleaseResource>
    5ae8:	0005883a 	mov	r2,zero
    5aec:	dfc00217 	ldw	ra,8(sp)
    5af0:	dc400117 	ldw	r17,4(sp)
    5af4:	dc000017 	ldw	r16,0(sp)
    5af8:	dec00304 	addi	sp,sp,12
    5afc:	f800283a 	ret
    5b00:	01000104 	movi	r4,4
    5b04:	000d3e00 	call	d3e0 <ReleaseResource>
    5b08:	00bffbc4 	movi	r2,-17
    5b0c:	dfc00217 	ldw	ra,8(sp)
    5b10:	dc400117 	ldw	r17,4(sp)
    5b14:	dc000017 	ldw	r16,0(sp)
    5b18:	dec00304 	addi	sp,sp,12
    5b1c:	f800283a 	ret

00005b20 <udp_send_data>:
    5b20:	defff204 	addi	sp,sp,-56
    5b24:	dc000515 	stw	r16,20(sp)
    5b28:	04000074 	movhi	r16,1
    5b2c:	84034304 	addi	r16,r16,3340
    5b30:	82000617 	ldw	r8,24(r16)
    5b34:	80c00217 	ldw	r3,8(r16)
    5b38:	82800317 	ldw	r10,12(r16)
    5b3c:	3817d7fa 	srai	r11,r7,31
    5b40:	dc800715 	stw	r18,28(sp)
    5b44:	dc400615 	stw	r17,24(sp)
    5b48:	2025883a 	mov	r18,r4
    5b4c:	3823883a 	mov	r17,r7
    5b50:	21000104 	addi	r4,r4,4
    5b54:	81c00717 	ldw	r7,28(r16)
    5b58:	88c7883a 	add	r3,r17,r3
    5b5c:	40800044 	addi	r2,r8,1
    5b60:	d9000015 	stw	r4,0(sp)
    5b64:	01001004 	movi	r4,64
    5b68:	dd800b15 	stw	r22,44(sp)
    5b6c:	dd000915 	stw	r20,36(sp)
    5b70:	dcc00815 	stw	r19,32(sp)
    5b74:	282d883a 	mov	r22,r5
    5b78:	1c53803a 	cmpltu	r9,r3,r17
    5b7c:	5a95883a 	add	r10,r11,r10
    5b80:	1211803a 	cmpltu	r8,r2,r8
    5b84:	8cc00204 	addi	r19,r17,8
    5b88:	05000444 	movi	r20,17
    5b8c:	d9000215 	stw	r4,8(sp)
    5b90:	01040004 	movi	r4,4096
    5b94:	dd400a15 	stw	r21,40(sp)
    5b98:	41d1883a 	add	r8,r8,r7
    5b9c:	4a93883a 	add	r9,r9,r10
    5ba0:	302b883a 	mov	r21,r6
    5ba4:	d9000315 	stw	r4,12(sp)
    5ba8:	dd000115 	stw	r20,4(sp)
    5bac:	d9000404 	addi	r4,sp,16
    5bb0:	980b883a 	mov	r5,r19
    5bb4:	000d883a 	mov	r6,zero
    5bb8:	b00f883a 	mov	r7,r22
    5bbc:	dfc00d15 	stw	ra,52(sp)
    5bc0:	ddc00c15 	stw	r23,48(sp)
    5bc4:	80c00215 	stw	r3,8(r16)
    5bc8:	82400315 	stw	r9,12(r16)
    5bcc:	80800615 	stw	r2,24(r16)
    5bd0:	82000715 	stw	r8,28(r16)
    5bd4:	00014800 	call	1480 <in4_get_datagram>
    5bd8:	10001526 	beq	r2,zero,5c30 <udp_send_data+0x110>
    5bdc:	80c00a17 	ldw	r3,40(r16)
    5be0:	81000b17 	ldw	r4,44(r16)
    5be4:	1023883a 	mov	r17,r2
    5be8:	18800044 	addi	r2,r3,1
    5bec:	10c7803a 	cmpltu	r3,r2,r3
    5bf0:	1907883a 	add	r3,r3,r4
    5bf4:	80800a15 	stw	r2,40(r16)
    5bf8:	80c00b15 	stw	r3,44(r16)
    5bfc:	8805883a 	mov	r2,r17
    5c00:	90000515 	stw	zero,20(r18)
    5c04:	dfc00d17 	ldw	ra,52(sp)
    5c08:	ddc00c17 	ldw	r23,48(sp)
    5c0c:	dd800b17 	ldw	r22,44(sp)
    5c10:	dd400a17 	ldw	r21,40(sp)
    5c14:	dd000917 	ldw	r20,36(sp)
    5c18:	dcc00817 	ldw	r19,32(sp)
    5c1c:	dc800717 	ldw	r18,28(sp)
    5c20:	dc400617 	ldw	r17,24(sp)
    5c24:	dc000517 	ldw	r16,20(sp)
    5c28:	dec00e04 	addi	sp,sp,56
    5c2c:	f800283a 	ret
    5c30:	90c0020b 	ldhu	r3,8(r18)
    5c34:	ddc00417 	ldw	r23,16(sp)
    5c38:	98bfffcc 	andi	r2,r19,65535
    5c3c:	180c923a 	slli	r6,r3,8
    5c40:	1806d23a 	srli	r3,r3,8
    5c44:	100a923a 	slli	r5,r2,8
    5c48:	1008d23a 	srli	r4,r2,8
    5c4c:	30c6b03a 	or	r3,r6,r3
    5c50:	b8c00a0d 	sth	r3,40(r23)
    5c54:	b080010b 	ldhu	r2,4(r22)
    5c58:	2906b03a 	or	r3,r5,r4
    5c5c:	b8c00b0d 	sth	r3,44(r23)
    5c60:	100e923a 	slli	r7,r2,8
    5c64:	1004d23a 	srli	r2,r2,8
    5c68:	b9000c04 	addi	r4,r23,48
    5c6c:	a80b883a 	mov	r5,r21
    5c70:	3884b03a 	or	r2,r7,r2
    5c74:	880d883a 	mov	r6,r17
    5c78:	b8800a8d 	sth	r2,42(r23)
    5c7c:	b8000b8d 	sth	zero,46(r23)
    5c80:	000eafc0 	call	eafc <memcpy>
    5c84:	d9000417 	ldw	r4,16(sp)
    5c88:	a00b883a 	mov	r5,r20
    5c8c:	01800904 	movi	r6,36
    5c90:	980f883a 	mov	r7,r19
    5c94:	00015a00 	call	15a0 <in4_cksum>
    5c98:	113fffcc 	andi	r4,r2,65535
    5c9c:	8807883a 	mov	r3,r17
    5ca0:	2000011e 	bne	r4,zero,5ca8 <udp_send_data+0x188>
    5ca4:	00bfffc4 	movi	r2,-1
    5ca8:	b8800b8d 	sth	r2,46(r23)
    5cac:	d8800417 	ldw	r2,16(sp)
    5cb0:	18c00b04 	addi	r3,r3,44
    5cb4:	10c0000d 	sth	r3,0(r2)
    5cb8:	d9000417 	ldw	r4,16(sp)
    5cbc:	00028000 	call	2800 <ip_output>
    5cc0:	103fc61e 	bne	r2,zero,5bdc <udp_send_data+0xbc>
    5cc4:	003fcd06 	br	5bfc <udp_send_data+0xdc>
    5cc8:	0001883a 	nop
    5ccc:	0001883a 	nop
    5cd0:	0001883a 	nop
    5cd4:	0001883a 	nop
    5cd8:	0001883a 	nop
    5cdc:	0001883a 	nop

00005ce0 <udp_can_cep>:
    5ce0:	defffd04 	addi	sp,sp,-12
    5ce4:	dc400115 	stw	r17,4(sp)
    5ce8:	dfc00215 	stw	ra,8(sp)
    5cec:	dc000015 	stw	r16,0(sp)
    5cf0:	28808904 	addi	r2,r5,548
    5cf4:	00c00044 	movi	r3,1
    5cf8:	2823883a 	mov	r17,r5
    5cfc:	1880012e 	bgeu	r3,r2,5d04 <udp_can_cep+0x24>
    5d00:	2800391e 	bne	r5,zero,5de8 <udp_can_cep+0x108>
    5d04:	0100330e 	bge	zero,r4,5dd4 <udp_can_cep+0xf4>
    5d08:	00800074 	movhi	r2,1
    5d0c:	1082fe04 	addi	r2,r2,3064
    5d10:	10800017 	ldw	r2,0(r2)
    5d14:	11002f16 	blt	r2,r4,5dd4 <udp_can_cep+0xf4>
    5d18:	243fffc4 	addi	r16,r4,-1
    5d1c:	84000924 	muli	r16,r16,36
    5d20:	00800074 	movhi	r2,1
    5d24:	1082ae04 	addi	r2,r2,2744
    5d28:	80a1883a 	add	r16,r16,r2
    5d2c:	8080030b 	ldhu	r2,12(r16)
    5d30:	1082000c 	andi	r2,r2,2048
    5d34:	10bfffcc 	andi	r2,r2,65535
    5d38:	10002426 	beq	r2,zero,5dcc <udp_can_cep+0xec>
    5d3c:	81000417 	ldw	r4,16(r16)
    5d40:	000d0400 	call	d040 <GetResource>
    5d44:	88000d26 	beq	r17,zero,5d7c <udp_can_cep+0x9c>
    5d48:	00bf7744 	movi	r2,-547
    5d4c:	88801626 	beq	r17,r2,5da8 <udp_can_cep+0xc8>
    5d50:	00bf7704 	movi	r2,-548
    5d54:	88801926 	beq	r17,r2,5dbc <udp_can_cep+0xdc>
    5d58:	047ffbc4 	movi	r17,-17
    5d5c:	81000417 	ldw	r4,16(r16)
    5d60:	000d3e00 	call	d3e0 <ReleaseResource>
    5d64:	8805883a 	mov	r2,r17
    5d68:	dfc00217 	ldw	ra,8(sp)
    5d6c:	dc400117 	ldw	r17,4(sp)
    5d70:	dc000017 	ldw	r16,0(sp)
    5d74:	dec00304 	addi	sp,sp,12
    5d78:	f800283a 	ret
    5d7c:	80800517 	ldw	r2,20(r16)
    5d80:	1000051e 	bne	r2,zero,5d98 <udp_can_cep+0xb8>
    5d84:	80800617 	ldw	r2,24(r16)
    5d88:	10000e26 	beq	r2,zero,5dc4 <udp_can_cep+0xe4>
    5d8c:	80000615 	stw	zero,24(r16)
    5d90:	0023883a 	mov	r17,zero
    5d94:	003ff106 	br	5d5c <udp_can_cep+0x7c>
    5d98:	80800617 	ldw	r2,24(r16)
    5d9c:	80000515 	stw	zero,20(r16)
    5da0:	103ffa1e 	bne	r2,zero,5d8c <udp_can_cep+0xac>
    5da4:	003ffa06 	br	5d90 <udp_can_cep+0xb0>
    5da8:	80800517 	ldw	r2,20(r16)
    5dac:	10000526 	beq	r2,zero,5dc4 <udp_can_cep+0xe4>
    5db0:	80000515 	stw	zero,20(r16)
    5db4:	0023883a 	mov	r17,zero
    5db8:	003fe806 	br	5d5c <udp_can_cep+0x7c>
    5dbc:	80800617 	ldw	r2,24(r16)
    5dc0:	1000061e 	bne	r2,zero,5ddc <udp_can_cep+0xfc>
    5dc4:	047ff5c4 	movi	r17,-41
    5dc8:	003fe406 	br	5d5c <udp_can_cep+0x7c>
    5dcc:	047ff584 	movi	r17,-42
    5dd0:	003fe406 	br	5d64 <udp_can_cep+0x84>
    5dd4:	047ffb84 	movi	r17,-18
    5dd8:	003fe206 	br	5d64 <udp_can_cep+0x84>
    5ddc:	80000615 	stw	zero,24(r16)
    5de0:	0023883a 	mov	r17,zero
    5de4:	003fdd06 	br	5d5c <udp_can_cep+0x7c>
    5de8:	047ffbc4 	movi	r17,-17
    5dec:	003fdd06 	br	5d64 <udp_can_cep+0x84>
    5df0:	0001883a 	nop
    5df4:	0001883a 	nop
    5df8:	0001883a 	nop
    5dfc:	0001883a 	nop

00005e00 <udp_can_snd>:
    5e00:	20800517 	ldw	r2,20(r4)
    5e04:	10000326 	beq	r2,zero,5e14 <udp_can_snd+0x14>
    5e08:	20000515 	stw	zero,20(r4)
    5e0c:	0005883a 	mov	r2,zero
    5e10:	f800283a 	ret
    5e14:	00bfe7c4 	movi	r2,-97
    5e18:	f800283a 	ret
    5e1c:	0001883a 	nop

00005e20 <udp_can_rcv>:
    5e20:	20800617 	ldw	r2,24(r4)
    5e24:	10000326 	beq	r2,zero,5e34 <udp_can_rcv+0x14>
    5e28:	20000615 	stw	zero,24(r4)
    5e2c:	0005883a 	mov	r2,zero
    5e30:	f800283a 	ret
    5e34:	00bfe7c4 	movi	r2,-97
    5e38:	f800283a 	ret
    5e3c:	0001883a 	nop

00005e40 <udp_snd_dat>:
    5e40:	defffb04 	addi	sp,sp,-20
    5e44:	dcc00315 	stw	r19,12(sp)
    5e48:	dc800215 	stw	r18,8(sp)
    5e4c:	dc400115 	stw	r17,4(sp)
    5e50:	dfc00415 	stw	ra,16(sp)
    5e54:	dc000015 	stw	r16,0(sp)
    5e58:	2825883a 	mov	r18,r5
    5e5c:	3027883a 	mov	r19,r6
    5e60:	3823883a 	mov	r17,r7
    5e64:	28003526 	beq	r5,zero,5f3c <udp_snd_dat+0xfc>
    5e68:	30003426 	beq	r6,zero,5f3c <udp_snd_dat+0xfc>
    5e6c:	38003316 	blt	r7,zero,5f3c <udp_snd_dat+0xfc>
    5e70:	38800704 	addi	r2,r7,28
    5e74:	00c17704 	movi	r3,1500
    5e78:	18803036 	bltu	r3,r2,5f3c <udp_snd_dat+0xfc>
    5e7c:	0100310e 	bge	zero,r4,5f44 <udp_snd_dat+0x104>
    5e80:	00800074 	movhi	r2,1
    5e84:	1082fe04 	addi	r2,r2,3064
    5e88:	10800017 	ldw	r2,0(r2)
    5e8c:	11002d16 	blt	r2,r4,5f44 <udp_snd_dat+0x104>
    5e90:	243fffc4 	addi	r16,r4,-1
    5e94:	84000924 	muli	r16,r16,36
    5e98:	00800074 	movhi	r2,1
    5e9c:	1082ae04 	addi	r2,r2,2744
    5ea0:	80a1883a 	add	r16,r16,r2
    5ea4:	8080030b 	ldhu	r2,12(r16)
    5ea8:	1082000c 	andi	r2,r2,2048
    5eac:	10bfffcc 	andi	r2,r2,65535
    5eb0:	10002626 	beq	r2,zero,5f4c <udp_snd_dat+0x10c>
    5eb4:	8080020b 	ldhu	r2,8(r16)
    5eb8:	1000031e 	bne	r2,zero,5ec8 <udp_snd_dat+0x88>
    5ebc:	8009883a 	mov	r4,r16
    5ec0:	00059400 	call	5940 <udp_alloc_auto_port>
    5ec4:	1000071e 	bne	r2,zero,5ee4 <udp_snd_dat+0xa4>
    5ec8:	81000417 	ldw	r4,16(r16)
    5ecc:	000d0400 	call	d040 <GetResource>
    5ed0:	80800517 	ldw	r2,20(r16)
    5ed4:	10000a26 	beq	r2,zero,5f00 <udp_snd_dat+0xc0>
    5ed8:	81000417 	ldw	r4,16(r16)
    5edc:	000d3e00 	call	d3e0 <ReleaseResource>
    5ee0:	00bff544 	movi	r2,-43
    5ee4:	dfc00417 	ldw	ra,16(sp)
    5ee8:	dcc00317 	ldw	r19,12(sp)
    5eec:	dc800217 	ldw	r18,8(sp)
    5ef0:	dc400117 	ldw	r17,4(sp)
    5ef4:	dc000017 	ldw	r16,0(sp)
    5ef8:	dec00504 	addi	sp,sp,20
    5efc:	f800283a 	ret
    5f00:	81000504 	addi	r4,r16,20
    5f04:	000c1c00 	call	c1c0 <GetTaskID>
    5f08:	81000417 	ldw	r4,16(r16)
    5f0c:	000d3e00 	call	d3e0 <ReleaseResource>
    5f10:	8009883a 	mov	r4,r16
    5f14:	900b883a 	mov	r5,r18
    5f18:	980d883a 	mov	r6,r19
    5f1c:	880f883a 	mov	r7,r17
    5f20:	dfc00417 	ldw	ra,16(sp)
    5f24:	dcc00317 	ldw	r19,12(sp)
    5f28:	dc800217 	ldw	r18,8(sp)
    5f2c:	dc400117 	ldw	r17,4(sp)
    5f30:	dc000017 	ldw	r16,0(sp)
    5f34:	dec00504 	addi	sp,sp,20
    5f38:	0005b201 	jmpi	5b20 <udp_send_data>
    5f3c:	00bffbc4 	movi	r2,-17
    5f40:	003fe806 	br	5ee4 <udp_snd_dat+0xa4>
    5f44:	00bffb84 	movi	r2,-18
    5f48:	003fe606 	br	5ee4 <udp_snd_dat+0xa4>
    5f4c:	00bff584 	movi	r2,-42
    5f50:	003fe406 	br	5ee4 <udp_snd_dat+0xa4>
    5f54:	0001883a 	nop
    5f58:	0001883a 	nop
    5f5c:	0001883a 	nop

00005f60 <udp_rcv_dat>:
    5f60:	defff704 	addi	sp,sp,-36
    5f64:	dd000615 	stw	r20,24(sp)
    5f68:	dcc00515 	stw	r19,20(sp)
    5f6c:	dc800415 	stw	r18,16(sp)
    5f70:	dfc00815 	stw	ra,32(sp)
    5f74:	dd400715 	stw	r21,28(sp)
    5f78:	dc400315 	stw	r17,12(sp)
    5f7c:	dc000215 	stw	r16,8(sp)
    5f80:	2825883a 	mov	r18,r5
    5f84:	3027883a 	mov	r19,r6
    5f88:	3829883a 	mov	r20,r7
    5f8c:	28006326 	beq	r5,zero,611c <udp_rcv_dat+0x1bc>
    5f90:	30006226 	beq	r6,zero,611c <udp_rcv_dat+0x1bc>
    5f94:	38006116 	blt	r7,zero,611c <udp_rcv_dat+0x1bc>
    5f98:	0100560e 	bge	zero,r4,60f4 <udp_rcv_dat+0x194>
    5f9c:	00800074 	movhi	r2,1
    5fa0:	1082fe04 	addi	r2,r2,3064
    5fa4:	10800017 	ldw	r2,0(r2)
    5fa8:	11005216 	blt	r2,r4,60f4 <udp_rcv_dat+0x194>
    5fac:	243fffc4 	addi	r16,r4,-1
    5fb0:	84000924 	muli	r16,r16,36
    5fb4:	00800074 	movhi	r2,1
    5fb8:	1082ae04 	addi	r2,r2,2744
    5fbc:	80a1883a 	add	r16,r16,r2
    5fc0:	8080030b 	ldhu	r2,12(r16)
    5fc4:	1082000c 	andi	r2,r2,2048
    5fc8:	10bfffcc 	andi	r2,r2,65535
    5fcc:	10004726 	beq	r2,zero,60ec <udp_rcv_dat+0x18c>
    5fd0:	81000417 	ldw	r4,16(r16)
    5fd4:	000d0400 	call	d040 <GetResource>
    5fd8:	d809883a 	mov	r4,sp
    5fdc:	000c1c00 	call	c1c0 <GetTaskID>
    5fe0:	80800617 	ldw	r2,24(r16)
    5fe4:	10000626 	beq	r2,zero,6000 <udp_rcv_dat+0xa0>
    5fe8:	d8c00017 	ldw	r3,0(sp)
    5fec:	10c00626 	beq	r2,r3,6008 <udp_rcv_dat+0xa8>
    5ff0:	81000417 	ldw	r4,16(r16)
    5ff4:	057ff544 	movi	r21,-43
    5ff8:	000d3e00 	call	d3e0 <ReleaseResource>
    5ffc:	00002f06 	br	60bc <udp_rcv_dat+0x15c>
    6000:	81000604 	addi	r4,r16,24
    6004:	000c1c00 	call	c1c0 <GetTaskID>
    6008:	81000417 	ldw	r4,16(r16)
    600c:	000d3e00 	call	d3e0 <ReleaseResource>
    6010:	84400817 	ldw	r17,32(r16)
    6014:	88003926 	beq	r17,zero,60fc <udp_rcv_dat+0x19c>
    6018:	dc400115 	stw	r17,4(sp)
    601c:	80000815 	stw	zero,32(r16)
    6020:	89400503 	ldbu	r5,20(r17)
    6024:	a00d883a 	mov	r6,r20
    6028:	294003cc 	andi	r5,r5,15
    602c:	294b883a 	add	r5,r5,r5
    6030:	294b883a 	add	r5,r5,r5
    6034:	28c00504 	addi	r3,r5,20
    6038:	88c7883a 	add	r3,r17,r3
    603c:	1880000b 	ldhu	r2,0(r3)
    6040:	1008923a 	slli	r4,r2,8
    6044:	1004d23a 	srli	r2,r2,8
    6048:	2084b03a 	or	r2,r4,r2
    604c:	9080010d 	sth	r2,4(r18)
    6050:	88800817 	ldw	r2,32(r17)
    6054:	1008d63a 	srli	r4,r2,24
    6058:	1010963a 	slli	r8,r2,24
    605c:	11ffc00c 	andi	r7,r2,65280
    6060:	380e923a 	slli	r7,r7,8
    6064:	1004d23a 	srli	r2,r2,8
    6068:	2208b03a 	or	r4,r4,r8
    606c:	21c8b03a 	or	r4,r4,r7
    6070:	10bfc00c 	andi	r2,r2,65280
    6074:	2084b03a 	or	r2,r4,r2
    6078:	90800015 	stw	r2,0(r18)
    607c:	1880010b 	ldhu	r2,4(r3)
    6080:	1006923a 	slli	r3,r2,8
    6084:	1004d23a 	srli	r2,r2,8
    6088:	1884b03a 	or	r2,r3,r2
    608c:	10bfffcc 	andi	r2,r2,65535
    6090:	10bffe04 	addi	r2,r2,-8
    6094:	a0801336 	bltu	r20,r2,60e4 <udp_rcv_dat+0x184>
    6098:	100d883a 	mov	r6,r2
    609c:	102b883a 	mov	r21,r2
    60a0:	29400704 	addi	r5,r5,28
    60a4:	9809883a 	mov	r4,r19
    60a8:	894b883a 	add	r5,r17,r5
    60ac:	000eafc0 	call	eafc <memcpy>
    60b0:	8809883a 	mov	r4,r17
    60b4:	0000a800 	call	a80 <rel_net_buf>
    60b8:	80000615 	stw	zero,24(r16)
    60bc:	a805883a 	mov	r2,r21
    60c0:	dfc00817 	ldw	ra,32(sp)
    60c4:	dd400717 	ldw	r21,28(sp)
    60c8:	dd000617 	ldw	r20,24(sp)
    60cc:	dcc00517 	ldw	r19,20(sp)
    60d0:	dc800417 	ldw	r18,16(sp)
    60d4:	dc400317 	ldw	r17,12(sp)
    60d8:	dc000217 	ldw	r16,8(sp)
    60dc:	dec00904 	addi	sp,sp,36
    60e0:	f800283a 	ret
    60e4:	057ff184 	movi	r21,-58
    60e8:	003fed06 	br	60a0 <udp_rcv_dat+0x140>
    60ec:	057ff584 	movi	r21,-42
    60f0:	003ff206 	br	60bc <udp_rcv_dat+0x15c>
    60f4:	057ffb84 	movi	r21,-18
    60f8:	003ff006 	br	60bc <udp_rcv_dat+0x15c>
    60fc:	81000717 	ldw	r4,28(r16)
    6100:	d9400104 	addi	r5,sp,4
    6104:	0001e400 	call	1e40 <tinet_rcv_dtq>
    6108:	102b883a 	mov	r21,r2
    610c:	10000526 	beq	r2,zero,6124 <udp_rcv_dat+0x1c4>
    6110:	00bff384 	movi	r2,-50
    6114:	a8bfe81e 	bne	r21,r2,60b8 <udp_rcv_dat+0x158>
    6118:	003fe806 	br	60bc <udp_rcv_dat+0x15c>
    611c:	057ffbc4 	movi	r21,-17
    6120:	003fe606 	br	60bc <udp_rcv_dat+0x15c>
    6124:	dc400117 	ldw	r17,4(sp)
    6128:	003fbd06 	br	6020 <udp_rcv_dat+0xc0>
	...

00006140 <TaskMainUSRV_TASK>:
    6140:	defff604 	addi	sp,sp,-40
    6144:	d9000304 	addi	r4,sp,12
    6148:	dfc00915 	stw	ra,36(sp)
    614c:	dcc00815 	stw	r19,32(sp)
    6150:	dc800715 	stw	r18,28(sp)
    6154:	dc400615 	stw	r17,24(sp)
    6158:	dc000515 	stw	r16,20(sp)
    615c:	000c1c00 	call	c1c0 <GetTaskID>
    6160:	dc000317 	ldw	r16,12(sp)
    6164:	0009883a 	mov	r4,zero
    6168:	d9400404 	addi	r5,sp,16
    616c:	00ab0634 	movhi	r2,44056
    6170:	1082c804 	addi	r2,r2,2848
    6174:	d8800415 	stw	r2,16(sp)
    6178:	00012200 	call	1220 <ip2str>
    617c:	800d883a 	mov	r6,r16
    6180:	d8800015 	stw	r2,0(sp)
    6184:	01000184 	movi	r4,6
    6188:	01400074 	movhi	r5,1
    618c:	297f7404 	addi	r5,r5,-560
    6190:	01c00044 	movi	r7,1
    6194:	00080400 	call	8040 <syslog>
    6198:	0025883a 	mov	r18,zero
    619c:	04c00044 	movi	r19,1
    61a0:	047ff384 	movi	r17,-50
    61a4:	0409c404 	movi	r16,10000
    61a8:	01000044 	movi	r4,1
    61ac:	d9400104 	addi	r5,sp,4
    61b0:	01800074 	movhi	r6,1
    61b4:	31858204 	addi	r6,r6,5640
    61b8:	01c20004 	movi	r7,2048
    61bc:	0005f600 	call	5f60 <udp_rcv_dat>
    61c0:	14400e26 	beq	r2,r17,61fc <TaskMainUSRV_TASK+0xbc>
    61c4:	10002016 	blt	r2,zero,6248 <TaskMainUSRV_TASK+0x108>
    61c8:	d0a00c17 	ldw	r2,-32720(gp)
    61cc:	80bff62e 	bgeu	r16,r2,61a8 <TaskMainUSRV_TASK+0x68>
    61d0:	903ff51e 	bne	r18,zero,61a8 <TaskMainUSRV_TASK+0x68>
    61d4:	0109c404 	movi	r4,10000
    61d8:	0006fc00 	call	6fc0 <print_hist>
    61dc:	01000044 	movi	r4,1
    61e0:	d9400104 	addi	r5,sp,4
    61e4:	01800074 	movhi	r6,1
    61e8:	31858204 	addi	r6,r6,5640
    61ec:	01c20004 	movi	r7,2048
    61f0:	04800044 	movi	r18,1
    61f4:	0005f600 	call	5f60 <udp_rcv_dat>
    61f8:	147ff21e 	bne	r2,r17,61c4 <TaskMainUSRV_TASK+0x84>
    61fc:	d1200c17 	ldw	r4,-32720(gp)
    6200:	8100152e 	bgeu	r16,r4,6258 <TaskMainUSRV_TASK+0x118>
    6204:	0145dc04 	movi	r5,6000
    6208:	000d883a 	mov	r6,zero
    620c:	01000044 	movi	r4,1
    6210:	000a9e00 	call	a9e0 <SetRelAlarm>
    6214:	01000044 	movi	r4,1
    6218:	000cc600 	call	cc60 <WaitEvent>
    621c:	01000044 	movi	r4,1
    6220:	000c8200 	call	c820 <ClearEvent>
    6224:	d1200c17 	ldw	r4,-32720(gp)
    6228:	813fdf36 	bltu	r16,r4,61a8 <TaskMainUSRV_TASK+0x68>
    622c:	d0a02383 	ldbu	r2,-32626(gp)
    6230:	14ffdd1e 	bne	r2,r19,61a8 <TaskMainUSRV_TASK+0x68>
    6234:	20800044 	addi	r2,r4,1
    6238:	d0a00c15 	stw	r2,-32720(gp)
    623c:	0006ee00 	call	6ee0 <end_measure>
    6240:	d0202385 	stb	zero,-32626(gp)
    6244:	003fd806 	br	61a8 <TaskMainUSRV_TASK+0x68>
    6248:	01000044 	movi	r4,1
    624c:	000b883a 	mov	r5,zero
    6250:	0005ce00 	call	5ce0 <udp_can_cep>
    6254:	003fdc06 	br	61c8 <TaskMainUSRV_TASK+0x88>
    6258:	0006e600 	call	6e60 <begin_measure>
    625c:	d4e02385 	stb	r19,-32626(gp)
    6260:	003fe806 	br	6204 <TaskMainUSRV_TASK+0xc4>
    6264:	0001883a 	nop
    6268:	0001883a 	nop
    626c:	0001883a 	nop
    6270:	0001883a 	nop
    6274:	0001883a 	nop
    6278:	0001883a 	nop
    627c:	0001883a 	nop

00006280 <ErrorHook>:
    6280:	defffd04 	addi	sp,sp,-12
    6284:	dfc00215 	stw	ra,8(sp)
    6288:	00800074 	movhi	r2,1
    628c:	10833c04 	addi	r2,r2,3312
    6290:	10800003 	ldbu	r2,0(r2)
    6294:	00c03e44 	movi	r3,249
    6298:	21003fcc 	andi	r4,r4,255
    629c:	1880082e 	bgeu	r3,r2,62c0 <ErrorHook+0x40>
    62a0:	00082800 	call	8280 <atk2_strerror>
    62a4:	01000184 	movi	r4,6
    62a8:	01400074 	movhi	r5,1
    62ac:	29408104 	addi	r5,r5,516
    62b0:	100d883a 	mov	r6,r2
    62b4:	dfc00217 	ldw	ra,8(sp)
    62b8:	dec00304 	addi	sp,sp,12
    62bc:	00080401 	jmpi	8040 <syslog>
    62c0:	1085883a 	add	r2,r2,r2
    62c4:	1085883a 	add	r2,r2,r2
    62c8:	00c00034 	movhi	r3,0
    62cc:	18d8b704 	addi	r3,r3,25308
    62d0:	10c5883a 	add	r2,r2,r3
    62d4:	10800017 	ldw	r2,0(r2)
    62d8:	1000683a 	jmp	r2
    62dc:	000062a0 	cmpeqi	zero,zero,394
    62e0:	00006b78 	rdprs	zero,zero,429
    62e4:	000062a0 	cmpeqi	zero,zero,394
    62e8:	000062a0 	cmpeqi	zero,zero,394
    62ec:	000062a0 	cmpeqi	zero,zero,394
    62f0:	000062a0 	cmpeqi	zero,zero,394
    62f4:	000062a0 	cmpeqi	zero,zero,394
    62f8:	00006b40 	call	6b4 <stack_monitoring_error+0x4>
    62fc:	00006b08 	cmpgei	zero,zero,428
    6300:	00006ae8 	cmpgeui	zero,zero,427
    6304:	00006ab0 	cmpltui	zero,zero,426
    6308:	000062a0 	cmpeqi	zero,zero,394
    630c:	000062a0 	cmpeqi	zero,zero,394
    6310:	000062a0 	cmpeqi	zero,zero,394
    6314:	00006a78 	rdprs	zero,zero,425
    6318:	00006a58 	cmpnei	zero,zero,425
    631c:	000062a0 	cmpeqi	zero,zero,394
    6320:	000062a0 	cmpeqi	zero,zero,394
    6324:	000062a0 	cmpeqi	zero,zero,394
    6328:	000062a0 	cmpeqi	zero,zero,394
    632c:	000062a0 	cmpeqi	zero,zero,394
    6330:	000062a0 	cmpeqi	zero,zero,394
    6334:	000062a0 	cmpeqi	zero,zero,394
    6338:	000062a0 	cmpeqi	zero,zero,394
    633c:	000062a0 	cmpeqi	zero,zero,394
    6340:	000062a0 	cmpeqi	zero,zero,394
    6344:	000062a0 	cmpeqi	zero,zero,394
    6348:	000062a0 	cmpeqi	zero,zero,394
    634c:	000062a0 	cmpeqi	zero,zero,394
    6350:	000062a0 	cmpeqi	zero,zero,394
    6354:	000062a0 	cmpeqi	zero,zero,394
    6358:	000062a0 	cmpeqi	zero,zero,394
    635c:	000062a0 	cmpeqi	zero,zero,394
    6360:	000062a0 	cmpeqi	zero,zero,394
    6364:	000062a0 	cmpeqi	zero,zero,394
    6368:	000062a0 	cmpeqi	zero,zero,394
    636c:	000062a0 	cmpeqi	zero,zero,394
    6370:	000062a0 	cmpeqi	zero,zero,394
    6374:	000062a0 	cmpeqi	zero,zero,394
    6378:	000062a0 	cmpeqi	zero,zero,394
    637c:	000062a0 	cmpeqi	zero,zero,394
    6380:	000062a0 	cmpeqi	zero,zero,394
    6384:	000062a0 	cmpeqi	zero,zero,394
    6388:	000062a0 	cmpeqi	zero,zero,394
    638c:	000062a0 	cmpeqi	zero,zero,394
    6390:	000062a0 	cmpeqi	zero,zero,394
    6394:	000062a0 	cmpeqi	zero,zero,394
    6398:	000062a0 	cmpeqi	zero,zero,394
    639c:	000062a0 	cmpeqi	zero,zero,394
    63a0:	000062a0 	cmpeqi	zero,zero,394
    63a4:	000062a0 	cmpeqi	zero,zero,394
    63a8:	000062a0 	cmpeqi	zero,zero,394
    63ac:	000062a0 	cmpeqi	zero,zero,394
    63b0:	000062a0 	cmpeqi	zero,zero,394
    63b4:	000062a0 	cmpeqi	zero,zero,394
    63b8:	000062a0 	cmpeqi	zero,zero,394
    63bc:	000062a0 	cmpeqi	zero,zero,394
    63c0:	000062a0 	cmpeqi	zero,zero,394
    63c4:	000062a0 	cmpeqi	zero,zero,394
    63c8:	000062a0 	cmpeqi	zero,zero,394
    63cc:	000062a0 	cmpeqi	zero,zero,394
    63d0:	000062a0 	cmpeqi	zero,zero,394
    63d4:	000062a0 	cmpeqi	zero,zero,394
    63d8:	000062a0 	cmpeqi	zero,zero,394
    63dc:	000062a0 	cmpeqi	zero,zero,394
    63e0:	000062a0 	cmpeqi	zero,zero,394
    63e4:	000062a0 	cmpeqi	zero,zero,394
    63e8:	000062a0 	cmpeqi	zero,zero,394
    63ec:	000062a0 	cmpeqi	zero,zero,394
    63f0:	000062a0 	cmpeqi	zero,zero,394
    63f4:	000062a0 	cmpeqi	zero,zero,394
    63f8:	000062a0 	cmpeqi	zero,zero,394
    63fc:	000062a0 	cmpeqi	zero,zero,394
    6400:	000062a0 	cmpeqi	zero,zero,394
    6404:	000062a0 	cmpeqi	zero,zero,394
    6408:	000062a0 	cmpeqi	zero,zero,394
    640c:	000062a0 	cmpeqi	zero,zero,394
    6410:	000062a0 	cmpeqi	zero,zero,394
    6414:	000062a0 	cmpeqi	zero,zero,394
    6418:	000062a0 	cmpeqi	zero,zero,394
    641c:	000062a0 	cmpeqi	zero,zero,394
    6420:	000062a0 	cmpeqi	zero,zero,394
    6424:	000062a0 	cmpeqi	zero,zero,394
    6428:	000062a0 	cmpeqi	zero,zero,394
    642c:	000062a0 	cmpeqi	zero,zero,394
    6430:	000062a0 	cmpeqi	zero,zero,394
    6434:	000062a0 	cmpeqi	zero,zero,394
    6438:	000062a0 	cmpeqi	zero,zero,394
    643c:	000062a0 	cmpeqi	zero,zero,394
    6440:	000062a0 	cmpeqi	zero,zero,394
    6444:	000062a0 	cmpeqi	zero,zero,394
    6448:	000062a0 	cmpeqi	zero,zero,394
    644c:	000062a0 	cmpeqi	zero,zero,394
    6450:	000062a0 	cmpeqi	zero,zero,394
    6454:	000062a0 	cmpeqi	zero,zero,394
    6458:	000062a0 	cmpeqi	zero,zero,394
    645c:	000062a0 	cmpeqi	zero,zero,394
    6460:	000062a0 	cmpeqi	zero,zero,394
    6464:	000062a0 	cmpeqi	zero,zero,394
    6468:	000062a0 	cmpeqi	zero,zero,394
    646c:	000062a0 	cmpeqi	zero,zero,394
    6470:	000062a0 	cmpeqi	zero,zero,394
    6474:	000062a0 	cmpeqi	zero,zero,394
    6478:	000062a0 	cmpeqi	zero,zero,394
    647c:	000062a0 	cmpeqi	zero,zero,394
    6480:	000062a0 	cmpeqi	zero,zero,394
    6484:	000062a0 	cmpeqi	zero,zero,394
    6488:	000062a0 	cmpeqi	zero,zero,394
    648c:	000062a0 	cmpeqi	zero,zero,394
    6490:	000062a0 	cmpeqi	zero,zero,394
    6494:	000062a0 	cmpeqi	zero,zero,394
    6498:	000062a0 	cmpeqi	zero,zero,394
    649c:	000062a0 	cmpeqi	zero,zero,394
    64a0:	000062a0 	cmpeqi	zero,zero,394
    64a4:	000062a0 	cmpeqi	zero,zero,394
    64a8:	000062a0 	cmpeqi	zero,zero,394
    64ac:	000062a0 	cmpeqi	zero,zero,394
    64b0:	000062a0 	cmpeqi	zero,zero,394
    64b4:	000062a0 	cmpeqi	zero,zero,394
    64b8:	000062a0 	cmpeqi	zero,zero,394
    64bc:	000062a0 	cmpeqi	zero,zero,394
    64c0:	000062a0 	cmpeqi	zero,zero,394
    64c4:	000062a0 	cmpeqi	zero,zero,394
    64c8:	000062a0 	cmpeqi	zero,zero,394
    64cc:	000062a0 	cmpeqi	zero,zero,394
    64d0:	000062a0 	cmpeqi	zero,zero,394
    64d4:	000062a0 	cmpeqi	zero,zero,394
    64d8:	000062a0 	cmpeqi	zero,zero,394
    64dc:	000062a0 	cmpeqi	zero,zero,394
    64e0:	000062a0 	cmpeqi	zero,zero,394
    64e4:	000062a0 	cmpeqi	zero,zero,394
    64e8:	000062a0 	cmpeqi	zero,zero,394
    64ec:	000062a0 	cmpeqi	zero,zero,394
    64f0:	000062a0 	cmpeqi	zero,zero,394
    64f4:	000062a0 	cmpeqi	zero,zero,394
    64f8:	000062a0 	cmpeqi	zero,zero,394
    64fc:	000062a0 	cmpeqi	zero,zero,394
    6500:	000062a0 	cmpeqi	zero,zero,394
    6504:	000062a0 	cmpeqi	zero,zero,394
    6508:	000062a0 	cmpeqi	zero,zero,394
    650c:	000062a0 	cmpeqi	zero,zero,394
    6510:	000062a0 	cmpeqi	zero,zero,394
    6514:	000062a0 	cmpeqi	zero,zero,394
    6518:	000062a0 	cmpeqi	zero,zero,394
    651c:	000062a0 	cmpeqi	zero,zero,394
    6520:	000062a0 	cmpeqi	zero,zero,394
    6524:	000062a0 	cmpeqi	zero,zero,394
    6528:	000062a0 	cmpeqi	zero,zero,394
    652c:	000062a0 	cmpeqi	zero,zero,394
    6530:	000062a0 	cmpeqi	zero,zero,394
    6534:	000062a0 	cmpeqi	zero,zero,394
    6538:	000062a0 	cmpeqi	zero,zero,394
    653c:	000062a0 	cmpeqi	zero,zero,394
    6540:	000062a0 	cmpeqi	zero,zero,394
    6544:	000062a0 	cmpeqi	zero,zero,394
    6548:	000062a0 	cmpeqi	zero,zero,394
    654c:	000062a0 	cmpeqi	zero,zero,394
    6550:	000062a0 	cmpeqi	zero,zero,394
    6554:	000062a0 	cmpeqi	zero,zero,394
    6558:	000062a0 	cmpeqi	zero,zero,394
    655c:	000062a0 	cmpeqi	zero,zero,394
    6560:	000062a0 	cmpeqi	zero,zero,394
    6564:	000062a0 	cmpeqi	zero,zero,394
    6568:	000062a0 	cmpeqi	zero,zero,394
    656c:	000062a0 	cmpeqi	zero,zero,394
    6570:	000062a0 	cmpeqi	zero,zero,394
    6574:	000062a0 	cmpeqi	zero,zero,394
    6578:	000062a0 	cmpeqi	zero,zero,394
    657c:	000062a0 	cmpeqi	zero,zero,394
    6580:	000062a0 	cmpeqi	zero,zero,394
    6584:	000062a0 	cmpeqi	zero,zero,394
    6588:	000062a0 	cmpeqi	zero,zero,394
    658c:	000062a0 	cmpeqi	zero,zero,394
    6590:	000062a0 	cmpeqi	zero,zero,394
    6594:	000062a0 	cmpeqi	zero,zero,394
    6598:	00006a44 	movi	zero,425
    659c:	000062a0 	cmpeqi	zero,zero,394
    65a0:	000062a0 	cmpeqi	zero,zero,394
    65a4:	000062a0 	cmpeqi	zero,zero,394
    65a8:	000062a0 	cmpeqi	zero,zero,394
    65ac:	000062a0 	cmpeqi	zero,zero,394
    65b0:	000062a0 	cmpeqi	zero,zero,394
    65b4:	000062a0 	cmpeqi	zero,zero,394
    65b8:	000062a0 	cmpeqi	zero,zero,394
    65bc:	000062a0 	cmpeqi	zero,zero,394
    65c0:	000062a0 	cmpeqi	zero,zero,394
    65c4:	000062a0 	cmpeqi	zero,zero,394
    65c8:	000062a0 	cmpeqi	zero,zero,394
    65cc:	000062a0 	cmpeqi	zero,zero,394
    65d0:	000062a0 	cmpeqi	zero,zero,394
    65d4:	000062a0 	cmpeqi	zero,zero,394
    65d8:	000062a0 	cmpeqi	zero,zero,394
    65dc:	000062a0 	cmpeqi	zero,zero,394
    65e0:	000062a0 	cmpeqi	zero,zero,394
    65e4:	000062a0 	cmpeqi	zero,zero,394
    65e8:	000062a0 	cmpeqi	zero,zero,394
    65ec:	000062a0 	cmpeqi	zero,zero,394
    65f0:	000062a0 	cmpeqi	zero,zero,394
    65f4:	000062a0 	cmpeqi	zero,zero,394
    65f8:	000062a0 	cmpeqi	zero,zero,394
    65fc:	000062a0 	cmpeqi	zero,zero,394
    6600:	000062a0 	cmpeqi	zero,zero,394
    6604:	000062a0 	cmpeqi	zero,zero,394
    6608:	000062a0 	cmpeqi	zero,zero,394
    660c:	000062a0 	cmpeqi	zero,zero,394
    6610:	000062a0 	cmpeqi	zero,zero,394
    6614:	000062a0 	cmpeqi	zero,zero,394
    6618:	000062a0 	cmpeqi	zero,zero,394
    661c:	000062a0 	cmpeqi	zero,zero,394
    6620:	000062a0 	cmpeqi	zero,zero,394
    6624:	000062a0 	cmpeqi	zero,zero,394
    6628:	000062a0 	cmpeqi	zero,zero,394
    662c:	000062a0 	cmpeqi	zero,zero,394
    6630:	000062a0 	cmpeqi	zero,zero,394
    6634:	000062a0 	cmpeqi	zero,zero,394
    6638:	000062a0 	cmpeqi	zero,zero,394
    663c:	000062a0 	cmpeqi	zero,zero,394
    6640:	000062a0 	cmpeqi	zero,zero,394
    6644:	000062a0 	cmpeqi	zero,zero,394
    6648:	000062a0 	cmpeqi	zero,zero,394
    664c:	000062a0 	cmpeqi	zero,zero,394
    6650:	000062a0 	cmpeqi	zero,zero,394
    6654:	000062a0 	cmpeqi	zero,zero,394
    6658:	000062a0 	cmpeqi	zero,zero,394
    665c:	00006a24 	muli	zero,zero,424
    6660:	00006a10 	cmplti	zero,zero,424
    6664:	000069f0 	cmpltui	zero,zero,423
    6668:	000069dc 	xori	zero,zero,423
    666c:	000069bc 	xorhi	zero,zero,422
    6670:	00006984 	movi	zero,422
    6674:	00006970 	cmpltui	zero,zero,421
    6678:	0000695c 	xori	zero,zero,421
    667c:	00006948 	cmpgei	zero,zero,421
    6680:	00006934 	movhi	zero,420
    6684:	00006920 	cmpeqi	zero,zero,420
    6688:	0000690c 	andi	zero,zero,420
    668c:	000068ec 	andhi	zero,zero,419
    6690:	000068cc 	andi	zero,zero,419
    6694:	00006894 	movui	zero,418
    6698:	00006874 	movhi	zero,417
    669c:	0000683c 	xorhi	zero,zero,416
    66a0:	0000681c 	xori	zero,zero,416
    66a4:	000067fc 	xorhi	zero,zero,415
    66a8:	000067c4 	movi	zero,415
    66ac:	0000677c 	xorhi	zero,zero,413
    66b0:	0000672c 	andhi	zero,zero,412
    66b4:	00006700 	call	670 <dispatcher_3+0x40>
    66b8:	000066ec 	andhi	zero,zero,411
    66bc:	000066d8 	cmpnei	zero,zero,411
    66c0:	000066c4 	movi	zero,411
    66c4:	00082800 	call	8280 <atk2_strerror>
    66c8:	01000184 	movi	r4,6
    66cc:	01400074 	movhi	r5,1
    66d0:	29406d04 	addi	r5,r5,436
    66d4:	003ef606 	br	62b0 <ErrorHook+0x30>
    66d8:	00082800 	call	8280 <atk2_strerror>
    66dc:	01000184 	movi	r4,6
    66e0:	01400074 	movhi	r5,1
    66e4:	29406804 	addi	r5,r5,416
    66e8:	003ef106 	br	62b0 <ErrorHook+0x30>
    66ec:	00082800 	call	8280 <atk2_strerror>
    66f0:	01000184 	movi	r4,6
    66f4:	01400074 	movhi	r5,1
    66f8:	29405f04 	addi	r5,r5,380
    66fc:	003eec06 	br	62b0 <ErrorHook+0x30>
    6700:	00082800 	call	8280 <atk2_strerror>
    6704:	00c00074 	movhi	r3,1
    6708:	18c33804 	addi	r3,r3,3296
    670c:	19c00017 	ldw	r7,0(r3)
    6710:	01000184 	movi	r4,6
    6714:	01400074 	movhi	r5,1
    6718:	29402804 	addi	r5,r5,160
    671c:	100d883a 	mov	r6,r2
    6720:	dfc00217 	ldw	ra,8(sp)
    6724:	dec00304 	addi	sp,sp,12
    6728:	00080401 	jmpi	8040 <syslog>
    672c:	00082800 	call	8280 <atk2_strerror>
    6730:	00c00074 	movhi	r3,1
    6734:	18c33704 	addi	r3,r3,3292
    6738:	19000017 	ldw	r4,0(r3)
    673c:	00c00074 	movhi	r3,1
    6740:	18c33604 	addi	r3,r3,3288
    6744:	18c00017 	ldw	r3,0(r3)
    6748:	01400074 	movhi	r5,1
    674c:	29433804 	addi	r5,r5,3296
    6750:	29c00017 	ldw	r7,0(r5)
    6754:	100d883a 	mov	r6,r2
    6758:	d9000015 	stw	r4,0(sp)
    675c:	d8c00115 	stw	r3,4(sp)
    6760:	01000184 	movi	r4,6
    6764:	01400074 	movhi	r5,1
    6768:	29401f04 	addi	r5,r5,124
    676c:	00080400 	call	8040 <syslog>
    6770:	dfc00217 	ldw	ra,8(sp)
    6774:	dec00304 	addi	sp,sp,12
    6778:	f800283a 	ret
    677c:	00082800 	call	8280 <atk2_strerror>
    6780:	00c00074 	movhi	r3,1
    6784:	18c33704 	addi	r3,r3,3292
    6788:	19000017 	ldw	r4,0(r3)
    678c:	00c00074 	movhi	r3,1
    6790:	18c33604 	addi	r3,r3,3288
    6794:	18c00017 	ldw	r3,0(r3)
    6798:	01400074 	movhi	r5,1
    679c:	29433804 	addi	r5,r5,3296
    67a0:	29c00017 	ldw	r7,0(r5)
    67a4:	100d883a 	mov	r6,r2
    67a8:	d9000015 	stw	r4,0(sp)
    67ac:	d8c00115 	stw	r3,4(sp)
    67b0:	01000184 	movi	r4,6
    67b4:	01400074 	movhi	r5,1
    67b8:	29401604 	addi	r5,r5,88
    67bc:	00080400 	call	8040 <syslog>
    67c0:	003feb06 	br	6770 <ErrorHook+0x4f0>
    67c4:	00082800 	call	8280 <atk2_strerror>
    67c8:	00c00074 	movhi	r3,1
    67cc:	18c33704 	addi	r3,r3,3292
    67d0:	18c00017 	ldw	r3,0(r3)
    67d4:	01000074 	movhi	r4,1
    67d8:	21033804 	addi	r4,r4,3296
    67dc:	21c00017 	ldw	r7,0(r4)
    67e0:	01400074 	movhi	r5,1
    67e4:	29400f04 	addi	r5,r5,60
    67e8:	01000184 	movi	r4,6
    67ec:	d8c00015 	stw	r3,0(sp)
    67f0:	100d883a 	mov	r6,r2
    67f4:	00080400 	call	8040 <syslog>
    67f8:	003fdd06 	br	6770 <ErrorHook+0x4f0>
    67fc:	00082800 	call	8280 <atk2_strerror>
    6800:	00c00074 	movhi	r3,1
    6804:	18c33804 	addi	r3,r3,3296
    6808:	19c00017 	ldw	r7,0(r3)
    680c:	01000184 	movi	r4,6
    6810:	01400074 	movhi	r5,1
    6814:	29400804 	addi	r5,r5,32
    6818:	003fc006 	br	671c <ErrorHook+0x49c>
    681c:	00082800 	call	8280 <atk2_strerror>
    6820:	00c00074 	movhi	r3,1
    6824:	18c33804 	addi	r3,r3,3296
    6828:	19c00017 	ldw	r7,0(r3)
    682c:	01000184 	movi	r4,6
    6830:	01400074 	movhi	r5,1
    6834:	29400104 	addi	r5,r5,4
    6838:	003fb806 	br	671c <ErrorHook+0x49c>
    683c:	00082800 	call	8280 <atk2_strerror>
    6840:	00c00074 	movhi	r3,1
    6844:	18c33704 	addi	r3,r3,3292
    6848:	18c00017 	ldw	r3,0(r3)
    684c:	01000074 	movhi	r4,1
    6850:	21033804 	addi	r4,r4,3296
    6854:	21c00017 	ldw	r7,0(r4)
    6858:	01400074 	movhi	r5,1
    685c:	297ffa04 	addi	r5,r5,-24
    6860:	01000184 	movi	r4,6
    6864:	d8c00015 	stw	r3,0(sp)
    6868:	100d883a 	mov	r6,r2
    686c:	00080400 	call	8040 <syslog>
    6870:	003fbf06 	br	6770 <ErrorHook+0x4f0>
    6874:	00082800 	call	8280 <atk2_strerror>
    6878:	00c00074 	movhi	r3,1
    687c:	18c33804 	addi	r3,r3,3296
    6880:	19c00017 	ldw	r7,0(r3)
    6884:	01000184 	movi	r4,6
    6888:	01400074 	movhi	r5,1
    688c:	297ff304 	addi	r5,r5,-52
    6890:	003fa206 	br	671c <ErrorHook+0x49c>
    6894:	00082800 	call	8280 <atk2_strerror>
    6898:	00c00074 	movhi	r3,1
    689c:	18c33704 	addi	r3,r3,3292
    68a0:	18c00017 	ldw	r3,0(r3)
    68a4:	01000074 	movhi	r4,1
    68a8:	21033804 	addi	r4,r4,3296
    68ac:	21c00017 	ldw	r7,0(r4)
    68b0:	01400074 	movhi	r5,1
    68b4:	297fec04 	addi	r5,r5,-80
    68b8:	01000184 	movi	r4,6
    68bc:	d8c00015 	stw	r3,0(sp)
    68c0:	100d883a 	mov	r6,r2
    68c4:	00080400 	call	8040 <syslog>
    68c8:	003fa906 	br	6770 <ErrorHook+0x4f0>
    68cc:	00082800 	call	8280 <atk2_strerror>
    68d0:	00c00074 	movhi	r3,1
    68d4:	18c33804 	addi	r3,r3,3296
    68d8:	19c00017 	ldw	r7,0(r3)
    68dc:	01000184 	movi	r4,6
    68e0:	01400074 	movhi	r5,1
    68e4:	297fe404 	addi	r5,r5,-112
    68e8:	003f8c06 	br	671c <ErrorHook+0x49c>
    68ec:	00082800 	call	8280 <atk2_strerror>
    68f0:	00c00074 	movhi	r3,1
    68f4:	18c33804 	addi	r3,r3,3296
    68f8:	19c00017 	ldw	r7,0(r3)
    68fc:	01000184 	movi	r4,6
    6900:	01400074 	movhi	r5,1
    6904:	297fdd04 	addi	r5,r5,-140
    6908:	003f8406 	br	671c <ErrorHook+0x49c>
    690c:	00082800 	call	8280 <atk2_strerror>
    6910:	01000184 	movi	r4,6
    6914:	01400074 	movhi	r5,1
    6918:	297fd004 	addi	r5,r5,-192
    691c:	003e6406 	br	62b0 <ErrorHook+0x30>
    6920:	00082800 	call	8280 <atk2_strerror>
    6924:	01000184 	movi	r4,6
    6928:	01400074 	movhi	r5,1
    692c:	297fc804 	addi	r5,r5,-224
    6930:	003e5f06 	br	62b0 <ErrorHook+0x30>
    6934:	00082800 	call	8280 <atk2_strerror>
    6938:	01000184 	movi	r4,6
    693c:	01400074 	movhi	r5,1
    6940:	297fc004 	addi	r5,r5,-256
    6944:	003e5a06 	br	62b0 <ErrorHook+0x30>
    6948:	00082800 	call	8280 <atk2_strerror>
    694c:	01000184 	movi	r4,6
    6950:	01400074 	movhi	r5,1
    6954:	297fb804 	addi	r5,r5,-288
    6958:	003e5506 	br	62b0 <ErrorHook+0x30>
    695c:	00082800 	call	8280 <atk2_strerror>
    6960:	01000184 	movi	r4,6
    6964:	01400074 	movhi	r5,1
    6968:	297fb004 	addi	r5,r5,-320
    696c:	003e5006 	br	62b0 <ErrorHook+0x30>
    6970:	00082800 	call	8280 <atk2_strerror>
    6974:	01000184 	movi	r4,6
    6978:	01400074 	movhi	r5,1
    697c:	297fa804 	addi	r5,r5,-352
    6980:	003e4b06 	br	62b0 <ErrorHook+0x30>
    6984:	00082800 	call	8280 <atk2_strerror>
    6988:	00c00074 	movhi	r3,1
    698c:	18c33704 	addi	r3,r3,3292
    6990:	18c00017 	ldw	r3,0(r3)
    6994:	01000074 	movhi	r4,1
    6998:	21033804 	addi	r4,r4,3296
    699c:	21c00017 	ldw	r7,0(r4)
    69a0:	01400074 	movhi	r5,1
    69a4:	297fa004 	addi	r5,r5,-384
    69a8:	01000184 	movi	r4,6
    69ac:	d8c00015 	stw	r3,0(sp)
    69b0:	100d883a 	mov	r6,r2
    69b4:	00080400 	call	8040 <syslog>
    69b8:	003f6d06 	br	6770 <ErrorHook+0x4f0>
    69bc:	00082800 	call	8280 <atk2_strerror>
    69c0:	00c00074 	movhi	r3,1
    69c4:	18c33804 	addi	r3,r3,3296
    69c8:	19c00017 	ldw	r7,0(r3)
    69cc:	01000184 	movi	r4,6
    69d0:	01400074 	movhi	r5,1
    69d4:	297f9904 	addi	r5,r5,-412
    69d8:	003f5006 	br	671c <ErrorHook+0x49c>
    69dc:	00082800 	call	8280 <atk2_strerror>
    69e0:	01000184 	movi	r4,6
    69e4:	01400074 	movhi	r5,1
    69e8:	297f9404 	addi	r5,r5,-432
    69ec:	003e3006 	br	62b0 <ErrorHook+0x30>
    69f0:	00082800 	call	8280 <atk2_strerror>
    69f4:	00c00074 	movhi	r3,1
    69f8:	18c33804 	addi	r3,r3,3296
    69fc:	19c00017 	ldw	r7,0(r3)
    6a00:	01000184 	movi	r4,6
    6a04:	01400074 	movhi	r5,1
    6a08:	297f8e04 	addi	r5,r5,-456
    6a0c:	003f4306 	br	671c <ErrorHook+0x49c>
    6a10:	00082800 	call	8280 <atk2_strerror>
    6a14:	01000184 	movi	r4,6
    6a18:	01400074 	movhi	r5,1
    6a1c:	297f8704 	addi	r5,r5,-484
    6a20:	003e2306 	br	62b0 <ErrorHook+0x30>
    6a24:	00082800 	call	8280 <atk2_strerror>
    6a28:	00c00074 	movhi	r3,1
    6a2c:	18c33804 	addi	r3,r3,3296
    6a30:	19c00017 	ldw	r7,0(r3)
    6a34:	01000184 	movi	r4,6
    6a38:	01400074 	movhi	r5,1
    6a3c:	297f8004 	addi	r5,r5,-512
    6a40:	003f3606 	br	671c <ErrorHook+0x49c>
    6a44:	00082800 	call	8280 <atk2_strerror>
    6a48:	01000184 	movi	r4,6
    6a4c:	01400074 	movhi	r5,1
    6a50:	29407b04 	addi	r5,r5,492
    6a54:	003e1606 	br	62b0 <ErrorHook+0x30>
    6a58:	00082800 	call	8280 <atk2_strerror>
    6a5c:	00c00074 	movhi	r3,1
    6a60:	18c33804 	addi	r3,r3,3296
    6a64:	19c00017 	ldw	r7,0(r3)
    6a68:	01000184 	movi	r4,6
    6a6c:	01400074 	movhi	r5,1
    6a70:	29407304 	addi	r5,r5,460
    6a74:	003f2906 	br	671c <ErrorHook+0x49c>
    6a78:	00082800 	call	8280 <atk2_strerror>
    6a7c:	00c00074 	movhi	r3,1
    6a80:	18c33704 	addi	r3,r3,3292
    6a84:	18c00017 	ldw	r3,0(r3)
    6a88:	01000074 	movhi	r4,1
    6a8c:	21033804 	addi	r4,r4,3296
    6a90:	21c00017 	ldw	r7,0(r4)
    6a94:	01400074 	movhi	r5,1
    6a98:	29405404 	addi	r5,r5,336
    6a9c:	01000184 	movi	r4,6
    6aa0:	d8c00015 	stw	r3,0(sp)
    6aa4:	100d883a 	mov	r6,r2
