
atk2-sc1.exe:     file format elf32-littlenios2


Disassembly of section .entry:

05000000 <__reset>:
 5000000:	00840014 	movui	r2,4096
 5000004:	1001483a 	initi	r2
 5000008:	10bff804 	addi	r2,r2,-32
 500000c:	00bffd16 	blt	zero,r2,5000004 <__reset+0x4>
 5000010:	00c00034 	movhi	r3,0
 5000014:	18c1b804 	addi	r3,r3,1760
 5000018:	1800683a 	jmp	r3
 500001c:	00000000 	call	0 <__alt_mem_ext_flash>

Disassembly of section .exceptions:

00000020 <exception_entry>:
  20:	ee3fff17 	ldw	et,-4(ea)
  24:	c6000efc 	xorhi	et,et,59
  28:	c61a0e9c 	xori	et,et,26682
  2c:	c0011d26 	beq	et,zero,4a4 <trap_handler>

00000030 <exception>:
  30:	deffee04 	addi	sp,sp,-72
  34:	d8400015 	stw	at,0(sp)
  38:	d8800115 	stw	r2,4(sp)
  3c:	d8c00215 	stw	r3,8(sp)
  40:	d9000315 	stw	r4,12(sp)
  44:	d9400415 	stw	r5,16(sp)
  48:	d9800515 	stw	r6,20(sp)
  4c:	d9c00615 	stw	r7,24(sp)
  50:	da000715 	stw	r8,28(sp)
  54:	da400815 	stw	r9,32(sp)
  58:	da800915 	stw	r10,36(sp)
  5c:	dac00a15 	stw	r11,40(sp)
  60:	db000b15 	stw	r12,44(sp)
  64:	db400c15 	stw	r13,48(sp)
  68:	db800d15 	stw	r14,52(sp)
  6c:	dbc00e15 	stw	r15,56(sp)
  70:	dfc00f15 	stw	ra,60(sp)
  74:	df401015 	stw	ea,64(sp)
  78:	0031307a 	rdctl	et,estatus
  7c:	de001115 	stw	et,68(sp)
  80:	0009303a 	rdctl	r4,status
  84:	21c0fc0c 	andi	r7,r4,1008
  88:	d0a00f17 	ldw	r2,-32708(gp)
  8c:	11c00836 	bltu	r2,r7,b0 <exception_1>
  90:	d0e03503 	ldbu	r3,-32556(gp)
  94:	18400044 	addi	at,r3,1
  98:	d0603505 	stb	at,-32556(gp)
  9c:	00c0041e 	bne	zero,r3,b0 <exception_1>
  a0:	00ff03c4 	movi	r3,-1009
  a4:	20c6703a 	and	r3,r4,r3
  a8:	1886b03a 	or	r3,r3,r2
  ac:	1801703a 	wrctl	status,r3

000000b0 <exception_1>:
  b0:	000b31fa 	rdctl	r5,exception
  b4:	0011333a 	rdctl	r8,badaddr
  b8:	0007307a 	rdctl	r3,estatus
  bc:	18c0004c 	andi	r3,r3,1
  c0:	18000326 	beq	r3,zero,d0 <exception_2>
  c4:	0003303a 	rdctl	at,status
  c8:	08400054 	ori	at,at,1
  cc:	0801703a 	wrctl	status,at

000000d0 <exception_2>:
  d0:	d0e03e07 	ldb	r3,-32520(gp)
  d4:	00c03e26 	beq	zero,r3,1d0 <infinity_loop>
  d8:	d0e03a17 	ldw	r3,-32536(gp)
  dc:	19000044 	addi	r4,r3,1
  e0:	d1203a15 	stw	r4,-32536(gp)
  e4:	d809883a 	mov	r4,sp
  e8:	00c00536 	bltu	zero,r3,100 <exception_3>
  ec:	11c00436 	bltu	r2,r7,100 <exception_3>
  f0:	d0a01017 	ldw	r2,-32704(gp)
  f4:	10bfff04 	addi	r2,r2,-4
  f8:	16c00015 	stw	sp,0(r2)
  fc:	1037883a 	mov	sp,r2

00000100 <exception_3>:
 100:	defffc04 	addi	sp,sp,-16
 104:	d1a03917 	ldw	r6,-32540(gp)
 108:	d9800315 	stw	r6,12(sp)
 10c:	29401fcc 	andi	r5,r5,127
 110:	280ad0ba 	srli	r5,r5,2
 114:	d1603915 	stw	r5,-32540(gp)
 118:	d1a03817 	ldw	r6,-32544(gp)
 11c:	d9800215 	stw	r6,8(sp)
 120:	21801017 	ldw	r6,64(r4)
 124:	31bfff04 	addi	r6,r6,-4
 128:	d1a03815 	stw	r6,-32544(gp)
 12c:	d1a03717 	ldw	r6,-32548(gp)
 130:	d9800115 	stw	r6,4(sp)
 134:	d2203715 	stw	r8,-32548(gp)
 138:	d1a03617 	ldw	r6,-32552(gp)
 13c:	d9800015 	stw	r6,0(sp)
 140:	d1203615 	stw	r4,-32552(gp)
 144:	01000584 	movi	r4,22
 148:	000b8600 	call	b860 <call_protectionhk_main>
 14c:	d9800317 	ldw	r6,12(sp)
 150:	d1a03915 	stw	r6,-32540(gp)
 154:	d9800217 	ldw	r6,8(sp)
 158:	d1a03815 	stw	r6,-32544(gp)
 15c:	d9800117 	ldw	r6,4(sp)
 160:	d1a03715 	stw	r6,-32548(gp)
 164:	d9800017 	ldw	r6,0(sp)
 168:	d1a03615 	stw	r6,-32552(gp)
 16c:	dec00404 	addi	sp,sp,16

00000170 <ret_exc>:
 170:	d0e03a17 	ldw	r3,-32536(gp)
 174:	18ffffc4 	addi	r3,r3,-1
 178:	d0e03a15 	stw	r3,-32536(gp)
 17c:	0009303a 	rdctl	r4,status
 180:	2140fc0c 	andi	r5,r4,1008
 184:	d1a00f17 	ldw	r6,-32708(gp)
 188:	31400636 	bltu	r6,r5,1a4 <ret_exc_2>
 18c:	00c0021e 	bne	zero,r3,198 <ret_exc_1>
 190:	d8800017 	ldw	r2,0(sp)
 194:	1037883a 	mov	sp,r2

00000198 <ret_exc_1>:
 198:	d0e03503 	ldbu	r3,-32556(gp)
 19c:	18ffffc4 	addi	r3,r3,-1
 1a0:	d0e03505 	stb	r3,-32556(gp)

000001a4 <ret_exc_2>:
 1a4:	2100004c 	andi	r4,r4,1
 1a8:	d8401117 	ldw	at,68(sp)
 1ac:	00bfff84 	movi	r2,-2
 1b0:	0882703a 	and	at,at,r2
 1b4:	0902b03a 	or	at,at,r4
 1b8:	d8401115 	stw	at,68(sp)
 1bc:	0003303a 	rdctl	at,status
 1c0:	00bfff84 	movi	r2,-2
 1c4:	0882703a 	and	at,at,r2
 1c8:	0801703a 	wrctl	status,at
 1cc:	0000a006 	br	450 <ret_int_1>

000001d0 <infinity_loop>:
 1d0:	003fff06 	br	1d0 <infinity_loop>
	...

000001e0 <interrupt>:
 1e0:	ef7fff04 	addi	ea,ea,-4
 1e4:	deffee04 	addi	sp,sp,-72
 1e8:	d8400015 	stw	at,0(sp)
 1ec:	d8800115 	stw	r2,4(sp)
 1f0:	d8c00215 	stw	r3,8(sp)
 1f4:	d9000315 	stw	r4,12(sp)
 1f8:	d9400415 	stw	r5,16(sp)
 1fc:	d9800515 	stw	r6,20(sp)
 200:	d9c00615 	stw	r7,24(sp)
 204:	da000715 	stw	r8,28(sp)
 208:	da400815 	stw	r9,32(sp)
 20c:	da800915 	stw	r10,36(sp)
 210:	dac00a15 	stw	r11,40(sp)
 214:	db000b15 	stw	r12,44(sp)
 218:	db400c15 	stw	r13,48(sp)
 21c:	db800d15 	stw	r14,52(sp)
 220:	dbc00e15 	stw	r15,56(sp)
 224:	dfc00f15 	stw	ra,60(sp)
 228:	df401015 	stw	ea,64(sp)
 22c:	c009883a 	mov	r4,et
 230:	0031307a 	rdctl	et,estatus
 234:	de001115 	stw	et,68(sp)
 238:	d0e03a17 	ldw	r3,-32536(gp)
 23c:	19400044 	addi	r5,r3,1
 240:	d1603a15 	stw	r5,-32536(gp)
 244:	00c00436 	bltu	zero,r3,258 <interrupt_1>
 248:	d0a01017 	ldw	r2,-32704(gp)
 24c:	10bfff04 	addi	r2,r2,-4
 250:	16c00015 	stw	sp,0(r2)
 254:	1037883a 	mov	sp,r2

00000258 <interrupt_1>:
 258:	0003303a 	rdctl	at,status
 25c:	08400054 	ori	at,at,1
 260:	0801703a 	wrctl	status,at
 264:	00c00a36 	bltu	zero,r3,290 <int_nested>
 268:	d9c00017 	ldw	r7,0(sp)
 26c:	d1a04d17 	ldw	r6,-32460(gp)
 270:	31800217 	ldw	r6,8(r6)
 274:	31800217 	ldw	r6,8(r6)
 278:	31c1042e 	bgeu	r6,r7,68c <stack_monitoring_error_isr>
 27c:	32000017 	ldw	r8,0(r6)
 280:	019390f4 	movhi	r6,20035
 284:	319154c4 	addi	r6,r6,17747
 288:	41800f26 	beq	r8,r6,2c8 <stack_monitoring_exit>
 28c:	0000ff06 	br	68c <stack_monitoring_error_isr>

00000290 <int_nested>:
 290:	00800074 	movhi	r2,1
 294:	1081ab04 	addi	r2,r2,1708
 298:	200690ba 	slli	r3,r4,2
 29c:	10c5883a 	add	r2,r2,r3
 2a0:	11400017 	ldw	r5,0(r2)
 2a4:	29c00017 	ldw	r7,0(r5)
 2a8:	39c00317 	ldw	r7,12(r7)
 2ac:	d1a01117 	ldw	r6,-32700(gp)
 2b0:	398f883a 	add	r7,r7,r6
 2b4:	3ec0f52e 	bgeu	r7,sp,68c <stack_monitoring_error_isr>
 2b8:	31c00017 	ldw	r7,0(r6)
 2bc:	019390f4 	movhi	r6,20035
 2c0:	319154c4 	addi	r6,r6,17747
 2c4:	3980f11e 	bne	r7,r6,68c <stack_monitoring_error_isr>

000002c8 <stack_monitoring_exit>:
 2c8:	d0e0400f 	ldh	r3,-32512(gp)
 2cc:	deffff04 	addi	sp,sp,-4
 2d0:	d8c00015 	stw	r3,0(sp)
 2d4:	19800094 	ori	r6,r3,2
 2d8:	d1a0400d 	sth	r6,-32512(gp)
 2dc:	d0e04917 	ldw	r3,-32476(gp)
 2e0:	deffff04 	addi	sp,sp,-4
 2e4:	d8c00015 	stw	r3,0(sp)
 2e8:	00800074 	movhi	r2,1
 2ec:	1081ab04 	addi	r2,r2,1708
 2f0:	200690ba 	slli	r3,r4,2
 2f4:	10c5883a 	add	r2,r2,r3
 2f8:	11400017 	ldw	r5,0(r2)
 2fc:	d1604915 	stw	r5,-32476(gp)
 300:	00800074 	movhi	r2,1
 304:	1081cb04 	addi	r2,r2,1836
 308:	10c5883a 	add	r2,r2,r3
 30c:	11800017 	ldw	r6,0(r2)
 310:	303ee83a 	callr	r6
 314:	d1a01117 	ldw	r6,-32700(gp)
 318:	31c00017 	ldw	r7,0(r6)
 31c:	019390f4 	movhi	r6,20035
 320:	319154c4 	addi	r6,r6,17747
 324:	3980d91e 	bne	r7,r6,68c <stack_monitoring_error_isr>
 328:	000e3000 	call	e300 <exit_isr2>
 32c:	d8c00017 	ldw	r3,0(sp)
 330:	dec00104 	addi	sp,sp,4
 334:	d0e04915 	stw	r3,-32476(gp)
 338:	d8c00017 	ldw	r3,0(sp)
 33c:	dec00104 	addi	sp,sp,4
 340:	d0e0400d 	sth	r3,-32512(gp)

00000344 <ret_int>:
 344:	0003303a 	rdctl	at,status
 348:	00bfff84 	movi	r2,-2
 34c:	0882703a 	and	at,at,r2
 350:	0801703a 	wrctl	status,at
 354:	d0e03a17 	ldw	r3,-32536(gp)
 358:	18ffffc4 	addi	r3,r3,-1
 35c:	d0e03a15 	stw	r3,-32536(gp)
 360:	00c00126 	beq	zero,r3,368 <ret_int_task>
 364:	00003a06 	br	450 <ret_int_1>

00000368 <ret_int_task>:
 368:	d8800017 	ldw	r2,0(sp)
 36c:	1037883a 	mov	sp,r2
 370:	d1204d17 	ldw	r4,-32460(gp)
 374:	d1604c17 	ldw	r5,-32464(gp)
 378:	21403526 	beq	r4,r5,450 <ret_int_1>
 37c:	0003303a 	rdctl	at,status
 380:	00bf03c4 	movi	r2,-1009
 384:	0882703a 	and	at,at,r2
 388:	d0a00f17 	ldw	r2,-32708(gp)
 38c:	0882b03a 	or	at,at,r2
 390:	0801703a 	wrctl	status,at
 394:	00400044 	movi	at,1
 398:	d0603505 	stb	at,-32556(gp)
 39c:	d0203415 	stw	zero,-32560(gp)
 3a0:	0003303a 	rdctl	at,status
 3a4:	08400054 	ori	at,at,1
 3a8:	0801703a 	wrctl	status,at
 3ac:	defff704 	addi	sp,sp,-36
 3b0:	dc000015 	stw	r16,0(sp)
 3b4:	dc400115 	stw	r17,4(sp)
 3b8:	dc800215 	stw	r18,8(sp)
 3bc:	dcc00315 	stw	r19,12(sp)
 3c0:	dd000415 	stw	r20,16(sp)
 3c4:	dd400515 	stw	r21,20(sp)
 3c8:	dd800615 	stw	r22,24(sp)
 3cc:	ddc00715 	stw	r23,28(sp)
 3d0:	df000815 	stw	fp,32(sp)
 3d4:	26c00815 	stw	sp,32(r4)
 3d8:	00800034 	movhi	r2,0
 3dc:	1080fa04 	addi	r2,r2,1000
 3e0:	20800915 	stw	r2,36(r4)
 3e4:	00007606 	br	5c0 <dispatcher>

000003e8 <ret_int_r>:
 3e8:	dc000017 	ldw	r16,0(sp)
 3ec:	dc400117 	ldw	r17,4(sp)
 3f0:	dc800217 	ldw	r18,8(sp)
 3f4:	dcc00317 	ldw	r19,12(sp)
 3f8:	dd000417 	ldw	r20,16(sp)
 3fc:	dd400517 	ldw	r21,20(sp)
 400:	dd800617 	ldw	r22,24(sp)
 404:	ddc00717 	ldw	r23,28(sp)
 408:	df000817 	ldw	fp,32(sp)
 40c:	dec00904 	addi	sp,sp,36
 410:	0005303a 	rdctl	r2,status
 414:	1080004c 	andi	r2,r2,1
 418:	d8401117 	ldw	at,68(sp)
 41c:	00ffff84 	movi	r3,-2
 420:	08c2703a 	and	at,at,r3
 424:	0882b03a 	or	at,at,r2
 428:	d8401115 	stw	at,68(sp)
 42c:	0003303a 	rdctl	at,status
 430:	00bfff84 	movi	r2,-2
 434:	0882703a 	and	at,at,r2
 438:	0801703a 	wrctl	status,at
 43c:	d0203505 	stb	zero,-32556(gp)
 440:	0003303a 	rdctl	at,status
 444:	00bf03c4 	movi	r2,-1009
 448:	0882703a 	and	at,at,r2
 44c:	0801703a 	wrctl	status,at

00000450 <ret_int_1>:
 450:	d8400017 	ldw	at,0(sp)
 454:	d8800117 	ldw	r2,4(sp)
 458:	d8c00217 	ldw	r3,8(sp)
 45c:	d9000317 	ldw	r4,12(sp)
 460:	d9400417 	ldw	r5,16(sp)
 464:	d9800517 	ldw	r6,20(sp)
 468:	d9c00617 	ldw	r7,24(sp)
 46c:	da000717 	ldw	r8,28(sp)
 470:	da400817 	ldw	r9,32(sp)
 474:	da800917 	ldw	r10,36(sp)
 478:	dac00a17 	ldw	r11,40(sp)
 47c:	db000b17 	ldw	r12,44(sp)
 480:	db400c17 	ldw	r13,48(sp)
 484:	db800d17 	ldw	r14,52(sp)
 488:	dbc00e17 	ldw	r15,56(sp)
 48c:	dfc00f17 	ldw	ra,60(sp)
 490:	df401017 	ldw	ea,64(sp)
 494:	de001117 	ldw	et,68(sp)
 498:	c001707a 	wrctl	estatus,et
 49c:	dec01204 	addi	sp,sp,72
 4a0:	ef80083a 	eret

000004a4 <trap_handler>:
 4a4:	ef80083a 	eret
	...

000004c0 <dispatch>:
 4c0:	defff604 	addi	sp,sp,-40
 4c4:	dc000015 	stw	r16,0(sp)
 4c8:	dc400115 	stw	r17,4(sp)
 4cc:	dc800215 	stw	r18,8(sp)
 4d0:	dcc00315 	stw	r19,12(sp)
 4d4:	dd000415 	stw	r20,16(sp)
 4d8:	dd400515 	stw	r21,20(sp)
 4dc:	dd800615 	stw	r22,24(sp)
 4e0:	ddc00715 	stw	r23,28(sp)
 4e4:	df000815 	stw	fp,32(sp)
 4e8:	dfc00915 	stw	ra,36(sp)
 4ec:	d1204d17 	ldw	r4,-32460(gp)
 4f0:	26c00815 	stw	sp,32(r4)
 4f4:	01400034 	movhi	r5,0
 4f8:	29414904 	addi	r5,r5,1316
 4fc:	21400915 	stw	r5,36(r4)
 500:	d1a04d17 	ldw	r6,-32460(gp)
 504:	31800217 	ldw	r6,8(r6)
 508:	31800217 	ldw	r6,8(r6)
 50c:	36c0682e 	bgeu	r6,sp,6b0 <stack_monitoring_error>
 510:	31c00017 	ldw	r7,0(r6)
 514:	019390f4 	movhi	r6,20035
 518:	319154c4 	addi	r6,r6,17747
 51c:	3980641e 	bne	r7,r6,6b0 <stack_monitoring_error>
 520:	00002706 	br	5c0 <dispatcher>

00000524 <dispatch_r>:
 524:	dc000017 	ldw	r16,0(sp)
 528:	dc400117 	ldw	r17,4(sp)
 52c:	dc800217 	ldw	r18,8(sp)
 530:	dcc00317 	ldw	r19,12(sp)
 534:	dd000417 	ldw	r20,16(sp)
 538:	dd400517 	ldw	r21,20(sp)
 53c:	dd800617 	ldw	r22,24(sp)
 540:	ddc00717 	ldw	r23,28(sp)
 544:	df000817 	ldw	fp,32(sp)
 548:	dfc00917 	ldw	ra,36(sp)
 54c:	dec00a04 	addi	sp,sp,40
 550:	f800283a 	ret
	...

00000560 <start_dispatch>:
 560:	0003303a 	rdctl	at,status
 564:	00bf03c4 	movi	r2,-1009
 568:	0882703a 	and	at,at,r2
 56c:	d0a00f17 	ldw	r2,-32708(gp)
 570:	0882b03a 	or	at,at,r2
 574:	0801703a 	wrctl	status,at
 578:	00400044 	movi	at,1
 57c:	d0603505 	stb	at,-32556(gp)
 580:	d0203415 	stw	zero,-32560(gp)
 584:	0003303a 	rdctl	at,status
 588:	08400054 	ori	at,at,1
 58c:	0801703a 	wrctl	status,at
 590:	00001106 	br	5d8 <dispatcher_0>
	...

000005a0 <exit_and_dispatch>:
 5a0:	d1a04d17 	ldw	r6,-32460(gp)
 5a4:	31800217 	ldw	r6,8(r6)
 5a8:	31800217 	ldw	r6,8(r6)
 5ac:	36c0402e 	bgeu	r6,sp,6b0 <stack_monitoring_error>
 5b0:	31c00017 	ldw	r7,0(r6)
 5b4:	019390f4 	movhi	r6,20035
 5b8:	319154c4 	addi	r6,r6,17747
 5bc:	39803c1e 	bne	r7,r6,6b0 <stack_monitoring_error>

000005c0 <dispatcher>:
 5c0:	00800034 	movhi	r2,0
 5c4:	109af004 	addi	r2,r2,27584
 5c8:	10000326 	beq	r2,zero,5d8 <dispatcher_0>

000005cc <posttaskhook_call>:
 5cc:	01000074 	movhi	r4,1
 5d0:	212da804 	addi	r4,r4,-18784
 5d4:	00085600 	call	8560 <stack_change_and_call_func_1>

000005d8 <dispatcher_0>:
 5d8:	d160400f 	ldh	r5,-32512(gp)
 5dc:	2904000c 	andi	r4,r5,4096
 5e0:	20000526 	beq	r4,zero,5f8 <dispatcher_1>
 5e4:	297bffcc 	andi	r5,r5,61439
 5e8:	d160400d 	sth	r5,-32512(gp)
 5ec:	0005303a 	rdctl	r2,status
 5f0:	10800054 	ori	r2,r2,1
 5f4:	1001703a 	wrctl	status,r2

000005f8 <dispatcher_1>:
 5f8:	d1604c17 	ldw	r5,-32464(gp)
 5fc:	d1604d15 	stw	r5,-32460(gp)
 600:	28000b26 	beq	r5,zero,630 <dispatcher_3>
 604:	2ec00817 	ldw	sp,32(r5)
 608:	d0203a15 	stw	zero,-32536(gp)
 60c:	00800034 	movhi	r2,0
 610:	109ae804 	addi	r2,r2,27552
 614:	10000326 	beq	r2,zero,624 <dispatcher_2>

00000618 <pretaskhook_call>:
 618:	01000074 	movhi	r4,1
 61c:	212dc004 	addi	r4,r4,-18688
 620:	00085600 	call	8560 <stack_change_and_call_func_1>

00000624 <dispatcher_2>:
 624:	d1604d17 	ldw	r5,-32460(gp)
 628:	29400917 	ldw	r5,36(r5)
 62c:	2800683a 	jmp	r5

00000630 <dispatcher_3>:
 630:	d0a01017 	ldw	r2,-32704(gp)
 634:	1037883a 	mov	sp,r2
 638:	01400044 	movi	r5,1
 63c:	d1603a15 	stw	r5,-32536(gp)
 640:	d0203505 	stb	zero,-32556(gp)
 644:	0003303a 	rdctl	at,status
 648:	00bf03c4 	movi	r2,-1009
 64c:	0882703a 	and	at,at,r2
 650:	0801703a 	wrctl	status,at
 654:	0001883a 	nop
 658:	0001883a 	nop
 65c:	0001883a 	nop
 660:	0001883a 	nop
 664:	0003303a 	rdctl	at,status
 668:	00bf03c4 	movi	r2,-1009
 66c:	0882703a 	and	at,at,r2
 670:	d0a00f17 	ldw	r2,-32708(gp)
 674:	0882b03a 	or	at,at,r2
 678:	0801703a 	wrctl	status,at
 67c:	00400044 	movi	at,1
 680:	d0603505 	stb	at,-32556(gp)
 684:	d0203415 	stw	zero,-32560(gp)
 688:	003fdb06 	br	5f8 <dispatcher_1>

0000068c <stack_monitoring_error_isr>:
 68c:	0003303a 	rdctl	at,status
 690:	00bf03c4 	movi	r2,-1009
 694:	0882703a 	and	at,at,r2
 698:	d0a00f17 	ldw	r2,-32708(gp)
 69c:	0882b03a 	or	at,at,r2
 6a0:	0801703a 	wrctl	status,at
 6a4:	00400044 	movi	at,1
 6a8:	d0603505 	stb	at,-32556(gp)
 6ac:	d0203415 	stw	zero,-32560(gp)

000006b0 <stack_monitoring_error>:
 6b0:	d0a03a17 	ldw	r2,-32536(gp)
 6b4:	10800044 	addi	r2,r2,1
 6b8:	d0a03a15 	stw	r2,-32536(gp)
 6bc:	d6e01017 	ldw	sp,-32704(gp)
 6c0:	01000344 	movi	r4,13
 6c4:	000b8600 	call	b860 <call_protectionhk_main>
	...

Disassembly of section .text:

000006e0 <start>:
     6e0:	0001703a 	wrctl	status,zero
     6e4:	068000b4 	movhi	gp,2
     6e8:	d6a2f504 	addi	gp,gp,-29740
     6ec:	d6e01017 	ldw	sp,-32704(gp)

000006f0 <start_0>:
     6f0:	00800034 	movhi	r2,0
     6f4:	10800004 	addi	r2,r2,0
     6f8:	00800126 	beq	zero,r2,700 <start_1>
     6fc:	103ee83a 	callr	r2

00000700 <start_1>:
     700:	00c00074 	movhi	r3,1
     704:	18c31304 	addi	r3,r3,3148
     708:	00800174 	movhi	r2,5
     70c:	108ed204 	addi	r2,r2,15176
     710:	18800326 	beq	r3,r2,720 <start_3>

00000714 <start_2>:
     714:	18000015 	stw	zero,0(r3)
     718:	18c00104 	addi	r3,r3,4
     71c:	18bffd36 	bltu	r3,r2,714 <start_2>

00000720 <start_3>:
     720:	00800034 	movhi	r2,0
     724:	10800004 	addi	r2,r2,0
     728:	00800126 	beq	zero,r2,730 <start_4>
     72c:	103ee83a 	callr	r2

00000730 <start_4>:
     730:	00086200 	call	8620 <target_hardware_initialize>
     734:	0006de00 	call	6de0 <main>

00000738 <crt0_end>:
     738:	003fff06 	br	738 <crt0_end>
     73c:	00000000 	call	0 <__alt_mem_ext_flash>

00000740 <nbuf_get_tbl>:
     740:	00800074 	movhi	r2,1
     744:	10828404 	addi	r2,r2,2576
     748:	f800283a 	ret
     74c:	0001883a 	nop
     750:	0001883a 	nop
     754:	0001883a 	nop
     758:	0001883a 	nop
     75c:	0001883a 	nop

00000760 <nbuf_get_tbl_size>:
     760:	008001c4 	movi	r2,7
     764:	f800283a 	ret
     768:	0001883a 	nop
     76c:	0001883a 	nop
     770:	0001883a 	nop
     774:	0001883a 	nop
     778:	0001883a 	nop
     77c:	0001883a 	nop

00000780 <get_net_buf_ex>:
     780:	defff304 	addi	sp,sp,-52
     784:	dd800915 	stw	r22,36(sp)
     788:	dcc00615 	stw	r19,24(sp)
     78c:	dc000315 	stw	r16,12(sp)
     790:	dfc00c15 	stw	ra,48(sp)
     794:	df000b15 	stw	fp,44(sp)
     798:	ddc00a15 	stw	r23,40(sp)
     79c:	dd400815 	stw	r21,32(sp)
     7a0:	dd000715 	stw	r20,28(sp)
     7a4:	dc800515 	stw	r18,20(sp)
     7a8:	dc400415 	stw	r17,16(sp)
     7ac:	3888000c 	andi	r2,r7,8192
     7b0:	2027883a 	mov	r19,r4
     7b4:	282d883a 	mov	r22,r5
     7b8:	3021883a 	mov	r16,r6
     7bc:	10000126 	beq	r2,zero,7c4 <get_net_buf_ex+0x44>
     7c0:	31408336 	bltu	r6,r5,9d0 <get_net_buf_ex+0x250>
     7c4:	05c00074 	movhi	r23,1
     7c8:	bdc28404 	addi	r23,r23,2576
     7cc:	bd000117 	ldw	r20,4(r23)
     7d0:	a5807636 	bltu	r20,r22,9ac <get_net_buf_ex+0x22c>
     7d4:	a4007536 	bltu	r20,r16,9ac <get_net_buf_ex+0x22c>
     7d8:	1000451e 	bne	r2,zero,8f0 <get_net_buf_ex+0x170>
     7dc:	3884000c 	andi	r2,r7,4096
     7e0:	10009126 	beq	r2,zero,a28 <get_net_buf_ex+0x2a8>
     7e4:	b8802504 	addi	r2,r23,148
     7e8:	05400184 	movi	r21,6
     7ec:	013fffc4 	movi	r4,-1
     7f0:	10c00017 	ldw	r3,0(r2)
     7f4:	10bffa04 	addi	r2,r2,-24
     7f8:	1d80022e 	bgeu	r3,r22,804 <get_net_buf_ex+0x84>
     7fc:	ad7fffc4 	addi	r21,r21,-1
     800:	a93ffb1e 	bne	r21,r4,7f0 <get_net_buf_ex+0x70>
     804:	af000624 	muli	fp,r21,24
     808:	a823883a 	mov	r17,r21
     80c:	bf21883a 	add	r16,r23,fp
     810:	80800304 	addi	r2,r16,12
     814:	10c00017 	ldw	r3,0(r2)
     818:	e4800104 	addi	r18,fp,4
     81c:	bca5883a 	add	r18,r23,r18
     820:	18c00044 	addi	r3,r3,1
     824:	10c00015 	stw	r3,0(r2)
     828:	00000506 	br	840 <get_net_buf_ex+0xc0>
     82c:	88002126 	beq	r17,zero,8b4 <get_net_buf_ex+0x134>
     830:	90c00017 	ldw	r3,0(r18)
     834:	8c7fffc4 	addi	r17,r17,-1
     838:	94bffa04 	addi	r18,r18,-24
     83c:	a0c01d36 	bltu	r20,r3,8b4 <get_net_buf_ex+0x134>
     840:	8100000b 	ldhu	r4,0(r16)
     844:	980b883a 	mov	r5,r19
     848:	843ffa04 	addi	r16,r16,-24
     84c:	00079600 	call	7960 <net_atk2_get_mpf>
     850:	103ff61e 	bne	r2,zero,82c <get_net_buf_ex+0xac>
     854:	98c00017 	ldw	r3,0(r19)
     858:	89000624 	muli	r4,r17,24
     85c:	1c400085 	stb	r17,2(r3)
     860:	98c00017 	ldw	r3,0(r19)
     864:	b92f883a 	add	r23,r23,r4
     868:	bdc00404 	addi	r23,r23,16
     86c:	1d80000d 	sth	r22,0(r3)
     870:	98c00017 	ldw	r3,0(r19)
     874:	180000c5 	stb	zero,3(r3)
     878:	b8c00017 	ldw	r3,0(r23)
     87c:	18c00044 	addi	r3,r3,1
     880:	b8c00015 	stw	r3,0(r23)
     884:	dfc00c17 	ldw	ra,48(sp)
     888:	df000b17 	ldw	fp,44(sp)
     88c:	ddc00a17 	ldw	r23,40(sp)
     890:	dd800917 	ldw	r22,36(sp)
     894:	dd400817 	ldw	r21,32(sp)
     898:	dd000717 	ldw	r20,28(sp)
     89c:	dcc00617 	ldw	r19,24(sp)
     8a0:	dc800517 	ldw	r18,20(sp)
     8a4:	dc400417 	ldw	r17,16(sp)
     8a8:	dc000317 	ldw	r16,12(sp)
     8ac:	dec00d04 	addi	sp,sp,52
     8b0:	f800283a 	ret
     8b4:	bf2f883a 	add	r23,r23,fp
     8b8:	01000104 	movi	r4,4
     8bc:	01400074 	movhi	r5,1
     8c0:	297b9504 	addi	r5,r5,-4524
     8c4:	a9bfffcc 	andi	r6,r21,65535
     8c8:	b00f883a 	mov	r7,r22
     8cc:	d8800215 	stw	r2,8(sp)
     8d0:	bdc00504 	addi	r23,r23,20
     8d4:	00080400 	call	8040 <syslog>
     8d8:	98000015 	stw	zero,0(r19)
     8dc:	b8c00017 	ldw	r3,0(r23)
     8e0:	18c00044 	addi	r3,r3,1
     8e4:	b8c00015 	stw	r3,0(r23)
     8e8:	d8800217 	ldw	r2,8(sp)
     8ec:	003fe506 	br	884 <get_net_buf_ex+0x104>
     8f0:	b8802504 	addi	r2,r23,148
     8f4:	05400184 	movi	r21,6
     8f8:	013fffc4 	movi	r4,-1
     8fc:	10c00017 	ldw	r3,0(r2)
     900:	10bffa04 	addi	r2,r2,-24
     904:	1c00022e 	bgeu	r3,r16,910 <get_net_buf_ex+0x190>
     908:	ad7fffc4 	addi	r21,r21,-1
     90c:	a93ffb1e 	bne	r21,r4,8fc <get_net_buf_ex+0x17c>
     910:	a8c00624 	muli	r3,r21,24
     914:	af000044 	addi	fp,r21,1
     918:	e7000624 	muli	fp,fp,24
     91c:	b8e3883a 	add	r17,r23,r3
     920:	88800304 	addi	r2,r17,12
     924:	d8c00115 	stw	r3,4(sp)
     928:	10c00017 	ldw	r3,0(r2)
     92c:	e7000104 	addi	fp,fp,4
     930:	bf39883a 	add	fp,r23,fp
     934:	18c00044 	addi	r3,r3,1
     938:	10c00015 	stw	r3,0(r2)
     93c:	a825883a 	mov	r18,r21
     940:	050001c4 	movi	r20,7
     944:	8900000b 	ldhu	r4,0(r17)
     948:	980b883a 	mov	r5,r19
     94c:	8c400604 	addi	r17,r17,24
     950:	00079600 	call	7960 <net_atk2_get_mpf>
     954:	10002626 	beq	r2,zero,9f0 <get_net_buf_ex+0x270>
     958:	94800044 	addi	r18,r18,1
     95c:	95000326 	beq	r18,r20,96c <get_net_buf_ex+0x1ec>
     960:	e0c00017 	ldw	r3,0(fp)
     964:	e7000604 	addi	fp,fp,24
     968:	1dbff62e 	bgeu	r3,r22,944 <get_net_buf_ex+0x1c4>
     96c:	a9bfffcc 	andi	r6,r21,65535
     970:	01000104 	movi	r4,4
     974:	01400074 	movhi	r5,1
     978:	297b9504 	addi	r5,r5,-4524
     97c:	800f883a 	mov	r7,r16
     980:	d8800215 	stw	r2,8(sp)
     984:	00080400 	call	8040 <syslog>
     988:	d8c00117 	ldw	r3,4(sp)
     98c:	98000015 	stw	zero,0(r19)
     990:	b8eb883a 	add	r21,r23,r3
     994:	ad400504 	addi	r21,r21,20
     998:	a8c00017 	ldw	r3,0(r21)
     99c:	18c00044 	addi	r3,r3,1
     9a0:	a8c00015 	stw	r3,0(r21)
     9a4:	d8800217 	ldw	r2,8(sp)
     9a8:	003fb606 	br	884 <get_net_buf_ex+0x104>
     9ac:	dd000015 	stw	r20,0(sp)
     9b0:	01000104 	movi	r4,4
     9b4:	01400074 	movhi	r5,1
     9b8:	297b8904 	addi	r5,r5,-4572
     9bc:	b00d883a 	mov	r6,r22
     9c0:	800f883a 	mov	r7,r16
     9c4:	00080400 	call	8040 <syslog>
     9c8:	00bffbc4 	movi	r2,-17
     9cc:	003fad06 	br	884 <get_net_buf_ex+0x104>
     9d0:	01000104 	movi	r4,4
     9d4:	01400074 	movhi	r5,1
     9d8:	297b7e04 	addi	r5,r5,-4616
     9dc:	b00d883a 	mov	r6,r22
     9e0:	800f883a 	mov	r7,r16
     9e4:	00080400 	call	8040 <syslog>
     9e8:	00bffbc4 	movi	r2,-17
     9ec:	003fa506 	br	884 <get_net_buf_ex+0x104>
     9f0:	99000017 	ldw	r4,0(r19)
     9f4:	90c00624 	muli	r3,r18,24
     9f8:	24800085 	stb	r18,2(r4)
     9fc:	b8c7883a 	add	r3,r23,r3
     a00:	19400117 	ldw	r5,4(r3)
     a04:	99000017 	ldw	r4,0(r19)
     a08:	18c00404 	addi	r3,r3,16
     a0c:	2140000d 	sth	r5,0(r4)
     a10:	99000017 	ldw	r4,0(r19)
     a14:	200000c5 	stb	zero,3(r4)
     a18:	19000017 	ldw	r4,0(r3)
     a1c:	21000044 	addi	r4,r4,1
     a20:	19000015 	stw	r4,0(r3)
     a24:	003f9706 	br	884 <get_net_buf_ex+0x104>
     a28:	01000104 	movi	r4,4
     a2c:	01400074 	movhi	r5,1
     a30:	297b9e04 	addi	r5,r5,-4488
     a34:	380d883a 	mov	r6,r7
     a38:	00080400 	call	8040 <syslog>
     a3c:	00bffbc4 	movi	r2,-17
     a40:	003f9006 	br	884 <get_net_buf_ex+0x104>
     a44:	0001883a 	nop
     a48:	0001883a 	nop
     a4c:	0001883a 	nop
     a50:	0001883a 	nop
     a54:	0001883a 	nop
     a58:	0001883a 	nop
     a5c:	0001883a 	nop

00000a60 <get_net_buf>:
     a60:	00800074 	movhi	r2,1
     a64:	10828404 	addi	r2,r2,2576
     a68:	11800117 	ldw	r6,4(r2)
     a6c:	01c40004 	movi	r7,4096
     a70:	00007801 	jmpi	780 <get_net_buf_ex>
     a74:	0001883a 	nop
     a78:	0001883a 	nop
     a7c:	0001883a 	nop

00000a80 <rel_net_buf>:
     a80:	defffd04 	addi	sp,sp,-12
     a84:	dc400115 	stw	r17,4(sp)
     a88:	dfc00215 	stw	ra,8(sp)
     a8c:	dc000015 	stw	r16,0(sp)
     a90:	21800083 	ldbu	r6,2(r4)
     a94:	00800184 	movi	r2,6
     a98:	2023883a 	mov	r17,r4
     a9c:	11801736 	bltu	r2,r6,afc <rel_net_buf+0x7c>
     aa0:	31800624 	muli	r6,r6,24
     aa4:	00800074 	movhi	r2,1
     aa8:	10828404 	addi	r2,r2,2576
     aac:	200b883a 	mov	r5,r4
     ab0:	118d883a 	add	r6,r2,r6
     ab4:	3100000b 	ldhu	r4,0(r6)
     ab8:	00079800 	call	7980 <net_atk2_rel_mpf>
     abc:	1021883a 	mov	r16,r2
     ac0:	10000826 	beq	r2,zero,ae4 <rel_net_buf+0x64>
     ac4:	11003fcc 	andi	r4,r2,255
     ac8:	00082800 	call	8280 <atk2_strerror>
     acc:	89c00083 	ldbu	r7,2(r17)
     ad0:	01000104 	movi	r4,4
     ad4:	01400074 	movhi	r5,1
     ad8:	297bac04 	addi	r5,r5,-4432
     adc:	100d883a 	mov	r6,r2
     ae0:	00080400 	call	8040 <syslog>
     ae4:	8005883a 	mov	r2,r16
     ae8:	dfc00217 	ldw	ra,8(sp)
     aec:	dc400117 	ldw	r17,4(sp)
     af0:	dc000017 	ldw	r16,0(sp)
     af4:	dec00304 	addi	sp,sp,12
     af8:	f800283a 	ret
     afc:	01000104 	movi	r4,4
     b00:	01400074 	movhi	r5,1
     b04:	297ba604 	addi	r5,r5,-4456
     b08:	00080400 	call	8040 <syslog>
     b0c:	043ffb84 	movi	r16,-18
     b10:	003ff406 	br	ae4 <rel_net_buf+0x64>
     b14:	0001883a 	nop
     b18:	0001883a 	nop
     b1c:	0001883a 	nop

00000b20 <rus_net_buf>:
     b20:	deffff04 	addi	sp,sp,-4
     b24:	dfc00015 	stw	ra,0(sp)
     b28:	21800083 	ldbu	r6,2(r4)
     b2c:	00800184 	movi	r2,6
     b30:	11800b36 	bltu	r2,r6,b60 <rus_net_buf+0x40>
     b34:	31800624 	muli	r6,r6,24
     b38:	00c00074 	movhi	r3,1
     b3c:	18c28504 	addi	r3,r3,2580
     b40:	0005883a 	mov	r2,zero
     b44:	30cd883a 	add	r6,r6,r3
     b48:	30c00017 	ldw	r3,0(r6)
     b4c:	200000c5 	stb	zero,3(r4)
     b50:	20c0000d 	sth	r3,0(r4)
     b54:	dfc00017 	ldw	ra,0(sp)
     b58:	dec00104 	addi	sp,sp,4
     b5c:	f800283a 	ret
     b60:	01000104 	movi	r4,4
     b64:	01400074 	movhi	r5,1
     b68:	297ba604 	addi	r5,r5,-4456
     b6c:	00080400 	call	8040 <syslog>
     b70:	00bffb84 	movi	r2,-18
     b74:	003ff706 	br	b54 <rus_net_buf+0x34>
     b78:	0001883a 	nop
     b7c:	0001883a 	nop

00000b80 <net_buf_siz>:
     b80:	deffff04 	addi	sp,sp,-4
     b84:	dfc00015 	stw	ra,0(sp)
     b88:	21800083 	ldbu	r6,2(r4)
     b8c:	00800184 	movi	r2,6
     b90:	11800836 	bltu	r2,r6,bb4 <net_buf_siz+0x34>
     b94:	31800624 	muli	r6,r6,24
     b98:	00800074 	movhi	r2,1
     b9c:	10828504 	addi	r2,r2,2580
     ba0:	308d883a 	add	r6,r6,r2
     ba4:	30800017 	ldw	r2,0(r6)
     ba8:	dfc00017 	ldw	ra,0(sp)
     bac:	dec00104 	addi	sp,sp,4
     bb0:	f800283a 	ret
     bb4:	01000104 	movi	r4,4
     bb8:	01400074 	movhi	r5,1
     bbc:	297bb204 	addi	r5,r5,-4408
     bc0:	00080400 	call	8040 <syslog>
     bc4:	00bffb84 	movi	r2,-18
     bc8:	003ff706 	br	ba8 <net_buf_siz+0x28>
     bcc:	0001883a 	nop
     bd0:	0001883a 	nop
     bd4:	0001883a 	nop
     bd8:	0001883a 	nop
     bdc:	0001883a 	nop

00000be0 <net_buf_max_siz>:
     be0:	00800074 	movhi	r2,1
     be4:	10828404 	addi	r2,r2,2576
     be8:	10800117 	ldw	r2,4(r2)
     bec:	f800283a 	ret
	...

00000c00 <net_rand>:
     c00:	d0e00417 	ldw	r3,-32752(gp)
     c04:	009071b4 	movhi	r2,16838
     c08:	10939b44 	addi	r2,r2,20077
     c0c:	1885383a 	mul	r2,r3,r2
     c10:	00e00034 	movhi	r3,32768
     c14:	18ffffc4 	addi	r3,r3,-1
     c18:	108c0e44 	addi	r2,r2,12345
     c1c:	10c4703a 	and	r2,r2,r3
     c20:	d0a00415 	stw	r2,-32752(gp)
     c24:	f800283a 	ret
     c28:	0001883a 	nop
     c2c:	0001883a 	nop
     c30:	0001883a 	nop
     c34:	0001883a 	nop
     c38:	0001883a 	nop
     c3c:	0001883a 	nop

00000c40 <net_srand>:
     c40:	d0a00417 	ldw	r2,-32752(gp)
     c44:	1109883a 	add	r4,r2,r4
     c48:	d1200415 	stw	r4,-32752(gp)
     c4c:	f800283a 	ret
     c50:	0001883a 	nop
     c54:	0001883a 	nop
     c58:	0001883a 	nop
     c5c:	0001883a 	nop

00000c60 <convert_hexdigit>:
     c60:	defffd04 	addi	sp,sp,-12
     c64:	d8800303 	ldbu	r2,12(sp)
     c68:	0011883a 	mov	r8,zero
     c6c:	03000074 	movhi	r12,1
     c70:	633bb804 	addi	r12,r12,-4384
     c74:	00000106 	br	c7c <convert_hexdigit+0x1c>
     c78:	5011883a 	mov	r8,r10
     c7c:	2993203a 	divu	r9,r5,r6
     c80:	4987383a 	mul	r3,r9,r6
     c84:	da17883a 	add	r11,sp,r8
     c88:	42800044 	addi	r10,r8,1
     c8c:	28cbc83a 	sub	r5,r5,r3
     c90:	294003cc 	andi	r5,r5,15
     c94:	614b883a 	add	r5,r12,r5
     c98:	28c00003 	ldbu	r3,0(r5)
     c9c:	480b883a 	mov	r5,r9
     ca0:	58c00005 	stb	r3,0(r11)
     ca4:	283ff41e 	bne	r5,zero,c78 <convert_hexdigit+0x18>
     ca8:	51c0220e 	bge	r10,r7,d34 <convert_hexdigit+0xd4>
     cac:	3a8dc83a 	sub	r6,r7,r10
     cb0:	218d883a 	add	r6,r4,r6
     cb4:	200b883a 	mov	r5,r4
     cb8:	28800005 	stb	r2,0(r5)
     cbc:	29400044 	addi	r5,r5,1
     cc0:	29bffd1e 	bne	r5,r6,cb8 <convert_hexdigit+0x58>
     cc4:	3a95c83a 	sub	r10,r7,r10
     cc8:	2295883a 	add	r10,r4,r10
     ccc:	417fffc4 	addi	r5,r8,-1
     cd0:	01c00044 	movi	r7,1
     cd4:	d94b883a 	add	r5,sp,r5
     cd8:	500d883a 	mov	r6,r10
     cdc:	3ecfc83a 	sub	r7,r7,sp
     ce0:	00000206 	br	cec <convert_hexdigit+0x8c>
     ce4:	28c00003 	ldbu	r3,0(r5)
     ce8:	297fffc4 	addi	r5,r5,-1
     cec:	30c00005 	stb	r3,0(r6)
     cf0:	3947883a 	add	r3,r7,r5
     cf4:	31800044 	addi	r6,r6,1
     cf8:	00fffa16 	blt	zero,r3,ce4 <convert_hexdigit+0x84>
     cfc:	40000616 	blt	r8,zero,d18 <convert_hexdigit+0xb8>
     d00:	42000044 	addi	r8,r8,1
     d04:	5205883a 	add	r2,r10,r8
     d08:	10000005 	stb	zero,0(r2)
     d0c:	1105c83a 	sub	r2,r2,r4
     d10:	dec00304 	addi	sp,sp,12
     d14:	f800283a 	ret
     d18:	0011883a 	mov	r8,zero
     d1c:	42000044 	addi	r8,r8,1
     d20:	5205883a 	add	r2,r10,r8
     d24:	10000005 	stb	zero,0(r2)
     d28:	1105c83a 	sub	r2,r2,r4
     d2c:	dec00304 	addi	sp,sp,12
     d30:	f800283a 	ret
     d34:	2015883a 	mov	r10,r4
     d38:	003fe406 	br	ccc <convert_hexdigit+0x6c>
     d3c:	0001883a 	nop

00000d40 <mac2str>:
     d40:	defff904 	addi	sp,sp,-28
     d44:	dcc00415 	stw	r19,16(sp)
     d48:	dc400215 	stw	r17,8(sp)
     d4c:	dfc00615 	stw	ra,24(sp)
     d50:	dd000515 	stw	r20,20(sp)
     d54:	dc800315 	stw	r18,12(sp)
     d58:	dc000115 	stw	r16,4(sp)
     d5c:	2027883a 	mov	r19,r4
     d60:	2823883a 	mov	r17,r5
     d64:	20004026 	beq	r4,zero,e68 <mac2str+0x128>
     d68:	89400003 	ldbu	r5,0(r17)
     d6c:	04000c04 	movi	r16,48
     d70:	9809883a 	mov	r4,r19
     d74:	01800404 	movi	r6,16
     d78:	01c00084 	movi	r7,2
     d7c:	dc000015 	stw	r16,0(sp)
     d80:	0000c600 	call	c60 <convert_hexdigit>
     d84:	04800e84 	movi	r18,58
     d88:	9885883a 	add	r2,r19,r2
     d8c:	14800005 	stb	r18,0(r2)
     d90:	89400043 	ldbu	r5,1(r17)
     d94:	15000044 	addi	r20,r2,1
     d98:	a009883a 	mov	r4,r20
     d9c:	01800404 	movi	r6,16
     da0:	01c00084 	movi	r7,2
     da4:	dc000015 	stw	r16,0(sp)
     da8:	0000c600 	call	c60 <convert_hexdigit>
     dac:	a085883a 	add	r2,r20,r2
     db0:	14800005 	stb	r18,0(r2)
     db4:	89400083 	ldbu	r5,2(r17)
     db8:	15000044 	addi	r20,r2,1
     dbc:	a009883a 	mov	r4,r20
     dc0:	01800404 	movi	r6,16
     dc4:	01c00084 	movi	r7,2
     dc8:	dc000015 	stw	r16,0(sp)
     dcc:	0000c600 	call	c60 <convert_hexdigit>
     dd0:	a085883a 	add	r2,r20,r2
     dd4:	14800005 	stb	r18,0(r2)
     dd8:	894000c3 	ldbu	r5,3(r17)
     ddc:	15000044 	addi	r20,r2,1
     de0:	a009883a 	mov	r4,r20
     de4:	01800404 	movi	r6,16
     de8:	01c00084 	movi	r7,2
     dec:	dc000015 	stw	r16,0(sp)
     df0:	0000c600 	call	c60 <convert_hexdigit>
     df4:	a085883a 	add	r2,r20,r2
     df8:	14800005 	stb	r18,0(r2)
     dfc:	89400103 	ldbu	r5,4(r17)
     e00:	15000044 	addi	r20,r2,1
     e04:	a009883a 	mov	r4,r20
     e08:	01800404 	movi	r6,16
     e0c:	01c00084 	movi	r7,2
     e10:	dc000015 	stw	r16,0(sp)
     e14:	0000c600 	call	c60 <convert_hexdigit>
     e18:	a085883a 	add	r2,r20,r2
     e1c:	14800005 	stb	r18,0(r2)
     e20:	89400143 	ldbu	r5,5(r17)
     e24:	14400044 	addi	r17,r2,1
     e28:	dc000015 	stw	r16,0(sp)
     e2c:	8809883a 	mov	r4,r17
     e30:	01800404 	movi	r6,16
     e34:	01c00084 	movi	r7,2
     e38:	0000c600 	call	c60 <convert_hexdigit>
     e3c:	8885883a 	add	r2,r17,r2
     e40:	10000005 	stb	zero,0(r2)
     e44:	9805883a 	mov	r2,r19
     e48:	dfc00617 	ldw	ra,24(sp)
     e4c:	dd000517 	ldw	r20,20(sp)
     e50:	dcc00417 	ldw	r19,16(sp)
     e54:	dc800317 	ldw	r18,12(sp)
     e58:	dc400217 	ldw	r17,8(sp)
     e5c:	dc000117 	ldw	r16,4(sp)
     e60:	dec00704 	addi	sp,sp,28
     e64:	f800283a 	ret
     e68:	01000084 	movi	r4,2
     e6c:	000d0400 	call	d040 <GetResource>
     e70:	d0a00517 	ldw	r2,-32748(gp)
     e74:	00c00074 	movhi	r3,1
     e78:	18c3b304 	addi	r3,r3,3788
     e7c:	10bfffc4 	addi	r2,r2,-1
     e80:	14c004a4 	muli	r19,r2,18
     e84:	98e7883a 	add	r19,r19,r3
     e88:	0080040e 	bge	zero,r2,e9c <mac2str+0x15c>
     e8c:	01000084 	movi	r4,2
     e90:	d0a00515 	stw	r2,-32748(gp)
     e94:	000d3e00 	call	d3e0 <ReleaseResource>
     e98:	003fb306 	br	d68 <mac2str+0x28>
     e9c:	00800044 	movi	r2,1
     ea0:	003ffa06 	br	e8c <mac2str+0x14c>
     ea4:	0001883a 	nop
     ea8:	0001883a 	nop
     eac:	0001883a 	nop
     eb0:	0001883a 	nop
     eb4:	0001883a 	nop
     eb8:	0001883a 	nop
     ebc:	0001883a 	nop

00000ec0 <rev_memcpy_word>:
     ec0:	288000c3 	ldbu	r2,3(r5)
     ec4:	20800005 	stb	r2,0(r4)
     ec8:	28800083 	ldbu	r2,2(r5)
     ecc:	20800045 	stb	r2,1(r4)
     ed0:	28800043 	ldbu	r2,1(r5)
     ed4:	20800085 	stb	r2,2(r4)
     ed8:	28800003 	ldbu	r2,0(r5)
     edc:	208000c5 	stb	r2,3(r4)
     ee0:	f800283a 	ret
     ee4:	0001883a 	nop
     ee8:	0001883a 	nop
     eec:	0001883a 	nop
     ef0:	0001883a 	nop
     ef4:	0001883a 	nop
     ef8:	0001883a 	nop
     efc:	0001883a 	nop

00000f00 <rev_memcmp_word>:
     f00:	01800104 	movi	r6,4
     f04:	00c000c4 	movi	r3,3
     f08:	3011883a 	mov	r8,r6
     f0c:	418dc83a 	sub	r6,r8,r6
     f10:	20c5883a 	add	r2,r4,r3
     f14:	298d883a 	add	r6,r5,r6
     f18:	11c00003 	ldbu	r7,0(r2)
     f1c:	30800003 	ldbu	r2,0(r6)
     f20:	180d883a 	mov	r6,r3
     f24:	18ffffc4 	addi	r3,r3,-1
     f28:	3885c83a 	sub	r2,r7,r2
     f2c:	1000011e 	bne	r2,zero,f34 <rev_memcmp_word+0x34>
     f30:	303ff61e 	bne	r6,zero,f0c <rev_memcmp_word+0xc>
     f34:	f800283a 	ret
	...

00000f40 <timeout>:
     f40:	defffc04 	addi	sp,sp,-16
     f44:	dc000015 	stw	r16,0(sp)
     f48:	2021883a 	mov	r16,r4
     f4c:	01000184 	movi	r4,6
     f50:	dc800215 	stw	r18,8(sp)
     f54:	dc400115 	stw	r17,4(sp)
     f58:	dfc00315 	stw	ra,12(sp)
     f5c:	2825883a 	mov	r18,r5
     f60:	3023883a 	mov	r17,r6
     f64:	000d0400 	call	d040 <GetResource>
     f68:	00c00074 	movhi	r3,1
     f6c:	18c3d304 	addi	r3,r3,3916
     f70:	00800284 	movi	r2,10
     f74:	19c00017 	ldw	r7,0(r3)
     f78:	10bfffc4 	addi	r2,r2,-1
     f7c:	18fffd04 	addi	r3,r3,-12
     f80:	38000d26 	beq	r7,zero,fb8 <timeout+0x78>
     f84:	103ffb1e 	bne	r2,zero,f74 <timeout+0x34>
     f88:	01000104 	movi	r4,4
     f8c:	01400074 	movhi	r5,1
     f90:	297bbd04 	addi	r5,r5,-4364
     f94:	01800284 	movi	r6,10
     f98:	00080400 	call	8040 <syslog>
     f9c:	01000184 	movi	r4,6
     fa0:	dfc00317 	ldw	ra,12(sp)
     fa4:	dc800217 	ldw	r18,8(sp)
     fa8:	dc400117 	ldw	r17,4(sp)
     fac:	dc000017 	ldw	r16,0(sp)
     fb0:	dec00404 	addi	sp,sp,16
     fb4:	000d3e01 	jmpi	d3e0 <ReleaseResource>
     fb8:	10800324 	muli	r2,r2,12
     fbc:	00c00074 	movhi	r3,1
     fc0:	18c3b804 	addi	r3,r3,3808
     fc4:	01000184 	movi	r4,6
     fc8:	1885883a 	add	r2,r3,r2
     fcc:	14000015 	stw	r16,0(r2)
     fd0:	14800115 	stw	r18,4(r2)
     fd4:	14400215 	stw	r17,8(r2)
     fd8:	dfc00317 	ldw	ra,12(sp)
     fdc:	dc800217 	ldw	r18,8(sp)
     fe0:	dc400117 	ldw	r17,4(sp)
     fe4:	dc000017 	ldw	r16,0(sp)
     fe8:	dec00404 	addi	sp,sp,16
     fec:	000d3e01 	jmpi	d3e0 <ReleaseResource>
     ff0:	0001883a 	nop
     ff4:	0001883a 	nop
     ff8:	0001883a 	nop
     ffc:	0001883a 	nop

00001000 <untimeout>:
    1000:	defff804 	addi	sp,sp,-32
    1004:	dc000015 	stw	r16,0(sp)
    1008:	04000074 	movhi	r16,1
    100c:	8403d304 	addi	r16,r16,3916
    1010:	dd800615 	stw	r22,24(sp)
    1014:	dd400515 	stw	r21,20(sp)
    1018:	dd000415 	stw	r20,16(sp)
    101c:	dcc00315 	stw	r19,12(sp)
    1020:	dc800215 	stw	r18,8(sp)
    1024:	dc400115 	stw	r17,4(sp)
    1028:	dfc00715 	stw	ra,28(sp)
    102c:	2029883a 	mov	r20,r4
    1030:	282d883a 	mov	r22,r5
    1034:	84800104 	addi	r18,r16,4
    1038:	84c00204 	addi	r19,r16,8
    103c:	04400244 	movi	r17,9
    1040:	057fffc4 	movi	r21,-1
    1044:	00000506 	br	105c <untimeout+0x5c>
    1048:	8c7fffc4 	addi	r17,r17,-1
    104c:	000d3e00 	call	d3e0 <ReleaseResource>
    1050:	94bffd04 	addi	r18,r18,-12
    1054:	9cfffd04 	addi	r19,r19,-12
    1058:	8d401926 	beq	r17,r21,10c0 <untimeout+0xc0>
    105c:	01000184 	movi	r4,6
    1060:	000d0400 	call	d040 <GetResource>
    1064:	80800017 	ldw	r2,0(r16)
    1068:	01000184 	movi	r4,6
    106c:	843ffd04 	addi	r16,r16,-12
    1070:	153ff51e 	bne	r2,r20,1048 <untimeout+0x48>
    1074:	90800017 	ldw	r2,0(r18)
    1078:	15bff31e 	bne	r2,r22,1048 <untimeout+0x48>
    107c:	98800017 	ldw	r2,0(r19)
    1080:	103ff126 	beq	r2,zero,1048 <untimeout+0x48>
    1084:	8c400324 	muli	r17,r17,12
    1088:	00800074 	movhi	r2,1
    108c:	1083b804 	addi	r2,r2,3808
    1090:	1445883a 	add	r2,r2,r17
    1094:	10000015 	stw	zero,0(r2)
    1098:	dfc00717 	ldw	ra,28(sp)
    109c:	dd800617 	ldw	r22,24(sp)
    10a0:	dd400517 	ldw	r21,20(sp)
    10a4:	dd000417 	ldw	r20,16(sp)
    10a8:	dcc00317 	ldw	r19,12(sp)
    10ac:	dc800217 	ldw	r18,8(sp)
    10b0:	dc400117 	ldw	r17,4(sp)
    10b4:	dc000017 	ldw	r16,0(sp)
    10b8:	dec00804 	addi	sp,sp,32
    10bc:	000d3e01 	jmpi	d3e0 <ReleaseResource>
    10c0:	dfc00717 	ldw	ra,28(sp)
    10c4:	dd800617 	ldw	r22,24(sp)
    10c8:	dd400517 	ldw	r21,20(sp)
    10cc:	dd000417 	ldw	r20,16(sp)
    10d0:	dcc00317 	ldw	r19,12(sp)
    10d4:	dc800217 	ldw	r18,8(sp)
    10d8:	dc400117 	ldw	r17,4(sp)
    10dc:	dc000017 	ldw	r16,0(sp)
    10e0:	dec00804 	addi	sp,sp,32
    10e4:	f800283a 	ret
    10e8:	0001883a 	nop
    10ec:	0001883a 	nop
    10f0:	0001883a 	nop
    10f4:	0001883a 	nop
    10f8:	0001883a 	nop
    10fc:	0001883a 	nop

00001100 <TaskMainNET_TIMER_TASK>:
    1100:	defff704 	addi	sp,sp,-36
    1104:	d9000104 	addi	r4,sp,4
    1108:	dfc00815 	stw	ra,32(sp)
    110c:	dcc00515 	stw	r19,20(sp)
    1110:	dd400715 	stw	r21,28(sp)
    1114:	dd000615 	stw	r20,24(sp)
    1118:	dc800415 	stw	r18,16(sp)
    111c:	dc400315 	stw	r17,12(sp)
    1120:	dc000215 	stw	r16,8(sp)
    1124:	000c1c00 	call	c1c0 <GetTaskID>
    1128:	01000144 	movi	r4,5
    112c:	008000c4 	movi	r2,3
    1130:	200f883a 	mov	r7,r4
    1134:	01400074 	movhi	r5,1
    1138:	297bcb04 	addi	r5,r5,-4308
    113c:	01800044 	movi	r6,1
    1140:	d8800015 	stw	r2,0(sp)
    1144:	00080400 	call	8040 <syslog>
    1148:	d9800117 	ldw	r6,4(sp)
    114c:	01000144 	movi	r4,5
    1150:	01400074 	movhi	r5,1
    1154:	297bc504 	addi	r5,r5,-4332
    1158:	00080400 	call	8040 <syslog>
    115c:	04c00074 	movhi	r19,1
    1160:	9cc3b504 	addi	r19,r19,3796
    1164:	0001fc00 	call	1fc0 <ip_init>
    1168:	01000044 	movi	r4,1
    116c:	000cc600 	call	cc60 <WaitEvent>
    1170:	04000074 	movhi	r16,1
    1174:	8403d304 	addi	r16,r16,3916
    1178:	01000044 	movi	r4,1
    117c:	000c8200 	call	c820 <ClearEvent>
    1180:	84800104 	addi	r18,r16,4
    1184:	84400204 	addi	r17,r16,8
    1188:	00000c06 	br	11bc <TaskMainNET_TIMER_TASK+0xbc>
    118c:	88c00015 	stw	r3,0(r17)
    1190:	1800121e 	bne	r3,zero,11dc <TaskMainNET_TIMER_TASK+0xdc>
    1194:	95400017 	ldw	r21,0(r18)
    1198:	85000017 	ldw	r20,0(r16)
    119c:	80000015 	stw	zero,0(r16)
    11a0:	000d3e00 	call	d3e0 <ReleaseResource>
    11a4:	a809883a 	mov	r4,r21
    11a8:	a03ee83a 	callr	r20
    11ac:	843ffd04 	addi	r16,r16,-12
    11b0:	94bffd04 	addi	r18,r18,-12
    11b4:	8c7ffd04 	addi	r17,r17,-12
    11b8:	84ffeb26 	beq	r16,r19,1168 <TaskMainNET_TIMER_TASK+0x68>
    11bc:	01000184 	movi	r4,6
    11c0:	000d0400 	call	d040 <GetResource>
    11c4:	80800017 	ldw	r2,0(r16)
    11c8:	01000184 	movi	r4,6
    11cc:	10000326 	beq	r2,zero,11dc <TaskMainNET_TIMER_TASK+0xdc>
    11d0:	88800017 	ldw	r2,0(r17)
    11d4:	10ffffc4 	addi	r3,r2,-1
    11d8:	103fec1e 	bne	r2,zero,118c <TaskMainNET_TIMER_TASK+0x8c>
    11dc:	000d3e00 	call	d3e0 <ReleaseResource>
    11e0:	003ff206 	br	11ac <TaskMainNET_TIMER_TASK+0xac>
	...

00001200 <in4_get_ifaddr>:
    1200:	deffff04 	addi	sp,sp,-4
    1204:	dfc00015 	stw	ra,0(sp)
    1208:	00031800 	call	3180 <ether_get_ifnet>
    120c:	10800104 	addi	r2,r2,4
    1210:	dfc00017 	ldw	ra,0(sp)
    1214:	dec00104 	addi	sp,sp,4
    1218:	f800283a 	ret
    121c:	0001883a 	nop

00001220 <ip2str>:
    1220:	defff904 	addi	sp,sp,-28
    1224:	dc800315 	stw	r18,12(sp)
    1228:	dc000115 	stw	r16,4(sp)
    122c:	dfc00615 	stw	ra,24(sp)
    1230:	dd000515 	stw	r20,20(sp)
    1234:	dcc00415 	stw	r19,16(sp)
    1238:	dc400215 	stw	r17,8(sp)
    123c:	2021883a 	mov	r16,r4
    1240:	2825883a 	mov	r18,r5
    1244:	20002f26 	beq	r4,zero,1304 <ip2str+0xe4>
    1248:	91400017 	ldw	r5,0(r18)
    124c:	04400804 	movi	r17,32
    1250:	8009883a 	mov	r4,r16
    1254:	280ad63a 	srli	r5,r5,24
    1258:	01800284 	movi	r6,10
    125c:	000f883a 	mov	r7,zero
    1260:	dc400015 	stw	r17,0(sp)
    1264:	0000c600 	call	c60 <convert_hexdigit>
    1268:	8085883a 	add	r2,r16,r2
    126c:	04c00b84 	movi	r19,46
    1270:	14c00005 	stb	r19,0(r2)
    1274:	91400083 	ldbu	r5,2(r18)
    1278:	15000044 	addi	r20,r2,1
    127c:	a009883a 	mov	r4,r20
    1280:	01800284 	movi	r6,10
    1284:	000f883a 	mov	r7,zero
    1288:	dc400015 	stw	r17,0(sp)
    128c:	0000c600 	call	c60 <convert_hexdigit>
    1290:	a085883a 	add	r2,r20,r2
    1294:	14c00005 	stb	r19,0(r2)
    1298:	91400043 	ldbu	r5,1(r18)
    129c:	15000044 	addi	r20,r2,1
    12a0:	a009883a 	mov	r4,r20
    12a4:	01800284 	movi	r6,10
    12a8:	000f883a 	mov	r7,zero
    12ac:	dc400015 	stw	r17,0(sp)
    12b0:	0000c600 	call	c60 <convert_hexdigit>
    12b4:	a085883a 	add	r2,r20,r2
    12b8:	14c00005 	stb	r19,0(r2)
    12bc:	91400003 	ldbu	r5,0(r18)
    12c0:	14800044 	addi	r18,r2,1
    12c4:	dc400015 	stw	r17,0(sp)
    12c8:	9009883a 	mov	r4,r18
    12cc:	01800284 	movi	r6,10
    12d0:	000f883a 	mov	r7,zero
    12d4:	0000c600 	call	c60 <convert_hexdigit>
    12d8:	9085883a 	add	r2,r18,r2
    12dc:	10000005 	stb	zero,0(r2)
    12e0:	8005883a 	mov	r2,r16
    12e4:	dfc00617 	ldw	ra,24(sp)
    12e8:	dd000517 	ldw	r20,20(sp)
    12ec:	dcc00417 	ldw	r19,16(sp)
    12f0:	dc800317 	ldw	r18,12(sp)
    12f4:	dc400217 	ldw	r17,8(sp)
    12f8:	dc000117 	ldw	r16,4(sp)
    12fc:	dec00704 	addi	sp,sp,28
    1300:	f800283a 	ret
    1304:	010001c4 	movi	r4,7
    1308:	000d0400 	call	d040 <GetResource>
    130c:	d0a00617 	ldw	r2,-32744(gp)
    1310:	00c00074 	movhi	r3,1
    1314:	18c3d604 	addi	r3,r3,3928
    1318:	10bfffc4 	addi	r2,r2,-1
    131c:	1020913a 	slli	r16,r2,4
    1320:	80e1883a 	add	r16,r16,r3
    1324:	0080040e 	bge	zero,r2,1338 <ip2str+0x118>
    1328:	010001c4 	movi	r4,7
    132c:	d0a00615 	stw	r2,-32744(gp)
    1330:	000d3e00 	call	d3e0 <ReleaseResource>
    1334:	003fc406 	br	1248 <ip2str+0x28>
    1338:	00800044 	movi	r2,1
    133c:	003ffa06 	br	1328 <ip2str+0x108>

00001340 <in4_set_header>:
    1340:	defff904 	addi	sp,sp,-28
    1344:	dd400515 	stw	r21,20(sp)
    1348:	dd000415 	stw	r20,16(sp)
    134c:	dcc00315 	stw	r19,12(sp)
    1350:	dc800215 	stw	r18,8(sp)
    1354:	3027883a 	mov	r19,r6
    1358:	dc400115 	stw	r17,4(sp)
    135c:	dc000015 	stw	r16,0(sp)
    1360:	2825883a 	mov	r18,r5
    1364:	2021883a 	mov	r16,r4
    1368:	dd400717 	ldw	r21,28(sp)
    136c:	dd000817 	ldw	r20,32(sp)
    1370:	dfc00615 	stw	ra,24(sp)
    1374:	3823883a 	mov	r17,r7
    1378:	00031800 	call	3180 <ether_get_ifnet>
    137c:	91400504 	addi	r5,r18,20
    1380:	297fffcc 	andi	r5,r5,65535
    1384:	2806923a 	slli	r3,r5,8
    1388:	280ad23a 	srli	r5,r5,8
    138c:	01001144 	movi	r4,69
    1390:	81000505 	stb	r4,20(r16)
    1394:	194ab03a 	or	r5,r3,r5
    1398:	8140058d 	sth	r5,22(r16)
    139c:	85400745 	stb	r21,29(r16)
    13a0:	85000705 	stb	r20,28(r16)
    13a4:	80000545 	stb	zero,21(r16)
    13a8:	8000078d 	sth	zero,30(r16)
    13ac:	8000068d 	sth	zero,26(r16)
    13b0:	8000060d 	sth	zero,24(r16)
    13b4:	98c00017 	ldw	r3,0(r19)
    13b8:	1808d63a 	srli	r4,r3,24
    13bc:	180c963a 	slli	r6,r3,24
    13c0:	197fc00c 	andi	r5,r3,65280
    13c4:	280a923a 	slli	r5,r5,8
    13c8:	1806d23a 	srli	r3,r3,8
    13cc:	2188b03a 	or	r4,r4,r6
    13d0:	2148b03a 	or	r4,r4,r5
    13d4:	18ffc00c 	andi	r3,r3,65280
    13d8:	20c6b03a 	or	r3,r4,r3
    13dc:	80c00915 	stw	r3,36(r16)
    13e0:	88001626 	beq	r17,zero,143c <in4_set_header+0xfc>
    13e4:	88c00017 	ldw	r3,0(r17)
    13e8:	18001426 	beq	r3,zero,143c <in4_set_header+0xfc>
    13ec:	1804d63a 	srli	r2,r3,24
    13f0:	180a963a 	slli	r5,r3,24
    13f4:	193fc00c 	andi	r4,r3,65280
    13f8:	2008923a 	slli	r4,r4,8
    13fc:	1806d23a 	srli	r3,r3,8
    1400:	1144b03a 	or	r2,r2,r5
    1404:	1104b03a 	or	r2,r2,r4
    1408:	18ffc00c 	andi	r3,r3,65280
    140c:	10c6b03a 	or	r3,r2,r3
    1410:	80c00815 	stw	r3,32(r16)
    1414:	0005883a 	mov	r2,zero
    1418:	dfc00617 	ldw	ra,24(sp)
    141c:	dd400517 	ldw	r21,20(sp)
    1420:	dd000417 	ldw	r20,16(sp)
    1424:	dcc00317 	ldw	r19,12(sp)
    1428:	dc800217 	ldw	r18,8(sp)
    142c:	dc400117 	ldw	r17,4(sp)
    1430:	dc000017 	ldw	r16,0(sp)
    1434:	dec00704 	addi	sp,sp,28
    1438:	f800283a 	ret
    143c:	10800117 	ldw	r2,4(r2)
    1440:	1006d63a 	srli	r3,r2,24
    1444:	100a963a 	slli	r5,r2,24
    1448:	113fc00c 	andi	r4,r2,65280
    144c:	2008923a 	slli	r4,r4,8
    1450:	1004d23a 	srli	r2,r2,8
    1454:	1946b03a 	or	r3,r3,r5
    1458:	1906b03a 	or	r3,r3,r4
    145c:	10bfc00c 	andi	r2,r2,65280
    1460:	1884b03a 	or	r2,r3,r2
    1464:	80800815 	stw	r2,32(r16)
    1468:	003fea06 	br	1414 <in4_set_header+0xd4>
    146c:	0001883a 	nop
    1470:	0001883a 	nop
    1474:	0001883a 	nop
    1478:	0001883a 	nop
    147c:	0001883a 	nop

00001480 <in4_get_datagram>:
    1480:	defff504 	addi	sp,sp,-44
    1484:	dc800415 	stw	r18,16(sp)
    1488:	dc800e17 	ldw	r18,56(sp)
    148c:	dcc00515 	stw	r19,20(sp)
    1490:	00bfff04 	movi	r2,-4
    1494:	2cc000c4 	addi	r19,r5,3
    1498:	98a6703a 	and	r19,r19,r2
    149c:	dd400715 	stw	r21,28(sp)
    14a0:	dc400315 	stw	r17,12(sp)
    14a4:	382b883a 	mov	r21,r7
    14a8:	2823883a 	mov	r17,r5
    14ac:	31800904 	addi	r6,r6,36
    14b0:	99400904 	addi	r5,r19,36
    14b4:	900f883a 	mov	r7,r18
    14b8:	ddc00915 	stw	r23,36(sp)
    14bc:	dd800815 	stw	r22,32(sp)
    14c0:	dd000615 	stw	r20,24(sp)
    14c4:	dc000215 	stw	r16,8(sp)
    14c8:	dfc00a15 	stw	ra,40(sp)
    14cc:	2029883a 	mov	r20,r4
    14d0:	ddc00c03 	ldbu	r23,48(sp)
    14d4:	dd800d03 	ldbu	r22,52(sp)
    14d8:	00007800 	call	780 <get_net_buf_ex>
    14dc:	1021883a 	mov	r16,r2
    14e0:	1000111e 	bne	r2,zero,1528 <in4_get_datagram+0xa8>
    14e4:	9484000c 	andi	r18,r18,4096
    14e8:	90000326 	beq	r18,zero,14f8 <in4_get_datagram+0x78>
    14ec:	a0800017 	ldw	r2,0(r20)
    14f0:	88c00904 	addi	r3,r17,36
    14f4:	10c0000d 	sth	r3,0(r2)
    14f8:	a1000017 	ldw	r4,0(r20)
    14fc:	d9c00b17 	ldw	r7,44(sp)
    1500:	bdc03fcc 	andi	r23,r23,255
    1504:	b5803fcc 	andi	r22,r22,255
    1508:	ddc00015 	stw	r23,0(sp)
    150c:	dd800115 	stw	r22,4(sp)
    1510:	880b883a 	mov	r5,r17
    1514:	a80d883a 	mov	r6,r21
    1518:	00013400 	call	1340 <in4_set_header>
    151c:	1021883a 	mov	r16,r2
    1520:	1000011e 	bne	r2,zero,1528 <in4_get_datagram+0xa8>
    1524:	8cc00c36 	bltu	r17,r19,1558 <in4_get_datagram+0xd8>
    1528:	8005883a 	mov	r2,r16
    152c:	dfc00a17 	ldw	ra,40(sp)
    1530:	ddc00917 	ldw	r23,36(sp)
    1534:	dd800817 	ldw	r22,32(sp)
    1538:	dd400717 	ldw	r21,28(sp)
    153c:	dd000617 	ldw	r20,24(sp)
    1540:	dcc00517 	ldw	r19,20(sp)
    1544:	dc800417 	ldw	r18,16(sp)
    1548:	dc400317 	ldw	r17,12(sp)
    154c:	dc000217 	ldw	r16,8(sp)
    1550:	dec00b04 	addi	sp,sp,44
    1554:	f800283a 	ret
    1558:	a0800017 	ldw	r2,0(r20)
    155c:	9c4dc83a 	sub	r6,r19,r17
    1560:	000b883a 	mov	r5,zero
    1564:	10c00503 	ldbu	r3,20(r2)
    1568:	18c003cc 	andi	r3,r3,15
    156c:	18c7883a 	add	r3,r3,r3
    1570:	18c7883a 	add	r3,r3,r3
    1574:	88e3883a 	add	r17,r17,r3
    1578:	89000504 	addi	r4,r17,20
    157c:	1109883a 	add	r4,r2,r4
    1580:	000ed1c0 	call	ed1c <memset>
    1584:	003fe806 	br	1528 <in4_get_datagram+0xa8>
    1588:	0001883a 	nop
    158c:	0001883a 	nop
    1590:	0001883a 	nop
    1594:	0001883a 	nop
    1598:	0001883a 	nop
    159c:	0001883a 	nop

000015a0 <in4_cksum>:
    15a0:	defffa04 	addi	sp,sp,-24
    15a4:	dc000115 	stw	r16,4(sp)
    15a8:	00bfff04 	movi	r2,-4
    15ac:	3c0000c4 	addi	r16,r7,3
    15b0:	dcc00415 	stw	r19,16(sp)
    15b4:	dc800315 	stw	r18,12(sp)
    15b8:	dc400215 	stw	r17,8(sp)
    15bc:	dfc00515 	stw	ra,20(sp)
    15c0:	80a0703a 	and	r16,r16,r2
    15c4:	2023883a 	mov	r17,r4
    15c8:	3025883a 	mov	r18,r6
    15cc:	2827883a 	mov	r19,r5
    15d0:	3c003336 	bltu	r7,r16,16a0 <in4_cksum+0x100>
    15d4:	31800104 	addi	r6,r6,4
    15d8:	218d883a 	add	r6,r4,r6
    15dc:	80003b26 	beq	r16,zero,16cc <in4_cksum+0x12c>
    15e0:	0005883a 	mov	r2,zero
    15e4:	30c0000b 	ldhu	r3,0(r6)
    15e8:	843fff84 	addi	r16,r16,-2
    15ec:	31800084 	addi	r6,r6,2
    15f0:	10c5883a 	add	r2,r2,r3
    15f4:	803ffb1e 	bne	r16,zero,15e4 <in4_cksum+0x44>
    15f8:	100ad23a 	srli	r5,r2,8
    15fc:	1012923a 	slli	r9,r2,8
    1600:	1004d63a 	srli	r2,r2,24
    1604:	297fffcc 	andi	r5,r5,65535
    1608:	4a7fffcc 	andi	r9,r9,65535
    160c:	89800804 	addi	r6,r17,32
    1610:	89000a04 	addi	r4,r17,40
    1614:	0011883a 	mov	r8,zero
    1618:	30c0000b 	ldhu	r3,0(r6)
    161c:	31800084 	addi	r6,r6,2
    1620:	40d1883a 	add	r8,r8,r3
    1624:	313ffc1e 	bne	r6,r4,1618 <in4_cksum+0x78>
    1628:	9cc03fcc 	andi	r19,r19,255
    162c:	3ccf883a 	add	r7,r7,r19
    1630:	394f883a 	add	r7,r7,r5
    1634:	4008d23a 	srli	r4,r8,8
    1638:	400ad63a 	srli	r5,r8,24
    163c:	3a47883a 	add	r3,r7,r9
    1640:	4010923a 	slli	r8,r8,8
    1644:	1887883a 	add	r3,r3,r2
    1648:	213fffcc 	andi	r4,r4,65535
    164c:	1947883a 	add	r3,r3,r5
    1650:	1907883a 	add	r3,r3,r4
    1654:	423fffcc 	andi	r8,r8,65535
    1658:	1a07883a 	add	r3,r3,r8
    165c:	013fffd4 	movui	r4,65535
    1660:	20c0042e 	bgeu	r4,r3,1674 <in4_cksum+0xd4>
    1664:	1804d43a 	srli	r2,r3,16
    1668:	18ffffcc 	andi	r3,r3,65535
    166c:	1887883a 	add	r3,r3,r2
    1670:	20fffc36 	bltu	r4,r3,1664 <in4_cksum+0xc4>
    1674:	18bfffcc 	andi	r2,r3,65535
    1678:	1004d23a 	srli	r2,r2,8
    167c:	1806923a 	slli	r3,r3,8
    1680:	10c4303a 	nor	r2,r2,r3
    1684:	dfc00517 	ldw	ra,20(sp)
    1688:	dcc00417 	ldw	r19,16(sp)
    168c:	dc800317 	ldw	r18,12(sp)
    1690:	dc400217 	ldw	r17,8(sp)
    1694:	dc000117 	ldw	r16,4(sp)
    1698:	dec00604 	addi	sp,sp,24
    169c:	f800283a 	ret
    16a0:	3989883a 	add	r4,r7,r6
    16a4:	21000104 	addi	r4,r4,4
    16a8:	81cdc83a 	sub	r6,r16,r7
    16ac:	8909883a 	add	r4,r17,r4
    16b0:	000b883a 	mov	r5,zero
    16b4:	d9c00015 	stw	r7,0(sp)
    16b8:	000ed1c0 	call	ed1c <memset>
    16bc:	91800104 	addi	r6,r18,4
    16c0:	898d883a 	add	r6,r17,r6
    16c4:	d9c00017 	ldw	r7,0(sp)
    16c8:	003fc506 	br	15e0 <in4_cksum+0x40>
    16cc:	0005883a 	mov	r2,zero
    16d0:	0013883a 	mov	r9,zero
    16d4:	000b883a 	mov	r5,zero
    16d8:	003fcc06 	br	160c <in4_cksum+0x6c>
    16dc:	0001883a 	nop

000016e0 <in_cksum>:
    16e0:	28001826 	beq	r5,zero,1744 <in_cksum+0x64>
    16e4:	0007883a 	mov	r3,zero
    16e8:	2080000b 	ldhu	r2,0(r4)
    16ec:	297fff84 	addi	r5,r5,-2
    16f0:	21000084 	addi	r4,r4,2
    16f4:	1887883a 	add	r3,r3,r2
    16f8:	283ffb1e 	bne	r5,zero,16e8 <in_cksum+0x8>
    16fc:	1808d23a 	srli	r4,r3,8
    1700:	1804923a 	slli	r2,r3,8
    1704:	1806d63a 	srli	r3,r3,24
    1708:	213fffcc 	andi	r4,r4,65535
    170c:	10bfffcc 	andi	r2,r2,65535
    1710:	2085883a 	add	r2,r4,r2
    1714:	10c7883a 	add	r3,r2,r3
    1718:	013fffd4 	movui	r4,65535
    171c:	20c0042e 	bgeu	r4,r3,1730 <in_cksum+0x50>
    1720:	1804d43a 	srli	r2,r3,16
    1724:	18ffffcc 	andi	r3,r3,65535
    1728:	1887883a 	add	r3,r3,r2
    172c:	20fffc36 	bltu	r4,r3,1720 <in_cksum+0x40>
    1730:	18bfffcc 	andi	r2,r3,65535
    1734:	1004d23a 	srli	r2,r2,8
    1738:	1806923a 	slli	r3,r3,8
    173c:	10c4303a 	nor	r2,r2,r3
    1740:	f800283a 	ret
    1744:	00bfffc4 	movi	r2,-1
    1748:	f800283a 	ret
    174c:	0001883a 	nop
    1750:	0001883a 	nop
    1754:	0001883a 	nop
    1758:	0001883a 	nop
    175c:	0001883a 	nop

00001760 <in4_is_dstaddr_accept>:
    1760:	defffe04 	addi	sp,sp,-8
    1764:	dfc00115 	stw	ra,4(sp)
    1768:	dc000015 	stw	r16,0(sp)
    176c:	20800017 	ldw	r2,0(r4)
    1770:	10000f26 	beq	r2,zero,17b0 <in4_is_dstaddr_accept+0x50>
    1774:	28c00017 	ldw	r3,0(r5)
    1778:	180c963a 	slli	r6,r3,24
    177c:	1808d63a 	srli	r4,r3,24
    1780:	197fc00c 	andi	r5,r3,65280
    1784:	280a923a 	slli	r5,r5,8
    1788:	1806d23a 	srli	r3,r3,8
    178c:	2188b03a 	or	r4,r4,r6
    1790:	2148b03a 	or	r4,r4,r5
    1794:	18ffc00c 	andi	r3,r3,65280
    1798:	20c6b03a 	or	r3,r4,r3
    179c:	10c5003a 	cmpeq	r2,r2,r3
    17a0:	dfc00117 	ldw	ra,4(sp)
    17a4:	dc000017 	ldw	r16,0(sp)
    17a8:	dec00204 	addi	sp,sp,8
    17ac:	f800283a 	ret
    17b0:	28800017 	ldw	r2,0(r5)
    17b4:	1008963a 	slli	r4,r2,24
    17b8:	1020d63a 	srli	r16,r2,24
    17bc:	10ffc00c 	andi	r3,r2,65280
    17c0:	1806923a 	slli	r3,r3,8
    17c4:	1004d23a 	srli	r2,r2,8
    17c8:	8120b03a 	or	r16,r16,r4
    17cc:	80e0b03a 	or	r16,r16,r3
    17d0:	10bfc00c 	andi	r2,r2,65280
    17d4:	80a0b03a 	or	r16,r16,r2
    17d8:	00031800 	call	3180 <ether_get_ifnet>
    17dc:	10800117 	ldw	r2,4(r2)
    17e0:	8085003a 	cmpeq	r2,r16,r2
    17e4:	dfc00117 	ldw	ra,4(sp)
    17e8:	dc000017 	ldw	r16,0(sp)
    17ec:	dec00204 	addi	sp,sp,8
    17f0:	f800283a 	ret
    17f4:	0001883a 	nop
    17f8:	0001883a 	nop
    17fc:	0001883a 	nop

00001800 <in4_ifawithifp>:
    1800:	20800104 	addi	r2,r4,4
    1804:	f800283a 	ret
    1808:	0001883a 	nop
    180c:	0001883a 	nop
    1810:	0001883a 	nop
    1814:	0001883a 	nop
    1818:	0001883a 	nop
    181c:	0001883a 	nop

00001820 <in4_add_ifaddr>:
    1820:	defffd04 	addi	sp,sp,-12
    1824:	dc400115 	stw	r17,4(sp)
    1828:	dc000015 	stw	r16,0(sp)
    182c:	2823883a 	mov	r17,r5
    1830:	2021883a 	mov	r16,r4
    1834:	dfc00215 	stw	ra,8(sp)
    1838:	00031800 	call	3180 <ether_get_ifnet>
    183c:	14000115 	stw	r16,4(r2)
    1840:	14400215 	stw	r17,8(r2)
    1844:	0005883a 	mov	r2,zero
    1848:	dfc00217 	ldw	ra,8(sp)
    184c:	dc400117 	ldw	r17,4(sp)
    1850:	dc000017 	ldw	r16,0(sp)
    1854:	dec00304 	addi	sp,sp,12
    1858:	f800283a 	ret
    185c:	0001883a 	nop

00001860 <in4_add_route>:
    1860:	00800084 	movi	r2,2
    1864:	11000936 	bltu	r2,r4,188c <in4_add_route+0x2c>
    1868:	21000524 	muli	r4,r4,20
    186c:	00c00074 	movhi	r3,1
    1870:	18c2b704 	addi	r3,r3,2780
    1874:	0005883a 	mov	r2,zero
    1878:	1909883a 	add	r4,r3,r4
    187c:	21400015 	stw	r5,0(r4)
    1880:	21800115 	stw	r6,4(r4)
    1884:	21c00215 	stw	r7,8(r4)
    1888:	f800283a 	ret
    188c:	00bffbc4 	movi	r2,-17
    1890:	f800283a 	ret
    1894:	0001883a 	nop
    1898:	0001883a 	nop
    189c:	0001883a 	nop

000018a0 <in4_rtalloc>:
    18a0:	00c00074 	movhi	r3,1
    18a4:	18c2ca04 	addi	r3,r3,2856
    18a8:	2005883a 	mov	r2,r4
    18ac:	19fffd04 	addi	r7,r3,-12
    18b0:	19bffc04 	addi	r6,r3,-16
    18b4:	014000c4 	movi	r5,3
    18b8:	027fffc4 	movi	r9,-1
    18bc:	1a000003 	ldbu	r8,0(r3)
    18c0:	18fffb04 	addi	r3,r3,-20
    18c4:	4200004c 	andi	r8,r8,1
    18c8:	40000426 	beq	r8,zero,18dc <in4_rtalloc+0x3c>
    18cc:	3a000017 	ldw	r8,0(r7)
    18d0:	31000017 	ldw	r4,0(r6)
    18d4:	1210703a 	and	r8,r2,r8
    18d8:	41000526 	beq	r8,r4,18f0 <in4_rtalloc+0x50>
    18dc:	297fffc4 	addi	r5,r5,-1
    18e0:	39fffb04 	addi	r7,r7,-20
    18e4:	31bffb04 	addi	r6,r6,-20
    18e8:	2a7ff41e 	bne	r5,r9,18bc <in4_rtalloc+0x1c>
    18ec:	f800283a 	ret
    18f0:	29400524 	muli	r5,r5,20
    18f4:	00c00074 	movhi	r3,1
    18f8:	18c2b904 	addi	r3,r3,2788
    18fc:	28cb883a 	add	r5,r5,r3
    1900:	28c00017 	ldw	r3,0(r5)
    1904:	183ff926 	beq	r3,zero,18ec <in4_rtalloc+0x4c>
    1908:	1805883a 	mov	r2,r3
    190c:	f800283a 	ret
    1910:	0001883a 	nop
    1914:	0001883a 	nop
    1918:	0001883a 	nop
    191c:	0001883a 	nop

00001920 <in4_init>:
    1920:	00800074 	movhi	r2,1
    1924:	1082b704 	addi	r2,r2,2780
    1928:	00c00044 	movi	r3,1
    192c:	01000034 	movhi	r4,0
    1930:	2106d004 	addi	r4,r4,6976
    1934:	000b883a 	mov	r5,zero
    1938:	01800284 	movi	r6,10
    193c:	10c00405 	stb	r3,16(r2)
    1940:	10c00905 	stb	r3,36(r2)
    1944:	10c00e05 	stb	r3,56(r2)
    1948:	10001305 	stb	zero,76(r2)
    194c:	0000f401 	jmpi	f40 <timeout>
    1950:	0001883a 	nop
    1954:	0001883a 	nop
    1958:	0001883a 	nop
    195c:	0001883a 	nop

00001960 <in_rtinit>:
    1960:	00800074 	movhi	r2,1
    1964:	1082b704 	addi	r2,r2,2780
    1968:	00c00044 	movi	r3,1
    196c:	10c00405 	stb	r3,16(r2)
    1970:	10c00905 	stb	r3,36(r2)
    1974:	10c00e05 	stb	r3,56(r2)
    1978:	10001305 	stb	zero,76(r2)
    197c:	f800283a 	ret

00001980 <in_rtnewentry>:
    1980:	defffb04 	addi	sp,sp,-20
    1984:	dcc00315 	stw	r19,12(sp)
    1988:	dc800215 	stw	r18,8(sp)
    198c:	dc000015 	stw	r16,0(sp)
    1990:	dfc00415 	stw	ra,16(sp)
    1994:	dc400115 	stw	r17,4(sp)
    1998:	04000074 	movhi	r16,1
    199c:	8402b704 	addi	r16,r16,2780
    19a0:	80801303 	ldbu	r2,76(r16)
    19a4:	2025883a 	mov	r18,r4
    19a8:	2827883a 	mov	r19,r5
    19ac:	1080004c 	andi	r2,r2,1
    19b0:	10002026 	beq	r2,zero,1a34 <in_rtnewentry+0xb4>
    19b4:	0008f200 	call	8f20 <get_tim_utime>
    19b8:	00c0fa04 	movi	r3,1000
    19bc:	10c5203a 	divu	r2,r2,r3
    19c0:	01000044 	movi	r4,1
    19c4:	10e3203a 	divu	r17,r2,r3
    19c8:	000d0400 	call	d040 <GetResource>
    19cc:	80801217 	ldw	r2,72(r16)
    19d0:	1445c83a 	sub	r2,r2,r17
    19d4:	0080030e 	bge	zero,r2,19e4 <in_rtnewentry+0x64>
    19d8:	00e00034 	movhi	r3,32768
    19dc:	18ffffc4 	addi	r3,r3,-1
    19e0:	10c01226 	beq	r2,r3,1a2c <in_rtnewentry+0xac>
    19e4:	84000f04 	addi	r16,r16,60
    19e8:	80000405 	stb	zero,16(r16)
    19ec:	01000044 	movi	r4,1
    19f0:	000d3e00 	call	d3e0 <ReleaseResource>
    19f4:	0080fa04 	movi	r2,1000
    19f8:	98a7203a 	divu	r19,r19,r2
    19fc:	94800054 	ori	r18,r18,1
    1a00:	8ce3883a 	add	r17,r17,r19
    1a04:	8005883a 	mov	r2,r16
    1a08:	84800405 	stb	r18,16(r16)
    1a0c:	84400315 	stw	r17,12(r16)
    1a10:	dfc00417 	ldw	ra,16(sp)
    1a14:	dcc00317 	ldw	r19,12(sp)
    1a18:	dc800217 	ldw	r18,8(sp)
    1a1c:	dc400117 	ldw	r17,4(sp)
    1a20:	dc000017 	ldw	r16,0(sp)
    1a24:	dec00504 	addi	sp,sp,20
    1a28:	f800283a 	ret
    1a2c:	0021883a 	mov	r16,zero
    1a30:	003fed06 	br	19e8 <in_rtnewentry+0x68>
    1a34:	0008f200 	call	8f20 <get_tim_utime>
    1a38:	00c0fa04 	movi	r3,1000
    1a3c:	10c5203a 	divu	r2,r2,r3
    1a40:	10e3203a 	divu	r17,r2,r3
    1a44:	84000f04 	addi	r16,r16,60
    1a48:	003fea06 	br	19f4 <in_rtnewentry+0x74>
    1a4c:	0001883a 	nop
    1a50:	0001883a 	nop
    1a54:	0001883a 	nop
    1a58:	0001883a 	nop
    1a5c:	0001883a 	nop

00001a60 <in4_rtredirect>:
    1a60:	defffd04 	addi	sp,sp,-12
    1a64:	dc400115 	stw	r17,4(sp)
    1a68:	dc000015 	stw	r16,0(sp)
    1a6c:	2023883a 	mov	r17,r4
    1a70:	2821883a 	mov	r16,r5
    1a74:	31003fcc 	andi	r4,r6,255
    1a78:	380b883a 	mov	r5,r7
    1a7c:	dfc00215 	stw	ra,8(sp)
    1a80:	00019800 	call	1980 <in_rtnewentry>
    1a84:	00ffffc4 	movi	r3,-1
    1a88:	14400215 	stw	r17,8(r2)
    1a8c:	14000015 	stw	r16,0(r2)
    1a90:	10c00115 	stw	r3,4(r2)
    1a94:	dfc00217 	ldw	ra,8(sp)
    1a98:	dc400117 	ldw	r17,4(sp)
    1a9c:	dc000017 	ldw	r16,0(sp)
    1aa0:	dec00304 	addi	sp,sp,12
    1aa4:	f800283a 	ret
    1aa8:	0001883a 	nop
    1aac:	0001883a 	nop
    1ab0:	0001883a 	nop
    1ab4:	0001883a 	nop
    1ab8:	0001883a 	nop
    1abc:	0001883a 	nop

00001ac0 <in_rttimer>:
    1ac0:	defffe04 	addi	sp,sp,-8
    1ac4:	dfc00115 	stw	ra,4(sp)
    1ac8:	dc000015 	stw	r16,0(sp)
    1acc:	0008f200 	call	8f20 <get_tim_utime>
    1ad0:	01000044 	movi	r4,1
    1ad4:	1021883a 	mov	r16,r2
    1ad8:	000d0400 	call	d040 <GetResource>
    1adc:	00c00074 	movhi	r3,1
    1ae0:	18c2b704 	addi	r3,r3,2780
    1ae4:	19001303 	ldbu	r4,76(r3)
    1ae8:	2100004c 	andi	r4,r4,1
    1aec:	20000626 	beq	r4,zero,1b08 <in_rttimer+0x48>
    1af0:	0080fa04 	movi	r2,1000
    1af4:	19001217 	ldw	r4,72(r3)
    1af8:	80a1203a 	divu	r16,r16,r2
    1afc:	8085203a 	divu	r2,r16,r2
    1b00:	2085c83a 	sub	r2,r4,r2
    1b04:	0080050e 	bge	zero,r2,1b1c <in_rttimer+0x5c>
    1b08:	01000044 	movi	r4,1
    1b0c:	dfc00117 	ldw	ra,4(sp)
    1b10:	dc000017 	ldw	r16,0(sp)
    1b14:	dec00204 	addi	sp,sp,8
    1b18:	000d3e01 	jmpi	d3e0 <ReleaseResource>
    1b1c:	01000044 	movi	r4,1
    1b20:	18001305 	stb	zero,76(r3)
    1b24:	dfc00117 	ldw	ra,4(sp)
    1b28:	dc000017 	ldw	r16,0(sp)
    1b2c:	dec00204 	addi	sp,sp,8
    1b30:	000d3e01 	jmpi	d3e0 <ReleaseResource>
    1b34:	0001883a 	nop
    1b38:	0001883a 	nop
    1b3c:	0001883a 	nop

00001b40 <in4_timer>:
    1b40:	deffff04 	addi	sp,sp,-4
    1b44:	dfc00015 	stw	ra,0(sp)
    1b48:	0001ac00 	call	1ac0 <in_rttimer>
    1b4c:	0001ee00 	call	1ee0 <ip_frag_timer>
    1b50:	01000034 	movhi	r4,0
    1b54:	2106d004 	addi	r4,r4,6976
    1b58:	000b883a 	mov	r5,zero
    1b5c:	01800284 	movi	r6,10
    1b60:	dfc00017 	ldw	ra,0(sp)
    1b64:	dec00104 	addi	sp,sp,4
    1b68:	0000f401 	jmpi	f40 <timeout>
    1b6c:	0001883a 	nop
    1b70:	0001883a 	nop
    1b74:	0001883a 	nop
    1b78:	0001883a 	nop
    1b7c:	0001883a 	nop

00001b80 <in_cksum_sum>:
    1b80:	0005883a 	mov	r2,zero
    1b84:	28000d26 	beq	r5,zero,1bbc <in_cksum_sum+0x3c>
    1b88:	20c0000b 	ldhu	r3,0(r4)
    1b8c:	297fff84 	addi	r5,r5,-2
    1b90:	21000084 	addi	r4,r4,2
    1b94:	10c5883a 	add	r2,r2,r3
    1b98:	283ffb1e 	bne	r5,zero,1b88 <in_cksum_sum+0x8>
    1b9c:	1008d23a 	srli	r4,r2,8
    1ba0:	1006923a 	slli	r3,r2,8
    1ba4:	1004d63a 	srli	r2,r2,24
    1ba8:	213fffcc 	andi	r4,r4,65535
    1bac:	18ffffcc 	andi	r3,r3,65535
    1bb0:	20c7883a 	add	r3,r4,r3
    1bb4:	1885883a 	add	r2,r3,r2
    1bb8:	f800283a 	ret
    1bbc:	f800283a 	ret

00001bc0 <in_cksum_carry>:
    1bc0:	2005883a 	mov	r2,r4
    1bc4:	013fffd4 	movui	r4,65535
    1bc8:	2080042e 	bgeu	r4,r2,1bdc <in_cksum_carry+0x1c>
    1bcc:	1006d43a 	srli	r3,r2,16
    1bd0:	10bfffcc 	andi	r2,r2,65535
    1bd4:	10c5883a 	add	r2,r2,r3
    1bd8:	20bffc36 	bltu	r4,r2,1bcc <in_cksum_carry+0xc>
    1bdc:	f800283a 	ret

00001be0 <in_strtfn>:
    1be0:	00bf7cc4 	movi	r2,-525
    1be4:	20806f26 	beq	r4,r2,1da4 <in_strtfn+0x1c4>
    1be8:	11000d0e 	bge	r2,r4,1c20 <in_strtfn+0x40>
    1bec:	00bf7e84 	movi	r2,-518
    1bf0:	20807226 	beq	r4,r2,1dbc <in_strtfn+0x1dc>
    1bf4:	1100160e 	bge	r2,r4,1c50 <in_strtfn+0x70>
    1bf8:	00bf7f44 	movi	r2,-515
    1bfc:	20804226 	beq	r4,r2,1d08 <in_strtfn+0x128>
    1c00:	1100330e 	bge	r2,r4,1cd0 <in_strtfn+0xf0>
    1c04:	00bf7fc4 	movi	r2,-513
    1c08:	20806026 	beq	r4,r2,1d8c <in_strtfn+0x1ac>
    1c0c:	20805c16 	blt	r4,r2,1d80 <in_strtfn+0x1a0>
    1c10:	2000251e 	bne	r4,zero,1ca8 <in_strtfn+0xc8>
    1c14:	00800074 	movhi	r2,1
    1c18:	10bc4404 	addi	r2,r2,-3824
    1c1c:	f800283a 	ret
    1c20:	00bf77c4 	movi	r2,-545
    1c24:	20806226 	beq	r4,r2,1db0 <in_strtfn+0x1d0>
    1c28:	1100120e 	bge	r2,r4,1c74 <in_strtfn+0x94>
    1c2c:	00bf7bc4 	movi	r2,-529
    1c30:	20804726 	beq	r4,r2,1d50 <in_strtfn+0x170>
    1c34:	1100180e 	bge	r2,r4,1c98 <in_strtfn+0xb8>
    1c38:	00bf7c44 	movi	r2,-527
    1c3c:	20804d26 	beq	r4,r2,1d74 <in_strtfn+0x194>
    1c40:	1100490e 	bge	r2,r4,1d68 <in_strtfn+0x188>
    1c44:	00800074 	movhi	r2,1
    1c48:	10bc2c04 	addi	r2,r2,-3920
    1c4c:	f800283a 	ret
    1c50:	00bf7d84 	movi	r2,-522
    1c54:	20805026 	beq	r4,r2,1d98 <in_strtfn+0x1b8>
    1c58:	1100240e 	bge	r2,r4,1cec <in_strtfn+0x10c>
    1c5c:	00bf7e04 	movi	r2,-520
    1c60:	20803226 	beq	r4,r2,1d2c <in_strtfn+0x14c>
    1c64:	11002e0e 	bge	r2,r4,1d20 <in_strtfn+0x140>
    1c68:	00800074 	movhi	r2,1
    1c6c:	10bc1004 	addi	r2,r2,-4032
    1c70:	f800283a 	ret
    1c74:	00bf76c4 	movi	r2,-549
    1c78:	20802626 	beq	r4,r2,1d14 <in_strtfn+0x134>
    1c7c:	11000d0e 	bge	r2,r4,1cb4 <in_strtfn+0xd4>
    1c80:	00bf7744 	movi	r2,-547
    1c84:	20805326 	beq	r4,r2,1dd4 <in_strtfn+0x1f4>
    1c88:	11004f0e 	bge	r2,r4,1dc8 <in_strtfn+0x1e8>
    1c8c:	00800074 	movhi	r2,1
    1c90:	10bc4904 	addi	r2,r2,-3804
    1c94:	f800283a 	ret
    1c98:	00bf7b44 	movi	r2,-531
    1c9c:	20802926 	beq	r4,r2,1d44 <in_strtfn+0x164>
    1ca0:	00bf7b84 	movi	r2,-530
    1ca4:	20802426 	beq	r4,r2,1d38 <in_strtfn+0x158>
    1ca8:	00800074 	movhi	r2,1
    1cac:	10bc6104 	addi	r2,r2,-3708
    1cb0:	f800283a 	ret
    1cb4:	00bf7644 	movi	r2,-551
    1cb8:	20802826 	beq	r4,r2,1d5c <in_strtfn+0x17c>
    1cbc:	00bf7684 	movi	r2,-550
    1cc0:	20bff91e 	bne	r4,r2,1ca8 <in_strtfn+0xc8>
    1cc4:	00800074 	movhi	r2,1
    1cc8:	10bc5904 	addi	r2,r2,-3740
    1ccc:	f800283a 	ret
    1cd0:	00bf7ec4 	movi	r2,-517
    1cd4:	20804226 	beq	r4,r2,1de0 <in_strtfn+0x200>
    1cd8:	00bf7f04 	movi	r2,-516
    1cdc:	20bff21e 	bne	r4,r2,1ca8 <in_strtfn+0xc8>
    1ce0:	00800074 	movhi	r2,1
    1ce4:	10bc0404 	addi	r2,r2,-4080
    1ce8:	f800283a 	ret
    1cec:	00bf7d04 	movi	r2,-524
    1cf0:	20803e26 	beq	r4,r2,1dec <in_strtfn+0x20c>
    1cf4:	00bf7d44 	movi	r2,-523
    1cf8:	20bfeb1e 	bne	r4,r2,1ca8 <in_strtfn+0xc8>
    1cfc:	00800074 	movhi	r2,1
    1d00:	10bc2004 	addi	r2,r2,-3968
    1d04:	f800283a 	ret
    1d08:	00800074 	movhi	r2,1
    1d0c:	10bc0004 	addi	r2,r2,-4096
    1d10:	f800283a 	ret
    1d14:	00800074 	movhi	r2,1
    1d18:	10bc5504 	addi	r2,r2,-3756
    1d1c:	f800283a 	ret
    1d20:	00800074 	movhi	r2,1
    1d24:	10bc1804 	addi	r2,r2,-4000
    1d28:	f800283a 	ret
    1d2c:	00800074 	movhi	r2,1
    1d30:	10bc1404 	addi	r2,r2,-4016
    1d34:	f800283a 	ret
    1d38:	00800074 	movhi	r2,1
    1d3c:	10bc3c04 	addi	r2,r2,-3856
    1d40:	f800283a 	ret
    1d44:	00800074 	movhi	r2,1
    1d48:	10bc4004 	addi	r2,r2,-3840
    1d4c:	f800283a 	ret
    1d50:	00800074 	movhi	r2,1
    1d54:	10bc3804 	addi	r2,r2,-3872
    1d58:	f800283a 	ret
    1d5c:	00800074 	movhi	r2,1
    1d60:	10bc5d04 	addi	r2,r2,-3724
    1d64:	f800283a 	ret
    1d68:	00800074 	movhi	r2,1
    1d6c:	10bc3404 	addi	r2,r2,-3888
    1d70:	f800283a 	ret
    1d74:	00800074 	movhi	r2,1
    1d78:	10bc3004 	addi	r2,r2,-3904
    1d7c:	f800283a 	ret
    1d80:	00800074 	movhi	r2,1
    1d84:	10bbfc04 	addi	r2,r2,-4112
    1d88:	f800283a 	ret
    1d8c:	00800074 	movhi	r2,1
    1d90:	10bbf804 	addi	r2,r2,-4128
    1d94:	f800283a 	ret
    1d98:	00800074 	movhi	r2,1
    1d9c:	10bc1c04 	addi	r2,r2,-3984
    1da0:	f800283a 	ret
    1da4:	00800074 	movhi	r2,1
    1da8:	10bc2804 	addi	r2,r2,-3936
    1dac:	f800283a 	ret
    1db0:	00800074 	movhi	r2,1
    1db4:	10bc4504 	addi	r2,r2,-3820
    1db8:	f800283a 	ret
    1dbc:	00800074 	movhi	r2,1
    1dc0:	10bc0c04 	addi	r2,r2,-4048
    1dc4:	f800283a 	ret
    1dc8:	00800074 	movhi	r2,1
    1dcc:	10bc5104 	addi	r2,r2,-3772
    1dd0:	f800283a 	ret
    1dd4:	00800074 	movhi	r2,1
    1dd8:	10bc4d04 	addi	r2,r2,-3788
    1ddc:	f800283a 	ret
    1de0:	00800074 	movhi	r2,1
    1de4:	10bc0804 	addi	r2,r2,-4064
    1de8:	f800283a 	ret
    1dec:	00800074 	movhi	r2,1
    1df0:	10bc2404 	addi	r2,r2,-3952
    1df4:	f800283a 	ret
	...

00001e00 <tinet_initialize>:
    1e00:	01000044 	movi	r4,1
    1e04:	d1600704 	addi	r5,gp,-32740
    1e08:	01800074 	movhi	r6,1
    1e0c:	3183da04 	addi	r6,r6,3944
    1e10:	00073801 	jmpi	7380 <dataqueue_initialize>
    1e14:	0001883a 	nop
    1e18:	0001883a 	nop
    1e1c:	0001883a 	nop

00001e20 <tinet_snd_dtq>:
    1e20:	200d883a 	mov	r6,r4
    1e24:	280f883a 	mov	r7,r5
    1e28:	01000044 	movi	r4,1
    1e2c:	01400074 	movhi	r5,1
    1e30:	2943da04 	addi	r5,r5,3944
    1e34:	00075a01 	jmpi	75a0 <snd_dtq>
    1e38:	0001883a 	nop
    1e3c:	0001883a 	nop

00001e40 <tinet_rcv_dtq>:
    1e40:	200d883a 	mov	r6,r4
    1e44:	280f883a 	mov	r7,r5
    1e48:	01000044 	movi	r4,1
    1e4c:	01400074 	movhi	r5,1
    1e50:	2943da04 	addi	r5,r5,3944
    1e54:	00076201 	jmpi	7620 <rcv_dtq>
	...

00001e60 <ip_freef>:
    1e60:	defffc04 	addi	sp,sp,-16
    1e64:	dc400115 	stw	r17,4(sp)
    1e68:	2123883a 	add	r17,r4,r4
    1e6c:	dc800215 	stw	r18,8(sp)
    1e70:	8c45883a 	add	r2,r17,r17
    1e74:	d4a01f04 	addi	r18,gp,-32644
    1e78:	dfc00315 	stw	ra,12(sp)
    1e7c:	dc000015 	stw	r16,0(sp)
    1e80:	9085883a 	add	r2,r18,r2
    1e84:	11000017 	ldw	r4,0(r2)
    1e88:	20000426 	beq	r4,zero,1e9c <ip_freef+0x3c>
    1e8c:	24000917 	ldw	r16,36(r4)
    1e90:	0000a800 	call	a80 <rel_net_buf>
    1e94:	8009883a 	mov	r4,r16
    1e98:	803ffc1e 	bne	r16,zero,1e8c <ip_freef+0x2c>
    1e9c:	8c63883a 	add	r17,r17,r17
    1ea0:	9465883a 	add	r18,r18,r17
    1ea4:	90000015 	stw	zero,0(r18)
    1ea8:	dfc00317 	ldw	ra,12(sp)
    1eac:	dc800217 	ldw	r18,8(sp)
    1eb0:	dc400117 	ldw	r17,4(sp)
    1eb4:	dc000017 	ldw	r16,0(sp)
    1eb8:	dec00404 	addi	sp,sp,16
    1ebc:	f800283a 	ret

00001ec0 <ip_get_frag_queue>:
    1ec0:	d0a01f04 	addi	r2,gp,-32644
    1ec4:	f800283a 	ret
    1ec8:	0001883a 	nop
    1ecc:	0001883a 	nop
    1ed0:	0001883a 	nop
    1ed4:	0001883a 	nop
    1ed8:	0001883a 	nop
    1edc:	0001883a 	nop

00001ee0 <ip_frag_timer>:
    1ee0:	defffb04 	addi	sp,sp,-20
    1ee4:	0009883a 	mov	r4,zero
    1ee8:	dcc00315 	stw	r19,12(sp)
    1eec:	dc800215 	stw	r18,8(sp)
    1ef0:	dc400115 	stw	r17,4(sp)
    1ef4:	dc000015 	stw	r16,0(sp)
    1ef8:	dfc00415 	stw	ra,16(sp)
    1efc:	04000044 	movi	r16,1
    1f00:	000d0400 	call	d040 <GetResource>
    1f04:	d4a01f04 	addi	r18,gp,-32644
    1f08:	04c00074 	movhi	r19,1
    1f0c:	9cc35b04 	addi	r19,r19,3436
    1f10:	047fffc4 	movi	r17,-1
    1f14:	8405883a 	add	r2,r16,r16
    1f18:	1085883a 	add	r2,r2,r2
    1f1c:	9085883a 	add	r2,r18,r2
    1f20:	10800017 	ldw	r2,0(r2)
    1f24:	10000726 	beq	r2,zero,1f44 <ip_frag_timer+0x64>
    1f28:	10c00703 	ldbu	r3,28(r2)
    1f2c:	193fffc4 	addi	r4,r3,-1
    1f30:	18c03fcc 	andi	r3,r3,255
    1f34:	21403fcc 	andi	r5,r4,255
    1f38:	18000226 	beq	r3,zero,1f44 <ip_frag_timer+0x64>
    1f3c:	11000705 	stb	r4,28(r2)
    1f40:	28000a26 	beq	r5,zero,1f6c <ip_frag_timer+0x8c>
    1f44:	843fffc4 	addi	r16,r16,-1
    1f48:	847ff21e 	bne	r16,r17,1f14 <ip_frag_timer+0x34>
    1f4c:	0009883a 	mov	r4,zero
    1f50:	dfc00417 	ldw	ra,16(sp)
    1f54:	dcc00317 	ldw	r19,12(sp)
    1f58:	dc800217 	ldw	r18,8(sp)
    1f5c:	dc400117 	ldw	r17,4(sp)
    1f60:	dc000017 	ldw	r16,0(sp)
    1f64:	dec00504 	addi	sp,sp,20
    1f68:	000d3e01 	jmpi	d3e0 <ReleaseResource>
    1f6c:	99400a17 	ldw	r5,40(r19)
    1f70:	99000e17 	ldw	r4,56(r19)
    1f74:	99c00b17 	ldw	r7,44(r19)
    1f78:	99800f17 	ldw	r6,60(r19)
    1f7c:	28c00044 	addi	r3,r5,1
    1f80:	20800044 	addi	r2,r4,1
    1f84:	1109803a 	cmpltu	r4,r2,r4
    1f88:	194b803a 	cmpltu	r5,r3,r5
    1f8c:	218d883a 	add	r6,r4,r6
    1f90:	29cb883a 	add	r5,r5,r7
    1f94:	8009883a 	mov	r4,r16
    1f98:	98c00a15 	stw	r3,40(r19)
    1f9c:	99400b15 	stw	r5,44(r19)
    1fa0:	98800e15 	stw	r2,56(r19)
    1fa4:	99800f15 	stw	r6,60(r19)
    1fa8:	0001e600 	call	1e60 <ip_freef>
    1fac:	003fe506 	br	1f44 <ip_frag_timer+0x64>
    1fb0:	0001883a 	nop
    1fb4:	0001883a 	nop
    1fb8:	0001883a 	nop
    1fbc:	0001883a 	nop

00001fc0 <ip_init>:
    1fc0:	00019201 	jmpi	1920 <in4_init>
    1fc4:	0001883a 	nop
    1fc8:	0001883a 	nop
    1fcc:	0001883a 	nop
    1fd0:	0001883a 	nop
    1fd4:	0001883a 	nop
    1fd8:	0001883a 	nop
    1fdc:	0001883a 	nop

00001fe0 <ip_remove_options>:
    1fe0:	defffe04 	addi	sp,sp,-8
    1fe4:	dc000015 	stw	r16,0(sp)
    1fe8:	dfc00115 	stw	ra,4(sp)
    1fec:	21800503 	ldbu	r6,20(r4)
    1ff0:	00800504 	movi	r2,20
    1ff4:	2021883a 	mov	r16,r4
    1ff8:	318003cc 	andi	r6,r6,15
    1ffc:	318d883a 	add	r6,r6,r6
    2000:	318d883a 	add	r6,r6,r6
    2004:	1180082e 	bgeu	r2,r6,2028 <ip_remove_options+0x48>
    2008:	2080058b 	ldhu	r2,22(r4)
    200c:	31400504 	addi	r5,r6,20
    2010:	21000a04 	addi	r4,r4,40
    2014:	814b883a 	add	r5,r16,r5
    2018:	118dc83a 	sub	r6,r2,r6
    201c:	000ebf40 	call	ebf4 <memmove>
    2020:	00801144 	movi	r2,69
    2024:	80800505 	stb	r2,20(r16)
    2028:	0005883a 	mov	r2,zero
    202c:	dfc00117 	ldw	ra,4(sp)
    2030:	dc000017 	ldw	r16,0(sp)
    2034:	dec00204 	addi	sp,sp,8
    2038:	f800283a 	ret
    203c:	0001883a 	nop

00002040 <ip_input>:
    2040:	defff004 	addi	sp,sp,-64
    2044:	dc800815 	stw	r18,32(sp)
    2048:	dc400715 	stw	r17,28(sp)
    204c:	dc000615 	stw	r16,24(sp)
    2050:	d9000315 	stw	r4,12(sp)
    2054:	dfc00f15 	stw	ra,60(sp)
    2058:	df000e15 	stw	fp,56(sp)
    205c:	ddc00d15 	stw	r23,52(sp)
    2060:	dd800c15 	stw	r22,48(sp)
    2064:	dd400b15 	stw	r21,44(sp)
    2068:	dd000a15 	stw	r20,40(sp)
    206c:	dcc00915 	stw	r19,36(sp)
    2070:	00031800 	call	3180 <ether_get_ifnet>
    2074:	dc400317 	ldw	r17,12(sp)
    2078:	04000074 	movhi	r16,1
    207c:	84035b04 	addi	r16,r16,3436
    2080:	81402417 	ldw	r5,144(r16)
    2084:	8980000b 	ldhu	r6,0(r17)
    2088:	81002617 	ldw	r4,152(r16)
    208c:	82002717 	ldw	r8,156(r16)
    2090:	31bffc04 	addi	r6,r6,-16
    2094:	81c02517 	ldw	r7,148(r16)
    2098:	3109883a 	add	r4,r6,r4
    209c:	28c00044 	addi	r3,r5,1
    20a0:	218d803a 	cmpltu	r6,r4,r6
    20a4:	194b803a 	cmpltu	r5,r3,r5
    20a8:	320d883a 	add	r6,r6,r8
    20ac:	29cb883a 	add	r5,r5,r7
    20b0:	81002615 	stw	r4,152(r16)
    20b4:	81802715 	stw	r6,156(r16)
    20b8:	80c02415 	stw	r3,144(r16)
    20bc:	81402515 	stw	r5,148(r16)
    20c0:	88c0000b 	ldhu	r3,0(r17)
    20c4:	010008c4 	movi	r4,35
    20c8:	1025883a 	mov	r18,r2
    20cc:	20c0212e 	bgeu	r4,r3,2154 <ip_input+0x114>
    20d0:	89000503 	ldbu	r4,20(r17)
    20d4:	00800104 	movi	r2,4
    20d8:	21403fcc 	andi	r5,r4,255
    20dc:	280ad13a 	srli	r5,r5,4
    20e0:	28800826 	beq	r5,r2,2104 <ip_input+0xc4>
    20e4:	80c01c17 	ldw	r3,112(r16)
    20e8:	81001d17 	ldw	r4,116(r16)
    20ec:	18800044 	addi	r2,r3,1
    20f0:	10c7803a 	cmpltu	r3,r2,r3
    20f4:	1907883a 	add	r3,r3,r4
    20f8:	80801c15 	stw	r2,112(r16)
    20fc:	80c01d15 	stw	r3,116(r16)
    2100:	00001b06 	br	2170 <ip_input+0x130>
    2104:	210003cc 	andi	r4,r4,15
    2108:	2109883a 	add	r4,r4,r4
    210c:	2127883a 	add	r19,r4,r4
    2110:	00800504 	movi	r2,20
    2114:	14c0082e 	bgeu	r2,r19,2138 <ip_input+0xf8>
    2118:	80c01617 	ldw	r3,88(r16)
    211c:	81001717 	ldw	r4,92(r16)
    2120:	18800044 	addi	r2,r3,1
    2124:	10c7803a 	cmpltu	r3,r2,r3
    2128:	1907883a 	add	r3,r3,r4
    212c:	80801615 	stw	r2,88(r16)
    2130:	80c01715 	stw	r3,92(r16)
    2134:	88c0000b 	ldhu	r3,0(r17)
    2138:	8880058b 	ldhu	r2,22(r17)
    213c:	18fffc04 	addi	r3,r3,-16
    2140:	1008923a 	slli	r4,r2,8
    2144:	1004d23a 	srli	r2,r2,8
    2148:	2084b03a 	or	r2,r4,r2
    214c:	113fffcc 	andi	r4,r2,65535
    2150:	19001c2e 	bgeu	r3,r4,21c4 <ip_input+0x184>
    2154:	80c01e17 	ldw	r3,120(r16)
    2158:	81001f17 	ldw	r4,124(r16)
    215c:	18800044 	addi	r2,r3,1
    2160:	10c7803a 	cmpltu	r3,r2,r3
    2164:	1907883a 	add	r3,r3,r4
    2168:	80801e15 	stw	r2,120(r16)
    216c:	80c01f15 	stw	r3,124(r16)
    2170:	80c02217 	ldw	r3,136(r16)
    2174:	81402317 	ldw	r5,140(r16)
    2178:	8809883a 	mov	r4,r17
    217c:	18800044 	addi	r2,r3,1
    2180:	10c7803a 	cmpltu	r3,r2,r3
    2184:	1947883a 	add	r3,r3,r5
    2188:	80802215 	stw	r2,136(r16)
    218c:	80c02315 	stw	r3,140(r16)
    2190:	0000a800 	call	a80 <rel_net_buf>
    2194:	dfc00f17 	ldw	ra,60(sp)
    2198:	df000e17 	ldw	fp,56(sp)
    219c:	ddc00d17 	ldw	r23,52(sp)
    21a0:	dd800c17 	ldw	r22,48(sp)
    21a4:	dd400b17 	ldw	r21,44(sp)
    21a8:	dd000a17 	ldw	r20,40(sp)
    21ac:	dcc00917 	ldw	r19,36(sp)
    21b0:	dc800817 	ldw	r18,32(sp)
    21b4:	dc400717 	ldw	r17,28(sp)
    21b8:	dc000617 	ldw	r16,24(sp)
    21bc:	dec01004 	addi	sp,sp,64
    21c0:	f800283a 	ret
    21c4:	10800404 	addi	r2,r2,16
    21c8:	8880000d 	sth	r2,0(r17)
    21cc:	89000504 	addi	r4,r17,20
    21d0:	980b883a 	mov	r5,r19
    21d4:	00016e00 	call	16e0 <in_cksum>
    21d8:	10bfffcc 	andi	r2,r2,65535
    21dc:	10000926 	beq	r2,zero,2204 <ip_input+0x1c4>
    21e0:	80c02017 	ldw	r3,128(r16)
    21e4:	81002117 	ldw	r4,132(r16)
    21e8:	dc400317 	ldw	r17,12(sp)
    21ec:	18800044 	addi	r2,r3,1
    21f0:	10c7803a 	cmpltu	r3,r2,r3
    21f4:	1907883a 	add	r3,r3,r4
    21f8:	80802015 	stw	r2,128(r16)
    21fc:	80c02115 	stw	r3,132(r16)
    2200:	003fdb06 	br	2170 <ip_input+0x130>
    2204:	00800504 	movi	r2,20
    2208:	14c0072e 	bgeu	r2,r19,2228 <ip_input+0x1e8>
    220c:	88c00743 	ldbu	r3,29(r17)
    2210:	00800044 	movi	r2,1
    2214:	18800426 	beq	r3,r2,2228 <ip_input+0x1e8>
    2218:	89000a04 	addi	r4,r17,40
    221c:	000b883a 	mov	r5,zero
    2220:	99bffb04 	addi	r6,r19,-20
    2224:	000ed1c0 	call	ed1c <memset>
    2228:	88800817 	ldw	r2,32(r17)
    222c:	90c00117 	ldw	r3,4(r18)
    2230:	91000217 	ldw	r4,8(r18)
    2234:	100ad63a 	srli	r5,r2,24
    2238:	100e963a 	slli	r7,r2,24
    223c:	11bfc00c 	andi	r6,r2,65280
    2240:	300c923a 	slli	r6,r6,8
    2244:	1004d23a 	srli	r2,r2,8
    2248:	29cab03a 	or	r5,r5,r7
    224c:	298ab03a 	or	r5,r5,r6
    2250:	10bfc00c 	andi	r2,r2,65280
    2254:	2884b03a 	or	r2,r5,r2
    2258:	10c03226 	beq	r2,r3,2324 <ip_input+0x2e4>
    225c:	010a303a 	nor	r5,zero,r4
    2260:	20c8703a 	and	r4,r4,r3
    2264:	2908b03a 	or	r4,r5,r4
    2268:	11002e26 	beq	r2,r4,2324 <ip_input+0x2e4>
    226c:	017fffc4 	movi	r5,-1
    2270:	11402c26 	beq	r2,r5,2324 <ip_input+0x2e4>
    2274:	10002b26 	beq	r2,zero,2324 <ip_input+0x2e4>
    2278:	88800917 	ldw	r2,36(r17)
    227c:	1028d63a 	srli	r20,r2,24
    2280:	100e963a 	slli	r7,r2,24
    2284:	11bfc00c 	andi	r6,r2,65280
    2288:	300c923a 	slli	r6,r6,8
    228c:	1004d23a 	srli	r2,r2,8
    2290:	a1e8b03a 	or	r20,r20,r7
    2294:	a1a8b03a 	or	r20,r20,r6
    2298:	10bfc00c 	andi	r2,r2,65280
    229c:	a0a8b03a 	or	r20,r20,r2
    22a0:	1d000326 	beq	r3,r20,22b0 <ip_input+0x270>
    22a4:	a1000226 	beq	r20,r4,22b0 <ip_input+0x270>
    22a8:	a1400126 	beq	r20,r5,22b0 <ip_input+0x270>
    22ac:	a0001d1e 	bne	r20,zero,2324 <ip_input+0x2e4>
    22b0:	8880068b 	ldhu	r2,26(r17)
    22b4:	1006923a 	slli	r3,r2,8
    22b8:	1004d23a 	srli	r2,r2,8
    22bc:	1884b03a 	or	r2,r3,r2
    22c0:	108fffcc 	andi	r2,r2,16383
    22c4:	10002a1e 	bne	r2,zero,2370 <ip_input+0x330>
    22c8:	d8c00317 	ldw	r3,12(sp)
    22cc:	89000743 	ldbu	r4,29(r17)
    22d0:	18800503 	ldbu	r2,20(r3)
    22d4:	108003cc 	andi	r2,r2,15
    22d8:	1085883a 	add	r2,r2,r2
    22dc:	1085883a 	add	r2,r2,r2
    22e0:	10800404 	addi	r2,r2,16
    22e4:	d8800215 	stw	r2,8(sp)
    22e8:	00800044 	movi	r2,1
    22ec:	20801b26 	beq	r4,r2,235c <ip_input+0x31c>
    22f0:	00800444 	movi	r2,17
    22f4:	20801426 	beq	r4,r2,2348 <ip_input+0x308>
    22f8:	81001817 	ldw	r4,96(r16)
    22fc:	81401917 	ldw	r5,100(r16)
    2300:	20800044 	addi	r2,r4,1
    2304:	1109803a 	cmpltu	r4,r2,r4
    2308:	2149883a 	add	r4,r4,r5
    230c:	80801815 	stw	r2,96(r16)
    2310:	81001915 	stw	r4,100(r16)
    2314:	90800117 	ldw	r2,4(r18)
    2318:	15008d26 	beq	r2,r20,2550 <ip_input+0x510>
    231c:	1823883a 	mov	r17,r3
    2320:	003f9306 	br	2170 <ip_input+0x130>
    2324:	80c01a17 	ldw	r3,104(r16)
    2328:	81001b17 	ldw	r4,108(r16)
    232c:	dc400317 	ldw	r17,12(sp)
    2330:	18800044 	addi	r2,r3,1
    2334:	10c7803a 	cmpltu	r3,r2,r3
    2338:	1907883a 	add	r3,r3,r4
    233c:	80801a15 	stw	r2,104(r16)
    2340:	80c01b15 	stw	r3,108(r16)
    2344:	003f8a06 	br	2170 <ip_input+0x130>
    2348:	d9000304 	addi	r4,sp,12
    234c:	d9400204 	addi	r5,sp,8
    2350:	000d883a 	mov	r6,zero
    2354:	00056c00 	call	56c0 <udp_input>
    2358:	003f8e06 	br	2194 <ip_input+0x154>
    235c:	d9000304 	addi	r4,sp,12
    2360:	d9400204 	addi	r5,sp,8
    2364:	000d883a 	mov	r6,zero
    2368:	0002c000 	call	2c00 <icmp_input>
    236c:	003f8906 	br	2194 <ip_input+0x154>
    2370:	80c01217 	ldw	r3,72(r16)
    2374:	81001317 	ldw	r4,76(r16)
    2378:	d7201f04 	addi	fp,gp,-32644
    237c:	18800044 	addi	r2,r3,1
    2380:	10c7803a 	cmpltu	r3,r2,r3
    2384:	1907883a 	add	r3,r3,r4
    2388:	80c01315 	stw	r3,76(r16)
    238c:	80801215 	stw	r2,72(r16)
    2390:	8940060b 	ldhu	r5,24(r17)
    2394:	88800917 	ldw	r2,36(r17)
    2398:	8900068b 	ldhu	r4,26(r17)
    239c:	2806923a 	slli	r3,r5,8
    23a0:	280ad23a 	srli	r5,r5,8
    23a4:	1010963a 	slli	r8,r2,24
    23a8:	200e923a 	slli	r7,r4,8
    23ac:	1026d63a 	srli	r19,r2,24
    23b0:	11bfc00c 	andi	r6,r2,65280
    23b4:	2008d23a 	srli	r4,r4,8
    23b8:	300c923a 	slli	r6,r6,8
    23bc:	1004d23a 	srli	r2,r2,8
    23c0:	1946b03a 	or	r3,r3,r5
    23c4:	d9400317 	ldw	r5,12(sp)
    23c8:	3908b03a 	or	r4,r7,r4
    23cc:	9a26b03a 	or	r19,r19,r8
    23d0:	1d40004c 	andi	r21,r3,1
    23d4:	88c0060d 	sth	r3,24(r17)
    23d8:	8900068d 	sth	r4,26(r17)
    23dc:	99a6b03a 	or	r19,r19,r6
    23e0:	10bfc00c 	andi	r2,r2,65280
    23e4:	0009883a 	mov	r4,zero
    23e8:	8d800817 	ldw	r22,32(r17)
    23ec:	ad6f883a 	add	r23,r21,r21
    23f0:	d8c00515 	stw	r3,20(sp)
    23f4:	d9400015 	stw	r5,0(sp)
    23f8:	98a6b03a 	or	r19,r19,r2
    23fc:	000d0400 	call	d040 <GetResource>
    2400:	bdc9883a 	add	r4,r23,r23
    2404:	e105883a 	add	r2,fp,r4
    2408:	10800017 	ldw	r2,0(r2)
    240c:	d8c00517 	ldw	r3,20(sp)
    2410:	1000de26 	beq	r2,zero,278c <ip_input+0x74c>
    2414:	1140060b 	ldhu	r5,24(r2)
    2418:	18ffffcc 	andi	r3,r3,65535
    241c:	1940041e 	bne	r3,r5,2430 <ip_input+0x3f0>
    2420:	d0e02104 	addi	r3,gp,-32636
    2424:	1909883a 	add	r4,r3,r4
    2428:	20c00017 	ldw	r3,0(r4)
    242c:	98c06226 	beq	r19,r3,25b8 <ip_input+0x578>
    2430:	80c00e17 	ldw	r3,56(r16)
    2434:	81400f17 	ldw	r5,60(r16)
    2438:	a809883a 	mov	r4,r21
    243c:	18800044 	addi	r2,r3,1
    2440:	10c7803a 	cmpltu	r3,r2,r3
    2444:	1947883a 	add	r3,r3,r5
    2448:	80800e15 	stw	r2,56(r16)
    244c:	80c00f15 	stw	r3,60(r16)
    2450:	0001e600 	call	1e60 <ip_freef>
    2454:	bdc5883a 	add	r2,r23,r23
    2458:	e085883a 	add	r2,fp,r2
    245c:	10800017 	ldw	r2,0(r2)
    2460:	1000ca26 	beq	r2,zero,278c <ip_input+0x74c>
    2464:	8940068b 	ldhu	r5,26(r17)
    2468:	0009883a 	mov	r4,zero
    246c:	2947ffcc 	andi	r5,r5,8191
    2470:	00000406 	br	2484 <ip_input+0x444>
    2474:	10c00917 	ldw	r3,36(r2)
    2478:	1009883a 	mov	r4,r2
    247c:	18003226 	beq	r3,zero,2548 <ip_input+0x508>
    2480:	1805883a 	mov	r2,r3
    2484:	10c0068b 	ldhu	r3,26(r2)
    2488:	18c7ffcc 	andi	r3,r3,8191
    248c:	197ff916 	blt	r3,r5,2474 <ip_input+0x434>
    2490:	88800915 	stw	r2,36(r17)
    2494:	20006026 	beq	r4,zero,2618 <ip_input+0x5d8>
    2498:	d8800017 	ldw	r2,0(sp)
    249c:	20800915 	stw	r2,36(r4)
    24a0:	bdc5883a 	add	r2,r23,r23
    24a4:	e085883a 	add	r2,fp,r2
    24a8:	14c00017 	ldw	r19,0(r2)
    24ac:	d8000015 	stw	zero,0(sp)
    24b0:	9800c926 	beq	r19,zero,27d8 <ip_input+0x798>
    24b4:	9880068b 	ldhu	r2,26(r19)
    24b8:	100490fa 	slli	r2,r2,3
    24bc:	10bfffcc 	andi	r2,r2,65535
    24c0:	10001e1e 	bne	r2,zero,253c <ip_input+0x4fc>
    24c4:	0007883a 	mov	r3,zero
    24c8:	00000506 	br	24e0 <ip_input+0x4a0>
    24cc:	10c0068b 	ldhu	r3,26(r2)
    24d0:	1027883a 	mov	r19,r2
    24d4:	180690fa 	slli	r3,r3,3
    24d8:	18ffffcc 	andi	r3,r3,65535
    24dc:	1d80171e 	bne	r3,r22,253c <ip_input+0x4fc>
    24e0:	9940058b 	ldhu	r5,22(r19)
    24e4:	99000503 	ldbu	r4,20(r19)
    24e8:	98800917 	ldw	r2,36(r19)
    24ec:	282c923a 	slli	r22,r5,8
    24f0:	280ad23a 	srli	r5,r5,8
    24f4:	210003cc 	andi	r4,r4,15
    24f8:	2109883a 	add	r4,r4,r4
    24fc:	b16cb03a 	or	r22,r22,r5
    2500:	b5bfffcc 	andi	r22,r22,65535
    2504:	2109883a 	add	r4,r4,r4
    2508:	b12dc83a 	sub	r22,r22,r4
    250c:	1dad883a 	add	r22,r3,r22
    2510:	103fee1e 	bne	r2,zero,24cc <ip_input+0x48c>
    2514:	9880068b 	ldhu	r2,26(r19)
    2518:	1088000c 	andi	r2,r2,8192
    251c:	10bfffcc 	andi	r2,r2,65535
    2520:	10004426 	beq	r2,zero,2634 <ip_input+0x5f4>
    2524:	0009883a 	mov	r4,zero
    2528:	000d3e00 	call	d3e0 <ReleaseResource>
    252c:	d8800017 	ldw	r2,0(sp)
    2530:	d8800315 	stw	r2,12(sp)
    2534:	103f641e 	bne	r2,zero,22c8 <ip_input+0x288>
    2538:	003f1606 	br	2194 <ip_input+0x154>
    253c:	0009883a 	mov	r4,zero
    2540:	000d3e00 	call	d3e0 <ReleaseResource>
    2544:	003f1306 	br	2194 <ip_input+0x154>
    2548:	88000915 	stw	zero,36(r17)
    254c:	003fd206 	br	2498 <ip_input+0x458>
    2550:	88800817 	ldw	r2,32(r17)
    2554:	8c400743 	ldbu	r17,29(r17)
    2558:	0009883a 	mov	r4,zero
    255c:	100cd63a 	srli	r6,r2,24
    2560:	100a963a 	slli	r5,r2,24
    2564:	10ffc00c 	andi	r3,r2,65280
    2568:	1806923a 	slli	r3,r3,8
    256c:	1004d23a 	srli	r2,r2,8
    2570:	314ab03a 	or	r5,r6,r5
    2574:	28c6b03a 	or	r3,r5,r3
    2578:	10bfc00c 	andi	r2,r2,65280
    257c:	1884b03a 	or	r2,r3,r2
    2580:	d9400104 	addi	r5,sp,4
    2584:	d8800115 	stw	r2,4(sp)
    2588:	00012200 	call	1220 <ip2str>
    258c:	880d883a 	mov	r6,r17
    2590:	01000184 	movi	r4,6
    2594:	01400074 	movhi	r5,1
    2598:	297c6404 	addi	r5,r5,-3696
    259c:	100f883a 	mov	r7,r2
    25a0:	00080400 	call	8040 <syslog>
    25a4:	d9400317 	ldw	r5,12(sp)
    25a8:	01000084 	movi	r4,2
    25ac:	0002f200 	call	2f20 <icmp_error>
    25b0:	dc400317 	ldw	r17,12(sp)
    25b4:	003eee06 	br	2170 <ip_input+0x130>
    25b8:	10c00817 	ldw	r3,32(r2)
    25bc:	b014d63a 	srli	r10,r22,24
    25c0:	b010963a 	slli	r8,r22,24
    25c4:	1812d63a 	srli	r9,r3,24
    25c8:	180e963a 	slli	r7,r3,24
    25cc:	197fc00c 	andi	r5,r3,65280
    25d0:	b1bfc00c 	andi	r6,r22,65280
    25d4:	300c923a 	slli	r6,r6,8
    25d8:	b008d23a 	srli	r4,r22,8
    25dc:	280a923a 	slli	r5,r5,8
    25e0:	1806d23a 	srli	r3,r3,8
    25e4:	5210b03a 	or	r8,r10,r8
    25e8:	49ceb03a 	or	r7,r9,r7
    25ec:	418cb03a 	or	r6,r8,r6
    25f0:	213fc00c 	andi	r4,r4,65280
    25f4:	394ab03a 	or	r5,r7,r5
    25f8:	18ffc00c 	andi	r3,r3,65280
    25fc:	3108b03a 	or	r4,r6,r4
    2600:	28c6b03a 	or	r3,r5,r3
    2604:	20ff8a1e 	bne	r4,r3,2430 <ip_input+0x3f0>
    2608:	89000743 	ldbu	r4,29(r17)
    260c:	10c00743 	ldbu	r3,29(r2)
    2610:	20ff871e 	bne	r4,r3,2430 <ip_input+0x3f0>
    2614:	003f9306 	br	2464 <ip_input+0x424>
    2618:	10c00703 	ldbu	r3,28(r2)
    261c:	bdc5883a 	add	r2,r23,r23
    2620:	e085883a 	add	r2,fp,r2
    2624:	88c00705 	stb	r3,28(r17)
    2628:	d8c00017 	ldw	r3,0(sp)
    262c:	10c00015 	stw	r3,0(r2)
    2630:	003f9b06 	br	24a0 <ip_input+0x460>
    2634:	d809883a 	mov	r4,sp
    2638:	b1400904 	addi	r5,r22,36
    263c:	0000a600 	call	a60 <get_net_buf>
    2640:	1000431e 	bne	r2,zero,2750 <ip_input+0x710>
    2644:	bdcf883a 	add	r7,r23,r23
    2648:	81001017 	ldw	r4,64(r16)
    264c:	ddc00017 	ldw	r23,0(sp)
    2650:	e1f9883a 	add	fp,fp,r7
    2654:	e7000017 	ldw	fp,0(fp)
    2658:	81401117 	ldw	r5,68(r16)
    265c:	20800044 	addi	r2,r4,1
    2660:	1109803a 	cmpltu	r4,r2,r4
    2664:	b8c00504 	addi	r3,r23,20
    2668:	2151883a 	add	r8,r4,r5
    266c:	01800504 	movi	r6,20
    2670:	1809883a 	mov	r4,r3
    2674:	e1400504 	addi	r5,fp,20
    2678:	82001115 	stw	r8,68(r16)
    267c:	d9c00515 	stw	r7,20(sp)
    2680:	d8c00415 	stw	r3,16(sp)
    2684:	80801015 	stw	r2,64(r16)
    2688:	000eafc0 	call	eafc <memcpy>
    268c:	d9c00517 	ldw	r7,20(sp)
    2690:	d0a02104 	addi	r2,gp,-32636
    2694:	b1000504 	addi	r4,r22,20
    2698:	11cf883a 	add	r7,r2,r7
    269c:	38800017 	ldw	r2,0(r7)
    26a0:	213fffcc 	andi	r4,r4,65535
    26a4:	1010d63a 	srli	r8,r2,24
    26a8:	100e963a 	slli	r7,r2,24
    26ac:	11bfc00c 	andi	r6,r2,65280
    26b0:	100ad23a 	srli	r5,r2,8
    26b4:	300c923a 	slli	r6,r6,8
    26b8:	2004923a 	slli	r2,r4,8
    26bc:	2008d23a 	srli	r4,r4,8
    26c0:	41ceb03a 	or	r7,r8,r7
    26c4:	398cb03a 	or	r6,r7,r6
    26c8:	1104b03a 	or	r2,r2,r4
    26cc:	297fc00c 	andi	r5,r5,65280
    26d0:	b880058d 	sth	r2,22(r23)
    26d4:	314ab03a 	or	r5,r6,r5
    26d8:	00801144 	movi	r2,69
    26dc:	b9400915 	stw	r5,36(r23)
    26e0:	b8800505 	stb	r2,20(r23)
    26e4:	98800703 	ldbu	r2,28(r19)
    26e8:	04c00504 	movi	r19,20
    26ec:	b800060d 	sth	zero,24(r23)
    26f0:	b8800705 	stb	r2,28(r23)
    26f4:	b800068d 	sth	zero,26(r23)
    26f8:	e140058b 	ldhu	r5,22(fp)
    26fc:	e0800503 	ldbu	r2,20(fp)
    2700:	d8c00417 	ldw	r3,16(sp)
    2704:	282c923a 	slli	r22,r5,8
    2708:	280ad23a 	srli	r5,r5,8
    270c:	108003cc 	andi	r2,r2,15
    2710:	1085883a 	add	r2,r2,r2
    2714:	b16cb03a 	or	r22,r22,r5
    2718:	1085883a 	add	r2,r2,r2
    271c:	b5bfffcc 	andi	r22,r22,65535
    2720:	b0adc83a 	sub	r22,r22,r2
    2724:	11400504 	addi	r5,r2,20
    2728:	1cc9883a 	add	r4,r3,r19
    272c:	e14b883a 	add	r5,fp,r5
    2730:	b00d883a 	mov	r6,r22
    2734:	000eafc0 	call	eafc <memcpy>
    2738:	e7000917 	ldw	fp,36(fp)
    273c:	9da7883a 	add	r19,r19,r22
    2740:	e03fed1e 	bne	fp,zero,26f8 <ip_input+0x6b8>
    2744:	a809883a 	mov	r4,r21
    2748:	0001e600 	call	1e60 <ip_freef>
    274c:	003f7506 	br	2524 <ip_input+0x4e4>
    2750:	81400c17 	ldw	r5,48(r16)
    2754:	81000e17 	ldw	r4,56(r16)
    2758:	81c00d17 	ldw	r7,52(r16)
    275c:	81800f17 	ldw	r6,60(r16)
    2760:	28c00044 	addi	r3,r5,1
    2764:	20800044 	addi	r2,r4,1
    2768:	194b803a 	cmpltu	r5,r3,r5
    276c:	1109803a 	cmpltu	r4,r2,r4
    2770:	29cb883a 	add	r5,r5,r7
    2774:	2189883a 	add	r4,r4,r6
    2778:	80c00c15 	stw	r3,48(r16)
    277c:	81400d15 	stw	r5,52(r16)
    2780:	80800e15 	stw	r2,56(r16)
    2784:	81000f15 	stw	r4,60(r16)
    2788:	003fee06 	br	2744 <ip_input+0x704>
    278c:	80c01417 	ldw	r3,80(r16)
    2790:	81001517 	ldw	r4,84(r16)
    2794:	bdef883a 	add	r23,r23,r23
    2798:	18800044 	addi	r2,r3,1
    279c:	80801415 	stw	r2,80(r16)
    27a0:	10c7803a 	cmpltu	r3,r2,r3
    27a4:	d8800017 	ldw	r2,0(sp)
    27a8:	1909883a 	add	r4,r3,r4
    27ac:	d0e02104 	addi	r3,gp,-32636
    27b0:	81001515 	stw	r4,84(r16)
    27b4:	1dc7883a 	add	r3,r3,r23
    27b8:	e5ef883a 	add	r23,fp,r23
    27bc:	b8800015 	stw	r2,0(r23)
    27c0:	1cc00015 	stw	r19,0(r3)
    27c4:	00800f04 	movi	r2,60
    27c8:	88000915 	stw	zero,36(r17)
    27cc:	d8000015 	stw	zero,0(sp)
    27d0:	88800705 	stb	r2,28(r17)
    27d4:	003f5306 	br	2524 <ip_input+0x4e4>
    27d8:	2027883a 	mov	r19,r4
    27dc:	002d883a 	mov	r22,zero
    27e0:	003f4c06 	br	2514 <ip_input+0x4d4>
	...

00002800 <ip_output>:
    2800:	defff204 	addi	sp,sp,-56
    2804:	df000c15 	stw	fp,48(sp)
    2808:	dcc00715 	stw	r19,28(sp)
    280c:	dfc00d15 	stw	ra,52(sp)
    2810:	ddc00b15 	stw	r23,44(sp)
    2814:	dd800a15 	stw	r22,40(sp)
    2818:	dd400915 	stw	r21,36(sp)
    281c:	dd000815 	stw	r20,32(sp)
    2820:	dc800615 	stw	r18,24(sp)
    2824:	dc400515 	stw	r17,20(sp)
    2828:	dc000415 	stw	r16,16(sp)
    282c:	20800917 	ldw	r2,36(r4)
    2830:	2039883a 	mov	fp,r4
    2834:	21000504 	addi	r4,r4,20
    2838:	100a963a 	slli	r5,r2,24
    283c:	d9000315 	stw	r4,12(sp)
    2840:	10ffc00c 	andi	r3,r2,65280
    2844:	1008d63a 	srli	r4,r2,24
    2848:	1806923a 	slli	r3,r3,8
    284c:	1004d23a 	srli	r2,r2,8
    2850:	2148b03a 	or	r4,r4,r5
    2854:	20c8b03a 	or	r4,r4,r3
    2858:	10bfc00c 	andi	r2,r2,65280
    285c:	2088b03a 	or	r4,r4,r2
    2860:	00018a00 	call	18a0 <in4_rtalloc>
    2864:	e0c0058b 	ldhu	r3,22(fp)
    2868:	d8800115 	stw	r2,4(sp)
    286c:	00817704 	movi	r2,1500
    2870:	1826923a 	slli	r19,r3,8
    2874:	1806d23a 	srli	r3,r3,8
    2878:	98e6b03a 	or	r19,r19,r3
    287c:	9cffffcc 	andi	r19,r19,65535
    2880:	14c0a92e 	bgeu	r2,r19,2b28 <ip_output+0x328>
    2884:	05c00074 	movhi	r23,1
    2888:	bdc35b04 	addi	r23,r23,3436
    288c:	b8c00217 	ldw	r3,8(r23)
    2890:	b9000317 	ldw	r4,12(r23)
    2894:	18800044 	addi	r2,r3,1
    2898:	10c7803a 	cmpltu	r3,r2,r3
    289c:	1907883a 	add	r3,r3,r4
    28a0:	b8800215 	stw	r2,8(r23)
    28a4:	b8c00315 	stw	r3,12(r23)
    28a8:	e5800503 	ldbu	r22,20(fp)
    28ac:	b58003cc 	andi	r22,r22,15
    28b0:	b5ad883a 	add	r22,r22,r22
    28b4:	b5ad883a 	add	r22,r22,r22
    28b8:	dd800215 	stw	r22,8(sp)
    28bc:	b4c0c92e 	bgeu	r22,r19,2be4 <ip_output+0x3e4>
    28c0:	9da9c83a 	sub	r20,r19,r22
    28c4:	b023883a 	mov	r17,r22
    28c8:	0025883a 	mov	r18,zero
    28cc:	00006906 	br	2a74 <ip_output+0x274>
    28d0:	a14000c4 	addi	r5,r20,3
    28d4:	00bfff04 	movi	r2,-4
    28d8:	288a703a 	and	r5,r5,r2
    28dc:	29400904 	addi	r5,r5,36
    28e0:	d809883a 	mov	r4,sp
    28e4:	a021883a 	mov	r16,r20
    28e8:	0000a600 	call	a60 <get_net_buf>
    28ec:	1000681e 	bne	r2,zero,2a90 <ip_output+0x290>
    28f0:	d8800017 	ldw	r2,0(sp)
    28f4:	d9000317 	ldw	r4,12(sp)
    28f8:	d8c00217 	ldw	r3,8(sp)
    28fc:	800d883a 	mov	r6,r16
    2900:	8463883a 	add	r17,r16,r17
    2904:	20cb883a 	add	r5,r4,r3
    2908:	10c00503 	ldbu	r3,20(r2)
    290c:	2c8b883a 	add	r5,r5,r18
    2910:	18c003cc 	andi	r3,r3,15
    2914:	18c7883a 	add	r3,r3,r3
    2918:	18c7883a 	add	r3,r3,r3
    291c:	19000504 	addi	r4,r3,20
    2920:	1109883a 	add	r4,r2,r4
    2924:	000eafc0 	call	eafc <memcpy>
    2928:	e0800517 	ldw	r2,20(fp)
    292c:	dd800017 	ldw	r22,0(sp)
    2930:	b0800515 	stw	r2,20(r22)
    2934:	e0800617 	ldw	r2,24(fp)
    2938:	b1000504 	addi	r4,r22,20
    293c:	b0800615 	stw	r2,24(r22)
    2940:	e0800717 	ldw	r2,28(fp)
    2944:	b0800715 	stw	r2,28(r22)
    2948:	e0800817 	ldw	r2,32(fp)
    294c:	b0800815 	stw	r2,32(r22)
    2950:	e0800917 	ldw	r2,36(fp)
    2954:	b0800915 	stw	r2,36(r22)
    2958:	8cc05826 	beq	r17,r19,2abc <ip_output+0x2bc>
    295c:	9004d0fa 	srli	r2,r18,3
    2960:	02880004 	movi	r10,8192
    2964:	127fffcc 	andi	r9,r2,65535
    2968:	4a480014 	ori	r9,r9,8192
    296c:	4812923a 	slli	r9,r9,8
    2970:	100b883a 	mov	r5,r2
    2974:	d0a0230b 	ldhu	r2,-32628(gp)
    2978:	2a8cb03a 	or	r6,r5,r10
    297c:	84000504 	addi	r16,r16,20
    2980:	843fffcc 	andi	r16,r16,65535
    2984:	b1400503 	ldbu	r5,20(r22)
    2988:	31bfffcc 	andi	r6,r6,65535
    298c:	8018923a 	slli	r12,r16,8
    2990:	1016923a 	slli	r11,r2,8
    2994:	300cd23a 	srli	r6,r6,8
    2998:	8020d23a 	srli	r16,r16,8
    299c:	1004d23a 	srli	r2,r2,8
    29a0:	294003cc 	andi	r5,r5,15
    29a4:	324cb03a 	or	r6,r6,r9
    29a8:	6420b03a 	or	r16,r12,r16
    29ac:	5884b03a 	or	r2,r11,r2
    29b0:	294b883a 	add	r5,r5,r5
    29b4:	294b883a 	add	r5,r5,r5
    29b8:	b180068d 	sth	r6,26(r22)
    29bc:	b400058d 	sth	r16,22(r22)
    29c0:	b080060d 	sth	r2,24(r22)
    29c4:	b000078d 	sth	zero,30(r22)
    29c8:	00016e00 	call	16e0 <in_cksum>
    29cc:	b100058b 	ldhu	r4,22(r22)
    29d0:	b080078d 	sth	r2,30(r22)
    29d4:	ba400617 	ldw	r9,24(r23)
    29d8:	2014923a 	slli	r10,r4,8
    29dc:	2008d23a 	srli	r4,r4,8
    29e0:	b9800017 	ldw	r6,0(r23)
    29e4:	b9400817 	ldw	r5,32(r23)
    29e8:	5114b03a 	or	r10,r10,r4
    29ec:	bb400917 	ldw	r13,36(r23)
    29f0:	bb000717 	ldw	r12,28(r23)
    29f4:	bac00117 	ldw	r11,4(r23)
    29f8:	52bfffcc 	andi	r10,r10,65535
    29fc:	514b883a 	add	r5,r10,r5
    2a00:	48c00044 	addi	r3,r9,1
    2a04:	30800044 	addi	r2,r6,1
    2a08:	d9000017 	ldw	r4,0(sp)
    2a0c:	2a95803a 	cmpltu	r10,r5,r10
    2a10:	1a53803a 	cmpltu	r9,r3,r9
    2a14:	118d803a 	cmpltu	r6,r2,r6
    2a18:	32cd883a 	add	r6,r6,r11
    2a1c:	5355883a 	add	r10,r10,r13
    2a20:	4b13883a 	add	r9,r9,r12
    2a24:	b9400815 	stw	r5,32(r23)
    2a28:	b8800015 	stw	r2,0(r23)
    2a2c:	b9800115 	stw	r6,4(r23)
    2a30:	ba800915 	stw	r10,36(r23)
    2a34:	b8c00615 	stw	r3,24(r23)
    2a38:	ba400715 	stw	r9,28(r23)
    2a3c:	00800204 	movi	r2,8
    2a40:	20800485 	stb	r2,18(r4)
    2a44:	200004c5 	stb	zero,19(r4)
    2a48:	d9400104 	addi	r5,sp,4
    2a4c:	000d883a 	mov	r6,zero
    2a50:	00032600 	call	3260 <ether_output>
    2a54:	1021883a 	mov	r16,r2
    2a58:	04400074 	movhi	r17,1
    2a5c:	8c435b04 	addi	r17,r17,3436
    2a60:	10001b1e 	bne	r2,zero,2ad0 <ip_output+0x2d0>
    2a64:	a823883a 	mov	r17,r21
    2a68:	94817204 	addi	r18,r18,1480
    2a6c:	a53e8e04 	addi	r20,r20,-1480
    2a70:	acc05c2e 	bgeu	r21,r19,2be4 <ip_output+0x3e4>
    2a74:	8d417204 	addi	r21,r17,1480
    2a78:	acff952e 	bgeu	r21,r19,28d0 <ip_output+0xd0>
    2a7c:	01417b04 	movi	r5,1516
    2a80:	d809883a 	mov	r4,sp
    2a84:	04017204 	movi	r16,1480
    2a88:	0000a600 	call	a60 <get_net_buf>
    2a8c:	103f9826 	beq	r2,zero,28f0 <ip_output+0xf0>
    2a90:	e009883a 	mov	r4,fp
    2a94:	0000a800 	call	a80 <rel_net_buf>
    2a98:	b8c00417 	ldw	r3,16(r23)
    2a9c:	b9000517 	ldw	r4,20(r23)
    2aa0:	043ff7c4 	movi	r16,-33
    2aa4:	18800044 	addi	r2,r3,1
    2aa8:	10c7803a 	cmpltu	r3,r2,r3
    2aac:	1907883a 	add	r3,r3,r4
    2ab0:	b8800415 	stw	r2,16(r23)
    2ab4:	b8c00515 	stw	r3,20(r23)
    2ab8:	00000e06 	br	2af4 <ip_output+0x2f4>
    2abc:	900ad0fa 	srli	r5,r18,3
    2ac0:	0015883a 	mov	r10,zero
    2ac4:	2a7fffcc 	andi	r9,r5,65535
    2ac8:	4812923a 	slli	r9,r9,8
    2acc:	003fa906 	br	2974 <ip_output+0x174>
    2ad0:	e009883a 	mov	r4,fp
    2ad4:	0000a800 	call	a80 <rel_net_buf>
    2ad8:	88c00417 	ldw	r3,16(r17)
    2adc:	89000517 	ldw	r4,20(r17)
    2ae0:	18800044 	addi	r2,r3,1
    2ae4:	10c7803a 	cmpltu	r3,r2,r3
    2ae8:	1907883a 	add	r3,r3,r4
    2aec:	88800415 	stw	r2,16(r17)
    2af0:	88c00515 	stw	r3,20(r17)
    2af4:	8005883a 	mov	r2,r16
    2af8:	dfc00d17 	ldw	ra,52(sp)
    2afc:	df000c17 	ldw	fp,48(sp)
    2b00:	ddc00b17 	ldw	r23,44(sp)
    2b04:	dd800a17 	ldw	r22,40(sp)
    2b08:	dd400917 	ldw	r21,36(sp)
    2b0c:	dd000817 	ldw	r20,32(sp)
    2b10:	dcc00717 	ldw	r19,28(sp)
    2b14:	dc800617 	ldw	r18,24(sp)
    2b18:	dc400517 	ldw	r17,20(sp)
    2b1c:	dc000417 	ldw	r16,16(sp)
    2b20:	dec00e04 	addi	sp,sp,56
    2b24:	f800283a 	ret
    2b28:	d0a0230b 	ldhu	r2,-32628(gp)
    2b2c:	e1400503 	ldbu	r5,20(fp)
    2b30:	d9000317 	ldw	r4,12(sp)
    2b34:	10ffffcc 	andi	r3,r2,65535
    2b38:	180c923a 	slli	r6,r3,8
    2b3c:	1806d23a 	srli	r3,r3,8
    2b40:	294003cc 	andi	r5,r5,15
    2b44:	294b883a 	add	r5,r5,r5
    2b48:	30c6b03a 	or	r3,r6,r3
    2b4c:	10800044 	addi	r2,r2,1
    2b50:	294b883a 	add	r5,r5,r5
    2b54:	e0c0060d 	sth	r3,24(fp)
    2b58:	e000078d 	sth	zero,30(fp)
    2b5c:	d0a0230d 	sth	r2,-32628(gp)
    2b60:	00016e00 	call	16e0 <in_cksum>
    2b64:	e0c0058b 	ldhu	r3,22(fp)
    2b68:	e080078d 	sth	r2,30(fp)
    2b6c:	04400074 	movhi	r17,1
    2b70:	8c435b04 	addi	r17,r17,3436
    2b74:	1804923a 	slli	r2,r3,8
    2b78:	1806d23a 	srli	r3,r3,8
    2b7c:	89400617 	ldw	r5,24(r17)
    2b80:	89000817 	ldw	r4,32(r17)
    2b84:	10c6b03a 	or	r3,r2,r3
    2b88:	89800717 	ldw	r6,28(r17)
    2b8c:	89c00917 	ldw	r7,36(r17)
    2b90:	18ffffcc 	andi	r3,r3,65535
    2b94:	1909883a 	add	r4,r3,r4
    2b98:	28800044 	addi	r2,r5,1
    2b9c:	20c7803a 	cmpltu	r3,r4,r3
    2ba0:	114b803a 	cmpltu	r5,r2,r5
    2ba4:	298b883a 	add	r5,r5,r6
    2ba8:	19c7883a 	add	r3,r3,r7
    2bac:	89000815 	stw	r4,32(r17)
    2bb0:	88800615 	stw	r2,24(r17)
    2bb4:	89400715 	stw	r5,28(r17)
    2bb8:	88c00915 	stw	r3,36(r17)
    2bbc:	00800204 	movi	r2,8
    2bc0:	e0800485 	stb	r2,18(fp)
    2bc4:	e00004c5 	stb	zero,19(fp)
    2bc8:	e009883a 	mov	r4,fp
    2bcc:	d9400104 	addi	r5,sp,4
    2bd0:	000d883a 	mov	r6,zero
    2bd4:	00032600 	call	3260 <ether_output>
    2bd8:	1021883a 	mov	r16,r2
    2bdc:	103fc526 	beq	r2,zero,2af4 <ip_output+0x2f4>
    2be0:	003fbd06 	br	2ad8 <ip_output+0x2d8>
    2be4:	e009883a 	mov	r4,fp
    2be8:	0000a800 	call	a80 <rel_net_buf>
    2bec:	d0a0230b 	ldhu	r2,-32628(gp)
    2bf0:	0021883a 	mov	r16,zero
    2bf4:	10800044 	addi	r2,r2,1
    2bf8:	d0a0230d 	sth	r2,-32628(gp)
    2bfc:	003fbd06 	br	2af4 <ip_output+0x2f4>

00002c00 <icmp_input>:
    2c00:	defff904 	addi	sp,sp,-28
    2c04:	dc800315 	stw	r18,12(sp)
    2c08:	dc000115 	stw	r16,4(sp)
    2c0c:	dfc00615 	stw	ra,24(sp)
    2c10:	dd000515 	stw	r20,20(sp)
    2c14:	dcc00415 	stw	r19,16(sp)
    2c18:	dc400215 	stw	r17,8(sp)
    2c1c:	24400017 	ldw	r17,0(r4)
    2c20:	04000074 	movhi	r16,1
    2c24:	84034f04 	addi	r16,r16,3388
    2c28:	81000417 	ldw	r4,16(r16)
    2c2c:	88800503 	ldbu	r2,20(r17)
    2c30:	8980000b 	ldhu	r6,0(r17)
    2c34:	80c00017 	ldw	r3,0(r16)
    2c38:	108003cc 	andi	r2,r2,15
    2c3c:	1085883a 	add	r2,r2,r2
    2c40:	1085883a 	add	r2,r2,r2
    2c44:	31bffc04 	addi	r6,r6,-16
    2c48:	308dc83a 	sub	r6,r6,r2
    2c4c:	82000117 	ldw	r8,4(r16)
    2c50:	81c00517 	ldw	r7,20(r16)
    2c54:	30c7883a 	add	r3,r6,r3
    2c58:	20800044 	addi	r2,r4,1
    2c5c:	198d803a 	cmpltu	r6,r3,r6
    2c60:	1109803a 	cmpltu	r4,r2,r4
    2c64:	320d883a 	add	r6,r6,r8
    2c68:	21c9883a 	add	r4,r4,r7
    2c6c:	80c00015 	stw	r3,0(r16)
    2c70:	81800115 	stw	r6,4(r16)
    2c74:	80800415 	stw	r2,16(r16)
    2c78:	81000515 	stw	r4,20(r16)
    2c7c:	8880000b 	ldhu	r2,0(r17)
    2c80:	00c00ac4 	movi	r3,43
    2c84:	2825883a 	mov	r18,r5
    2c88:	18800d2e 	bgeu	r3,r2,2cc0 <icmp_input+0xc0>
    2c8c:	29000017 	ldw	r4,0(r5)
    2c90:	00ffff04 	movi	r3,-4
    2c94:	110dc83a 	sub	r6,r2,r4
    2c98:	34c000c4 	addi	r19,r6,3
    2c9c:	21000104 	addi	r4,r4,4
    2ca0:	98e6703a 	and	r19,r19,r3
    2ca4:	8929883a 	add	r20,r17,r4
    2ca8:	34c02136 	bltu	r6,r19,2d30 <icmp_input+0x130>
    2cac:	a009883a 	mov	r4,r20
    2cb0:	980b883a 	mov	r5,r19
    2cb4:	00016e00 	call	16e0 <in_cksum>
    2cb8:	10bfffcc 	andi	r2,r2,65535
    2cbc:	10001226 	beq	r2,zero,2d08 <icmp_input+0x108>
    2cc0:	80c00817 	ldw	r3,32(r16)
    2cc4:	81000917 	ldw	r4,36(r16)
    2cc8:	18800044 	addi	r2,r3,1
    2ccc:	10c7803a 	cmpltu	r3,r2,r3
    2cd0:	1907883a 	add	r3,r3,r4
    2cd4:	80800815 	stw	r2,32(r16)
    2cd8:	80c00915 	stw	r3,36(r16)
    2cdc:	8809883a 	mov	r4,r17
    2ce0:	0000a800 	call	a80 <rel_net_buf>
    2ce4:	00804044 	movi	r2,257
    2ce8:	dfc00617 	ldw	ra,24(sp)
    2cec:	dd000517 	ldw	r20,20(sp)
    2cf0:	dcc00417 	ldw	r19,16(sp)
    2cf4:	dc800317 	ldw	r18,12(sp)
    2cf8:	dc400217 	ldw	r17,8(sp)
    2cfc:	dc000117 	ldw	r16,4(sp)
    2d00:	dec00704 	addi	sp,sp,28
    2d04:	f800283a 	ret
    2d08:	a1800003 	ldbu	r6,0(r20)
    2d0c:	04c000c4 	movi	r19,3
    2d10:	34c01226 	beq	r6,r19,2d5c <icmp_input+0x15c>
    2d14:	99801e36 	bltu	r19,r6,2d90 <icmp_input+0x190>
    2d18:	303ff026 	beq	r6,zero,2cdc <icmp_input+0xdc>
    2d1c:	01000184 	movi	r4,6
    2d20:	01400074 	movhi	r5,1
    2d24:	297c7904 	addi	r5,r5,-3612
    2d28:	00080400 	call	8040 <syslog>
    2d2c:	003fe406 	br	2cc0 <icmp_input+0xc0>
    2d30:	11000104 	addi	r4,r2,4
    2d34:	8909883a 	add	r4,r17,r4
    2d38:	000b883a 	mov	r5,zero
    2d3c:	998dc83a 	sub	r6,r19,r6
    2d40:	000ed1c0 	call	ed1c <memset>
    2d44:	a009883a 	mov	r4,r20
    2d48:	980b883a 	mov	r5,r19
    2d4c:	00016e00 	call	16e0 <in_cksum>
    2d50:	10bfffcc 	andi	r2,r2,65535
    2d54:	103fec26 	beq	r2,zero,2d08 <icmp_input+0x108>
    2d58:	003fd906 	br	2cc0 <icmp_input+0xc0>
    2d5c:	90800017 	ldw	r2,0(r18)
    2d60:	8887883a 	add	r3,r17,r2
    2d64:	18c00543 	ldbu	r3,21(r3)
    2d68:	8885883a 	add	r2,r17,r2
    2d6c:	11800143 	ldbu	r6,5(r2)
    2d70:	00800184 	movi	r2,6
    2d74:	18bfd926 	beq	r3,r2,2cdc <icmp_input+0xdc>
    2d78:	01000144 	movi	r4,5
    2d7c:	01400074 	movhi	r5,1
    2d80:	297c6c04 	addi	r5,r5,-3664
    2d84:	31803fcc 	andi	r6,r6,255
    2d88:	00080400 	call	8040 <syslog>
    2d8c:	003fd306 	br	2cdc <icmp_input+0xdc>
    2d90:	00800144 	movi	r2,5
    2d94:	30802f26 	beq	r6,r2,2e54 <icmp_input+0x254>
    2d98:	00800204 	movi	r2,8
    2d9c:	30bfdf1e 	bne	r6,r2,2d1c <icmp_input+0x11c>
    2da0:	94800017 	ldw	r18,0(r18)
    2da4:	94800104 	addi	r18,r18,4
    2da8:	8ca5883a 	add	r18,r17,r18
    2dac:	90000005 	stb	zero,0(r18)
    2db0:	88c00817 	ldw	r3,32(r17)
    2db4:	88800917 	ldw	r2,36(r17)
    2db8:	9009883a 	mov	r4,r18
    2dbc:	88c00915 	stw	r3,36(r17)
    2dc0:	88800815 	stw	r2,32(r17)
    2dc4:	9000008d 	sth	zero,2(r18)
    2dc8:	88800503 	ldbu	r2,20(r17)
    2dcc:	8940000b 	ldhu	r5,0(r17)
    2dd0:	00ffff04 	movi	r3,-4
    2dd4:	108003cc 	andi	r2,r2,15
    2dd8:	1085883a 	add	r2,r2,r2
    2ddc:	1085883a 	add	r2,r2,r2
    2de0:	297ffcc4 	addi	r5,r5,-13
    2de4:	288bc83a 	sub	r5,r5,r2
    2de8:	28ca703a 	and	r5,r5,r3
    2dec:	00016e00 	call	16e0 <in_cksum>
    2df0:	9080008d 	sth	r2,2(r18)
    2df4:	88800503 	ldbu	r2,20(r17)
    2df8:	8940000b 	ldhu	r5,0(r17)
    2dfc:	81000617 	ldw	r4,24(r16)
    2e00:	108003cc 	andi	r2,r2,15
    2e04:	80c00217 	ldw	r3,8(r16)
    2e08:	1085883a 	add	r2,r2,r2
    2e0c:	1085883a 	add	r2,r2,r2
    2e10:	297ffc04 	addi	r5,r5,-16
    2e14:	288bc83a 	sub	r5,r5,r2
    2e18:	81c00317 	ldw	r7,12(r16)
    2e1c:	81800717 	ldw	r6,28(r16)
    2e20:	28c7883a 	add	r3,r5,r3
    2e24:	20800044 	addi	r2,r4,1
    2e28:	194b803a 	cmpltu	r5,r3,r5
    2e2c:	1109803a 	cmpltu	r4,r2,r4
    2e30:	218d883a 	add	r6,r4,r6
    2e34:	29cb883a 	add	r5,r5,r7
    2e38:	8809883a 	mov	r4,r17
    2e3c:	80c00215 	stw	r3,8(r16)
    2e40:	81400315 	stw	r5,12(r16)
    2e44:	80800615 	stw	r2,24(r16)
    2e48:	81800715 	stw	r6,28(r16)
    2e4c:	00028000 	call	2800 <ip_output>
    2e50:	003fa406 	br	2ce4 <icmp_input+0xe4>
    2e54:	a0800117 	ldw	r2,4(r20)
    2e58:	0009883a 	mov	r4,zero
    2e5c:	d80b883a 	mov	r5,sp
    2e60:	100e963a 	slli	r7,r2,24
    2e64:	1006d63a 	srli	r3,r2,24
    2e68:	11bfc00c 	andi	r6,r2,65280
    2e6c:	300c923a 	slli	r6,r6,8
    2e70:	1004d23a 	srli	r2,r2,8
    2e74:	19c6b03a 	or	r3,r3,r7
    2e78:	1986b03a 	or	r3,r3,r6
    2e7c:	10bfc00c 	andi	r2,r2,65280
    2e80:	1884b03a 	or	r2,r3,r2
    2e84:	d8800015 	stw	r2,0(sp)
    2e88:	00012200 	call	1220 <ip2str>
    2e8c:	01000184 	movi	r4,6
    2e90:	100d883a 	mov	r6,r2
    2e94:	01400074 	movhi	r5,1
    2e98:	297c7204 	addi	r5,r5,-3640
    2e9c:	00080400 	call	8040 <syslog>
    2ea0:	90800017 	ldw	r2,0(r18)
    2ea4:	10c00104 	addi	r3,r2,4
    2ea8:	88c7883a 	add	r3,r17,r3
    2eac:	19000043 	ldbu	r4,1(r3)
    2eb0:	993f8336 	bltu	r19,r4,2cc0 <icmp_input+0xc0>
    2eb4:	89000503 	ldbu	r4,20(r17)
    2eb8:	8940058b 	ldhu	r5,22(r17)
    2ebc:	210003cc 	andi	r4,r4,15
    2ec0:	2109883a 	add	r4,r4,r4
    2ec4:	2109883a 	add	r4,r4,r4
    2ec8:	21800904 	addi	r6,r4,36
    2ecc:	29bf7c36 	bltu	r5,r6,2cc0 <icmp_input+0xc0>
    2ed0:	10800304 	addi	r2,r2,12
    2ed4:	8885883a 	add	r2,r17,r2
    2ed8:	11800003 	ldbu	r6,0(r2)
    2edc:	318003cc 	andi	r6,r6,15
    2ee0:	318d883a 	add	r6,r6,r6
    2ee4:	318d883a 	add	r6,r6,r6
    2ee8:	2189883a 	add	r4,r4,r6
    2eec:	21000404 	addi	r4,r4,16
    2ef0:	293f7336 	bltu	r5,r4,2cc0 <icmp_input+0xc0>
    2ef4:	19000117 	ldw	r4,4(r3)
    2ef8:	11400417 	ldw	r5,16(r2)
    2efc:	01800404 	movi	r6,16
    2f00:	01c5dc04 	movi	r7,6000
    2f04:	0001a600 	call	1a60 <in4_rtredirect>
    2f08:	003f7406 	br	2cdc <icmp_input+0xdc>
    2f0c:	0001883a 	nop
    2f10:	0001883a 	nop
    2f14:	0001883a 	nop
    2f18:	0001883a 	nop
    2f1c:	0001883a 	nop

00002f20 <icmp_error>:
    2f20:	defff304 	addi	sp,sp,-52
    2f24:	dd400b15 	stw	r21,44(sp)
    2f28:	dc000615 	stw	r16,24(sp)
    2f2c:	dfc00c15 	stw	ra,48(sp)
    2f30:	dd000a15 	stw	r20,40(sp)
    2f34:	dcc00915 	stw	r19,36(sp)
    2f38:	dc800815 	stw	r18,32(sp)
    2f3c:	dc400715 	stw	r17,28(sp)
    2f40:	2c800503 	ldbu	r18,20(r5)
    2f44:	2c40000b 	ldhu	r17,0(r5)
    2f48:	008001c4 	movi	r2,7
    2f4c:	948003cc 	andi	r18,r18,15
    2f50:	94a5883a 	add	r18,r18,r18
    2f54:	94a5883a 	add	r18,r18,r18
    2f58:	8ca3c83a 	sub	r17,r17,r18
    2f5c:	2821883a 	mov	r16,r5
    2f60:	202b883a 	mov	r21,r4
    2f64:	1440012e 	bgeu	r2,r17,2f6c <icmp_error+0x4c>
    2f68:	04400204 	movi	r17,8
    2f6c:	80800817 	ldw	r2,32(r16)
    2f70:	8ca7883a 	add	r19,r17,r18
    2f74:	d8000015 	stw	zero,0(sp)
    2f78:	100a963a 	slli	r5,r2,24
    2f7c:	1006d63a 	srli	r3,r2,24
    2f80:	113fc00c 	andi	r4,r2,65280
    2f84:	2008923a 	slli	r4,r4,8
    2f88:	1004d23a 	srli	r2,r2,8
    2f8c:	1946b03a 	or	r3,r3,r5
    2f90:	1906b03a 	or	r3,r3,r4
    2f94:	10bfc00c 	andi	r2,r2,65280
    2f98:	1884b03a 	or	r2,r3,r2
    2f9c:	00c00044 	movi	r3,1
    2fa0:	d8c00115 	stw	r3,4(sp)
    2fa4:	00c01004 	movi	r3,64
    2fa8:	d8c00215 	stw	r3,8(sp)
    2fac:	00c40004 	movi	r3,4096
    2fb0:	d8c00315 	stw	r3,12(sp)
    2fb4:	d9000504 	addi	r4,sp,20
    2fb8:	99400204 	addi	r5,r19,8
    2fbc:	000d883a 	mov	r6,zero
    2fc0:	d9c00404 	addi	r7,sp,16
    2fc4:	d8800415 	stw	r2,16(sp)
    2fc8:	00014800 	call	1480 <in4_get_datagram>
    2fcc:	10000926 	beq	r2,zero,2ff4 <icmp_error+0xd4>
    2fd0:	dfc00c17 	ldw	ra,48(sp)
    2fd4:	dd400b17 	ldw	r21,44(sp)
    2fd8:	dd000a17 	ldw	r20,40(sp)
    2fdc:	dcc00917 	ldw	r19,36(sp)
    2fe0:	dc800817 	ldw	r18,32(sp)
    2fe4:	dc400717 	ldw	r17,28(sp)
    2fe8:	dc000617 	ldw	r16,24(sp)
    2fec:	dec00d04 	addi	sp,sp,52
    2ff0:	f800283a 	ret
    2ff4:	dd000517 	ldw	r20,20(sp)
    2ff8:	008000c4 	movi	r2,3
    2ffc:	81400504 	addi	r5,r16,20
    3000:	a5400a45 	stb	r21,41(r20)
    3004:	a0800a05 	stb	r2,40(r20)
    3008:	a0000b15 	stw	zero,44(r20)
    300c:	a1000c04 	addi	r4,r20,48
    3010:	980d883a 	mov	r6,r19
    3014:	000eafc0 	call	eafc <memcpy>
    3018:	8c0000c4 	addi	r16,r17,3
    301c:	00bfff04 	movi	r2,-4
    3020:	80a0703a 	and	r16,r16,r2
    3024:	a5400a04 	addi	r21,r20,40
    3028:	8c002036 	bltu	r17,r16,30ac <icmp_error+0x18c>
    302c:	91400204 	addi	r5,r18,8
    3030:	a809883a 	mov	r4,r21
    3034:	2c0b883a 	add	r5,r5,r16
    3038:	a0000a8d 	sth	zero,42(r20)
    303c:	00016e00 	call	16e0 <in_cksum>
    3040:	d9000517 	ldw	r4,20(sp)
    3044:	a0800a8d 	sth	r2,42(r20)
    3048:	00800074 	movhi	r2,1
    304c:	10834f04 	addi	r2,r2,3388
    3050:	20c00503 	ldbu	r3,20(r4)
    3054:	21c0000b 	ldhu	r7,0(r4)
    3058:	11800617 	ldw	r6,24(r2)
    305c:	18c003cc 	andi	r3,r3,15
    3060:	11400217 	ldw	r5,8(r2)
    3064:	18c7883a 	add	r3,r3,r3
    3068:	18c7883a 	add	r3,r3,r3
    306c:	39fffc04 	addi	r7,r7,-16
    3070:	38cfc83a 	sub	r7,r7,r3
    3074:	12400317 	ldw	r9,12(r2)
    3078:	12000717 	ldw	r8,28(r2)
    307c:	394b883a 	add	r5,r7,r5
    3080:	30c00044 	addi	r3,r6,1
    3084:	29cf803a 	cmpltu	r7,r5,r7
    3088:	198d803a 	cmpltu	r6,r3,r6
    308c:	3a4f883a 	add	r7,r7,r9
    3090:	320d883a 	add	r6,r6,r8
    3094:	11400215 	stw	r5,8(r2)
    3098:	11c00315 	stw	r7,12(r2)
    309c:	10c00615 	stw	r3,24(r2)
    30a0:	11800715 	stw	r6,28(r2)
    30a4:	00028000 	call	2800 <ip_output>
    30a8:	003fc906 	br	2fd0 <icmp_error+0xb0>
    30ac:	d9000517 	ldw	r4,20(sp)
    30b0:	9cc00c04 	addi	r19,r19,48
    30b4:	000b883a 	mov	r5,zero
    30b8:	24c9883a 	add	r4,r4,r19
    30bc:	844dc83a 	sub	r6,r16,r17
    30c0:	000ed1c0 	call	ed1c <memset>
    30c4:	003fd906 	br	302c <icmp_error+0x10c>
	...

000030e0 <if_slowtimo>:
    30e0:	deffff04 	addi	sp,sp,-4
    30e4:	dfc00015 	stw	ra,0(sp)
    30e8:	00042c00 	call	42c0 <tse_get_softc>
    30ec:	10c0018b 	ldhu	r3,6(r2)
    30f0:	193fffcc 	andi	r4,r3,65535
    30f4:	20000426 	beq	r4,zero,3108 <if_slowtimo+0x28>
    30f8:	18ffffc4 	addi	r3,r3,-1
    30fc:	10c0018d 	sth	r3,6(r2)
    3100:	18ffffcc 	andi	r3,r3,65535
    3104:	18000726 	beq	r3,zero,3124 <if_slowtimo+0x44>
    3108:	01000034 	movhi	r4,0
    310c:	210c3804 	addi	r4,r4,12512
    3110:	000b883a 	mov	r5,zero
    3114:	01800284 	movi	r6,10
    3118:	dfc00017 	ldw	ra,0(sp)
    311c:	dec00104 	addi	sp,sp,4
    3120:	0000f401 	jmpi	f40 <timeout>
    3124:	1009883a 	mov	r4,r2
    3128:	00042e00 	call	42e0 <tse_watchdog>
    312c:	01000034 	movhi	r4,0
    3130:	210c3804 	addi	r4,r4,12512
    3134:	000b883a 	mov	r5,zero
    3138:	01800284 	movi	r6,10
    313c:	dfc00017 	ldw	ra,0(sp)
    3140:	dec00104 	addi	sp,sp,4
    3144:	0000f401 	jmpi	f40 <timeout>
    3148:	0001883a 	nop
    314c:	0001883a 	nop
    3150:	0001883a 	nop
    3154:	0001883a 	nop
    3158:	0001883a 	nop
    315c:	0001883a 	nop

00003160 <ifinit>:
    3160:	01000034 	movhi	r4,0
    3164:	210c3804 	addi	r4,r4,12512
    3168:	000b883a 	mov	r5,zero
    316c:	01800284 	movi	r6,10
    3170:	0000f401 	jmpi	f40 <timeout>
	...

00003180 <ether_get_ifnet>:
    3180:	00800074 	movhi	r2,1
    3184:	1082cb04 	addi	r2,r2,2860
    3188:	f800283a 	ret
    318c:	0001883a 	nop
    3190:	0001883a 	nop
    3194:	0001883a 	nop
    3198:	0001883a 	nop
    319c:	0001883a 	nop

000031a0 <ether_raw_output>:
    31a0:	defffd04 	addi	sp,sp,-12
    31a4:	dc000015 	stw	r16,0(sp)
    31a8:	200b883a 	mov	r5,r4
    31ac:	2021883a 	mov	r16,r4
    31b0:	0009883a 	mov	r4,zero
    31b4:	dc400115 	stw	r17,4(sp)
    31b8:	dfc00215 	stw	ra,8(sp)
    31bc:	00079000 	call	7900 <ethernet_snd_dtq>
    31c0:	1023883a 	mov	r17,r2
    31c4:	10001c26 	beq	r2,zero,3238 <ether_raw_output+0x98>
    31c8:	00c00074 	movhi	r3,1
    31cc:	18c3a704 	addi	r3,r3,3740
    31d0:	19000a17 	ldw	r4,40(r3)
    31d4:	19400b17 	ldw	r5,44(r3)
    31d8:	20800044 	addi	r2,r4,1
    31dc:	1109803a 	cmpltu	r4,r2,r4
    31e0:	2149883a 	add	r4,r4,r5
    31e4:	18800a15 	stw	r2,40(r3)
    31e8:	19000b15 	stw	r4,44(r3)
    31ec:	808000c3 	ldbu	r2,3(r16)
    31f0:	10c03fcc 	andi	r3,r2,255
    31f4:	18c0201c 	xori	r3,r3,128
    31f8:	18ffe004 	addi	r3,r3,-128
    31fc:	18000b16 	blt	r3,zero,322c <ether_raw_output+0x8c>
    3200:	8009883a 	mov	r4,r16
    3204:	0000a800 	call	a80 <rel_net_buf>
    3208:	00042c00 	call	42c0 <tse_get_softc>
    320c:	1009883a 	mov	r4,r2
    3210:	00042400 	call	4240 <tse_reset>
    3214:	8805883a 	mov	r2,r17
    3218:	dfc00217 	ldw	ra,8(sp)
    321c:	dc400117 	ldw	r17,4(sp)
    3220:	dc000017 	ldw	r16,0(sp)
    3224:	dec00304 	addi	sp,sp,12
    3228:	f800283a 	ret
    322c:	10801fcc 	andi	r2,r2,127
    3230:	808000c5 	stb	r2,3(r16)
    3234:	003ff406 	br	3208 <ether_raw_output+0x68>
    3238:	0009883a 	mov	r4,zero
    323c:	01400044 	movi	r5,1
    3240:	000c5c00 	call	c5c0 <SetEvent>
    3244:	8805883a 	mov	r2,r17
    3248:	dfc00217 	ldw	ra,8(sp)
    324c:	dc400117 	ldw	r17,4(sp)
    3250:	dc000017 	ldw	r16,0(sp)
    3254:	dec00304 	addi	sp,sp,12
    3258:	f800283a 	ret
    325c:	0001883a 	nop

00003260 <ether_output>:
    3260:	defffd04 	addi	sp,sp,-12
    3264:	dc400115 	stw	r17,4(sp)
    3268:	dc000015 	stw	r16,0(sp)
    326c:	dfc00215 	stw	ra,8(sp)
    3270:	2021883a 	mov	r16,r4
    3274:	2823883a 	mov	r17,r5
    3278:	00042c00 	call	42c0 <tse_get_softc>
    327c:	11000003 	ldbu	r4,0(r2)
    3280:	80c00304 	addi	r3,r16,12
    3284:	19000005 	stb	r4,0(r3)
    3288:	11000043 	ldbu	r4,1(r2)
    328c:	80c004c3 	ldbu	r3,19(r16)
    3290:	81000345 	stb	r4,13(r16)
    3294:	11000083 	ldbu	r4,2(r2)
    3298:	1806923a 	slli	r3,r3,8
    329c:	81000385 	stb	r4,14(r16)
    32a0:	110000c3 	ldbu	r4,3(r2)
    32a4:	810003c5 	stb	r4,15(r16)
    32a8:	11000103 	ldbu	r4,4(r2)
    32ac:	81000405 	stb	r4,16(r16)
    32b0:	11000143 	ldbu	r4,5(r2)
    32b4:	81000445 	stb	r4,17(r16)
    32b8:	81000483 	ldbu	r4,18(r16)
    32bc:	1906b03a 	or	r3,r3,r4
    32c0:	1808923a 	slli	r4,r3,8
    32c4:	1806d23a 	srli	r3,r3,8
    32c8:	20c6b03a 	or	r3,r4,r3
    32cc:	18ffffcc 	andi	r3,r3,65535
    32d0:	01020004 	movi	r4,2048
    32d4:	19001926 	beq	r3,r4,333c <ether_output+0xdc>
    32d8:	808000c3 	ldbu	r2,3(r16)
    32dc:	10c03fcc 	andi	r3,r2,255
    32e0:	18c0201c 	xori	r3,r3,128
    32e4:	18ffe004 	addi	r3,r3,-128
    32e8:	18001116 	blt	r3,zero,3330 <ether_output+0xd0>
    32ec:	8009883a 	mov	r4,r16
    32f0:	0000a800 	call	a80 <rel_net_buf>
    32f4:	00bffbc4 	movi	r2,-17
    32f8:	00c00074 	movhi	r3,1
    32fc:	18c3a704 	addi	r3,r3,3740
    3300:	19400a17 	ldw	r5,40(r3)
    3304:	19800b17 	ldw	r6,44(r3)
    3308:	29000044 	addi	r4,r5,1
    330c:	214b803a 	cmpltu	r5,r4,r5
    3310:	298b883a 	add	r5,r5,r6
    3314:	19000a15 	stw	r4,40(r3)
    3318:	19400b15 	stw	r5,44(r3)
    331c:	dfc00217 	ldw	ra,8(sp)
    3320:	dc400117 	ldw	r17,4(sp)
    3324:	dc000017 	ldw	r16,0(sp)
    3328:	dec00304 	addi	sp,sp,12
    332c:	f800283a 	ret
    3330:	10801fcc 	andi	r2,r2,127
    3334:	808000c5 	stb	r2,3(r16)
    3338:	003fee06 	br	32f4 <ether_output+0x94>
    333c:	89800017 	ldw	r6,0(r17)
    3340:	1009883a 	mov	r4,r2
    3344:	800b883a 	mov	r5,r16
    3348:	0003d200 	call	3d20 <arp_resolve>
    334c:	10803fcc 	andi	r2,r2,255
    3350:	1000061e 	bne	r2,zero,336c <ether_output+0x10c>
    3354:	0005883a 	mov	r2,zero
    3358:	dfc00217 	ldw	ra,8(sp)
    335c:	dc400117 	ldw	r17,4(sp)
    3360:	dc000017 	ldw	r16,0(sp)
    3364:	dec00304 	addi	sp,sp,12
    3368:	f800283a 	ret
    336c:	8009883a 	mov	r4,r16
    3370:	00031a00 	call	31a0 <ether_raw_output>
    3374:	103fe926 	beq	r2,zero,331c <ether_output+0xbc>
    3378:	003fdf06 	br	32f8 <ether_output+0x98>
    337c:	0001883a 	nop

00003380 <TaskMainETHER_OUTPUT_TASK>:
    3380:	defffb04 	addi	sp,sp,-20
    3384:	d809883a 	mov	r4,sp
    3388:	dfc00415 	stw	ra,16(sp)
    338c:	dc400315 	stw	r17,12(sp)
    3390:	dc000215 	stw	r16,8(sp)
    3394:	000c1c00 	call	c1c0 <GetTaskID>
    3398:	d9800017 	ldw	r6,0(sp)
    339c:	01000144 	movi	r4,5
    33a0:	01400074 	movhi	r5,1
    33a4:	297c8004 	addi	r5,r5,-3584
    33a8:	00080400 	call	8040 <syslog>
    33ac:	00042c00 	call	42c0 <tse_get_softc>
    33b0:	1023883a 	mov	r17,r2
    33b4:	04000074 	movhi	r16,1
    33b8:	8403a704 	addi	r16,r16,3740
    33bc:	0009883a 	mov	r4,zero
    33c0:	d9400104 	addi	r5,sp,4
    33c4:	00079200 	call	7920 <ethernet_rcv_dtq>
    33c8:	01000044 	movi	r4,1
    33cc:	10000826 	beq	r2,zero,33f0 <TaskMainETHER_OUTPUT_TASK+0x70>
    33d0:	000cc600 	call	cc60 <WaitEvent>
    33d4:	01000044 	movi	r4,1
    33d8:	000c8200 	call	c820 <ClearEvent>
    33dc:	0009883a 	mov	r4,zero
    33e0:	d9400104 	addi	r5,sp,4
    33e4:	00079200 	call	7920 <ethernet_rcv_dtq>
    33e8:	01000044 	movi	r4,1
    33ec:	103ff81e 	bne	r2,zero,33d0 <TaskMainETHER_OUTPUT_TASK+0x50>
    33f0:	d8800117 	ldw	r2,4(sp)
    33f4:	81000617 	ldw	r4,24(r16)
    33f8:	80c00217 	ldw	r3,8(r16)
    33fc:	1140000b 	ldhu	r5,0(r2)
    3400:	81c00317 	ldw	r7,12(r16)
    3404:	81800717 	ldw	r6,28(r16)
    3408:	28c7883a 	add	r3,r5,r3
    340c:	20800044 	addi	r2,r4,1
    3410:	194b803a 	cmpltu	r5,r3,r5
    3414:	1109803a 	cmpltu	r4,r2,r4
    3418:	29cb883a 	add	r5,r5,r7
    341c:	2189883a 	add	r4,r4,r6
    3420:	81400315 	stw	r5,12(r16)
    3424:	80c00215 	stw	r3,8(r16)
    3428:	80800615 	stw	r2,24(r16)
    342c:	81000715 	stw	r4,28(r16)
    3430:	89000317 	ldw	r4,12(r17)
    3434:	000cc600 	call	cc60 <WaitEvent>
    3438:	89000317 	ldw	r4,12(r17)
    343c:	000c8200 	call	c820 <ClearEvent>
    3440:	d9400117 	ldw	r5,4(sp)
    3444:	8809883a 	mov	r4,r17
    3448:	00045c00 	call	45c0 <tse_start>
    344c:	003fdb06 	br	33bc <TaskMainETHER_OUTPUT_TASK+0x3c>
    3450:	0001883a 	nop
    3454:	0001883a 	nop
    3458:	0001883a 	nop
    345c:	0001883a 	nop

00003460 <TaskMainETHER_INPUT_TASK>:
    3460:	defff904 	addi	sp,sp,-28
    3464:	dfc00615 	stw	ra,24(sp)
    3468:	dd000515 	stw	r20,20(sp)
    346c:	dcc00415 	stw	r19,16(sp)
    3470:	dc800315 	stw	r18,12(sp)
    3474:	dc400215 	stw	r17,8(sp)
    3478:	dc000115 	stw	r16,4(sp)
    347c:	00031600 	call	3160 <ifinit>
    3480:	00042c00 	call	42c0 <tse_get_softc>
    3484:	1009883a 	mov	r4,r2
    3488:	1021883a 	mov	r16,r2
    348c:	00043400 	call	4340 <tse_probe>
    3490:	8009883a 	mov	r4,r16
    3494:	00043800 	call	4380 <tse_init>
    3498:	0009883a 	mov	r4,zero
    349c:	000b9600 	call	b960 <ActivateTask>
    34a0:	81400317 	ldw	r5,12(r16)
    34a4:	0009883a 	mov	r4,zero
    34a8:	04400074 	movhi	r17,1
    34ac:	8c43a704 	addi	r17,r17,3740
    34b0:	000c5c00 	call	c5c0 <SetEvent>
    34b4:	01000084 	movi	r4,2
    34b8:	000b9600 	call	b960 <ActivateTask>
    34bc:	d809883a 	mov	r4,sp
    34c0:	000c1c00 	call	c1c0 <GetTaskID>
    34c4:	dc800017 	ldw	r18,0(sp)
    34c8:	0009883a 	mov	r4,zero
    34cc:	800b883a 	mov	r5,r16
    34d0:	0000d400 	call	d40 <mac2str>
    34d4:	900d883a 	mov	r6,r18
    34d8:	100f883a 	mov	r7,r2
    34dc:	01000144 	movi	r4,5
    34e0:	01400074 	movhi	r5,1
    34e4:	297c8704 	addi	r5,r5,-3556
    34e8:	00080400 	call	8040 <syslog>
    34ec:	0003ee00 	call	3ee0 <arp_init>
    34f0:	00800074 	movhi	r2,1
    34f4:	1082cb04 	addi	r2,r2,2860
    34f8:	14000015 	stw	r16,0(r2)
    34fc:	8825883a 	mov	r18,r17
    3500:	04c20004 	movi	r19,2048
    3504:	05020184 	movi	r20,2054
    3508:	81000417 	ldw	r4,16(r16)
    350c:	000cc600 	call	cc60 <WaitEvent>
    3510:	81000417 	ldw	r4,16(r16)
    3514:	000c8200 	call	c820 <ClearEvent>
    3518:	8009883a 	mov	r4,r16
    351c:	00043c00 	call	43c0 <tse_read>
    3520:	103ff926 	beq	r2,zero,3508 <TaskMainETHER_INPUT_TASK+0xa8>
    3524:	1180000b 	ldhu	r6,0(r2)
    3528:	89400417 	ldw	r5,16(r17)
    352c:	89000017 	ldw	r4,0(r17)
    3530:	8a000117 	ldw	r8,4(r17)
    3534:	89c00517 	ldw	r7,20(r17)
    3538:	3109883a 	add	r4,r6,r4
    353c:	28c00044 	addi	r3,r5,1
    3540:	218d803a 	cmpltu	r6,r4,r6
    3544:	194b803a 	cmpltu	r5,r3,r5
    3548:	29cb883a 	add	r5,r5,r7
    354c:	320d883a 	add	r6,r6,r8
    3550:	89000015 	stw	r4,0(r17)
    3554:	89800115 	stw	r6,4(r17)
    3558:	88c00415 	stw	r3,16(r17)
    355c:	89400515 	stw	r5,20(r17)
    3560:	10c004c3 	ldbu	r3,19(r2)
    3564:	11400483 	ldbu	r5,18(r2)
    3568:	1009883a 	mov	r4,r2
    356c:	1806923a 	slli	r3,r3,8
    3570:	1946b03a 	or	r3,r3,r5
    3574:	180a923a 	slli	r5,r3,8
    3578:	1806d23a 	srli	r3,r3,8
    357c:	28c6b03a 	or	r3,r5,r3
    3580:	18ffffcc 	andi	r3,r3,65535
    3584:	1cc00a26 	beq	r3,r19,35b0 <TaskMainETHER_INPUT_TASK+0x150>
    3588:	1d000c26 	beq	r3,r20,35bc <TaskMainETHER_INPUT_TASK+0x15c>
    358c:	90c00817 	ldw	r3,32(r18)
    3590:	91400917 	ldw	r5,36(r18)
    3594:	18800044 	addi	r2,r3,1
    3598:	10c7803a 	cmpltu	r3,r2,r3
    359c:	1947883a 	add	r3,r3,r5
    35a0:	90800815 	stw	r2,32(r18)
    35a4:	90c00915 	stw	r3,36(r18)
    35a8:	0000a800 	call	a80 <rel_net_buf>
    35ac:	003fd606 	br	3508 <TaskMainETHER_INPUT_TASK+0xa8>
    35b0:	1009883a 	mov	r4,r2
    35b4:	00020400 	call	2040 <ip_input>
    35b8:	003fd306 	br	3508 <TaskMainETHER_INPUT_TASK+0xa8>
    35bc:	8009883a 	mov	r4,r16
    35c0:	100b883a 	mov	r5,r2
    35c4:	0003a200 	call	3a20 <arp_input>
    35c8:	003fcf06 	br	3508 <TaskMainETHER_INPUT_TASK+0xa8>
	...

000035e0 <arp_timer>:
    35e0:	defff904 	addi	sp,sp,-28
    35e4:	dc000015 	stw	r16,0(sp)
    35e8:	010000c4 	movi	r4,3
    35ec:	04000074 	movhi	r16,1
    35f0:	84040404 	addi	r16,r16,4112
    35f4:	dd400515 	stw	r21,20(sp)
    35f8:	dd000415 	stw	r20,16(sp)
    35fc:	dcc00315 	stw	r19,12(sp)
    3600:	dc800215 	stw	r18,8(sp)
    3604:	dc400115 	stw	r17,4(sp)
    3608:	dfc00615 	stw	ra,24(sp)
    360c:	84bffe04 	addi	r18,r16,-8
    3610:	000d0400 	call	d040 <GetResource>
    3614:	04400244 	movi	r17,9
    3618:	857fda04 	addi	r21,r16,-152
    361c:	05000074 	movhi	r20,1
    3620:	a5035b04 	addi	r20,r20,3436
    3624:	04ffffc4 	movi	r19,-1
    3628:	8080000b 	ldhu	r2,0(r16)
    362c:	10ff6a04 	addi	r3,r2,-600
    3630:	10bfffcc 	andi	r2,r2,65535
    3634:	193fffcc 	andi	r4,r3,65535
    3638:	10001326 	beq	r2,zero,3688 <arp_timer+0xa8>
    363c:	80c0000d 	sth	r3,0(r16)
    3640:	2000111e 	bne	r4,zero,3688 <arp_timer+0xa8>
    3644:	90800017 	ldw	r2,0(r18)
    3648:	1009883a 	mov	r4,r2
    364c:	10000826 	beq	r2,zero,3670 <arp_timer+0x90>
    3650:	a0c00417 	ldw	r3,16(r20)
    3654:	a1400517 	ldw	r5,20(r20)
    3658:	18800044 	addi	r2,r3,1
    365c:	10c7803a 	cmpltu	r3,r2,r3
    3660:	1947883a 	add	r3,r3,r5
    3664:	a0800415 	stw	r2,16(r20)
    3668:	a0c00515 	stw	r3,20(r20)
    366c:	0000a800 	call	a80 <rel_net_buf>
    3670:	8804913a 	slli	r2,r17,4
    3674:	1545883a 	add	r2,r2,r21
    3678:	10000015 	stw	zero,0(r2)
    367c:	10000115 	stw	zero,4(r2)
    3680:	10000215 	stw	zero,8(r2)
    3684:	10000315 	stw	zero,12(r2)
    3688:	8c7fffc4 	addi	r17,r17,-1
    368c:	843ffc04 	addi	r16,r16,-16
    3690:	94bffc04 	addi	r18,r18,-16
    3694:	8cffe41e 	bne	r17,r19,3628 <arp_timer+0x48>
    3698:	010000c4 	movi	r4,3
    369c:	000d3e00 	call	d3e0 <ReleaseResource>
    36a0:	01000034 	movhi	r4,0
    36a4:	210d7804 	addi	r4,r4,13792
    36a8:	000b883a 	mov	r5,zero
    36ac:	01809604 	movi	r6,600
    36b0:	dfc00617 	ldw	ra,24(sp)
    36b4:	dd400517 	ldw	r21,20(sp)
    36b8:	dd000417 	ldw	r20,16(sp)
    36bc:	dcc00317 	ldw	r19,12(sp)
    36c0:	dc800217 	ldw	r18,8(sp)
    36c4:	dc400117 	ldw	r17,4(sp)
    36c8:	dc000017 	ldw	r16,0(sp)
    36cc:	dec00704 	addi	sp,sp,28
    36d0:	0000f401 	jmpi	f40 <timeout>
    36d4:	0001883a 	nop
    36d8:	0001883a 	nop
    36dc:	0001883a 	nop

000036e0 <arp_lookup.constprop.1>:
    36e0:	defffc04 	addi	sp,sp,-16
    36e4:	dc000015 	stw	r16,0(sp)
    36e8:	04000074 	movhi	r16,1
    36ec:	84040404 	addi	r16,r16,4112
    36f0:	dc800215 	stw	r18,8(sp)
    36f4:	dfc00315 	stw	ra,12(sp)
    36f8:	dc400115 	stw	r17,4(sp)
    36fc:	2025883a 	mov	r18,r4
    3700:	817fff04 	addi	r5,r16,-4
    3704:	8005883a 	mov	r2,r16
    3708:	00c00244 	movi	r3,9
    370c:	01ffffc4 	movi	r7,-1
    3710:	1180000b 	ldhu	r6,0(r2)
    3714:	10bffc04 	addi	r2,r2,-16
    3718:	30000226 	beq	r6,zero,3724 <arp_lookup.constprop.1+0x44>
    371c:	29800017 	ldw	r6,0(r5)
    3720:	34803426 	beq	r6,r18,37f4 <arp_lookup.constprop.1+0x114>
    3724:	18ffffc4 	addi	r3,r3,-1
    3728:	297ffc04 	addi	r5,r5,-16
    372c:	19fff81e 	bne	r3,r7,3710 <arp_lookup.constprop.1+0x30>
    3730:	00800074 	movhi	r2,1
    3734:	10840404 	addi	r2,r2,4112
    3738:	04400244 	movi	r17,9
    373c:	013fffc4 	movi	r4,-1
    3740:	10c0000b 	ldhu	r3,0(r2)
    3744:	10bffc04 	addi	r2,r2,-16
    3748:	18001f26 	beq	r3,zero,37c8 <arp_lookup.constprop.1+0xe8>
    374c:	8c7fffc4 	addi	r17,r17,-1
    3750:	893ffb1e 	bne	r17,r4,3740 <arp_lookup.constprop.1+0x60>
    3754:	01000144 	movi	r4,5
    3758:	01400074 	movhi	r5,1
    375c:	297c9204 	addi	r5,r5,-3512
    3760:	01800284 	movi	r6,10
    3764:	00080400 	call	8040 <syslog>
    3768:	01c00284 	movi	r7,10
    376c:	00800244 	movi	r2,9
    3770:	013fffc4 	movi	r4,-1
    3774:	80c0000b 	ldhu	r3,0(r16)
    3778:	897fffcc 	andi	r5,r17,65535
    377c:	843ffc04 	addi	r16,r16,-16
    3780:	19bfffcc 	andi	r6,r3,65535
    3784:	3140022e 	bgeu	r6,r5,3790 <arp_lookup.constprop.1+0xb0>
    3788:	100f883a 	mov	r7,r2
    378c:	1823883a 	mov	r17,r3
    3790:	10bfffc4 	addi	r2,r2,-1
    3794:	113ff71e 	bne	r2,r4,3774 <arp_lookup.constprop.1+0x94>
    3798:	380e913a 	slli	r7,r7,4
    379c:	00800074 	movhi	r2,1
    37a0:	1083de04 	addi	r2,r2,3960
    37a4:	11c5883a 	add	r2,r2,r7
    37a8:	1000020d 	sth	zero,8(r2)
    37ac:	14800115 	stw	r18,4(r2)
    37b0:	dfc00317 	ldw	ra,12(sp)
    37b4:	dc800217 	ldw	r18,8(sp)
    37b8:	dc400117 	ldw	r17,4(sp)
    37bc:	dc000017 	ldw	r16,0(sp)
    37c0:	dec00404 	addi	sp,sp,16
    37c4:	f800283a 	ret
    37c8:	8822913a 	slli	r17,r17,4
    37cc:	00800074 	movhi	r2,1
    37d0:	1083de04 	addi	r2,r2,3960
    37d4:	1445883a 	add	r2,r2,r17
    37d8:	14800115 	stw	r18,4(r2)
    37dc:	dfc00317 	ldw	ra,12(sp)
    37e0:	dc800217 	ldw	r18,8(sp)
    37e4:	dc400117 	ldw	r17,4(sp)
    37e8:	dc000017 	ldw	r16,0(sp)
    37ec:	dec00404 	addi	sp,sp,16
    37f0:	f800283a 	ret
    37f4:	1806913a 	slli	r3,r3,4
    37f8:	00800074 	movhi	r2,1
    37fc:	1083de04 	addi	r2,r2,3960
    3800:	1885883a 	add	r2,r3,r2
    3804:	dfc00317 	ldw	ra,12(sp)
    3808:	dc800217 	ldw	r18,8(sp)
    380c:	dc400117 	ldw	r17,4(sp)
    3810:	dc000017 	ldw	r16,0(sp)
    3814:	dec00404 	addi	sp,sp,16
    3818:	f800283a 	ret
    381c:	0001883a 	nop

00003820 <arp_request>:
    3820:	defff904 	addi	sp,sp,-28
    3824:	dc000315 	stw	r16,12(sp)
    3828:	04000074 	movhi	r16,1
    382c:	84038304 	addi	r16,r16,3596
    3830:	81c00217 	ldw	r7,8(r16)
    3834:	81800617 	ldw	r6,24(r16)
    3838:	82400317 	ldw	r9,12(r16)
    383c:	82000717 	ldw	r8,28(r16)
    3840:	38c00704 	addi	r3,r7,28
    3844:	30800044 	addi	r2,r6,1
    3848:	19cf803a 	cmpltu	r7,r3,r7
    384c:	118d803a 	cmpltu	r6,r2,r6
    3850:	dc400415 	stw	r17,16(sp)
    3854:	d9400215 	stw	r5,8(sp)
    3858:	3a4f883a 	add	r7,r7,r9
    385c:	320d883a 	add	r6,r6,r8
    3860:	2023883a 	mov	r17,r4
    3864:	01400b04 	movi	r5,44
    3868:	d809883a 	mov	r4,sp
    386c:	dfc00615 	stw	ra,24(sp)
    3870:	dc800515 	stw	r18,20(sp)
    3874:	80c00215 	stw	r3,8(r16)
    3878:	81c00315 	stw	r7,12(r16)
    387c:	80800615 	stw	r2,24(r16)
    3880:	81800715 	stw	r6,28(r16)
    3884:	0000a600 	call	a60 <get_net_buf>
    3888:	10000d26 	beq	r2,zero,38c0 <arp_request+0xa0>
    388c:	81000a17 	ldw	r4,40(r16)
    3890:	81400b17 	ldw	r5,44(r16)
    3894:	20c00044 	addi	r3,r4,1
    3898:	1909803a 	cmpltu	r4,r3,r4
    389c:	2149883a 	add	r4,r4,r5
    38a0:	80c00a15 	stw	r3,40(r16)
    38a4:	81000b15 	stw	r4,44(r16)
    38a8:	dfc00617 	ldw	ra,24(sp)
    38ac:	dc800517 	ldw	r18,20(sp)
    38b0:	dc400417 	ldw	r17,16(sp)
    38b4:	dc000317 	ldw	r16,12(sp)
    38b8:	dec00704 	addi	sp,sp,28
    38bc:	f800283a 	ret
    38c0:	00c00074 	movhi	r3,1
    38c4:	18c2ff04 	addi	r3,r3,3068
    38c8:	d8800017 	ldw	r2,0(sp)
    38cc:	1a000003 	ldbu	r8,0(r3)
    38d0:	19c00043 	ldbu	r7,1(r3)
    38d4:	19800083 	ldbu	r6,2(r3)
    38d8:	194000c3 	ldbu	r5,3(r3)
    38dc:	19000103 	ldbu	r4,4(r3)
    38e0:	18c00143 	ldbu	r3,5(r3)
    38e4:	12000185 	stb	r8,6(r2)
    38e8:	11800205 	stb	r6,8(r2)
    38ec:	11400245 	stb	r5,9(r2)
    38f0:	10c002c5 	stb	r3,11(r2)
    38f4:	11c001c5 	stb	r7,7(r2)
    38f8:	11000285 	stb	r4,10(r2)
    38fc:	89000003 	ldbu	r4,0(r17)
    3900:	10c00304 	addi	r3,r2,12
    3904:	01800204 	movi	r6,8
    3908:	19000005 	stb	r4,0(r3)
    390c:	89c00043 	ldbu	r7,1(r17)
    3910:	01400184 	movi	r5,6
    3914:	01004004 	movi	r4,256
    3918:	11c00345 	stb	r7,13(r2)
    391c:	89c00083 	ldbu	r7,2(r17)
    3920:	11c00385 	stb	r7,14(r2)
    3924:	89c000c3 	ldbu	r7,3(r17)
    3928:	11c003c5 	stb	r7,15(r2)
    392c:	89c00103 	ldbu	r7,4(r17)
    3930:	11c00405 	stb	r7,16(r2)
    3934:	89c00143 	ldbu	r7,5(r17)
    3938:	11800485 	stb	r6,18(r2)
    393c:	114004c5 	stb	r5,19(r2)
    3940:	dc800017 	ldw	r18,0(sp)
    3944:	11c00445 	stb	r7,17(r2)
    3948:	00800104 	movi	r2,4
    394c:	9100050d 	sth	r4,20(r18)
    3950:	9180058d 	sth	r6,22(r18)
    3954:	91400605 	stb	r5,24(r18)
    3958:	9100068d 	sth	r4,26(r18)
    395c:	90800645 	stb	r2,25(r18)
    3960:	00031800 	call	3180 <ether_get_ifnet>
    3964:	89000003 	ldbu	r4,0(r17)
    3968:	90c00704 	addi	r3,r18,28
    396c:	11c00117 	ldw	r7,4(r2)
    3970:	19000005 	stb	r4,0(r3)
    3974:	89400043 	ldbu	r5,1(r17)
    3978:	90800984 	addi	r2,r18,38
    397c:	91000884 	addi	r4,r18,34
    3980:	91400745 	stb	r5,29(r18)
    3984:	89800083 	ldbu	r6,2(r17)
    3988:	d9c00115 	stw	r7,4(sp)
    398c:	d9400104 	addi	r5,sp,4
    3990:	91800785 	stb	r6,30(r18)
    3994:	898000c3 	ldbu	r6,3(r17)
    3998:	918007c5 	stb	r6,31(r18)
    399c:	89800103 	ldbu	r6,4(r17)
    39a0:	91800805 	stb	r6,32(r18)
    39a4:	89800143 	ldbu	r6,5(r17)
    39a8:	91800845 	stb	r6,33(r18)
    39ac:	10000005 	stb	zero,0(r2)
    39b0:	900009c5 	stb	zero,39(r18)
    39b4:	90000a05 	stb	zero,40(r18)
    39b8:	90000a45 	stb	zero,41(r18)
    39bc:	90000a85 	stb	zero,42(r18)
    39c0:	90000ac5 	stb	zero,43(r18)
    39c4:	0000ec00 	call	ec0 <rev_memcpy_word>
    39c8:	91000b04 	addi	r4,r18,44
    39cc:	d9400204 	addi	r5,sp,8
    39d0:	0000ec00 	call	ec0 <rev_memcpy_word>
    39d4:	d9000017 	ldw	r4,0(sp)
    39d8:	00031a00 	call	31a0 <ether_raw_output>
    39dc:	103fab1e 	bne	r2,zero,388c <arp_request+0x6c>
    39e0:	dfc00617 	ldw	ra,24(sp)
    39e4:	dc800517 	ldw	r18,20(sp)
    39e8:	dc400417 	ldw	r17,16(sp)
    39ec:	dc000317 	ldw	r16,12(sp)
    39f0:	dec00704 	addi	sp,sp,28
    39f4:	f800283a 	ret
    39f8:	0001883a 	nop
    39fc:	0001883a 	nop

00003a00 <arp_get_cache>:
    3a00:	00800074 	movhi	r2,1
    3a04:	1083de04 	addi	r2,r2,3960
    3a08:	f800283a 	ret
    3a0c:	0001883a 	nop
    3a10:	0001883a 	nop
    3a14:	0001883a 	nop
    3a18:	0001883a 	nop
    3a1c:	0001883a 	nop

00003a20 <arp_input>:
    3a20:	defff604 	addi	sp,sp,-40
    3a24:	dc800415 	stw	r18,16(sp)
    3a28:	dc400315 	stw	r17,12(sp)
    3a2c:	dc000215 	stw	r16,8(sp)
    3a30:	dfc00915 	stw	ra,36(sp)
    3a34:	dd800815 	stw	r22,32(sp)
    3a38:	dd400715 	stw	r21,28(sp)
    3a3c:	dd000615 	stw	r20,24(sp)
    3a40:	dcc00515 	stw	r19,20(sp)
    3a44:	04000074 	movhi	r16,1
    3a48:	84038304 	addi	r16,r16,3596
    3a4c:	2980000b 	ldhu	r6,0(r5)
    3a50:	2823883a 	mov	r17,r5
    3a54:	80c00017 	ldw	r3,0(r16)
    3a58:	81400417 	ldw	r5,16(r16)
    3a5c:	31bffc04 	addi	r6,r6,-16
    3a60:	82000117 	ldw	r8,4(r16)
    3a64:	81c00517 	ldw	r7,20(r16)
    3a68:	30c7883a 	add	r3,r6,r3
    3a6c:	28800044 	addi	r2,r5,1
    3a70:	198d803a 	cmpltu	r6,r3,r6
    3a74:	114b803a 	cmpltu	r5,r2,r5
    3a78:	320d883a 	add	r6,r6,r8
    3a7c:	29cb883a 	add	r5,r5,r7
    3a80:	80800415 	stw	r2,16(r16)
    3a84:	80c00015 	stw	r3,0(r16)
    3a88:	81800115 	stw	r6,4(r16)
    3a8c:	81400515 	stw	r5,20(r16)
    3a90:	88c0000b 	ldhu	r3,0(r17)
    3a94:	008005c4 	movi	r2,23
    3a98:	2025883a 	mov	r18,r4
    3a9c:	10c0092e 	bgeu	r2,r3,3ac4 <arp_input+0xa4>
    3aa0:	8880050b 	ldhu	r2,20(r17)
    3aa4:	100c923a 	slli	r6,r2,8
    3aa8:	1004d23a 	srli	r2,r2,8
    3aac:	3084b03a 	or	r2,r6,r2
    3ab0:	10bfffcc 	andi	r2,r2,65535
    3ab4:	10a0001c 	xori	r2,r2,32768
    3ab8:	10a00004 	addi	r2,r2,-32768
    3abc:	01800044 	movi	r6,1
    3ac0:	11801326 	beq	r2,r6,3b10 <arp_input+0xf0>
    3ac4:	80c00817 	ldw	r3,32(r16)
    3ac8:	81400917 	ldw	r5,36(r16)
    3acc:	8809883a 	mov	r4,r17
    3ad0:	18800044 	addi	r2,r3,1
    3ad4:	10c7803a 	cmpltu	r3,r2,r3
    3ad8:	1947883a 	add	r3,r3,r5
    3adc:	80800815 	stw	r2,32(r16)
    3ae0:	80c00915 	stw	r3,36(r16)
    3ae4:	0000a800 	call	a80 <rel_net_buf>
    3ae8:	dfc00917 	ldw	ra,36(sp)
    3aec:	dd800817 	ldw	r22,32(sp)
    3af0:	dd400717 	ldw	r21,28(sp)
    3af4:	dd000617 	ldw	r20,24(sp)
    3af8:	dcc00517 	ldw	r19,20(sp)
    3afc:	dc800417 	ldw	r18,16(sp)
    3b00:	dc400317 	ldw	r17,12(sp)
    3b04:	dc000217 	ldw	r16,8(sp)
    3b08:	dec00a04 	addi	sp,sp,40
    3b0c:	f800283a 	ret
    3b10:	8880058b 	ldhu	r2,22(r17)
    3b14:	1008923a 	slli	r4,r2,8
    3b18:	1004d23a 	srli	r2,r2,8
    3b1c:	2084b03a 	or	r2,r4,r2
    3b20:	10bfffcc 	andi	r2,r2,65535
    3b24:	10a0001c 	xori	r2,r2,32768
    3b28:	10a00004 	addi	r2,r2,-32768
    3b2c:	01020004 	movi	r4,2048
    3b30:	113fe41e 	bne	r2,r4,3ac4 <arp_input+0xa4>
    3b34:	00800ac4 	movi	r2,43
    3b38:	10ffe22e 	bgeu	r2,r3,3ac4 <arp_input+0xa4>
    3b3c:	00031800 	call	3180 <ether_get_ifnet>
    3b40:	8d000884 	addi	r20,r17,34
    3b44:	d9000104 	addi	r4,sp,4
    3b48:	a00b883a 	mov	r5,r20
    3b4c:	102d883a 	mov	r22,r2
    3b50:	8d400b04 	addi	r21,r17,44
    3b54:	0000ec00 	call	ec0 <rev_memcpy_word>
    3b58:	d809883a 	mov	r4,sp
    3b5c:	a80b883a 	mov	r5,r21
    3b60:	0000ec00 	call	ec0 <rev_memcpy_word>
    3b64:	8cc00704 	addi	r19,r17,28
    3b68:	9809883a 	mov	r4,r19
    3b6c:	900b883a 	mov	r5,r18
    3b70:	01800184 	movi	r6,6
    3b74:	000ea800 	call	ea80 <memcmp>
    3b78:	10000e26 	beq	r2,zero,3bb4 <arp_input+0x194>
    3b7c:	9809883a 	mov	r4,r19
    3b80:	01400074 	movhi	r5,1
    3b84:	2942ff04 	addi	r5,r5,3068
    3b88:	01800184 	movi	r6,6
    3b8c:	000ea800 	call	ea80 <memcmp>
    3b90:	10000826 	beq	r2,zero,3bb4 <arp_input+0x194>
    3b94:	b0800117 	ldw	r2,4(r22)
    3b98:	d8c00117 	ldw	r3,4(sp)
    3b9c:	10c00d26 	beq	r2,r3,3bd4 <arp_input+0x1b4>
    3ba0:	d8c00017 	ldw	r3,0(sp)
    3ba4:	10c03b26 	beq	r2,r3,3c94 <arp_input+0x274>
    3ba8:	8809883a 	mov	r4,r17
    3bac:	0000a800 	call	a80 <rel_net_buf>
    3bb0:	003fcd06 	br	3ae8 <arp_input+0xc8>
    3bb4:	80c00817 	ldw	r3,32(r16)
    3bb8:	81000917 	ldw	r4,36(r16)
    3bbc:	18800044 	addi	r2,r3,1
    3bc0:	10c7803a 	cmpltu	r3,r2,r3
    3bc4:	1907883a 	add	r3,r3,r4
    3bc8:	80800815 	stw	r2,32(r16)
    3bcc:	80c00915 	stw	r3,36(r16)
    3bd0:	003ff506 	br	3ba8 <arp_input+0x188>
    3bd4:	0009883a 	mov	r4,zero
    3bd8:	980b883a 	mov	r5,r19
    3bdc:	0000d400 	call	d40 <mac2str>
    3be0:	100d883a 	mov	r6,r2
    3be4:	010000c4 	movi	r4,3
    3be8:	01400074 	movhi	r5,1
    3bec:	297c9904 	addi	r5,r5,-3484
    3bf0:	00080400 	call	8040 <syslog>
    3bf4:	d8800117 	ldw	r2,4(sp)
    3bf8:	d8800015 	stw	r2,0(sp)
    3bfc:	8880068b 	ldhu	r2,26(r17)
    3c00:	1006923a 	slli	r3,r2,8
    3c04:	1004d23a 	srli	r2,r2,8
    3c08:	1886b03a 	or	r3,r3,r2
    3c0c:	18ffffcc 	andi	r3,r3,65535
    3c10:	18e0001c 	xori	r3,r3,32768
    3c14:	18e00004 	addi	r3,r3,-32768
    3c18:	00800044 	movi	r2,1
    3c1c:	18bfe21e 	bne	r3,r2,3ba8 <arp_input+0x188>
    3c20:	89000984 	addi	r4,r17,38
    3c24:	980b883a 	mov	r5,r19
    3c28:	01800184 	movi	r6,6
    3c2c:	000eafc0 	call	eafc <memcpy>
    3c30:	9809883a 	mov	r4,r19
    3c34:	900b883a 	mov	r5,r18
    3c38:	01800184 	movi	r6,6
    3c3c:	000eafc0 	call	eafc <memcpy>
    3c40:	a809883a 	mov	r4,r21
    3c44:	a00b883a 	mov	r5,r20
    3c48:	01800104 	movi	r6,4
    3c4c:	000eafc0 	call	eafc <memcpy>
    3c50:	a009883a 	mov	r4,r20
    3c54:	d80b883a 	mov	r5,sp
    3c58:	0000ec00 	call	ec0 <rev_memcpy_word>
    3c5c:	8c000304 	addi	r16,r17,12
    3c60:	00808004 	movi	r2,512
    3c64:	89000184 	addi	r4,r17,6
    3c68:	800b883a 	mov	r5,r16
    3c6c:	8880068d 	sth	r2,26(r17)
    3c70:	01800184 	movi	r6,6
    3c74:	000eafc0 	call	eafc <memcpy>
    3c78:	8009883a 	mov	r4,r16
    3c7c:	900b883a 	mov	r5,r18
    3c80:	01800184 	movi	r6,6
    3c84:	000eafc0 	call	eafc <memcpy>
    3c88:	8809883a 	mov	r4,r17
    3c8c:	00031a00 	call	31a0 <ether_raw_output>
    3c90:	003f9506 	br	3ae8 <arp_input+0xc8>
    3c94:	010000c4 	movi	r4,3
    3c98:	000d0400 	call	d040 <GetResource>
    3c9c:	d9000117 	ldw	r4,4(sp)
    3ca0:	00036e00 	call	36e0 <arp_lookup.constprop.1>
    3ca4:	10c00284 	addi	r3,r2,10
    3ca8:	1809883a 	mov	r4,r3
    3cac:	980b883a 	mov	r5,r19
    3cb0:	01800184 	movi	r6,6
    3cb4:	1021883a 	mov	r16,r2
    3cb8:	000eafc0 	call	eafc <memcpy>
    3cbc:	81000017 	ldw	r4,0(r16)
    3cc0:	1007883a 	mov	r3,r2
    3cc4:	008bb804 	movi	r2,12000
    3cc8:	8080020d 	sth	r2,8(r16)
    3ccc:	20000b26 	beq	r4,zero,3cfc <arp_input+0x2dc>
    3cd0:	180b883a 	mov	r5,r3
    3cd4:	01800184 	movi	r6,6
    3cd8:	21000184 	addi	r4,r4,6
    3cdc:	000eafc0 	call	eafc <memcpy>
    3ce0:	85800017 	ldw	r22,0(r16)
    3ce4:	010000c4 	movi	r4,3
    3ce8:	80000015 	stw	zero,0(r16)
    3cec:	000d3e00 	call	d3e0 <ReleaseResource>
    3cf0:	b009883a 	mov	r4,r22
    3cf4:	00031a00 	call	31a0 <ether_raw_output>
    3cf8:	003fc006 	br	3bfc <arp_input+0x1dc>
    3cfc:	010000c4 	movi	r4,3
    3d00:	000d3e00 	call	d3e0 <ReleaseResource>
    3d04:	003fbd06 	br	3bfc <arp_input+0x1dc>
    3d08:	0001883a 	nop
    3d0c:	0001883a 	nop
    3d10:	0001883a 	nop
    3d14:	0001883a 	nop
    3d18:	0001883a 	nop
    3d1c:	0001883a 	nop

00003d20 <arp_resolve>:
    3d20:	defffb04 	addi	sp,sp,-20
    3d24:	dcc00315 	stw	r19,12(sp)
    3d28:	dc400115 	stw	r17,4(sp)
    3d2c:	dc000015 	stw	r16,0(sp)
    3d30:	dfc00415 	stw	ra,16(sp)
    3d34:	dc800215 	stw	r18,8(sp)
    3d38:	2027883a 	mov	r19,r4
    3d3c:	2821883a 	mov	r16,r5
    3d40:	3023883a 	mov	r17,r6
    3d44:	00031800 	call	3180 <ether_get_ifnet>
    3d48:	00ffffc4 	movi	r3,-1
    3d4c:	88c02d26 	beq	r17,r3,3e04 <arp_resolve+0xe4>
    3d50:	10c00217 	ldw	r3,8(r2)
    3d54:	11000117 	ldw	r4,4(r2)
    3d58:	00c4303a 	nor	r2,zero,r3
    3d5c:	1906703a 	and	r3,r3,r4
    3d60:	10c6b03a 	or	r3,r2,r3
    3d64:	1c402726 	beq	r3,r17,3e04 <arp_resolve+0xe4>
    3d68:	010000c4 	movi	r4,3
    3d6c:	000d0400 	call	d040 <GetResource>
    3d70:	8809883a 	mov	r4,r17
    3d74:	00036e00 	call	36e0 <arp_lookup.constprop.1>
    3d78:	1025883a 	mov	r18,r2
    3d7c:	1080020b 	ldhu	r2,8(r2)
    3d80:	10003a1e 	bne	r2,zero,3e6c <arp_resolve+0x14c>
    3d84:	90800017 	ldw	r2,0(r18)
    3d88:	10000b26 	beq	r2,zero,3db8 <arp_resolve+0x98>
    3d8c:	00800074 	movhi	r2,1
    3d90:	10835b04 	addi	r2,r2,3436
    3d94:	11000417 	ldw	r4,16(r2)
    3d98:	11400517 	ldw	r5,20(r2)
    3d9c:	20c00044 	addi	r3,r4,1
    3da0:	1909803a 	cmpltu	r4,r3,r4
    3da4:	2149883a 	add	r4,r4,r5
    3da8:	10c00415 	stw	r3,16(r2)
    3dac:	11000515 	stw	r4,20(r2)
    3db0:	91000017 	ldw	r4,0(r18)
    3db4:	0000a800 	call	a80 <rel_net_buf>
    3db8:	808000c3 	ldbu	r2,3(r16)
    3dbc:	10c03fcc 	andi	r3,r2,255
    3dc0:	18c0201c 	xori	r3,r3,128
    3dc4:	18ffe004 	addi	r3,r3,-128
    3dc8:	18002416 	blt	r3,zero,3e5c <arp_resolve+0x13c>
    3dcc:	94000015 	stw	r16,0(r18)
    3dd0:	010000c4 	movi	r4,3
    3dd4:	000d3e00 	call	d3e0 <ReleaseResource>
    3dd8:	9809883a 	mov	r4,r19
    3ddc:	880b883a 	mov	r5,r17
    3de0:	00038200 	call	3820 <arp_request>
    3de4:	0005883a 	mov	r2,zero
    3de8:	dfc00417 	ldw	ra,16(sp)
    3dec:	dcc00317 	ldw	r19,12(sp)
    3df0:	dc800217 	ldw	r18,8(sp)
    3df4:	dc400117 	ldw	r17,4(sp)
    3df8:	dc000017 	ldw	r16,0(sp)
    3dfc:	dec00504 	addi	sp,sp,20
    3e00:	f800283a 	ret
    3e04:	00800074 	movhi	r2,1
    3e08:	1082ff04 	addi	r2,r2,3068
    3e0c:	11c00003 	ldbu	r7,0(r2)
    3e10:	11800043 	ldbu	r6,1(r2)
    3e14:	11400083 	ldbu	r5,2(r2)
    3e18:	110000c3 	ldbu	r4,3(r2)
    3e1c:	10c00103 	ldbu	r3,4(r2)
    3e20:	10800143 	ldbu	r2,5(r2)
    3e24:	81c00185 	stb	r7,6(r16)
    3e28:	818001c5 	stb	r6,7(r16)
    3e2c:	808002c5 	stb	r2,11(r16)
    3e30:	00800044 	movi	r2,1
    3e34:	81400205 	stb	r5,8(r16)
    3e38:	81000245 	stb	r4,9(r16)
    3e3c:	80c00285 	stb	r3,10(r16)
    3e40:	dfc00417 	ldw	ra,16(sp)
    3e44:	dcc00317 	ldw	r19,12(sp)
    3e48:	dc800217 	ldw	r18,8(sp)
    3e4c:	dc400117 	ldw	r17,4(sp)
    3e50:	dc000017 	ldw	r16,0(sp)
    3e54:	dec00504 	addi	sp,sp,20
    3e58:	f800283a 	ret
    3e5c:	10801fcc 	andi	r2,r2,127
    3e60:	808000c5 	stb	r2,3(r16)
    3e64:	90000015 	stw	zero,0(r18)
    3e68:	003fd906 	br	3dd0 <arp_resolve+0xb0>
    3e6c:	94800284 	addi	r18,r18,10
    3e70:	90800003 	ldbu	r2,0(r18)
    3e74:	84000184 	addi	r16,r16,6
    3e78:	010000c4 	movi	r4,3
    3e7c:	80800005 	stb	r2,0(r16)
    3e80:	90800043 	ldbu	r2,1(r18)
    3e84:	80800045 	stb	r2,1(r16)
    3e88:	90800083 	ldbu	r2,2(r18)
    3e8c:	80800085 	stb	r2,2(r16)
    3e90:	908000c3 	ldbu	r2,3(r18)
    3e94:	808000c5 	stb	r2,3(r16)
    3e98:	90800103 	ldbu	r2,4(r18)
    3e9c:	80800105 	stb	r2,4(r16)
    3ea0:	90800143 	ldbu	r2,5(r18)
    3ea4:	80800145 	stb	r2,5(r16)
    3ea8:	000d3e00 	call	d3e0 <ReleaseResource>
    3eac:	00800044 	movi	r2,1
    3eb0:	dfc00417 	ldw	ra,16(sp)
    3eb4:	dcc00317 	ldw	r19,12(sp)
    3eb8:	dc800217 	ldw	r18,8(sp)
    3ebc:	dc400117 	ldw	r17,4(sp)
    3ec0:	dc000017 	ldw	r16,0(sp)
    3ec4:	dec00504 	addi	sp,sp,20
    3ec8:	f800283a 	ret
    3ecc:	0001883a 	nop
    3ed0:	0001883a 	nop
    3ed4:	0001883a 	nop
    3ed8:	0001883a 	nop
    3edc:	0001883a 	nop

00003ee0 <arp_init>:
    3ee0:	01000034 	movhi	r4,0
    3ee4:	210d7804 	addi	r4,r4,13792
    3ee8:	000b883a 	mov	r5,zero
    3eec:	01809604 	movi	r6,600
    3ef0:	0000f401 	jmpi	f40 <timeout>
	...

00003f00 <tse_init_sub>:
    3f00:	defff604 	addi	sp,sp,-40
    3f04:	dfc00915 	stw	ra,36(sp)
    3f08:	dc800615 	stw	r18,24(sp)
    3f0c:	dc400515 	stw	r17,20(sp)
    3f10:	dd000815 	stw	r20,32(sp)
    3f14:	dcc00715 	stw	r19,28(sp)
    3f18:	dc000415 	stw	r16,16(sp)
    3f1c:	20800217 	ldw	r2,8(r4)
    3f20:	2000018d 	sth	zero,6(r4)
    3f24:	2025883a 	mov	r18,r4
    3f28:	11000317 	ldw	r4,12(r2)
    3f2c:	00056000 	call	5600 <avalon_sgdma_init>
    3f30:	94400217 	ldw	r17,8(r18)
    3f34:	010001c4 	movi	r4,7
    3f38:	01400074 	movhi	r5,1
    3f3c:	297ca104 	addi	r5,r5,-3452
    3f40:	00080400 	call	8040 <syslog>
    3f44:	88800317 	ldw	r2,12(r17)
    3f48:	1000b526 	beq	r2,zero,4220 <tse_init_sub+0x320>
    3f4c:	88800417 	ldw	r2,16(r17)
    3f50:	1000a426 	beq	r2,zero,41e4 <tse_init_sub+0x2e4>
    3f54:	00c00074 	movhi	r3,1
    3f58:	10c00435 	stwio	r3,16(r2)
    3f5c:	88800417 	ldw	r2,16(r17)
    3f60:	10000435 	stwio	zero,16(r2)
    3f64:	8809883a 	mov	r4,r17
    3f68:	0004b600 	call	4b60 <getPHYSpeed>
    3f6c:	1029d07a 	srai	r20,r2,1
    3f70:	88c00017 	ldw	r3,0(r17)
    3f74:	14c0004c 	andi	r19,r2,1
    3f78:	a50001cc 	andi	r20,r20,7
    3f7c:	008800c4 	movi	r2,8195
    3f80:	18800235 	stwio	r2,8(r3)
    3f84:	89c00017 	ldw	r7,0(r17)
    3f88:	0021883a 	mov	r16,zero
    3f8c:	0189c484 	movi	r6,10002
    3f90:	39400204 	addi	r5,r7,8
    3f94:	00000206 	br	3fa0 <tse_init_sub+0xa0>
    3f98:	84000044 	addi	r16,r16,1
    3f9c:	81807726 	beq	r16,r6,417c <tse_init_sub+0x27c>
    3fa0:	28c00037 	ldwio	r3,0(r5)
    3fa4:	18c8000c 	andi	r3,r3,8192
    3fa8:	183ffb1e 	bne	r3,zero,3f98 <tse_init_sub+0x98>
    3fac:	0089c3c4 	movi	r2,9999
    3fb0:	14007216 	blt	r2,r16,417c <tse_init_sub+0x27c>
    3fb4:	39c00237 	ldwio	r7,8(r7)
    3fb8:	388000cc 	andi	r2,r7,3
    3fbc:	1000691e 	bne	r2,zero,4164 <tse_init_sub+0x264>
    3fc0:	010001c4 	movi	r4,7
    3fc4:	01400074 	movhi	r5,1
    3fc8:	297cda04 	addi	r5,r5,-3224
    3fcc:	800d883a 	mov	r6,r16
    3fd0:	00080400 	call	8040 <syslog>
    3fd4:	88800017 	ldw	r2,0(r17)
    3fd8:	00c17c04 	movi	r3,1520
    3fdc:	10c00535 	stwio	r3,20(r2)
    3fe0:	88c00017 	ldw	r3,0(r17)
    3fe4:	00800204 	movi	r2,8
    3fe8:	18800b35 	stwio	r2,44(r3)
    3fec:	88c00017 	ldw	r3,0(r17)
    3ff0:	18800c35 	stwio	r2,48(r3)
    3ff4:	88c00017 	ldw	r3,0(r17)
    3ff8:	18800d35 	stwio	r2,52(r3)
    3ffc:	88800017 	ldw	r2,0(r17)
    4000:	010000c4 	movi	r4,3
    4004:	11000e35 	stwio	r4,56(r2)
    4008:	88c0010b 	ldhu	r3,4(r17)
    400c:	88800017 	ldw	r2,0(r17)
    4010:	18fffc04 	addi	r3,r3,-16
    4014:	10c00935 	stwio	r3,36(r2)
    4018:	88800017 	ldw	r2,0(r17)
    401c:	10000a35 	stwio	zero,40(r2)
    4020:	88c0018b 	ldhu	r3,6(r17)
    4024:	88800017 	ldw	r2,0(r17)
    4028:	18fffc04 	addi	r3,r3,-16
    402c:	10c00735 	stwio	r3,28(r2)
    4030:	88800017 	ldw	r2,0(r17)
    4034:	10000835 	stwio	zero,32(r2)
    4038:	88800017 	ldw	r2,0(r17)
    403c:	00c00134 	movhi	r3,4
    4040:	10c03a35 	stwio	r3,232(r2)
    4044:	88800017 	ldw	r2,0(r17)
    4048:	10c03a37 	ldwio	r3,232(r2)
    404c:	18c0012c 	andhi	r3,r3,4
    4050:	18005626 	beq	r3,zero,41ac <tse_init_sub+0x2ac>
    4054:	00c08034 	movhi	r3,512
    4058:	10c03b35 	stwio	r3,236(r2)
    405c:	89c00017 	ldw	r7,0(r17)
    4060:	38803b37 	ldwio	r2,236(r7)
    4064:	10c4703a 	and	r2,r2,r3
    4068:	10005b26 	beq	r2,zero,41d8 <tse_init_sub+0x2d8>
    406c:	00800044 	movi	r2,1
    4070:	a0804826 	beq	r20,r2,4194 <tse_init_sub+0x294>
    4074:	00800084 	movi	r2,2
    4078:	a0800226 	beq	r20,r2,4084 <tse_init_sub+0x184>
    407c:	00800104 	movi	r2,4
    4080:	a0804726 	beq	r20,r2,41a0 <tse_init_sub+0x2a0>
    4084:	00810034 	movhi	r2,1024
    4088:	108080c4 	addi	r2,r2,515
    408c:	9800011e 	bne	r19,zero,4094 <tse_init_sub+0x194>
    4090:	10810014 	ori	r2,r2,1024
    4094:	38800235 	stwio	r2,8(r7)
    4098:	88800017 	ldw	r2,0(r17)
    409c:	11800237 	ldwio	r6,8(r2)
    40a0:	010001c4 	movi	r4,7
    40a4:	01400074 	movhi	r5,1
    40a8:	297d1104 	addi	r5,r5,-3004
    40ac:	00080400 	call	8040 <syslog>
    40b0:	90c00043 	ldbu	r3,1(r18)
    40b4:	90800083 	ldbu	r2,2(r18)
    40b8:	910000c3 	ldbu	r4,3(r18)
    40bc:	1806923a 	slli	r3,r3,8
    40c0:	1004943a 	slli	r2,r2,16
    40c4:	91400003 	ldbu	r5,0(r18)
    40c8:	2008963a 	slli	r4,r4,24
    40cc:	1886b03a 	or	r3,r3,r2
    40d0:	88800017 	ldw	r2,0(r17)
    40d4:	1946b03a 	or	r3,r3,r5
    40d8:	1906b03a 	or	r3,r3,r4
    40dc:	10c00335 	stwio	r3,12(r2)
    40e0:	90c00143 	ldbu	r3,5(r18)
    40e4:	91000103 	ldbu	r4,4(r18)
    40e8:	88800017 	ldw	r2,0(r17)
    40ec:	1806923a 	slli	r3,r3,8
    40f0:	1906b03a 	or	r3,r3,r4
    40f4:	10c00435 	stwio	r3,16(r2)
    40f8:	89c00c17 	ldw	r7,48(r17)
    40fc:	38004426 	beq	r7,zero,4210 <tse_init_sub+0x310>
    4100:	89400517 	ldw	r5,20(r17)
    4104:	000d883a 	mov	r6,zero
    4108:	39c00104 	addi	r7,r7,4
    410c:	29001004 	addi	r4,r5,64
    4110:	d8000015 	stw	zero,0(sp)
    4114:	29401804 	addi	r5,r5,96
    4118:	d8000115 	stw	zero,4(sp)
    411c:	d8000215 	stw	zero,8(sp)
    4120:	d8000315 	stw	zero,12(sp)
    4124:	00055800 	call	5580 <avalon_sgdma_construct_descriptor>
    4128:	010001c4 	movi	r4,7
    412c:	01400074 	movhi	r5,1
    4130:	297d2d04 	addi	r5,r5,-2892
    4134:	00080400 	call	8040 <syslog>
    4138:	89400517 	ldw	r5,20(r17)
    413c:	8809883a 	mov	r4,r17
    4140:	29401004 	addi	r5,r5,64
    4144:	dfc00917 	ldw	ra,36(sp)
    4148:	dd000817 	ldw	r20,32(sp)
    414c:	dcc00717 	ldw	r19,28(sp)
    4150:	dc800617 	ldw	r18,24(sp)
    4154:	dc400517 	ldw	r17,20(sp)
    4158:	dc000417 	ldw	r16,16(sp)
    415c:	dec00a04 	addi	sp,sp,40
    4160:	0004ae01 	jmpi	4ae0 <tse_mac_aRxRead>
    4164:	01000104 	movi	r4,4
    4168:	01400074 	movhi	r5,1
    416c:	297cc604 	addi	r5,r5,-3304
    4170:	380d883a 	mov	r6,r7
    4174:	00080400 	call	8040 <syslog>
    4178:	003f9606 	br	3fd4 <tse_init_sub+0xd4>
    417c:	010001c4 	movi	r4,7
    4180:	01400074 	movhi	r5,1
    4184:	297cbd04 	addi	r5,r5,-3340
    4188:	00080400 	call	8040 <syslog>
    418c:	89c00017 	ldw	r7,0(r17)
    4190:	003f8806 	br	3fb4 <tse_init_sub+0xb4>
    4194:	00810034 	movhi	r2,1024
    4198:	108082c4 	addi	r2,r2,523
    419c:	003fbb06 	br	408c <tse_init_sub+0x18c>
    41a0:	00818034 	movhi	r2,1536
    41a4:	108080c4 	addi	r2,r2,515
    41a8:	003fb806 	br	408c <tse_init_sub+0x18c>
    41ac:	01400074 	movhi	r5,1
    41b0:	297ce104 	addi	r5,r5,-3196
    41b4:	01800084 	movi	r6,2
    41b8:	dfc00917 	ldw	ra,36(sp)
    41bc:	dd000817 	ldw	r20,32(sp)
    41c0:	dcc00717 	ldw	r19,28(sp)
    41c4:	dc800617 	ldw	r18,24(sp)
    41c8:	dc400517 	ldw	r17,20(sp)
    41cc:	dc000417 	ldw	r16,16(sp)
    41d0:	dec00a04 	addi	sp,sp,40
    41d4:	00080401 	jmpi	8040 <syslog>
    41d8:	01400074 	movhi	r5,1
    41dc:	297cf904 	addi	r5,r5,-3100
    41e0:	003ff406 	br	41b4 <tse_init_sub+0x2b4>
    41e4:	010000c4 	movi	r4,3
    41e8:	01400074 	movhi	r5,1
    41ec:	297cb104 	addi	r5,r5,-3388
    41f0:	dfc00917 	ldw	ra,36(sp)
    41f4:	dd000817 	ldw	r20,32(sp)
    41f8:	dcc00717 	ldw	r19,28(sp)
    41fc:	dc800617 	ldw	r18,24(sp)
    4200:	dc400517 	ldw	r17,20(sp)
    4204:	dc000417 	ldw	r16,16(sp)
    4208:	dec00a04 	addi	sp,sp,40
    420c:	00080401 	jmpi	8040 <syslog>
    4210:	010000c4 	movi	r4,3
    4214:	01400074 	movhi	r5,1
    4218:	297d1c04 	addi	r5,r5,-2960
    421c:	003ff406 	br	41f0 <tse_init_sub+0x2f0>
    4220:	010000c4 	movi	r4,3
    4224:	01400074 	movhi	r5,1
    4228:	297ca504 	addi	r5,r5,-3436
    422c:	003ff006 	br	41f0 <tse_init_sub+0x2f0>
    4230:	0001883a 	nop
    4234:	0001883a 	nop
    4238:	0001883a 	nop
    423c:	0001883a 	nop

00004240 <tse_reset>:
    4240:	defffe04 	addi	sp,sp,-8
    4244:	dc000015 	stw	r16,0(sp)
    4248:	dfc00115 	stw	ra,4(sp)
    424c:	2021883a 	mov	r16,r4
    4250:	000db000 	call	db00 <SuspendOSInterrupts>
    4254:	00800074 	movhi	r2,1
    4258:	10838f04 	addi	r2,r2,3644
    425c:	11000017 	ldw	r4,0(r2)
    4260:	11400117 	ldw	r5,4(r2)
    4264:	20c00044 	addi	r3,r4,1
    4268:	1909803a 	cmpltu	r4,r3,r4
    426c:	2149883a 	add	r4,r4,r5
    4270:	10c00015 	stw	r3,0(r2)
    4274:	11000115 	stw	r4,4(r2)
    4278:	80800217 	ldw	r2,8(r16)
    427c:	10800017 	ldw	r2,0(r2)
    4280:	10800204 	addi	r2,r2,8
    4284:	11000037 	ldwio	r4,0(r2)
    4288:	00ffff44 	movi	r3,-3
    428c:	20c6703a 	and	r3,r4,r3
    4290:	10c00035 	stwio	r3,0(r2)
    4294:	8009883a 	mov	r4,r16
    4298:	0003f000 	call	3f00 <tse_init_sub>
    429c:	000dce00 	call	dce0 <ResumeOSInterrupts>
    42a0:	81400317 	ldw	r5,12(r16)
    42a4:	0009883a 	mov	r4,zero
    42a8:	dfc00117 	ldw	ra,4(sp)
    42ac:	dc000017 	ldw	r16,0(sp)
    42b0:	dec00204 	addi	sp,sp,8
    42b4:	000c5c01 	jmpi	c5c0 <SetEvent>
    42b8:	0001883a 	nop
    42bc:	0001883a 	nop

000042c0 <tse_get_softc>:
    42c0:	00800074 	movhi	r2,1
    42c4:	1082ce04 	addi	r2,r2,2872
    42c8:	f800283a 	ret
    42cc:	0001883a 	nop
    42d0:	0001883a 	nop
    42d4:	0001883a 	nop
    42d8:	0001883a 	nop
    42dc:	0001883a 	nop

000042e0 <tse_watchdog>:
    42e0:	00800074 	movhi	r2,1
    42e4:	10838f04 	addi	r2,r2,3644
    42e8:	11c00817 	ldw	r7,32(r2)
    42ec:	11800417 	ldw	r6,16(r2)
    42f0:	12400917 	ldw	r9,36(r2)
    42f4:	12000517 	ldw	r8,20(r2)
    42f8:	00c00044 	movi	r3,1
    42fc:	38cb883a 	add	r5,r7,r3
    4300:	30c7883a 	add	r3,r6,r3
    4304:	29cf803a 	cmpltu	r7,r5,r7
    4308:	198d803a 	cmpltu	r6,r3,r6
    430c:	3a4f883a 	add	r7,r7,r9
    4310:	320d883a 	add	r6,r6,r8
    4314:	11400815 	stw	r5,32(r2)
    4318:	11c00915 	stw	r7,36(r2)
    431c:	10c00415 	stw	r3,16(r2)
    4320:	11800515 	stw	r6,20(r2)
    4324:	00042401 	jmpi	4240 <tse_reset>
    4328:	0001883a 	nop
    432c:	0001883a 	nop
    4330:	0001883a 	nop
    4334:	0001883a 	nop
    4338:	0001883a 	nop
    433c:	0001883a 	nop

00004340 <tse_probe>:
    4340:	200f883a 	mov	r7,r4
    4344:	21000217 	ldw	r4,8(r4)
    4348:	0005883a 	mov	r2,zero
    434c:	02000184 	movi	r8,6
    4350:	20c00904 	addi	r3,r4,36
    4354:	19800003 	ldbu	r6,0(r3)
    4358:	388b883a 	add	r5,r7,r2
    435c:	10800044 	addi	r2,r2,1
    4360:	29800005 	stb	r6,0(r5)
    4364:	18c00044 	addi	r3,r3,1
    4368:	123ffa1e 	bne	r2,r8,4354 <tse_probe+0x14>
    436c:	00050401 	jmpi	5040 <tse_phy_init>
    4370:	0001883a 	nop
    4374:	0001883a 	nop
    4378:	0001883a 	nop
    437c:	0001883a 	nop

00004380 <tse_init>:
    4380:	defffe04 	addi	sp,sp,-8
    4384:	dfc00115 	stw	ra,4(sp)
    4388:	d9000015 	stw	r4,0(sp)
    438c:	000db000 	call	db00 <SuspendOSInterrupts>
    4390:	d9000017 	ldw	r4,0(sp)
    4394:	0003f000 	call	3f00 <tse_init_sub>
    4398:	dfc00117 	ldw	ra,4(sp)
    439c:	dec00204 	addi	sp,sp,8
    43a0:	000dce01 	jmpi	dce0 <ResumeOSInterrupts>
    43a4:	0001883a 	nop
    43a8:	0001883a 	nop
    43ac:	0001883a 	nop
    43b0:	0001883a 	nop
    43b4:	0001883a 	nop
    43b8:	0001883a 	nop
    43bc:	0001883a 	nop

000043c0 <tse_read>:
    43c0:	defffa04 	addi	sp,sp,-24
    43c4:	dcc00415 	stw	r19,16(sp)
    43c8:	dfc00515 	stw	ra,20(sp)
    43cc:	dc800315 	stw	r18,12(sp)
    43d0:	dc400215 	stw	r17,8(sp)
    43d4:	dc000115 	stw	r16,4(sp)
    43d8:	24000217 	ldw	r16,8(r4)
    43dc:	2027883a 	mov	r19,r4
    43e0:	84400517 	ldw	r17,20(r16)
    43e4:	000db000 	call	db00 <SuspendOSInterrupts>
    43e8:	888017a3 	ldbuio	r2,94(r17)
    43ec:	8c80172b 	ldhuio	r18,92(r17)
    43f0:	10801fcc 	andi	r2,r2,127
    43f4:	1000481e 	bne	r2,zero,4518 <tse_read+0x158>
    43f8:	94bfffcc 	andi	r18,r18,65535
    43fc:	917ffcc4 	addi	r5,r18,-13
    4400:	00bfff04 	movi	r2,-4
    4404:	288a703a 	and	r5,r5,r2
    4408:	29400404 	addi	r5,r5,16
    440c:	297fffcc 	andi	r5,r5,65535
    4410:	d809883a 	mov	r4,sp
    4414:	d8000015 	stw	zero,0(sp)
    4418:	0000a600 	call	a60 <get_net_buf>
    441c:	10002326 	beq	r2,zero,44ac <tse_read+0xec>
    4420:	dc800017 	ldw	r18,0(sp)
    4424:	00c00074 	movhi	r3,1
    4428:	18c38f04 	addi	r3,r3,3644
    442c:	19801217 	ldw	r6,72(r3)
    4430:	19401017 	ldw	r5,64(r3)
    4434:	1a001317 	ldw	r8,76(r3)
    4438:	19c01117 	ldw	r7,68(r3)
    443c:	31000044 	addi	r4,r6,1
    4440:	28800044 	addi	r2,r5,1
    4444:	218d803a 	cmpltu	r6,r4,r6
    4448:	114b803a 	cmpltu	r5,r2,r5
    444c:	320d883a 	add	r6,r6,r8
    4450:	29cb883a 	add	r5,r5,r7
    4454:	19001215 	stw	r4,72(r3)
    4458:	19801315 	stw	r6,76(r3)
    445c:	18801015 	stw	r2,64(r3)
    4460:	19401115 	stw	r5,68(r3)
    4464:	80800c17 	ldw	r2,48(r16)
    4468:	10800104 	addi	r2,r2,4
    446c:	88801235 	stwio	r2,72(r17)
    4470:	00bfe044 	movi	r2,-127
    4474:	888017e5 	stbio	r2,95(r17)
    4478:	81400517 	ldw	r5,20(r16)
    447c:	81000417 	ldw	r4,16(r16)
    4480:	29401004 	addi	r5,r5,64
    4484:	00055200 	call	5520 <avalon_sgdma_do_async_transfer>
    4488:	000dce00 	call	dce0 <ResumeOSInterrupts>
    448c:	9005883a 	mov	r2,r18
    4490:	dfc00517 	ldw	ra,20(sp)
    4494:	dcc00417 	ldw	r19,16(sp)
    4498:	dc800317 	ldw	r18,12(sp)
    449c:	dc400217 	ldw	r17,8(sp)
    44a0:	dc000117 	ldw	r16,4(sp)
    44a4:	dec00604 	addi	sp,sp,24
    44a8:	f800283a 	ret
    44ac:	d9000017 	ldw	r4,0(sp)
    44b0:	20001726 	beq	r4,zero,4510 <tse_read+0x150>
    44b4:	00800074 	movhi	r2,1
    44b8:	10838f04 	addi	r2,r2,3644
    44bc:	11801417 	ldw	r6,80(r2)
    44c0:	10c01617 	ldw	r3,88(r2)
    44c4:	12401517 	ldw	r9,84(r2)
    44c8:	11c01717 	ldw	r7,92(r2)
    44cc:	90c7883a 	add	r3,r18,r3
    44d0:	31400044 	addi	r5,r6,1
    44d4:	1c91803a 	cmpltu	r8,r3,r18
    44d8:	298d803a 	cmpltu	r6,r5,r6
    44dc:	324d883a 	add	r6,r6,r9
    44e0:	41cf883a 	add	r7,r8,r7
    44e4:	11801515 	stw	r6,84(r2)
    44e8:	11401415 	stw	r5,80(r2)
    44ec:	10c01615 	stw	r3,88(r2)
    44f0:	11c01715 	stw	r7,92(r2)
    44f4:	81400c17 	ldw	r5,48(r16)
    44f8:	900d883a 	mov	r6,r18
    44fc:	21000104 	addi	r4,r4,4
    4500:	29400104 	addi	r5,r5,4
    4504:	000eafc0 	call	eafc <memcpy>
    4508:	dc800017 	ldw	r18,0(sp)
    450c:	003fd506 	br	4464 <tse_read+0xa4>
    4510:	0025883a 	mov	r18,zero
    4514:	003fc306 	br	4424 <tse_read+0x64>
    4518:	010000c4 	movi	r4,3
    451c:	01400074 	movhi	r5,1
    4520:	297d3b04 	addi	r5,r5,-2836
    4524:	00080400 	call	8040 <syslog>
    4528:	00800074 	movhi	r2,1
    452c:	10838f04 	addi	r2,r2,3644
    4530:	11801217 	ldw	r6,72(r2)
    4534:	11400017 	ldw	r5,0(r2)
    4538:	12001317 	ldw	r8,76(r2)
    453c:	11c00117 	ldw	r7,4(r2)
    4540:	31000044 	addi	r4,r6,1
    4544:	28c00044 	addi	r3,r5,1
    4548:	218d803a 	cmpltu	r6,r4,r6
    454c:	194b803a 	cmpltu	r5,r3,r5
    4550:	320d883a 	add	r6,r6,r8
    4554:	29cb883a 	add	r5,r5,r7
    4558:	11001215 	stw	r4,72(r2)
    455c:	11801315 	stw	r6,76(r2)
    4560:	10c00015 	stw	r3,0(r2)
    4564:	11400115 	stw	r5,4(r2)
    4568:	80800017 	ldw	r2,0(r16)
    456c:	10800204 	addi	r2,r2,8
    4570:	11000037 	ldwio	r4,0(r2)
    4574:	00ffff44 	movi	r3,-3
    4578:	20c6703a 	and	r3,r4,r3
    457c:	10c00035 	stwio	r3,0(r2)
    4580:	9809883a 	mov	r4,r19
    4584:	0003f000 	call	3f00 <tse_init_sub>
    4588:	000dce00 	call	dce0 <ResumeOSInterrupts>
    458c:	99400317 	ldw	r5,12(r19)
    4590:	0009883a 	mov	r4,zero
    4594:	0025883a 	mov	r18,zero
    4598:	000c5c00 	call	c5c0 <SetEvent>
    459c:	9005883a 	mov	r2,r18
    45a0:	dfc00517 	ldw	ra,20(sp)
    45a4:	dcc00417 	ldw	r19,16(sp)
    45a8:	dc800317 	ldw	r18,12(sp)
    45ac:	dc400217 	ldw	r17,8(sp)
    45b0:	dc000117 	ldw	r16,4(sp)
    45b4:	dec00604 	addi	sp,sp,24
    45b8:	f800283a 	ret
    45bc:	0001883a 	nop

000045c0 <tse_start>:
    45c0:	defff704 	addi	sp,sp,-36
    45c4:	dfc00815 	stw	ra,32(sp)
    45c8:	dcc00715 	stw	r19,28(sp)
    45cc:	dc800615 	stw	r18,24(sp)
    45d0:	dc400515 	stw	r17,20(sp)
    45d4:	dc000415 	stw	r16,16(sp)
    45d8:	24000217 	ldw	r16,8(r4)
    45dc:	2827883a 	mov	r19,r5
    45e0:	2023883a 	mov	r17,r4
    45e4:	000db000 	call	db00 <SuspendOSInterrupts>
    45e8:	84c00b15 	stw	r19,44(r16)
    45ec:	8c800217 	ldw	r18,8(r17)
    45f0:	04000044 	movi	r16,1
    45f4:	000f883a 	mov	r7,zero
    45f8:	91800b17 	ldw	r6,44(r18)
    45fc:	91000517 	ldw	r4,20(r18)
    4600:	3080000b 	ldhu	r2,0(r6)
    4604:	21400804 	addi	r5,r4,32
    4608:	31800104 	addi	r6,r6,4
    460c:	d8800015 	stw	r2,0(sp)
    4610:	dc000115 	stw	r16,4(sp)
    4614:	dc000315 	stw	r16,12(sp)
    4618:	d8000215 	stw	zero,8(sp)
    461c:	00055800 	call	5580 <avalon_sgdma_construct_descriptor>
    4620:	91400517 	ldw	r5,20(r18)
    4624:	9009883a 	mov	r4,r18
    4628:	0004a600 	call	4a60 <tse_mac_aTxWrite>
    462c:	00800084 	movi	r2,2
    4630:	8880018d 	sth	r2,6(r17)
    4634:	00800074 	movhi	r2,1
    4638:	10838f04 	addi	r2,r2,3644
    463c:	11000a17 	ldw	r4,40(r2)
    4640:	11400b17 	ldw	r5,44(r2)
    4644:	10c00c17 	ldw	r3,48(r2)
    4648:	2421883a 	add	r16,r4,r16
    464c:	8109803a 	cmpltu	r4,r16,r4
    4650:	2149883a 	add	r4,r4,r5
    4654:	14000a15 	stw	r16,40(r2)
    4658:	11000b15 	stw	r4,44(r2)
    465c:	9900000b 	ldhu	r4,0(r19)
    4660:	11400d17 	ldw	r5,52(r2)
    4664:	20c7883a 	add	r3,r4,r3
    4668:	1909803a 	cmpltu	r4,r3,r4
    466c:	2149883a 	add	r4,r4,r5
    4670:	10c00c15 	stw	r3,48(r2)
    4674:	11000d15 	stw	r4,52(r2)
    4678:	dfc00817 	ldw	ra,32(sp)
    467c:	dcc00717 	ldw	r19,28(sp)
    4680:	dc800617 	ldw	r18,24(sp)
    4684:	dc400517 	ldw	r17,20(sp)
    4688:	dc000417 	ldw	r16,16(sp)
    468c:	dec00904 	addi	sp,sp,36
    4690:	000dce01 	jmpi	dce0 <ResumeOSInterrupts>
    4694:	0001883a 	nop
    4698:	0001883a 	nop
    469c:	0001883a 	nop

000046a0 <ISRMainif_tse_tx_handler>:
    46a0:	defffe04 	addi	sp,sp,-8
    46a4:	dc000015 	stw	r16,0(sp)
    46a8:	04000074 	movhi	r16,1
    46ac:	8402ce04 	addi	r16,r16,2872
    46b0:	81400217 	ldw	r5,8(r16)
    46b4:	dfc00115 	stw	ra,4(sp)
    46b8:	28800317 	ldw	r2,12(r5)
    46bc:	10800404 	addi	r2,r2,16
    46c0:	10c00037 	ldwio	r3,0(r2)
    46c4:	18e00034 	orhi	r3,r3,32768
    46c8:	10c00035 	stwio	r3,0(r2)
    46cc:	29000317 	ldw	r4,12(r5)
    46d0:	20800437 	ldwio	r2,16(r4)
    46d4:	008003f4 	movhi	r2,15
    46d8:	10909044 	addi	r2,r2,16961
    46dc:	00000106 	br	46e4 <ISRMainif_tse_tx_handler+0x44>
    46e0:	10002426 	beq	r2,zero,4774 <ISRMainif_tse_tx_handler+0xd4>
    46e4:	20c00037 	ldwio	r3,0(r4)
    46e8:	18c0040c 	andi	r3,r3,16
    46ec:	10bfffc4 	addi	r2,r2,-1
    46f0:	183ffb1e 	bne	r3,zero,46e0 <ISRMainif_tse_tx_handler+0x40>
    46f4:	28800517 	ldw	r2,20(r5)
    46f8:	108007e7 	ldbio	r2,31(r2)
    46fc:	10000716 	blt	r2,zero,471c <ISRMainif_tse_tx_handler+0x7c>
    4700:	29000b17 	ldw	r4,44(r5)
    4704:	208000c3 	ldbu	r2,3(r4)
    4708:	10c03fcc 	andi	r3,r2,255
    470c:	18c0201c 	xori	r3,r3,128
    4710:	18ffe004 	addi	r3,r3,-128
    4714:	18001416 	blt	r3,zero,4768 <ISRMainif_tse_tx_handler+0xc8>
    4718:	0000a800 	call	a80 <rel_net_buf>
    471c:	81400317 	ldw	r5,12(r16)
    4720:	0009883a 	mov	r4,zero
    4724:	8000018d 	sth	zero,6(r16)
    4728:	000c5c00 	call	c5c0 <SetEvent>
    472c:	10803fcc 	andi	r2,r2,255
    4730:	10000926 	beq	r2,zero,4758 <ISRMainif_tse_tx_handler+0xb8>
    4734:	00800074 	movhi	r2,1
    4738:	10838f04 	addi	r2,r2,3644
    473c:	11000217 	ldw	r4,8(r2)
    4740:	11400317 	ldw	r5,12(r2)
    4744:	20c00044 	addi	r3,r4,1
    4748:	1909803a 	cmpltu	r4,r3,r4
    474c:	2149883a 	add	r4,r4,r5
    4750:	10c00215 	stw	r3,8(r2)
    4754:	11000315 	stw	r4,12(r2)
    4758:	dfc00117 	ldw	ra,4(sp)
    475c:	dc000017 	ldw	r16,0(sp)
    4760:	dec00204 	addi	sp,sp,8
    4764:	f800283a 	ret
    4768:	10801fcc 	andi	r2,r2,127
    476c:	208000c5 	stb	r2,3(r4)
    4770:	003fea06 	br	471c <ISRMainif_tse_tx_handler+0x7c>
    4774:	01000104 	movi	r4,4
    4778:	01400074 	movhi	r5,1
    477c:	297d4704 	addi	r5,r5,-2788
    4780:	00080400 	call	8040 <syslog>
    4784:	003fe506 	br	471c <ISRMainif_tse_tx_handler+0x7c>
    4788:	0001883a 	nop
    478c:	0001883a 	nop
    4790:	0001883a 	nop
    4794:	0001883a 	nop
    4798:	0001883a 	nop
    479c:	0001883a 	nop

000047a0 <ISRMainif_tse_rx_handler>:
    47a0:	deffff04 	addi	sp,sp,-4
    47a4:	dfc00015 	stw	ra,0(sp)
    47a8:	01000074 	movhi	r4,1
    47ac:	2102ce04 	addi	r4,r4,2872
    47b0:	20800217 	ldw	r2,8(r4)
    47b4:	10c00417 	ldw	r3,16(r2)
    47b8:	18c00404 	addi	r3,r3,16
    47bc:	19400037 	ldwio	r5,0(r3)
    47c0:	29600034 	orhi	r5,r5,32768
    47c4:	19400035 	stwio	r5,0(r3)
    47c8:	10800417 	ldw	r2,16(r2)
    47cc:	10c00437 	ldwio	r3,16(r2)
    47d0:	10800037 	ldwio	r2,0(r2)
    47d4:	1080030c 	andi	r2,r2,12
    47d8:	1000031e 	bne	r2,zero,47e8 <ISRMainif_tse_rx_handler+0x48>
    47dc:	dfc00017 	ldw	ra,0(sp)
    47e0:	dec00104 	addi	sp,sp,4
    47e4:	f800283a 	ret
    47e8:	21400417 	ldw	r5,16(r4)
    47ec:	01000044 	movi	r4,1
    47f0:	000c5c00 	call	c5c0 <SetEvent>
    47f4:	10803fcc 	andi	r2,r2,255
    47f8:	103ff826 	beq	r2,zero,47dc <ISRMainif_tse_rx_handler+0x3c>
    47fc:	00800074 	movhi	r2,1
    4800:	10838f04 	addi	r2,r2,3644
    4804:	11000e17 	ldw	r4,56(r2)
    4808:	11400f17 	ldw	r5,60(r2)
    480c:	20c00044 	addi	r3,r4,1
    4810:	1909803a 	cmpltu	r4,r3,r4
    4814:	2149883a 	add	r4,r4,r5
    4818:	10c00e15 	stw	r3,56(r2)
    481c:	11000f15 	stw	r4,60(r2)
    4820:	dfc00017 	ldw	ra,0(sp)
    4824:	dec00104 	addi	sp,sp,4
    4828:	f800283a 	ret
	...

00004840 <marvell_phy_cfg>:
    4840:	defffe04 	addi	sp,sp,-8
    4844:	dc000015 	stw	r16,0(sp)
    4848:	2021883a 	mov	r16,r4
    484c:	dfc00115 	stw	ra,4(sp)
    4850:	2080a137 	ldwio	r2,644(r4)
    4854:	1080080c 	andi	r2,r2,32
    4858:	10000e1e 	bne	r2,zero,4894 <marvell_phy_cfg+0x54>
    485c:	010001c4 	movi	r4,7
    4860:	01400074 	movhi	r5,1
    4864:	297d4e04 	addi	r5,r5,-2760
    4868:	00080400 	call	8040 <syslog>
    486c:	00801e04 	movi	r2,120
    4870:	8080b035 	stwio	r2,704(r16)
    4874:	010001c4 	movi	r4,7
    4878:	01400074 	movhi	r5,1
    487c:	297d5704 	addi	r5,r5,-2724
    4880:	00080400 	call	8040 <syslog>
    4884:	8400a004 	addi	r16,r16,640
    4888:	80800037 	ldwio	r2,0(r16)
    488c:	10a00014 	ori	r2,r2,32768
    4890:	80800035 	stwio	r2,0(r16)
    4894:	0005883a 	mov	r2,zero
    4898:	dfc00117 	ldw	ra,4(sp)
    489c:	dc000017 	ldw	r16,0(sp)
    48a0:	dec00204 	addi	sp,sp,8
    48a4:	f800283a 	ret
    48a8:	0001883a 	nop
    48ac:	0001883a 	nop
    48b0:	0001883a 	nop
    48b4:	0001883a 	nop
    48b8:	0001883a 	nop
    48bc:	0001883a 	nop

000048c0 <tse_phy_wr_mdio_reg.constprop.2>:
    48c0:	20800017 	ldw	r2,0(r4)
    48c4:	294b883a 	add	r5,r5,r5
    48c8:	294b883a 	add	r5,r5,r5
    48cc:	1080a004 	addi	r2,r2,640
    48d0:	114b883a 	add	r5,r2,r5
    48d4:	29000037 	ldwio	r4,0(r5)
    48d8:	00800044 	movi	r2,1
    48dc:	1184983a 	sll	r2,r2,r6
    48e0:	39ffffcc 	andi	r7,r7,65535
    48e4:	398c983a 	sll	r6,r7,r6
    48e8:	0086303a 	nor	r3,zero,r2
    48ec:	20c6703a 	and	r3,r4,r3
    48f0:	3084703a 	and	r2,r6,r2
    48f4:	1884b03a 	or	r2,r3,r2
    48f8:	10bfffcc 	andi	r2,r2,65535
    48fc:	28800035 	stwio	r2,0(r5)
    4900:	0005883a 	mov	r2,zero
    4904:	f800283a 	ret
    4908:	0001883a 	nop
    490c:	0001883a 	nop
    4910:	0001883a 	nop
    4914:	0001883a 	nop
    4918:	0001883a 	nop
    491c:	0001883a 	nop

00004920 <tse_phy_restart_an>:
    4920:	defffc04 	addi	sp,sp,-16
    4924:	dc400115 	stw	r17,4(sp)
    4928:	dc000015 	stw	r16,0(sp)
    492c:	dfc00315 	stw	ra,12(sp)
    4930:	dc800215 	stw	r18,8(sp)
    4934:	20800017 	ldw	r2,0(r4)
    4938:	2021883a 	mov	r16,r4
    493c:	2823883a 	mov	r17,r5
    4940:	10801004 	addi	r2,r2,64
    4944:	14800037 	ldwio	r18,0(r2)
    4948:	20c00603 	ldbu	r3,24(r4)
    494c:	10c00035 	stwio	r3,0(r2)
    4950:	20800017 	ldw	r2,0(r4)
    4954:	1080a137 	ldwio	r2,644(r2)
    4958:	1004d0fa 	srli	r2,r2,3
    495c:	1080004c 	andi	r2,r2,1
    4960:	10003226 	beq	r2,zero,4a2c <tse_phy_restart_an+0x10c>
    4964:	000b883a 	mov	r5,zero
    4968:	01800304 	movi	r6,12
    496c:	01c00044 	movi	r7,1
    4970:	00048c00 	call	48c0 <tse_phy_wr_mdio_reg.constprop.2>
    4974:	8009883a 	mov	r4,r16
    4978:	000b883a 	mov	r5,zero
    497c:	01800244 	movi	r6,9
    4980:	01c00044 	movi	r7,1
    4984:	00048c00 	call	48c0 <tse_phy_wr_mdio_reg.constprop.2>
    4988:	010001c4 	movi	r4,7
    498c:	01400074 	movhi	r5,1
    4990:	297d6a04 	addi	r5,r5,-2648
    4994:	00080400 	call	8040 <syslog>
    4998:	81000017 	ldw	r4,0(r16)
    499c:	0005883a 	mov	r2,zero
    49a0:	2100a104 	addi	r4,r4,644
    49a4:	20c00037 	ldwio	r3,0(r4)
    49a8:	10800044 	addi	r2,r2,1
    49ac:	18c0080c 	andi	r3,r3,32
    49b0:	11bfffc4 	addi	r6,r2,-1
    49b4:	18000f1e 	bne	r3,zero,49f4 <tse_phy_restart_an+0xd4>
    49b8:	89bffa2e 	bgeu	r17,r6,49a4 <tse_phy_restart_an+0x84>
    49bc:	01000104 	movi	r4,4
    49c0:	01400074 	movhi	r5,1
    49c4:	297d7a04 	addi	r5,r5,-2584
    49c8:	00080400 	call	8040 <syslog>
    49cc:	80800017 	ldw	r2,0(r16)
    49d0:	94803fcc 	andi	r18,r18,255
    49d4:	14801035 	stwio	r18,64(r2)
    49d8:	00bfffc4 	movi	r2,-1
    49dc:	dfc00317 	ldw	ra,12(sp)
    49e0:	dc800217 	ldw	r18,8(sp)
    49e4:	dc400117 	ldw	r17,4(sp)
    49e8:	dc000017 	ldw	r16,0(sp)
    49ec:	dec00404 	addi	sp,sp,16
    49f0:	f800283a 	ret
    49f4:	010001c4 	movi	r4,7
    49f8:	01400074 	movhi	r5,1
    49fc:	297d8404 	addi	r5,r5,-2544
    4a00:	00080400 	call	8040 <syslog>
    4a04:	80800017 	ldw	r2,0(r16)
    4a08:	94803fcc 	andi	r18,r18,255
    4a0c:	14801035 	stwio	r18,64(r2)
    4a10:	0005883a 	mov	r2,zero
    4a14:	dfc00317 	ldw	ra,12(sp)
    4a18:	dc800217 	ldw	r18,8(sp)
    4a1c:	dc400117 	ldw	r17,4(sp)
    4a20:	dc000017 	ldw	r16,0(sp)
    4a24:	dec00404 	addi	sp,sp,16
    4a28:	f800283a 	ret
    4a2c:	01000104 	movi	r4,4
    4a30:	01400074 	movhi	r5,1
    4a34:	297d5c04 	addi	r5,r5,-2704
    4a38:	00080400 	call	8040 <syslog>
    4a3c:	80800017 	ldw	r2,0(r16)
    4a40:	94803fcc 	andi	r18,r18,255
    4a44:	14801035 	stwio	r18,64(r2)
    4a48:	00bfff84 	movi	r2,-2
    4a4c:	003fe306 	br	49dc <tse_phy_restart_an+0xbc>
    4a50:	0001883a 	nop
    4a54:	0001883a 	nop
    4a58:	0001883a 	nop
    4a5c:	0001883a 	nop

00004a60 <tse_mac_aTxWrite>:
    4a60:	deffff04 	addi	sp,sp,-4
    4a64:	dfc00015 	stw	ra,0(sp)
    4a68:	008003f4 	movhi	r2,15
    4a6c:	10909044 	addi	r2,r2,16961
    4a70:	21800317 	ldw	r6,12(r4)
    4a74:	00000106 	br	4a7c <tse_mac_aTxWrite+0x1c>
    4a78:	10001026 	beq	r2,zero,4abc <tse_mac_aTxWrite+0x5c>
    4a7c:	30c00037 	ldwio	r3,0(r6)
    4a80:	18c0040c 	andi	r3,r3,16
    4a84:	10bfffc4 	addi	r2,r2,-1
    4a88:	183ffb1e 	bne	r3,zero,4a78 <tse_mac_aTxWrite+0x18>
    4a8c:	30000435 	stwio	zero,16(r6)
    4a90:	20800317 	ldw	r2,12(r4)
    4a94:	00c03fc4 	movi	r3,255
    4a98:	10c00035 	stwio	r3,0(r2)
    4a9c:	21000317 	ldw	r4,12(r4)
    4aa0:	00055200 	call	5520 <avalon_sgdma_do_async_transfer>
    4aa4:	10803fcc 	andi	r2,r2,255
    4aa8:	1005003a 	cmpeq	r2,r2,zero
    4aac:	10bfffc4 	addi	r2,r2,-1
    4ab0:	dfc00017 	ldw	ra,0(sp)
    4ab4:	dec00104 	addi	sp,sp,4
    4ab8:	f800283a 	ret
    4abc:	01000104 	movi	r4,4
    4ac0:	01400074 	movhi	r5,1
    4ac4:	297d4704 	addi	r5,r5,-2788
    4ac8:	00080400 	call	8040 <syslog>
    4acc:	00bffa84 	movi	r2,-22
    4ad0:	dfc00017 	ldw	ra,0(sp)
    4ad4:	dec00104 	addi	sp,sp,4
    4ad8:	f800283a 	ret
    4adc:	0001883a 	nop

00004ae0 <tse_mac_aRxRead>:
    4ae0:	deffff04 	addi	sp,sp,-4
    4ae4:	dfc00015 	stw	ra,0(sp)
    4ae8:	008003f4 	movhi	r2,15
    4aec:	10909044 	addi	r2,r2,16961
    4af0:	21000417 	ldw	r4,16(r4)
    4af4:	00000106 	br	4afc <tse_mac_aRxRead+0x1c>
    4af8:	10000b26 	beq	r2,zero,4b28 <tse_mac_aRxRead+0x48>
    4afc:	20c00037 	ldwio	r3,0(r4)
    4b00:	18c0040c 	andi	r3,r3,16
    4b04:	10bfffc4 	addi	r2,r2,-1
    4b08:	183ffb1e 	bne	r3,zero,4af8 <tse_mac_aRxRead+0x18>
    4b0c:	00055200 	call	5520 <avalon_sgdma_do_async_transfer>
    4b10:	10803fcc 	andi	r2,r2,255
    4b14:	1005003a 	cmpeq	r2,r2,zero
    4b18:	10bfffc4 	addi	r2,r2,-1
    4b1c:	dfc00017 	ldw	ra,0(sp)
    4b20:	dec00104 	addi	sp,sp,4
    4b24:	f800283a 	ret
    4b28:	01000104 	movi	r4,4
    4b2c:	01400074 	movhi	r5,1
    4b30:	297d8e04 	addi	r5,r5,-2504
    4b34:	00080400 	call	8040 <syslog>
    4b38:	00bffa84 	movi	r2,-22
    4b3c:	dfc00017 	ldw	ra,0(sp)
    4b40:	dec00104 	addi	sp,sp,4
    4b44:	f800283a 	ret
    4b48:	0001883a 	nop
    4b4c:	0001883a 	nop
    4b50:	0001883a 	nop
    4b54:	0001883a 	nop
    4b58:	0001883a 	nop
    4b5c:	0001883a 	nop

00004b60 <getPHYSpeed>:
    4b60:	defffb04 	addi	sp,sp,-20
    4b64:	dc000115 	stw	r16,4(sp)
    4b68:	dfc00415 	stw	ra,16(sp)
    4b6c:	dc800315 	stw	r18,12(sp)
    4b70:	dc400215 	stw	r17,8(sp)
    4b74:	2021883a 	mov	r16,r4
    4b78:	20009b26 	beq	r4,zero,4de8 <getPHYSpeed+0x288>
    4b7c:	20800017 	ldw	r2,0(r4)
    4b80:	20c00203 	ldbu	r3,8(r4)
    4b84:	01400044 	movi	r5,1
    4b88:	1023883a 	mov	r17,r2
    4b8c:	1940ad26 	beq	r3,r5,4e44 <getPHYSpeed+0x2e4>
    4b90:	01400084 	movi	r5,2
    4b94:	1940cb26 	beq	r3,r5,4ec4 <getPHYSpeed+0x364>
    4b98:	10801004 	addi	r2,r2,64
    4b9c:	14800037 	ldwio	r18,0(r2)
    4ba0:	80c00603 	ldbu	r3,24(r16)
    4ba4:	10c00035 	stwio	r3,0(r2)
    4ba8:	010001c4 	movi	r4,7
    4bac:	01400074 	movhi	r5,1
    4bb0:	297e3004 	addi	r5,r5,-1856
    4bb4:	00080400 	call	8040 <syslog>
    4bb8:	80800017 	ldw	r2,0(r16)
    4bbc:	10c0a037 	ldwio	r3,640(r2)
    4bc0:	1806d3ba 	srli	r3,r3,14
    4bc4:	18c0004c 	andi	r3,r3,1
    4bc8:	1800371e 	bne	r3,zero,4ca8 <getPHYSpeed+0x148>
    4bcc:	1080a137 	ldwio	r2,644(r2)
    4bd0:	1004d17a 	srli	r2,r2,5
    4bd4:	1080004c 	andi	r2,r2,1
    4bd8:	10003326 	beq	r2,zero,4ca8 <getPHYSpeed+0x148>
    4bdc:	010001c4 	movi	r4,7
    4be0:	01400074 	movhi	r5,1
    4be4:	297e6804 	addi	r5,r5,-1632
    4be8:	00080400 	call	8040 <syslog>
    4bec:	80800017 	ldw	r2,0(r16)
    4bf0:	94803fcc 	andi	r18,r18,255
    4bf4:	14801035 	stwio	r18,64(r2)
    4bf8:	80800603 	ldbu	r2,24(r16)
    4bfc:	88801035 	stwio	r2,64(r17)
    4c00:	8009883a 	mov	r4,r16
    4c04:	000b883a 	mov	r5,zero
    4c08:	01800384 	movi	r6,14
    4c0c:	000f883a 	mov	r7,zero
    4c10:	00048c00 	call	48c0 <tse_phy_wr_mdio_reg.constprop.2>
    4c14:	80800717 	ldw	r2,28(r16)
    4c18:	1000f626 	beq	r2,zero,4ff4 <getPHYSpeed+0x494>
    4c1c:	10c01817 	ldw	r3,96(r2)
    4c20:	18004326 	beq	r3,zero,4d30 <getPHYSpeed+0x1d0>
    4c24:	8809883a 	mov	r4,r17
    4c28:	183ee83a 	callr	r3
    4c2c:	1100008c 	andi	r4,r2,2
    4c30:	1007883a 	mov	r3,r2
    4c34:	20003826 	beq	r4,zero,4d18 <getPHYSpeed+0x1b8>
    4c38:	04400084 	movi	r17,2
    4c3c:	1900006c 	andhi	r4,r3,1
    4c40:	1c00004c 	andi	r16,r3,1
    4c44:	2000db1e 	bne	r4,zero,4fb4 <getPHYSpeed+0x454>
    4c48:	89003fcc 	andi	r4,r17,255
    4c4c:	00c00084 	movi	r3,2
    4c50:	20c06226 	beq	r4,r3,4ddc <getPHYSpeed+0x27c>
    4c54:	00c00044 	movi	r3,1
    4c58:	20c0f126 	beq	r4,r3,5020 <getPHYSpeed+0x4c0>
    4c5c:	2000761e 	bne	r4,zero,4e38 <getPHYSpeed+0x2d8>
    4c60:	01800074 	movhi	r6,1
    4c64:	31bd9a04 	addi	r6,r6,-2456
    4c68:	84003fcc 	andi	r16,r16,255
    4c6c:	8000581e 	bne	r16,zero,4dd0 <getPHYSpeed+0x270>
    4c70:	01c00074 	movhi	r7,1
    4c74:	39fd9d04 	addi	r7,r7,-2444
    4c78:	010001c4 	movi	r4,7
    4c7c:	01400074 	movhi	r5,1
    4c80:	297e9d04 	addi	r5,r5,-1420
    4c84:	d8800015 	stw	r2,0(sp)
    4c88:	00080400 	call	8040 <syslog>
    4c8c:	d8800017 	ldw	r2,0(sp)
    4c90:	dfc00417 	ldw	ra,16(sp)
    4c94:	dc800317 	ldw	r18,12(sp)
    4c98:	dc400217 	ldw	r17,8(sp)
    4c9c:	dc000117 	ldw	r16,4(sp)
    4ca0:	dec00504 	addi	sp,sp,20
    4ca4:	f800283a 	ret
    4ca8:	01400074 	movhi	r5,1
    4cac:	297e3904 	addi	r5,r5,-1820
    4cb0:	010001c4 	movi	r4,7
    4cb4:	00080400 	call	8040 <syslog>
    4cb8:	8009883a 	mov	r4,r16
    4cbc:	01400134 	movhi	r5,4
    4cc0:	29742404 	addi	r5,r5,-12144
    4cc4:	00049200 	call	4920 <tse_phy_restart_an>
    4cc8:	00ffffc4 	movi	r3,-1
    4ccc:	10ffc31e 	bne	r2,r3,4bdc <getPHYSpeed+0x7c>
    4cd0:	01000104 	movi	r4,4
    4cd4:	01400074 	movhi	r5,1
    4cd8:	297e4b04 	addi	r5,r5,-1748
    4cdc:	00080400 	call	8040 <syslog>
    4ce0:	80800017 	ldw	r2,0(r16)
    4ce4:	94803fcc 	andi	r18,r18,255
    4ce8:	14801035 	stwio	r18,64(r2)
    4cec:	01000104 	movi	r4,4
    4cf0:	01400074 	movhi	r5,1
    4cf4:	297e5604 	addi	r5,r5,-1704
    4cf8:	01800074 	movhi	r6,1
    4cfc:	31bd9504 	addi	r6,r6,-2476
    4d00:	01c00074 	movhi	r7,1
    4d04:	39fd9b04 	addi	r7,r7,-2452
    4d08:	00080400 	call	8040 <syslog>
    4d0c:	00800234 	movhi	r2,8
    4d10:	10800144 	addi	r2,r2,5
    4d14:	003fde06 	br	4c90 <getPHYSpeed+0x130>
    4d18:	1900010c 	andi	r4,r3,4
    4d1c:	2000ad1e 	bne	r4,zero,4fd4 <getPHYSpeed+0x474>
    4d20:	1900020c 	andi	r4,r3,8
    4d24:	2000ad26 	beq	r4,zero,4fdc <getPHYSpeed+0x47c>
    4d28:	0023883a 	mov	r17,zero
    4d2c:	003fc306 	br	4c3c <getPHYSpeed+0xdc>
    4d30:	10c01583 	ldbu	r3,86(r2)
    4d34:	18001e26 	beq	r3,zero,4db0 <getPHYSpeed+0x250>
    4d38:	81400017 	ldw	r5,0(r16)
    4d3c:	18c7883a 	add	r3,r3,r3
    4d40:	144015c3 	ldbu	r17,87(r2)
    4d44:	2940a004 	addi	r5,r5,640
    4d48:	18c7883a 	add	r3,r3,r3
    4d4c:	28c7883a 	add	r3,r5,r3
    4d50:	19000037 	ldwio	r4,0(r3)
    4d54:	10c01583 	ldbu	r3,86(r2)
    4d58:	213fffcc 	andi	r4,r4,65535
    4d5c:	2463d83a 	sra	r17,r4,r17
    4d60:	18c7883a 	add	r3,r3,r3
    4d64:	10801603 	ldbu	r2,88(r2)
    4d68:	18c7883a 	add	r3,r3,r3
    4d6c:	8c4000cc 	andi	r17,r17,3
    4d70:	28cb883a 	add	r5,r5,r3
    4d74:	28c00037 	ldwio	r3,0(r5)
    4d78:	18ffffcc 	andi	r3,r3,65535
    4d7c:	1885d83a 	sra	r2,r3,r2
    4d80:	89003fcc 	andi	r4,r17,255
    4d84:	00c00084 	movi	r3,2
    4d88:	1080004c 	andi	r2,r2,1
    4d8c:	1021883a 	mov	r16,r2
    4d90:	20c09f26 	beq	r4,r3,5010 <getPHYSpeed+0x4b0>
    4d94:	00c00044 	movi	r3,1
    4d98:	20c09226 	beq	r4,r3,4fe4 <getPHYSpeed+0x484>
    4d9c:	2000a31e 	bne	r4,zero,502c <getPHYSpeed+0x4cc>
    4da0:	10800214 	ori	r2,r2,8
    4da4:	0007883a 	mov	r3,zero
    4da8:	10c4b03a 	or	r2,r2,r3
    4dac:	003fa706 	br	4c4c <getPHYSpeed+0xec>
    4db0:	01000104 	movi	r4,4
    4db4:	01400074 	movhi	r5,1
    4db8:	297e8804 	addi	r5,r5,-1504
    4dbc:	00080400 	call	8040 <syslog>
    4dc0:	008000b4 	movhi	r2,2
    4dc4:	10800144 	addi	r2,r2,5
    4dc8:	01800074 	movhi	r6,1
    4dcc:	31bd9504 	addi	r6,r6,-2476
    4dd0:	01c00074 	movhi	r7,1
    4dd4:	39fd9b04 	addi	r7,r7,-2452
    4dd8:	003fa706 	br	4c78 <getPHYSpeed+0x118>
    4ddc:	01800074 	movhi	r6,1
    4de0:	31bd9604 	addi	r6,r6,-2472
    4de4:	003fa006 	br	4c68 <getPHYSpeed+0x108>
    4de8:	01800074 	movhi	r6,1
    4dec:	31bd9504 	addi	r6,r6,-2476
    4df0:	01c00074 	movhi	r7,1
    4df4:	39fd9b04 	addi	r7,r7,-2452
    4df8:	010000c4 	movi	r4,3
    4dfc:	01400074 	movhi	r5,1
    4e00:	297d9f04 	addi	r5,r5,-2436
    4e04:	00080400 	call	8040 <syslog>
    4e08:	010000c4 	movi	r4,3
    4e0c:	01400074 	movhi	r5,1
    4e10:	297db104 	addi	r5,r5,-2364
    4e14:	00080400 	call	8040 <syslog>
    4e18:	00802034 	movhi	r2,128
    4e1c:	10800144 	addi	r2,r2,5
    4e20:	dfc00417 	ldw	ra,16(sp)
    4e24:	dc800317 	ldw	r18,12(sp)
    4e28:	dc400217 	ldw	r17,8(sp)
    4e2c:	dc000117 	ldw	r16,4(sp)
    4e30:	dec00504 	addi	sp,sp,20
    4e34:	f800283a 	ret
    4e38:	01800074 	movhi	r6,1
    4e3c:	31bd9804 	addi	r6,r6,-2464
    4e40:	003f8906 	br	4c68 <getPHYSpeed+0x108>
    4e44:	10801004 	addi	r2,r2,64
    4e48:	14800037 	ldwio	r18,0(r2)
    4e4c:	20c00603 	ldbu	r3,24(r4)
    4e50:	10c00035 	stwio	r3,0(r2)
    4e54:	01400244 	movi	r5,9
    4e58:	280d883a 	mov	r6,r5
    4e5c:	000f883a 	mov	r7,zero
    4e60:	00048c00 	call	48c0 <tse_phy_wr_mdio_reg.constprop.2>
    4e64:	01400074 	movhi	r5,1
    4e68:	297dbd04 	addi	r5,r5,-2316
    4e6c:	000d883a 	mov	r6,zero
    4e70:	010001c4 	movi	r4,7
    4e74:	00080400 	call	8040 <syslog>
    4e78:	8009883a 	mov	r4,r16
    4e7c:	01400244 	movi	r5,9
    4e80:	000f883a 	mov	r7,zero
    4e84:	01800204 	movi	r6,8
    4e88:	00048c00 	call	48c0 <tse_phy_wr_mdio_reg.constprop.2>
    4e8c:	010001c4 	movi	r4,7
    4e90:	01400074 	movhi	r5,1
    4e94:	297dce04 	addi	r5,r5,-2248
    4e98:	000d883a 	mov	r6,zero
    4e9c:	00080400 	call	8040 <syslog>
    4ea0:	80800017 	ldw	r2,0(r16)
    4ea4:	94803fcc 	andi	r18,r18,255
    4ea8:	14801035 	stwio	r18,64(r2)
    4eac:	8009883a 	mov	r4,r16
    4eb0:	01400134 	movhi	r5,4
    4eb4:	29742404 	addi	r5,r5,-12144
    4eb8:	00049200 	call	4920 <tse_phy_restart_an>
    4ebc:	80800017 	ldw	r2,0(r16)
    4ec0:	003f3506 	br	4b98 <getPHYSpeed+0x38>
    4ec4:	10801004 	addi	r2,r2,64
    4ec8:	14800037 	ldwio	r18,0(r2)
    4ecc:	20c00603 	ldbu	r3,24(r4)
    4ed0:	10c00035 	stwio	r3,0(r2)
    4ed4:	000f883a 	mov	r7,zero
    4ed8:	01400104 	movi	r5,4
    4edc:	01800244 	movi	r6,9
    4ee0:	00048c00 	call	48c0 <tse_phy_wr_mdio_reg.constprop.2>
    4ee4:	01400074 	movhi	r5,1
    4ee8:	297dde04 	addi	r5,r5,-2184
    4eec:	000d883a 	mov	r6,zero
    4ef0:	010001c4 	movi	r4,7
    4ef4:	00080400 	call	8040 <syslog>
    4ef8:	8009883a 	mov	r4,r16
    4efc:	000f883a 	mov	r7,zero
    4f00:	01400104 	movi	r5,4
    4f04:	01800204 	movi	r6,8
    4f08:	00048c00 	call	48c0 <tse_phy_wr_mdio_reg.constprop.2>
    4f0c:	01400074 	movhi	r5,1
    4f10:	297dec04 	addi	r5,r5,-2128
    4f14:	000d883a 	mov	r6,zero
    4f18:	010001c4 	movi	r4,7
    4f1c:	00080400 	call	8040 <syslog>
    4f20:	8009883a 	mov	r4,r16
    4f24:	000f883a 	mov	r7,zero
    4f28:	01400104 	movi	r5,4
    4f2c:	018001c4 	movi	r6,7
    4f30:	00048c00 	call	48c0 <tse_phy_wr_mdio_reg.constprop.2>
    4f34:	010001c4 	movi	r4,7
    4f38:	01400074 	movhi	r5,1
    4f3c:	297dfd04 	addi	r5,r5,-2060
    4f40:	000d883a 	mov	r6,zero
    4f44:	00080400 	call	8040 <syslog>
    4f48:	80800017 	ldw	r2,0(r16)
    4f4c:	94803fcc 	andi	r18,r18,255
    4f50:	14801035 	stwio	r18,64(r2)
    4f54:	80800017 	ldw	r2,0(r16)
    4f58:	10801004 	addi	r2,r2,64
    4f5c:	14800037 	ldwio	r18,0(r2)
    4f60:	80c00603 	ldbu	r3,24(r16)
    4f64:	10c00035 	stwio	r3,0(r2)
    4f68:	000f883a 	mov	r7,zero
    4f6c:	8009883a 	mov	r4,r16
    4f70:	01400104 	movi	r5,4
    4f74:	01800184 	movi	r6,6
    4f78:	00048c00 	call	48c0 <tse_phy_wr_mdio_reg.constprop.2>
    4f7c:	01400074 	movhi	r5,1
    4f80:	297e0e04 	addi	r5,r5,-1992
    4f84:	000d883a 	mov	r6,zero
    4f88:	010001c4 	movi	r4,7
    4f8c:	00080400 	call	8040 <syslog>
    4f90:	8009883a 	mov	r4,r16
    4f94:	01400104 	movi	r5,4
    4f98:	000f883a 	mov	r7,zero
    4f9c:	01800144 	movi	r6,5
    4fa0:	00048c00 	call	48c0 <tse_phy_wr_mdio_reg.constprop.2>
    4fa4:	010001c4 	movi	r4,7
    4fa8:	01400074 	movhi	r5,1
    4fac:	297e1f04 	addi	r5,r5,-1924
    4fb0:	003fb906 	br	4e98 <getPHYSpeed+0x338>
    4fb4:	01000104 	movi	r4,4
    4fb8:	01400074 	movhi	r5,1
    4fbc:	297e7d04 	addi	r5,r5,-1548
    4fc0:	d8800015 	stw	r2,0(sp)
    4fc4:	00080400 	call	8040 <syslog>
    4fc8:	89003fcc 	andi	r4,r17,255
    4fcc:	d8800017 	ldw	r2,0(sp)
    4fd0:	003f1e06 	br	4c4c <getPHYSpeed+0xec>
    4fd4:	04400044 	movi	r17,1
    4fd8:	003f1806 	br	4c3c <getPHYSpeed+0xdc>
    4fdc:	044000c4 	movi	r17,3
    4fe0:	003f1606 	br	4c3c <getPHYSpeed+0xdc>
    4fe4:	10800114 	ori	r2,r2,4
    4fe8:	0007883a 	mov	r3,zero
    4fec:	10c4b03a 	or	r2,r2,r3
    4ff0:	003f1606 	br	4c4c <getPHYSpeed+0xec>
    4ff4:	01000104 	movi	r4,4
    4ff8:	01400074 	movhi	r5,1
    4ffc:	297e7104 	addi	r5,r5,-1596
    5000:	00080400 	call	8040 <syslog>
    5004:	00800134 	movhi	r2,4
    5008:	10800144 	addi	r2,r2,5
    500c:	003f6e06 	br	4dc8 <getPHYSpeed+0x268>
    5010:	10800094 	ori	r2,r2,2
    5014:	0007883a 	mov	r3,zero
    5018:	10c4b03a 	or	r2,r2,r3
    501c:	003f0b06 	br	4c4c <getPHYSpeed+0xec>
    5020:	01800074 	movhi	r6,1
    5024:	31bd9504 	addi	r6,r6,-2476
    5028:	003f0f06 	br	4c68 <getPHYSpeed+0x108>
    502c:	20c000e0 	cmpeqi	r3,r4,3
    5030:	1806943a 	slli	r3,r3,16
    5034:	10c4b03a 	or	r2,r2,r3
    5038:	003f0406 	br	4c4c <getPHYSpeed+0xec>
    503c:	0001883a 	nop

00005040 <tse_phy_init>:
    5040:	defff904 	addi	sp,sp,-28
    5044:	dfc00615 	stw	ra,24(sp)
    5048:	dc000015 	stw	r16,0(sp)
    504c:	dd400515 	stw	r21,20(sp)
    5050:	dd000415 	stw	r20,16(sp)
    5054:	dcc00315 	stw	r19,12(sp)
    5058:	dc800215 	stw	r18,8(sp)
    505c:	dc400115 	stw	r17,4(sp)
    5060:	21800317 	ldw	r6,12(r4)
    5064:	2021883a 	mov	r16,r4
    5068:	01400074 	movhi	r5,1
    506c:	297ea704 	addi	r5,r5,-1380
    5070:	010001c4 	movi	r4,7
    5074:	00080400 	call	8040 <syslog>
    5078:	81800417 	ldw	r6,16(r16)
    507c:	010001c4 	movi	r4,7
    5080:	01400074 	movhi	r5,1
    5084:	297eb104 	addi	r5,r5,-1340
    5088:	00080400 	call	8040 <syslog>
    508c:	80800317 	ldw	r2,12(r16)
    5090:	1000ec26 	beq	r2,zero,5444 <tse_phy_init+0x404>
    5094:	80800417 	ldw	r2,16(r16)
    5098:	1000ea26 	beq	r2,zero,5444 <tse_phy_init+0x404>
    509c:	80800203 	ldbu	r2,8(r16)
    50a0:	00c00044 	movi	r3,1
    50a4:	10c0e026 	beq	r2,r3,5428 <tse_phy_init+0x3e8>
    50a8:	1000cf26 	beq	r2,zero,53e8 <tse_phy_init+0x3a8>
    50ac:	00c00084 	movi	r3,2
    50b0:	010001c4 	movi	r4,7
    50b4:	01400074 	movhi	r5,1
    50b8:	297ec604 	addi	r5,r5,-1256
    50bc:	10c0d626 	beq	r2,r3,5418 <tse_phy_init+0x3d8>
    50c0:	01800074 	movhi	r6,1
    50c4:	31bd9804 	addi	r6,r6,-2464
    50c8:	00080400 	call	8040 <syslog>
    50cc:	81800017 	ldw	r6,0(r16)
    50d0:	010001c4 	movi	r4,7
    50d4:	01400074 	movhi	r5,1
    50d8:	297ee204 	addi	r5,r5,-1144
    50dc:	00080400 	call	8040 <syslog>
    50e0:	84400017 	ldw	r17,0(r16)
    50e4:	8c801004 	addi	r18,r17,64
    50e8:	95000037 	ldwio	r20,0(r18)
    50ec:	80800603 	ldbu	r2,24(r16)
    50f0:	90800035 	stwio	r2,0(r18)
    50f4:	8880a237 	ldwio	r2,648(r17)
    50f8:	8cc0a337 	ldwio	r19,652(r17)
    50fc:	14c0c126 	beq	r2,r19,5404 <tse_phy_init+0x3c4>
    5100:	980dd2ba 	srai	r6,r19,10
    5104:	100491ba 	slli	r2,r2,6
    5108:	010001c4 	movi	r4,7
    510c:	31800fcc 	andi	r6,r6,63
    5110:	308cb03a 	or	r6,r6,r2
    5114:	01400074 	movhi	r5,1
    5118:	297eed04 	addi	r5,r5,-1100
    511c:	00080400 	call	8040 <syslog>
    5120:	980dd13a 	srai	r6,r19,4
    5124:	010001c4 	movi	r4,7
    5128:	01400074 	movhi	r5,1
    512c:	297ef704 	addi	r5,r5,-1060
    5130:	31800fcc 	andi	r6,r6,63
    5134:	00080400 	call	8040 <syslog>
    5138:	998003cc 	andi	r6,r19,15
    513c:	01400074 	movhi	r5,1
    5140:	297f0104 	addi	r5,r5,-1020
    5144:	010001c4 	movi	r4,7
    5148:	00080400 	call	8040 <syslog>
    514c:	8009883a 	mov	r4,r16
    5150:	000b883a 	mov	r5,zero
    5154:	01800384 	movi	r6,14
    5158:	000f883a 	mov	r7,zero
    515c:	00048c00 	call	48c0 <tse_phy_wr_mdio_reg.constprop.2>
    5160:	80800017 	ldw	r2,0(r16)
    5164:	10801004 	addi	r2,r2,64
    5168:	15400037 	ldwio	r21,0(r2)
    516c:	80c00603 	ldbu	r3,24(r16)
    5170:	10c00035 	stwio	r3,0(r2)
    5174:	80800017 	ldw	r2,0(r16)
    5178:	14c0af37 	ldwio	r19,700(r2)
    517c:	01400244 	movi	r5,9
    5180:	9826d37a 	srli	r19,r19,13
    5184:	8009883a 	mov	r4,r16
    5188:	280d883a 	mov	r6,r5
    518c:	9cc0004c 	andi	r19,r19,1
    5190:	980f883a 	mov	r7,r19
    5194:	00048c00 	call	48c0 <tse_phy_wr_mdio_reg.constprop.2>
    5198:	010001c4 	movi	r4,7
    519c:	01400074 	movhi	r5,1
    51a0:	297dbd04 	addi	r5,r5,-2316
    51a4:	980d883a 	mov	r6,r19
    51a8:	00080400 	call	8040 <syslog>
    51ac:	80800017 	ldw	r2,0(r16)
    51b0:	14c0af37 	ldwio	r19,700(r2)
    51b4:	01400244 	movi	r5,9
    51b8:	9826d33a 	srli	r19,r19,12
    51bc:	8009883a 	mov	r4,r16
    51c0:	01800204 	movi	r6,8
    51c4:	9cc0004c 	andi	r19,r19,1
    51c8:	980f883a 	mov	r7,r19
    51cc:	00048c00 	call	48c0 <tse_phy_wr_mdio_reg.constprop.2>
    51d0:	010001c4 	movi	r4,7
    51d4:	01400074 	movhi	r5,1
    51d8:	297f0b04 	addi	r5,r5,-980
    51dc:	980d883a 	mov	r6,r19
    51e0:	00080400 	call	8040 <syslog>
    51e4:	80800017 	ldw	r2,0(r16)
    51e8:	ad403fcc 	andi	r21,r21,255
    51ec:	15401035 	stwio	r21,64(r2)
    51f0:	80800017 	ldw	r2,0(r16)
    51f4:	10801004 	addi	r2,r2,64
    51f8:	15400037 	ldwio	r21,0(r2)
    51fc:	80c00603 	ldbu	r3,24(r16)
    5200:	10c00035 	stwio	r3,0(r2)
    5204:	80800017 	ldw	r2,0(r16)
    5208:	14c0a137 	ldwio	r19,644(r2)
    520c:	01400104 	movi	r5,4
    5210:	9cffffcc 	andi	r19,r19,65535
    5214:	9827d3fa 	srai	r19,r19,15
    5218:	8009883a 	mov	r4,r16
    521c:	01800244 	movi	r6,9
    5220:	980f883a 	mov	r7,r19
    5224:	00048c00 	call	48c0 <tse_phy_wr_mdio_reg.constprop.2>
    5228:	010001c4 	movi	r4,7
    522c:	01400074 	movhi	r5,1
    5230:	297dde04 	addi	r5,r5,-2184
    5234:	980d883a 	mov	r6,r19
    5238:	00080400 	call	8040 <syslog>
    523c:	80800017 	ldw	r2,0(r16)
    5240:	14c0a137 	ldwio	r19,644(r2)
    5244:	01400104 	movi	r5,4
    5248:	9826d3ba 	srli	r19,r19,14
    524c:	8009883a 	mov	r4,r16
    5250:	01800204 	movi	r6,8
    5254:	9cc0004c 	andi	r19,r19,1
    5258:	980f883a 	mov	r7,r19
    525c:	00048c00 	call	48c0 <tse_phy_wr_mdio_reg.constprop.2>
    5260:	010001c4 	movi	r4,7
    5264:	01400074 	movhi	r5,1
    5268:	297dec04 	addi	r5,r5,-2128
    526c:	980d883a 	mov	r6,r19
    5270:	00080400 	call	8040 <syslog>
    5274:	80800017 	ldw	r2,0(r16)
    5278:	14c0a137 	ldwio	r19,644(r2)
    527c:	01400104 	movi	r5,4
    5280:	9826d37a 	srli	r19,r19,13
    5284:	8009883a 	mov	r4,r16
    5288:	018001c4 	movi	r6,7
    528c:	9cc0004c 	andi	r19,r19,1
    5290:	980f883a 	mov	r7,r19
    5294:	00048c00 	call	48c0 <tse_phy_wr_mdio_reg.constprop.2>
    5298:	010001c4 	movi	r4,7
    529c:	01400074 	movhi	r5,1
    52a0:	297dfd04 	addi	r5,r5,-2060
    52a4:	980d883a 	mov	r6,r19
    52a8:	00080400 	call	8040 <syslog>
    52ac:	80800017 	ldw	r2,0(r16)
    52b0:	ad403fcc 	andi	r21,r21,255
    52b4:	15401035 	stwio	r21,64(r2)
    52b8:	80800017 	ldw	r2,0(r16)
    52bc:	10801004 	addi	r2,r2,64
    52c0:	15400037 	ldwio	r21,0(r2)
    52c4:	80c00603 	ldbu	r3,24(r16)
    52c8:	10c00035 	stwio	r3,0(r2)
    52cc:	80800017 	ldw	r2,0(r16)
    52d0:	14c0a137 	ldwio	r19,644(r2)
    52d4:	01400104 	movi	r5,4
    52d8:	9826d33a 	srli	r19,r19,12
    52dc:	8009883a 	mov	r4,r16
    52e0:	01800184 	movi	r6,6
    52e4:	9cc0004c 	andi	r19,r19,1
    52e8:	980f883a 	mov	r7,r19
    52ec:	00048c00 	call	48c0 <tse_phy_wr_mdio_reg.constprop.2>
    52f0:	010001c4 	movi	r4,7
    52f4:	01400074 	movhi	r5,1
    52f8:	297e0e04 	addi	r5,r5,-1992
    52fc:	980d883a 	mov	r6,r19
    5300:	00080400 	call	8040 <syslog>
    5304:	80800017 	ldw	r2,0(r16)
    5308:	14c0a137 	ldwio	r19,644(r2)
    530c:	01400104 	movi	r5,4
    5310:	9826d2fa 	srli	r19,r19,11
    5314:	8009883a 	mov	r4,r16
    5318:	01800144 	movi	r6,5
    531c:	9cc0004c 	andi	r19,r19,1
    5320:	980f883a 	mov	r7,r19
    5324:	00048c00 	call	48c0 <tse_phy_wr_mdio_reg.constprop.2>
    5328:	010001c4 	movi	r4,7
    532c:	01400074 	movhi	r5,1
    5330:	297e1f04 	addi	r5,r5,-1924
    5334:	980d883a 	mov	r6,r19
    5338:	00080400 	call	8040 <syslog>
    533c:	80800017 	ldw	r2,0(r16)
    5340:	ad403fcc 	andi	r21,r21,255
    5344:	15401035 	stwio	r21,64(r2)
    5348:	8009883a 	mov	r4,r16
    534c:	014003f4 	movhi	r5,15
    5350:	29509004 	addi	r5,r5,16960
    5354:	00049200 	call	4920 <tse_phy_restart_an>
    5358:	81800717 	ldw	r6,28(r16)
    535c:	30000a26 	beq	r6,zero,5388 <tse_phy_init+0x348>
    5360:	30801717 	ldw	r2,92(r6)
    5364:	10000826 	beq	r2,zero,5388 <tse_phy_init+0x348>
    5368:	010001c4 	movi	r4,7
    536c:	01400074 	movhi	r5,1
    5370:	297f1c04 	addi	r5,r5,-912
    5374:	00080400 	call	8040 <syslog>
    5378:	80800717 	ldw	r2,28(r16)
    537c:	8809883a 	mov	r4,r17
    5380:	10801717 	ldw	r2,92(r2)
    5384:	103ee83a 	callr	r2
    5388:	80800817 	ldw	r2,32(r16)
    538c:	10000726 	beq	r2,zero,53ac <tse_phy_init+0x36c>
    5390:	010001c4 	movi	r4,7
    5394:	01400074 	movhi	r5,1
    5398:	297f2a04 	addi	r5,r5,-856
    539c:	00080400 	call	8040 <syslog>
    53a0:	80800817 	ldw	r2,32(r16)
    53a4:	8809883a 	mov	r4,r17
    53a8:	103ee83a 	callr	r2
    53ac:	010001c4 	movi	r4,7
    53b0:	01400074 	movhi	r5,1
    53b4:	29424504 	addi	r5,r5,2324
    53b8:	00080400 	call	8040 <syslog>
    53bc:	95000035 	stwio	r20,0(r18)
    53c0:	0005883a 	mov	r2,zero
    53c4:	dfc00617 	ldw	ra,24(sp)
    53c8:	dd400517 	ldw	r21,20(sp)
    53cc:	dd000417 	ldw	r20,16(sp)
    53d0:	dcc00317 	ldw	r19,12(sp)
    53d4:	dc800217 	ldw	r18,8(sp)
    53d8:	dc400117 	ldw	r17,4(sp)
    53dc:	dc000017 	ldw	r16,0(sp)
    53e0:	dec00704 	addi	sp,sp,28
    53e4:	f800283a 	ret
    53e8:	010001c4 	movi	r4,7
    53ec:	01400074 	movhi	r5,1
    53f0:	297ec604 	addi	r5,r5,-1256
    53f4:	01800074 	movhi	r6,1
    53f8:	31bedb04 	addi	r6,r6,-1172
    53fc:	00080400 	call	8040 <syslog>
    5400:	003f3206 	br	50cc <tse_phy_init+0x8c>
    5404:	010000c4 	movi	r4,3
    5408:	01400074 	movhi	r5,1
    540c:	297f3804 	addi	r5,r5,-800
    5410:	00080400 	call	8040 <syslog>
    5414:	003fe906 	br	53bc <tse_phy_init+0x37c>
    5418:	01800074 	movhi	r6,1
    541c:	31bed004 	addi	r6,r6,-1216
    5420:	00080400 	call	8040 <syslog>
    5424:	003f2906 	br	50cc <tse_phy_init+0x8c>
    5428:	010001c4 	movi	r4,7
    542c:	01400074 	movhi	r5,1
    5430:	297ec604 	addi	r5,r5,-1256
    5434:	01800074 	movhi	r6,1
    5438:	31bed504 	addi	r6,r6,-1196
    543c:	00080400 	call	8040 <syslog>
    5440:	003f2206 	br	50cc <tse_phy_init+0x8c>
    5444:	010000c4 	movi	r4,3
    5448:	01400074 	movhi	r5,1
    544c:	297ebb04 	addi	r5,r5,-1300
    5450:	00080400 	call	8040 <syslog>
    5454:	003f2206 	br	50e0 <tse_phy_init+0xa0>
    5458:	0001883a 	nop
    545c:	0001883a 	nop

00005460 <marvell_cfg_rgmii>:
    5460:	defffb04 	addi	sp,sp,-20
    5464:	dc800215 	stw	r18,8(sp)
    5468:	dc000015 	stw	r16,0(sp)
    546c:	2480bb04 	addi	r18,r4,748
    5470:	2021883a 	mov	r16,r4
    5474:	dfc00415 	stw	ra,16(sp)
    5478:	dcc00315 	stw	r19,12(sp)
    547c:	dc400115 	stw	r17,4(sp)
    5480:	94c00037 	ldwio	r19,0(r18)
    5484:	044001c4 	movi	r17,7
    5488:	8809883a 	mov	r4,r17
    548c:	01400074 	movhi	r5,1
    5490:	297f4104 	addi	r5,r5,-764
    5494:	9cfffc0c 	andi	r19,r19,65520
    5498:	00080400 	call	8040 <syslog>
    549c:	9cc002d4 	ori	r19,r19,11
    54a0:	94c00035 	stwio	r19,0(r18)
    54a4:	8809883a 	mov	r4,r17
    54a8:	01400074 	movhi	r5,1
    54ac:	297f5004 	addi	r5,r5,-704
    54b0:	00080400 	call	8040 <syslog>
    54b4:	8080b404 	addi	r2,r16,720
    54b8:	10c00037 	ldwio	r3,0(r2)
    54bc:	18ffdf4c 	andi	r3,r3,65405
    54c0:	18c02094 	ori	r3,r3,130
    54c4:	10c00035 	stwio	r3,0(r2)
    54c8:	8809883a 	mov	r4,r17
    54cc:	01400074 	movhi	r5,1
    54d0:	297d5704 	addi	r5,r5,-2724
    54d4:	00080400 	call	8040 <syslog>
    54d8:	8400a004 	addi	r16,r16,640
    54dc:	80800037 	ldwio	r2,0(r16)
    54e0:	10a00014 	ori	r2,r2,32768
    54e4:	80800035 	stwio	r2,0(r16)
    54e8:	00800044 	movi	r2,1
    54ec:	dfc00417 	ldw	ra,16(sp)
    54f0:	dcc00317 	ldw	r19,12(sp)
    54f4:	dc800217 	ldw	r18,8(sp)
    54f8:	dc400117 	ldw	r17,4(sp)
    54fc:	dc000017 	ldw	r16,0(sp)
    5500:	dec00504 	addi	sp,sp,20
    5504:	f800283a 	ret
	...

00005520 <avalon_sgdma_do_async_transfer>:
    5520:	20800037 	ldwio	r2,0(r4)
    5524:	1080040c 	andi	r2,r2,16
    5528:	10000d1e 	bne	r2,zero,5560 <avalon_sgdma_do_async_transfer+0x40>
    552c:	20800404 	addi	r2,r4,16
    5530:	11800037 	ldwio	r6,0(r2)
    5534:	00fff7c4 	movi	r3,-33
    5538:	30c6703a 	and	r3,r6,r3
    553c:	10c00035 	stwio	r3,0(r2)
    5540:	00c03fc4 	movi	r3,255
    5544:	20c00035 	stwio	r3,0(r4)
    5548:	21400835 	stwio	r5,32(r4)
    554c:	10c00037 	ldwio	r3,0(r2)
    5550:	18c01e14 	ori	r3,r3,120
    5554:	10c00035 	stwio	r3,0(r2)
    5558:	0005883a 	mov	r2,zero
    555c:	f800283a 	ret
    5560:	00bffc04 	movi	r2,-16
    5564:	f800283a 	ret
    5568:	0001883a 	nop
    556c:	0001883a 	nop
    5570:	0001883a 	nop
    5574:	0001883a 	nop
    5578:	0001883a 	nop
    557c:	0001883a 	nop

00005580 <avalon_sgdma_construct_descriptor>:
    5580:	d8c0000b 	ldhu	r3,0(sp)
    5584:	288007c4 	addi	r2,r5,31
    5588:	12000023 	ldbuio	r8,0(r2)
    558c:	42001fcc 	andi	r8,r8,127
    5590:	12000025 	stbio	r8,0(r2)
    5594:	21800035 	stwio	r6,0(r4)
    5598:	21c00235 	stwio	r7,8(r4)
    559c:	21400435 	stwio	r5,16(r4)
    55a0:	20000135 	stwio	zero,4(r4)
    55a4:	20000335 	stwio	zero,12(r4)
    55a8:	20000535 	stwio	zero,20(r4)
    55ac:	20c0062d 	sthio	r3,24(r4)
    55b0:	2000072d 	sthio	zero,28(r4)
    55b4:	200007a5 	stbio	zero,30(r4)
    55b8:	200006a5 	stbio	zero,26(r4)
    55bc:	200006e5 	stbio	zero,27(r4)
    55c0:	d9400217 	ldw	r5,8(sp)
    55c4:	d8c00317 	ldw	r3,12(sp)
    55c8:	d9800117 	ldw	r6,4(sp)
    55cc:	280ac03a 	cmpne	r5,r5,zero
    55d0:	280a907a 	slli	r5,r5,1
    55d4:	1806c03a 	cmpne	r3,r3,zero
    55d8:	300d003a 	cmpeq	r6,r6,zero
    55dc:	180690ba 	slli	r3,r3,2
    55e0:	00bfe044 	movi	r2,-127
    55e4:	1185c83a 	sub	r2,r2,r6
    55e8:	2884b03a 	or	r2,r5,r2
    55ec:	10c4b03a 	or	r2,r2,r3
    55f0:	208007e5 	stbio	r2,31(r4)
    55f4:	f800283a 	ret
    55f8:	0001883a 	nop
    55fc:	0001883a 	nop

00005600 <avalon_sgdma_init>:
    5600:	defffb04 	addi	sp,sp,-20
    5604:	dc400115 	stw	r17,4(sp)
    5608:	dc000015 	stw	r16,0(sp)
    560c:	04400184 	movi	r17,6
    5610:	24000404 	addi	r16,r4,16
    5614:	dc800215 	stw	r18,8(sp)
    5618:	800d883a 	mov	r6,r16
    561c:	2025883a 	mov	r18,r4
    5620:	01400074 	movhi	r5,1
    5624:	297f5a04 	addi	r5,r5,-664
    5628:	8809883a 	mov	r4,r17
    562c:	dfc00415 	stw	ra,16(sp)
    5630:	dcc00315 	stw	r19,12(sp)
    5634:	00080400 	call	8040 <syslog>
    5638:	04c00074 	movhi	r19,1
    563c:	980d883a 	mov	r6,r19
    5640:	8809883a 	mov	r4,r17
    5644:	01400074 	movhi	r5,1
    5648:	297f5f04 	addi	r5,r5,-644
    564c:	00080400 	call	8040 <syslog>
    5650:	8809883a 	mov	r4,r17
    5654:	800d883a 	mov	r6,r16
    5658:	01400074 	movhi	r5,1
    565c:	297f6404 	addi	r5,r5,-624
    5660:	00080400 	call	8040 <syslog>
    5664:	8809883a 	mov	r4,r17
    5668:	01400074 	movhi	r5,1
    566c:	297f6904 	addi	r5,r5,-604
    5670:	900d883a 	mov	r6,r18
    5674:	00080400 	call	8040 <syslog>
    5678:	84c00035 	stwio	r19,0(r16)
    567c:	84c00035 	stwio	r19,0(r16)
    5680:	80000035 	stwio	zero,0(r16)
    5684:	00803fc4 	movi	r2,255
    5688:	90800035 	stwio	r2,0(r18)
    568c:	dfc00417 	ldw	ra,16(sp)
    5690:	dcc00317 	ldw	r19,12(sp)
    5694:	dc800217 	ldw	r18,8(sp)
    5698:	dc400117 	ldw	r17,4(sp)
    569c:	dc000017 	ldw	r16,0(sp)
    56a0:	dec00504 	addi	sp,sp,20
    56a4:	f800283a 	ret
	...

000056c0 <udp_input>:
    56c0:	defff704 	addi	sp,sp,-36
    56c4:	dc000015 	stw	r16,0(sp)
    56c8:	dfc00815 	stw	ra,32(sp)
    56cc:	ddc00715 	stw	r23,28(sp)
    56d0:	dd800615 	stw	r22,24(sp)
    56d4:	dd400515 	stw	r21,20(sp)
    56d8:	dd000415 	stw	r20,16(sp)
    56dc:	dcc00315 	stw	r19,12(sp)
    56e0:	dc800215 	stw	r18,8(sp)
    56e4:	dc400115 	stw	r17,4(sp)
    56e8:	24800017 	ldw	r18,0(r4)
    56ec:	04000074 	movhi	r16,1
    56f0:	84034304 	addi	r16,r16,3340
    56f4:	81800417 	ldw	r6,16(r16)
    56f8:	90800503 	ldbu	r2,20(r18)
    56fc:	9200000b 	ldhu	r8,0(r18)
    5700:	81000017 	ldw	r4,0(r16)
    5704:	108003cc 	andi	r2,r2,15
    5708:	1085883a 	add	r2,r2,r2
    570c:	1085883a 	add	r2,r2,r2
    5710:	11c00404 	addi	r7,r2,16
    5714:	41d1c83a 	sub	r8,r8,r7
    5718:	82800117 	ldw	r10,4(r16)
    571c:	82400517 	ldw	r9,20(r16)
    5720:	30c00044 	addi	r3,r6,1
    5724:	4109883a 	add	r4,r8,r4
    5728:	198d803a 	cmpltu	r6,r3,r6
    572c:	2211803a 	cmpltu	r8,r4,r8
    5730:	4291883a 	add	r8,r8,r10
    5734:	324d883a 	add	r6,r6,r9
    5738:	81000015 	stw	r4,0(r16)
    573c:	82000115 	stw	r8,4(r16)
    5740:	80c00415 	stw	r3,16(r16)
    5744:	81800515 	stw	r6,20(r16)
    5748:	90c0000b 	ldhu	r3,0(r18)
    574c:	10800604 	addi	r2,r2,24
    5750:	18800a36 	bltu	r3,r2,577c <udp_input+0xbc>
    5754:	29800017 	ldw	r6,0(r5)
    5758:	19cfc83a 	sub	r7,r3,r7
    575c:	35800104 	addi	r22,r6,4
    5760:	95ad883a 	add	r22,r18,r22
    5764:	b080010b 	ldhu	r2,4(r22)
    5768:	1006923a 	slli	r3,r2,8
    576c:	1004d23a 	srli	r2,r2,8
    5770:	1884b03a 	or	r2,r3,r2
    5774:	10bfffcc 	andi	r2,r2,65535
    5778:	38801526 	beq	r7,r2,57d0 <udp_input+0x110>
    577c:	80c00817 	ldw	r3,32(r16)
    5780:	81400917 	ldw	r5,36(r16)
    5784:	9009883a 	mov	r4,r18
    5788:	18800044 	addi	r2,r3,1
    578c:	10c7803a 	cmpltu	r3,r2,r3
    5790:	1947883a 	add	r3,r3,r5
    5794:	80800815 	stw	r2,32(r16)
    5798:	80c00915 	stw	r3,36(r16)
    579c:	0000a800 	call	a80 <rel_net_buf>
    57a0:	00804044 	movi	r2,257
    57a4:	dfc00817 	ldw	ra,32(sp)
    57a8:	ddc00717 	ldw	r23,28(sp)
    57ac:	dd800617 	ldw	r22,24(sp)
    57b0:	dd400517 	ldw	r21,20(sp)
    57b4:	dd000417 	ldw	r20,16(sp)
    57b8:	dcc00317 	ldw	r19,12(sp)
    57bc:	dc800217 	ldw	r18,8(sp)
    57c0:	dc400117 	ldw	r17,4(sp)
    57c4:	dc000017 	ldw	r16,0(sp)
    57c8:	dec00904 	addi	sp,sp,36
    57cc:	f800283a 	ret
    57d0:	b080008b 	ldhu	r2,2(r22)
    57d4:	103fe926 	beq	r2,zero,577c <udp_input+0xbc>
    57d8:	b080018b 	ldhu	r2,6(r22)
    57dc:	10004f1e 	bne	r2,zero,591c <udp_input+0x25c>
    57e0:	00800074 	movhi	r2,1
    57e4:	1082fe04 	addi	r2,r2,3064
    57e8:	14400017 	ldw	r17,0(r2)
    57ec:	05c00074 	movhi	r23,1
    57f0:	bdc2ae04 	addi	r23,r23,2744
    57f4:	057fffc4 	movi	r21,-1
    57f8:	95000904 	addi	r20,r18,36
    57fc:	8c7fffc4 	addi	r17,r17,-1
    5800:	88800044 	addi	r2,r17,1
    5804:	8cc00924 	muli	r19,r17,36
    5808:	00802a0e 	bge	zero,r2,58b4 <udp_input+0x1f4>
    580c:	9de7883a 	add	r19,r19,r23
    5810:	9880030b 	ldhu	r2,12(r19)
    5814:	1082000c 	andi	r2,r2,2048
    5818:	10bfffcc 	andi	r2,r2,65535
    581c:	103ff726 	beq	r2,zero,57fc <udp_input+0x13c>
    5820:	00031800 	call	3180 <ether_get_ifnet>
    5824:	90c00917 	ldw	r3,36(r18)
    5828:	99000104 	addi	r4,r19,4
    582c:	a00b883a 	mov	r5,r20
    5830:	180cd63a 	srli	r6,r3,24
    5834:	1810963a 	slli	r8,r3,24
    5838:	19ffc00c 	andi	r7,r3,65280
    583c:	380e923a 	slli	r7,r7,8
    5840:	1806d23a 	srli	r3,r3,8
    5844:	320cb03a 	or	r6,r6,r8
    5848:	31ccb03a 	or	r6,r6,r7
    584c:	18ffc00c 	andi	r3,r3,65280
    5850:	30c6b03a 	or	r3,r6,r3
    5854:	1d400926 	beq	r3,r21,587c <udp_input+0x1bc>
    5858:	11800217 	ldw	r6,8(r2)
    585c:	11c00117 	ldw	r7,4(r2)
    5860:	0184303a 	nor	r2,zero,r6
    5864:	31cc703a 	and	r6,r6,r7
    5868:	118cb03a 	or	r6,r2,r6
    586c:	19800326 	beq	r3,r6,587c <udp_input+0x1bc>
    5870:	00017600 	call	1760 <in4_is_dstaddr_accept>
    5874:	10803fcc 	andi	r2,r2,255
    5878:	103fe026 	beq	r2,zero,57fc <udp_input+0x13c>
    587c:	b080008b 	ldhu	r2,2(r22)
    5880:	98c0020b 	ldhu	r3,8(r19)
    5884:	1008923a 	slli	r4,r2,8
    5888:	1004d23a 	srli	r2,r2,8
    588c:	2084b03a 	or	r2,r4,r2
    5890:	10bfffcc 	andi	r2,r2,65535
    5894:	18bfd91e 	bne	r3,r2,57fc <udp_input+0x13c>
    5898:	98800617 	ldw	r2,24(r19)
    589c:	103fb726 	beq	r2,zero,577c <udp_input+0xbc>
    58a0:	99000717 	ldw	r4,28(r19)
    58a4:	900b883a 	mov	r5,r18
    58a8:	0001e200 	call	1e20 <tinet_snd_dtq>
    58ac:	103fb31e 	bne	r2,zero,577c <udp_input+0xbc>
    58b0:	003fbb06 	br	57a0 <udp_input+0xe0>
    58b4:	90800917 	ldw	r2,36(r18)
    58b8:	1008963a 	slli	r4,r2,24
    58bc:	1022d63a 	srli	r17,r2,24
    58c0:	10ffc00c 	andi	r3,r2,65280
    58c4:	1806923a 	slli	r3,r3,8
    58c8:	1004d23a 	srli	r2,r2,8
    58cc:	8922b03a 	or	r17,r17,r4
    58d0:	88e2b03a 	or	r17,r17,r3
    58d4:	10bfc00c 	andi	r2,r2,65280
    58d8:	88a2b03a 	or	r17,r17,r2
    58dc:	00031800 	call	3180 <ether_get_ifnet>
    58e0:	10800117 	ldw	r2,4(r2)
    58e4:	88bfa51e 	bne	r17,r2,577c <udp_input+0xbc>
    58e8:	b080008b 	ldhu	r2,2(r22)
    58ec:	01000184 	movi	r4,6
    58f0:	01400074 	movhi	r5,1
    58f4:	297f6e04 	addi	r5,r5,-584
    58f8:	100c923a 	slli	r6,r2,8
    58fc:	1004d23a 	srli	r2,r2,8
    5900:	308cb03a 	or	r6,r6,r2
    5904:	31bfffcc 	andi	r6,r6,65535
    5908:	00080400 	call	8040 <syslog>
    590c:	010000c4 	movi	r4,3
    5910:	900b883a 	mov	r5,r18
    5914:	0002f200 	call	2f20 <icmp_error>
    5918:	003f9806 	br	577c <udp_input+0xbc>
    591c:	9009883a 	mov	r4,r18
    5920:	01400444 	movi	r5,17
    5924:	00015a00 	call	15a0 <in4_cksum>
    5928:	10bfffcc 	andi	r2,r2,65535
    592c:	103f931e 	bne	r2,zero,577c <udp_input+0xbc>
    5930:	003fab06 	br	57e0 <udp_input+0x120>
	...

00005940 <udp_alloc_auto_port>:
    5940:	defff804 	addi	sp,sp,-32
    5944:	00800074 	movhi	r2,1
    5948:	1082fe04 	addi	r2,r2,3064
    594c:	dc400115 	stw	r17,4(sp)
    5950:	14400017 	ldw	r17,0(r2)
    5954:	dc000015 	stw	r16,0(sp)
    5958:	d4200b8b 	ldhu	r16,-32722(gp)
    595c:	88ffffc4 	addi	r3,r17,-1
    5960:	18c00924 	muli	r3,r3,36
    5964:	00800074 	movhi	r2,1
    5968:	1082ae04 	addi	r2,r2,2744
    596c:	dcc00315 	stw	r19,12(sp)
    5970:	1cc00204 	addi	r19,r3,8
    5974:	18c00304 	addi	r3,r3,12
    5978:	dd800615 	stw	r22,24(sp)
    597c:	dd400515 	stw	r21,20(sp)
    5980:	dd000415 	stw	r20,16(sp)
    5984:	dc800215 	stw	r18,8(sp)
    5988:	dfc00715 	stw	ra,28(sp)
    598c:	2029883a 	mov	r20,r4
    5990:	802d883a 	mov	r22,r16
    5994:	857fffcc 	andi	r21,r16,65535
    5998:	14e7883a 	add	r19,r2,r19
    599c:	10e5883a 	add	r18,r2,r3
    59a0:	b0800044 	addi	r2,r22,1
    59a4:	d0a00b8d 	sth	r2,-32722(gp)
    59a8:	00c4e1c4 	movi	r3,4999
    59ac:	10bfffcc 	andi	r2,r2,65535
    59b0:	1880022e 	bgeu	r3,r2,59bc <udp_alloc_auto_port+0x7c>
    59b4:	00810004 	movi	r2,1024
    59b8:	d0a00b8d 	sth	r2,-32722(gp)
    59bc:	01000104 	movi	r4,4
    59c0:	000d0400 	call	d040 <GetResource>
    59c4:	8805883a 	mov	r2,r17
    59c8:	980b883a 	mov	r5,r19
    59cc:	9007883a 	mov	r3,r18
    59d0:	00800a0e 	bge	zero,r2,59fc <udp_alloc_auto_port+0xbc>
    59d4:	1980000b 	ldhu	r6,0(r3)
    59d8:	10bfffc4 	addi	r2,r2,-1
    59dc:	18fff704 	addi	r3,r3,-36
    59e0:	3182000c 	andi	r6,r6,2048
    59e4:	31bfffcc 	andi	r6,r6,65535
    59e8:	30000226 	beq	r6,zero,59f4 <udp_alloc_auto_port+0xb4>
    59ec:	2900000b 	ldhu	r4,0(r5)
    59f0:	25400326 	beq	r4,r21,5a00 <udp_alloc_auto_port+0xc0>
    59f4:	297ff704 	addi	r5,r5,-36
    59f8:	00bff616 	blt	zero,r2,59d4 <udp_alloc_auto_port+0x94>
    59fc:	a800111e 	bne	r21,zero,5a44 <udp_alloc_auto_port+0x104>
    5a00:	01000104 	movi	r4,4
    5a04:	000d3e00 	call	d3e0 <ReleaseResource>
    5a08:	d5a00b8b 	ldhu	r22,-32722(gp)
    5a0c:	80bfffcc 	andi	r2,r16,65535
    5a10:	b57fffcc 	andi	r21,r22,65535
    5a14:	157fe21e 	bne	r2,r21,59a0 <udp_alloc_auto_port+0x60>
    5a18:	00bff784 	movi	r2,-34
    5a1c:	dfc00717 	ldw	ra,28(sp)
    5a20:	dd800617 	ldw	r22,24(sp)
    5a24:	dd400517 	ldw	r21,20(sp)
    5a28:	dd000417 	ldw	r20,16(sp)
    5a2c:	dcc00317 	ldw	r19,12(sp)
    5a30:	dc800217 	ldw	r18,8(sp)
    5a34:	dc400117 	ldw	r17,4(sp)
    5a38:	dc000017 	ldw	r16,0(sp)
    5a3c:	dec00804 	addi	sp,sp,32
    5a40:	f800283a 	ret
    5a44:	a580020d 	sth	r22,8(r20)
    5a48:	01000104 	movi	r4,4
    5a4c:	000d3e00 	call	d3e0 <ReleaseResource>
    5a50:	0005883a 	mov	r2,zero
    5a54:	003ff106 	br	5a1c <udp_alloc_auto_port+0xdc>
    5a58:	0001883a 	nop
    5a5c:	0001883a 	nop

00005a60 <udp_alloc_port>:
    5a60:	defffd04 	addi	sp,sp,-12
    5a64:	dc000015 	stw	r16,0(sp)
    5a68:	2021883a 	mov	r16,r4
    5a6c:	01000104 	movi	r4,4
    5a70:	dc400115 	stw	r17,4(sp)
    5a74:	dfc00215 	stw	ra,8(sp)
    5a78:	2823883a 	mov	r17,r5
    5a7c:	000d0400 	call	d040 <GetResource>
    5a80:	00800074 	movhi	r2,1
    5a84:	1082fe04 	addi	r2,r2,3064
    5a88:	10800017 	ldw	r2,0(r2)
    5a8c:	01000074 	movhi	r4,1
    5a90:	2102ae04 	addi	r4,r4,2744
    5a94:	8a3fffcc 	andi	r8,r17,65535
    5a98:	10ffffc4 	addi	r3,r2,-1
    5a9c:	18c00924 	muli	r3,r3,36
    5aa0:	19800204 	addi	r6,r3,8
    5aa4:	18c00304 	addi	r3,r3,12
    5aa8:	310d883a 	add	r6,r6,r4
    5aac:	1907883a 	add	r3,r3,r4
    5ab0:	00800a0e 	bge	zero,r2,5adc <udp_alloc_port+0x7c>
    5ab4:	19c0000b 	ldhu	r7,0(r3)
    5ab8:	10bfffc4 	addi	r2,r2,-1
    5abc:	18fff704 	addi	r3,r3,-36
    5ac0:	39c2000c 	andi	r7,r7,2048
    5ac4:	39ffffcc 	andi	r7,r7,65535
    5ac8:	38000226 	beq	r7,zero,5ad4 <udp_alloc_port+0x74>
    5acc:	31c0000b 	ldhu	r7,0(r6)
    5ad0:	3a000b26 	beq	r7,r8,5b00 <udp_alloc_port+0xa0>
    5ad4:	31bff704 	addi	r6,r6,-36
    5ad8:	00bff616 	blt	zero,r2,5ab4 <udp_alloc_port+0x54>
    5adc:	8440020d 	sth	r17,8(r16)
    5ae0:	01000104 	movi	r4,4
    5ae4:	000d3e00 	call	d3e0 <ReleaseResource>
    5ae8:	0005883a 	mov	r2,zero
    5aec:	dfc00217 	ldw	ra,8(sp)
    5af0:	dc400117 	ldw	r17,4(sp)
    5af4:	dc000017 	ldw	r16,0(sp)
    5af8:	dec00304 	addi	sp,sp,12
    5afc:	f800283a 	ret
    5b00:	01000104 	movi	r4,4
    5b04:	000d3e00 	call	d3e0 <ReleaseResource>
    5b08:	00bffbc4 	movi	r2,-17
    5b0c:	dfc00217 	ldw	ra,8(sp)
    5b10:	dc400117 	ldw	r17,4(sp)
    5b14:	dc000017 	ldw	r16,0(sp)
    5b18:	dec00304 	addi	sp,sp,12
    5b1c:	f800283a 	ret

00005b20 <udp_send_data>:
    5b20:	defff204 	addi	sp,sp,-56
    5b24:	dc000515 	stw	r16,20(sp)
    5b28:	04000074 	movhi	r16,1
    5b2c:	84034304 	addi	r16,r16,3340
    5b30:	82000617 	ldw	r8,24(r16)
    5b34:	80c00217 	ldw	r3,8(r16)
    5b38:	82800317 	ldw	r10,12(r16)
    5b3c:	3817d7fa 	srai	r11,r7,31
    5b40:	dc800715 	stw	r18,28(sp)
    5b44:	dc400615 	stw	r17,24(sp)
    5b48:	2025883a 	mov	r18,r4
    5b4c:	3823883a 	mov	r17,r7
    5b50:	21000104 	addi	r4,r4,4
    5b54:	81c00717 	ldw	r7,28(r16)
    5b58:	88c7883a 	add	r3,r17,r3
    5b5c:	40800044 	addi	r2,r8,1
    5b60:	d9000015 	stw	r4,0(sp)
    5b64:	01001004 	movi	r4,64
    5b68:	dd800b15 	stw	r22,44(sp)
    5b6c:	dd000915 	stw	r20,36(sp)
    5b70:	dcc00815 	stw	r19,32(sp)
    5b74:	282d883a 	mov	r22,r5
    5b78:	1c53803a 	cmpltu	r9,r3,r17
    5b7c:	5a95883a 	add	r10,r11,r10
    5b80:	1211803a 	cmpltu	r8,r2,r8
    5b84:	8cc00204 	addi	r19,r17,8
    5b88:	05000444 	movi	r20,17
    5b8c:	d9000215 	stw	r4,8(sp)
    5b90:	01040004 	movi	r4,4096
    5b94:	dd400a15 	stw	r21,40(sp)
    5b98:	41d1883a 	add	r8,r8,r7
    5b9c:	4a93883a 	add	r9,r9,r10
    5ba0:	302b883a 	mov	r21,r6
    5ba4:	d9000315 	stw	r4,12(sp)
    5ba8:	dd000115 	stw	r20,4(sp)
    5bac:	d9000404 	addi	r4,sp,16
    5bb0:	980b883a 	mov	r5,r19
    5bb4:	000d883a 	mov	r6,zero
    5bb8:	b00f883a 	mov	r7,r22
    5bbc:	dfc00d15 	stw	ra,52(sp)
    5bc0:	ddc00c15 	stw	r23,48(sp)
    5bc4:	80c00215 	stw	r3,8(r16)
    5bc8:	82400315 	stw	r9,12(r16)
    5bcc:	80800615 	stw	r2,24(r16)
    5bd0:	82000715 	stw	r8,28(r16)
    5bd4:	00014800 	call	1480 <in4_get_datagram>
    5bd8:	10001526 	beq	r2,zero,5c30 <udp_send_data+0x110>
    5bdc:	80c00a17 	ldw	r3,40(r16)
    5be0:	81000b17 	ldw	r4,44(r16)
    5be4:	1023883a 	mov	r17,r2
    5be8:	18800044 	addi	r2,r3,1
    5bec:	10c7803a 	cmpltu	r3,r2,r3
    5bf0:	1907883a 	add	r3,r3,r4
    5bf4:	80800a15 	stw	r2,40(r16)
    5bf8:	80c00b15 	stw	r3,44(r16)
    5bfc:	8805883a 	mov	r2,r17
    5c00:	90000515 	stw	zero,20(r18)
    5c04:	dfc00d17 	ldw	ra,52(sp)
    5c08:	ddc00c17 	ldw	r23,48(sp)
    5c0c:	dd800b17 	ldw	r22,44(sp)
    5c10:	dd400a17 	ldw	r21,40(sp)
    5c14:	dd000917 	ldw	r20,36(sp)
    5c18:	dcc00817 	ldw	r19,32(sp)
    5c1c:	dc800717 	ldw	r18,28(sp)
    5c20:	dc400617 	ldw	r17,24(sp)
    5c24:	dc000517 	ldw	r16,20(sp)
    5c28:	dec00e04 	addi	sp,sp,56
    5c2c:	f800283a 	ret
    5c30:	90c0020b 	ldhu	r3,8(r18)
    5c34:	ddc00417 	ldw	r23,16(sp)
    5c38:	98bfffcc 	andi	r2,r19,65535
    5c3c:	180c923a 	slli	r6,r3,8
    5c40:	1806d23a 	srli	r3,r3,8
    5c44:	100a923a 	slli	r5,r2,8
    5c48:	1008d23a 	srli	r4,r2,8
    5c4c:	30c6b03a 	or	r3,r6,r3
    5c50:	b8c00a0d 	sth	r3,40(r23)
    5c54:	b080010b 	ldhu	r2,4(r22)
    5c58:	2906b03a 	or	r3,r5,r4
    5c5c:	b8c00b0d 	sth	r3,44(r23)
    5c60:	100e923a 	slli	r7,r2,8
    5c64:	1004d23a 	srli	r2,r2,8
    5c68:	b9000c04 	addi	r4,r23,48
    5c6c:	a80b883a 	mov	r5,r21
    5c70:	3884b03a 	or	r2,r7,r2
    5c74:	880d883a 	mov	r6,r17
    5c78:	b8800a8d 	sth	r2,42(r23)
    5c7c:	b8000b8d 	sth	zero,46(r23)
    5c80:	000eafc0 	call	eafc <memcpy>
    5c84:	d9000417 	ldw	r4,16(sp)
    5c88:	a00b883a 	mov	r5,r20
    5c8c:	01800904 	movi	r6,36
    5c90:	980f883a 	mov	r7,r19
    5c94:	00015a00 	call	15a0 <in4_cksum>
    5c98:	113fffcc 	andi	r4,r2,65535
    5c9c:	8807883a 	mov	r3,r17
    5ca0:	2000011e 	bne	r4,zero,5ca8 <udp_send_data+0x188>
    5ca4:	00bfffc4 	movi	r2,-1
    5ca8:	b8800b8d 	sth	r2,46(r23)
    5cac:	d8800417 	ldw	r2,16(sp)
    5cb0:	18c00b04 	addi	r3,r3,44
    5cb4:	10c0000d 	sth	r3,0(r2)
    5cb8:	d9000417 	ldw	r4,16(sp)
    5cbc:	00028000 	call	2800 <ip_output>
    5cc0:	103fc61e 	bne	r2,zero,5bdc <udp_send_data+0xbc>
    5cc4:	003fcd06 	br	5bfc <udp_send_data+0xdc>
    5cc8:	0001883a 	nop
    5ccc:	0001883a 	nop
    5cd0:	0001883a 	nop
    5cd4:	0001883a 	nop
    5cd8:	0001883a 	nop
    5cdc:	0001883a 	nop

00005ce0 <udp_can_cep>:
    5ce0:	defffd04 	addi	sp,sp,-12
    5ce4:	dc400115 	stw	r17,4(sp)
    5ce8:	dfc00215 	stw	ra,8(sp)
    5cec:	dc000015 	stw	r16,0(sp)
    5cf0:	28808904 	addi	r2,r5,548
    5cf4:	00c00044 	movi	r3,1
    5cf8:	2823883a 	mov	r17,r5
    5cfc:	1880012e 	bgeu	r3,r2,5d04 <udp_can_cep+0x24>
    5d00:	2800391e 	bne	r5,zero,5de8 <udp_can_cep+0x108>
    5d04:	0100330e 	bge	zero,r4,5dd4 <udp_can_cep+0xf4>
    5d08:	00800074 	movhi	r2,1
    5d0c:	1082fe04 	addi	r2,r2,3064
    5d10:	10800017 	ldw	r2,0(r2)
    5d14:	11002f16 	blt	r2,r4,5dd4 <udp_can_cep+0xf4>
    5d18:	243fffc4 	addi	r16,r4,-1
    5d1c:	84000924 	muli	r16,r16,36
    5d20:	00800074 	movhi	r2,1
    5d24:	1082ae04 	addi	r2,r2,2744
    5d28:	80a1883a 	add	r16,r16,r2
    5d2c:	8080030b 	ldhu	r2,12(r16)
    5d30:	1082000c 	andi	r2,r2,2048
    5d34:	10bfffcc 	andi	r2,r2,65535
    5d38:	10002426 	beq	r2,zero,5dcc <udp_can_cep+0xec>
    5d3c:	81000417 	ldw	r4,16(r16)
    5d40:	000d0400 	call	d040 <GetResource>
    5d44:	88000d26 	beq	r17,zero,5d7c <udp_can_cep+0x9c>
    5d48:	00bf7744 	movi	r2,-547
    5d4c:	88801626 	beq	r17,r2,5da8 <udp_can_cep+0xc8>
    5d50:	00bf7704 	movi	r2,-548
    5d54:	88801926 	beq	r17,r2,5dbc <udp_can_cep+0xdc>
    5d58:	047ffbc4 	movi	r17,-17
    5d5c:	81000417 	ldw	r4,16(r16)
    5d60:	000d3e00 	call	d3e0 <ReleaseResource>
    5d64:	8805883a 	mov	r2,r17
    5d68:	dfc00217 	ldw	ra,8(sp)
    5d6c:	dc400117 	ldw	r17,4(sp)
    5d70:	dc000017 	ldw	r16,0(sp)
    5d74:	dec00304 	addi	sp,sp,12
    5d78:	f800283a 	ret
    5d7c:	80800517 	ldw	r2,20(r16)
    5d80:	1000051e 	bne	r2,zero,5d98 <udp_can_cep+0xb8>
    5d84:	80800617 	ldw	r2,24(r16)
    5d88:	10000e26 	beq	r2,zero,5dc4 <udp_can_cep+0xe4>
    5d8c:	80000615 	stw	zero,24(r16)
    5d90:	0023883a 	mov	r17,zero
    5d94:	003ff106 	br	5d5c <udp_can_cep+0x7c>
    5d98:	80800617 	ldw	r2,24(r16)
    5d9c:	80000515 	stw	zero,20(r16)
    5da0:	103ffa1e 	bne	r2,zero,5d8c <udp_can_cep+0xac>
    5da4:	003ffa06 	br	5d90 <udp_can_cep+0xb0>
    5da8:	80800517 	ldw	r2,20(r16)
    5dac:	10000526 	beq	r2,zero,5dc4 <udp_can_cep+0xe4>
    5db0:	80000515 	stw	zero,20(r16)
    5db4:	0023883a 	mov	r17,zero
    5db8:	003fe806 	br	5d5c <udp_can_cep+0x7c>
    5dbc:	80800617 	ldw	r2,24(r16)
    5dc0:	1000061e 	bne	r2,zero,5ddc <udp_can_cep+0xfc>
    5dc4:	047ff5c4 	movi	r17,-41
    5dc8:	003fe406 	br	5d5c <udp_can_cep+0x7c>
    5dcc:	047ff584 	movi	r17,-42
    5dd0:	003fe406 	br	5d64 <udp_can_cep+0x84>
    5dd4:	047ffb84 	movi	r17,-18
    5dd8:	003fe206 	br	5d64 <udp_can_cep+0x84>
    5ddc:	80000615 	stw	zero,24(r16)
    5de0:	0023883a 	mov	r17,zero
    5de4:	003fdd06 	br	5d5c <udp_can_cep+0x7c>
    5de8:	047ffbc4 	movi	r17,-17
    5dec:	003fdd06 	br	5d64 <udp_can_cep+0x84>
    5df0:	0001883a 	nop
    5df4:	0001883a 	nop
    5df8:	0001883a 	nop
    5dfc:	0001883a 	nop

00005e00 <udp_can_snd>:
    5e00:	20800517 	ldw	r2,20(r4)
    5e04:	10000326 	beq	r2,zero,5e14 <udp_can_snd+0x14>
    5e08:	20000515 	stw	zero,20(r4)
    5e0c:	0005883a 	mov	r2,zero
    5e10:	f800283a 	ret
    5e14:	00bfe7c4 	movi	r2,-97
    5e18:	f800283a 	ret
    5e1c:	0001883a 	nop

00005e20 <udp_can_rcv>:
    5e20:	20800617 	ldw	r2,24(r4)
    5e24:	10000326 	beq	r2,zero,5e34 <udp_can_rcv+0x14>
    5e28:	20000615 	stw	zero,24(r4)
    5e2c:	0005883a 	mov	r2,zero
    5e30:	f800283a 	ret
    5e34:	00bfe7c4 	movi	r2,-97
    5e38:	f800283a 	ret
    5e3c:	0001883a 	nop

00005e40 <udp_snd_dat>:
    5e40:	defffb04 	addi	sp,sp,-20
    5e44:	dcc00315 	stw	r19,12(sp)
    5e48:	dc800215 	stw	r18,8(sp)
    5e4c:	dc400115 	stw	r17,4(sp)
    5e50:	dfc00415 	stw	ra,16(sp)
    5e54:	dc000015 	stw	r16,0(sp)
    5e58:	2825883a 	mov	r18,r5
    5e5c:	3027883a 	mov	r19,r6
    5e60:	3823883a 	mov	r17,r7
    5e64:	28003526 	beq	r5,zero,5f3c <udp_snd_dat+0xfc>
    5e68:	30003426 	beq	r6,zero,5f3c <udp_snd_dat+0xfc>
    5e6c:	38003316 	blt	r7,zero,5f3c <udp_snd_dat+0xfc>
    5e70:	38800704 	addi	r2,r7,28
    5e74:	00c17704 	movi	r3,1500
    5e78:	18803036 	bltu	r3,r2,5f3c <udp_snd_dat+0xfc>
    5e7c:	0100310e 	bge	zero,r4,5f44 <udp_snd_dat+0x104>
    5e80:	00800074 	movhi	r2,1
    5e84:	1082fe04 	addi	r2,r2,3064
    5e88:	10800017 	ldw	r2,0(r2)
    5e8c:	11002d16 	blt	r2,r4,5f44 <udp_snd_dat+0x104>
    5e90:	243fffc4 	addi	r16,r4,-1
    5e94:	84000924 	muli	r16,r16,36
    5e98:	00800074 	movhi	r2,1
    5e9c:	1082ae04 	addi	r2,r2,2744
    5ea0:	80a1883a 	add	r16,r16,r2
    5ea4:	8080030b 	ldhu	r2,12(r16)
    5ea8:	1082000c 	andi	r2,r2,2048
    5eac:	10bfffcc 	andi	r2,r2,65535
    5eb0:	10002626 	beq	r2,zero,5f4c <udp_snd_dat+0x10c>
    5eb4:	8080020b 	ldhu	r2,8(r16)
    5eb8:	1000031e 	bne	r2,zero,5ec8 <udp_snd_dat+0x88>
    5ebc:	8009883a 	mov	r4,r16
    5ec0:	00059400 	call	5940 <udp_alloc_auto_port>
    5ec4:	1000071e 	bne	r2,zero,5ee4 <udp_snd_dat+0xa4>
    5ec8:	81000417 	ldw	r4,16(r16)
    5ecc:	000d0400 	call	d040 <GetResource>
    5ed0:	80800517 	ldw	r2,20(r16)
    5ed4:	10000a26 	beq	r2,zero,5f00 <udp_snd_dat+0xc0>
    5ed8:	81000417 	ldw	r4,16(r16)
    5edc:	000d3e00 	call	d3e0 <ReleaseResource>
    5ee0:	00bff544 	movi	r2,-43
    5ee4:	dfc00417 	ldw	ra,16(sp)
    5ee8:	dcc00317 	ldw	r19,12(sp)
    5eec:	dc800217 	ldw	r18,8(sp)
    5ef0:	dc400117 	ldw	r17,4(sp)
    5ef4:	dc000017 	ldw	r16,0(sp)
    5ef8:	dec00504 	addi	sp,sp,20
    5efc:	f800283a 	ret
    5f00:	81000504 	addi	r4,r16,20
    5f04:	000c1c00 	call	c1c0 <GetTaskID>
    5f08:	81000417 	ldw	r4,16(r16)
    5f0c:	000d3e00 	call	d3e0 <ReleaseResource>
    5f10:	8009883a 	mov	r4,r16
    5f14:	900b883a 	mov	r5,r18
    5f18:	980d883a 	mov	r6,r19
    5f1c:	880f883a 	mov	r7,r17
    5f20:	dfc00417 	ldw	ra,16(sp)
    5f24:	dcc00317 	ldw	r19,12(sp)
    5f28:	dc800217 	ldw	r18,8(sp)
    5f2c:	dc400117 	ldw	r17,4(sp)
    5f30:	dc000017 	ldw	r16,0(sp)
    5f34:	dec00504 	addi	sp,sp,20
    5f38:	0005b201 	jmpi	5b20 <udp_send_data>
    5f3c:	00bffbc4 	movi	r2,-17
    5f40:	003fe806 	br	5ee4 <udp_snd_dat+0xa4>
    5f44:	00bffb84 	movi	r2,-18
    5f48:	003fe606 	br	5ee4 <udp_snd_dat+0xa4>
    5f4c:	00bff584 	movi	r2,-42
    5f50:	003fe406 	br	5ee4 <udp_snd_dat+0xa4>
    5f54:	0001883a 	nop
    5f58:	0001883a 	nop
    5f5c:	0001883a 	nop

00005f60 <udp_rcv_dat>:
    5f60:	defff704 	addi	sp,sp,-36
    5f64:	dd000615 	stw	r20,24(sp)
    5f68:	dcc00515 	stw	r19,20(sp)
    5f6c:	dc800415 	stw	r18,16(sp)
    5f70:	dfc00815 	stw	ra,32(sp)
    5f74:	dd400715 	stw	r21,28(sp)
    5f78:	dc400315 	stw	r17,12(sp)
    5f7c:	dc000215 	stw	r16,8(sp)
    5f80:	2825883a 	mov	r18,r5
    5f84:	3027883a 	mov	r19,r6
    5f88:	3829883a 	mov	r20,r7
    5f8c:	28006326 	beq	r5,zero,611c <udp_rcv_dat+0x1bc>
    5f90:	30006226 	beq	r6,zero,611c <udp_rcv_dat+0x1bc>
    5f94:	38006116 	blt	r7,zero,611c <udp_rcv_dat+0x1bc>
    5f98:	0100560e 	bge	zero,r4,60f4 <udp_rcv_dat+0x194>
    5f9c:	00800074 	movhi	r2,1
    5fa0:	1082fe04 	addi	r2,r2,3064
    5fa4:	10800017 	ldw	r2,0(r2)
    5fa8:	11005216 	blt	r2,r4,60f4 <udp_rcv_dat+0x194>
    5fac:	243fffc4 	addi	r16,r4,-1
    5fb0:	84000924 	muli	r16,r16,36
    5fb4:	00800074 	movhi	r2,1
    5fb8:	1082ae04 	addi	r2,r2,2744
    5fbc:	80a1883a 	add	r16,r16,r2
    5fc0:	8080030b 	ldhu	r2,12(r16)
    5fc4:	1082000c 	andi	r2,r2,2048
    5fc8:	10bfffcc 	andi	r2,r2,65535
    5fcc:	10004726 	beq	r2,zero,60ec <udp_rcv_dat+0x18c>
    5fd0:	81000417 	ldw	r4,16(r16)
    5fd4:	000d0400 	call	d040 <GetResource>
    5fd8:	d809883a 	mov	r4,sp
    5fdc:	000c1c00 	call	c1c0 <GetTaskID>
    5fe0:	80800617 	ldw	r2,24(r16)
    5fe4:	10000626 	beq	r2,zero,6000 <udp_rcv_dat+0xa0>
    5fe8:	d8c00017 	ldw	r3,0(sp)
    5fec:	10c00626 	beq	r2,r3,6008 <udp_rcv_dat+0xa8>
    5ff0:	81000417 	ldw	r4,16(r16)
    5ff4:	057ff544 	movi	r21,-43
    5ff8:	000d3e00 	call	d3e0 <ReleaseResource>
    5ffc:	00002f06 	br	60bc <udp_rcv_dat+0x15c>
    6000:	81000604 	addi	r4,r16,24
    6004:	000c1c00 	call	c1c0 <GetTaskID>
    6008:	81000417 	ldw	r4,16(r16)
    600c:	000d3e00 	call	d3e0 <ReleaseResource>
    6010:	84400817 	ldw	r17,32(r16)
    6014:	88003926 	beq	r17,zero,60fc <udp_rcv_dat+0x19c>
    6018:	dc400115 	stw	r17,4(sp)
    601c:	80000815 	stw	zero,32(r16)
    6020:	89400503 	ldbu	r5,20(r17)
    6024:	a00d883a 	mov	r6,r20
    6028:	294003cc 	andi	r5,r5,15
    602c:	294b883a 	add	r5,r5,r5
    6030:	294b883a 	add	r5,r5,r5
    6034:	28c00504 	addi	r3,r5,20
    6038:	88c7883a 	add	r3,r17,r3
    603c:	1880000b 	ldhu	r2,0(r3)
    6040:	1008923a 	slli	r4,r2,8
    6044:	1004d23a 	srli	r2,r2,8
    6048:	2084b03a 	or	r2,r4,r2
    604c:	9080010d 	sth	r2,4(r18)
    6050:	88800817 	ldw	r2,32(r17)
    6054:	1008d63a 	srli	r4,r2,24
    6058:	1010963a 	slli	r8,r2,24
    605c:	11ffc00c 	andi	r7,r2,65280
    6060:	380e923a 	slli	r7,r7,8
    6064:	1004d23a 	srli	r2,r2,8
    6068:	2208b03a 	or	r4,r4,r8
    606c:	21c8b03a 	or	r4,r4,r7
    6070:	10bfc00c 	andi	r2,r2,65280
    6074:	2084b03a 	or	r2,r4,r2
    6078:	90800015 	stw	r2,0(r18)
    607c:	1880010b 	ldhu	r2,4(r3)
    6080:	1006923a 	slli	r3,r2,8
    6084:	1004d23a 	srli	r2,r2,8
    6088:	1884b03a 	or	r2,r3,r2
    608c:	10bfffcc 	andi	r2,r2,65535
    6090:	10bffe04 	addi	r2,r2,-8
    6094:	a0801336 	bltu	r20,r2,60e4 <udp_rcv_dat+0x184>
    6098:	100d883a 	mov	r6,r2
    609c:	102b883a 	mov	r21,r2
    60a0:	29400704 	addi	r5,r5,28
    60a4:	9809883a 	mov	r4,r19
    60a8:	894b883a 	add	r5,r17,r5
    60ac:	000eafc0 	call	eafc <memcpy>
    60b0:	8809883a 	mov	r4,r17
    60b4:	0000a800 	call	a80 <rel_net_buf>
    60b8:	80000615 	stw	zero,24(r16)
    60bc:	a805883a 	mov	r2,r21
    60c0:	dfc00817 	ldw	ra,32(sp)
    60c4:	dd400717 	ldw	r21,28(sp)
    60c8:	dd000617 	ldw	r20,24(sp)
    60cc:	dcc00517 	ldw	r19,20(sp)
    60d0:	dc800417 	ldw	r18,16(sp)
    60d4:	dc400317 	ldw	r17,12(sp)
    60d8:	dc000217 	ldw	r16,8(sp)
    60dc:	dec00904 	addi	sp,sp,36
    60e0:	f800283a 	ret
    60e4:	057ff184 	movi	r21,-58
    60e8:	003fed06 	br	60a0 <udp_rcv_dat+0x140>
    60ec:	057ff584 	movi	r21,-42
    60f0:	003ff206 	br	60bc <udp_rcv_dat+0x15c>
    60f4:	057ffb84 	movi	r21,-18
    60f8:	003ff006 	br	60bc <udp_rcv_dat+0x15c>
    60fc:	81000717 	ldw	r4,28(r16)
    6100:	d9400104 	addi	r5,sp,4
    6104:	0001e400 	call	1e40 <tinet_rcv_dtq>
    6108:	102b883a 	mov	r21,r2
    610c:	10000526 	beq	r2,zero,6124 <udp_rcv_dat+0x1c4>
    6110:	00bff384 	movi	r2,-50
    6114:	a8bfe81e 	bne	r21,r2,60b8 <udp_rcv_dat+0x158>
    6118:	003fe806 	br	60bc <udp_rcv_dat+0x15c>
    611c:	057ffbc4 	movi	r21,-17
    6120:	003fe606 	br	60bc <udp_rcv_dat+0x15c>
    6124:	dc400117 	ldw	r17,4(sp)
    6128:	003fbd06 	br	6020 <udp_rcv_dat+0xc0>
	...

00006140 <TaskMainUSRV_TASK>:
    6140:	defff604 	addi	sp,sp,-40
    6144:	d9000304 	addi	r4,sp,12
    6148:	dfc00915 	stw	ra,36(sp)
    614c:	dcc00815 	stw	r19,32(sp)
    6150:	dc800715 	stw	r18,28(sp)
    6154:	dc400615 	stw	r17,24(sp)
    6158:	dc000515 	stw	r16,20(sp)
    615c:	000c1c00 	call	c1c0 <GetTaskID>
    6160:	dc000317 	ldw	r16,12(sp)
    6164:	0009883a 	mov	r4,zero
    6168:	d9400404 	addi	r5,sp,16
    616c:	00ab0634 	movhi	r2,44056
    6170:	1082c804 	addi	r2,r2,2848
    6174:	d8800415 	stw	r2,16(sp)
    6178:	00012200 	call	1220 <ip2str>
    617c:	800d883a 	mov	r6,r16
    6180:	d8800015 	stw	r2,0(sp)
    6184:	01000184 	movi	r4,6
    6188:	01400074 	movhi	r5,1
    618c:	297f7404 	addi	r5,r5,-560
    6190:	01c00044 	movi	r7,1
    6194:	00080400 	call	8040 <syslog>
    6198:	0025883a 	mov	r18,zero
    619c:	04c00044 	movi	r19,1
    61a0:	047ff384 	movi	r17,-50
    61a4:	0409c404 	movi	r16,10000
    61a8:	01000044 	movi	r4,1
    61ac:	d9400104 	addi	r5,sp,4
    61b0:	01800074 	movhi	r6,1
    61b4:	31858204 	addi	r6,r6,5640
    61b8:	01c20004 	movi	r7,2048
    61bc:	0005f600 	call	5f60 <udp_rcv_dat>
    61c0:	14400e26 	beq	r2,r17,61fc <TaskMainUSRV_TASK+0xbc>
    61c4:	10002016 	blt	r2,zero,6248 <TaskMainUSRV_TASK+0x108>
    61c8:	d0a00c17 	ldw	r2,-32720(gp)
    61cc:	80bff62e 	bgeu	r16,r2,61a8 <TaskMainUSRV_TASK+0x68>
    61d0:	903ff51e 	bne	r18,zero,61a8 <TaskMainUSRV_TASK+0x68>
    61d4:	0109c404 	movi	r4,10000
    61d8:	0006fc00 	call	6fc0 <print_hist>
    61dc:	01000044 	movi	r4,1
    61e0:	d9400104 	addi	r5,sp,4
    61e4:	01800074 	movhi	r6,1
    61e8:	31858204 	addi	r6,r6,5640
    61ec:	01c20004 	movi	r7,2048
    61f0:	04800044 	movi	r18,1
    61f4:	0005f600 	call	5f60 <udp_rcv_dat>
    61f8:	147ff21e 	bne	r2,r17,61c4 <TaskMainUSRV_TASK+0x84>
    61fc:	d1200c17 	ldw	r4,-32720(gp)
    6200:	8100152e 	bgeu	r16,r4,6258 <TaskMainUSRV_TASK+0x118>
    6204:	0145dc04 	movi	r5,6000
    6208:	000d883a 	mov	r6,zero
    620c:	01000044 	movi	r4,1
    6210:	000a9e00 	call	a9e0 <SetRelAlarm>
    6214:	01000044 	movi	r4,1
    6218:	000cc600 	call	cc60 <WaitEvent>
    621c:	01000044 	movi	r4,1
    6220:	000c8200 	call	c820 <ClearEvent>
    6224:	d1200c17 	ldw	r4,-32720(gp)
    6228:	813fdf36 	bltu	r16,r4,61a8 <TaskMainUSRV_TASK+0x68>
    622c:	d0a02383 	ldbu	r2,-32626(gp)
    6230:	14ffdd1e 	bne	r2,r19,61a8 <TaskMainUSRV_TASK+0x68>
    6234:	20800044 	addi	r2,r4,1
    6238:	d0a00c15 	stw	r2,-32720(gp)
    623c:	0006ee00 	call	6ee0 <end_measure>
    6240:	d0202385 	stb	zero,-32626(gp)
    6244:	003fd806 	br	61a8 <TaskMainUSRV_TASK+0x68>
    6248:	01000044 	movi	r4,1
    624c:	000b883a 	mov	r5,zero
    6250:	0005ce00 	call	5ce0 <udp_can_cep>
    6254:	003fdc06 	br	61c8 <TaskMainUSRV_TASK+0x88>
    6258:	0006e600 	call	6e60 <begin_measure>
    625c:	d4e02385 	stb	r19,-32626(gp)
    6260:	003fe806 	br	6204 <TaskMainUSRV_TASK+0xc4>
    6264:	0001883a 	nop
    6268:	0001883a 	nop
    626c:	0001883a 	nop
    6270:	0001883a 	nop
    6274:	0001883a 	nop
    6278:	0001883a 	nop
    627c:	0001883a 	nop

00006280 <ErrorHook>:
    6280:	defffd04 	addi	sp,sp,-12
    6284:	dfc00215 	stw	ra,8(sp)
    6288:	00800074 	movhi	r2,1
    628c:	10833c04 	addi	r2,r2,3312
    6290:	10800003 	ldbu	r2,0(r2)
    6294:	00c03e44 	movi	r3,249
    6298:	21003fcc 	andi	r4,r4,255
    629c:	1880082e 	bgeu	r3,r2,62c0 <ErrorHook+0x40>
    62a0:	00082800 	call	8280 <atk2_strerror>
    62a4:	01000184 	movi	r4,6
    62a8:	01400074 	movhi	r5,1
    62ac:	29408104 	addi	r5,r5,516
    62b0:	100d883a 	mov	r6,r2
    62b4:	dfc00217 	ldw	ra,8(sp)
    62b8:	dec00304 	addi	sp,sp,12
    62bc:	00080401 	jmpi	8040 <syslog>
    62c0:	1085883a 	add	r2,r2,r2
    62c4:	1085883a 	add	r2,r2,r2
    62c8:	00c00034 	movhi	r3,0
    62cc:	18d8b704 	addi	r3,r3,25308
    62d0:	10c5883a 	add	r2,r2,r3
    62d4:	10800017 	ldw	r2,0(r2)
    62d8:	1000683a 	jmp	r2
    62dc:	000062a0 	cmpeqi	zero,zero,394
    62e0:	00006b78 	rdprs	zero,zero,429
    62e4:	000062a0 	cmpeqi	zero,zero,394
    62e8:	000062a0 	cmpeqi	zero,zero,394
    62ec:	000062a0 	cmpeqi	zero,zero,394
    62f0:	000062a0 	cmpeqi	zero,zero,394
    62f4:	000062a0 	cmpeqi	zero,zero,394
    62f8:	00006b40 	call	6b4 <stack_monitoring_error+0x4>
    62fc:	00006b08 	cmpgei	zero,zero,428
    6300:	00006ae8 	cmpgeui	zero,zero,427
    6304:	00006ab0 	cmpltui	zero,zero,426
    6308:	000062a0 	cmpeqi	zero,zero,394
    630c:	000062a0 	cmpeqi	zero,zero,394
    6310:	000062a0 	cmpeqi	zero,zero,394
    6314:	00006a78 	rdprs	zero,zero,425
    6318:	00006a58 	cmpnei	zero,zero,425
    631c:	000062a0 	cmpeqi	zero,zero,394
    6320:	000062a0 	cmpeqi	zero,zero,394
    6324:	000062a0 	cmpeqi	zero,zero,394
    6328:	000062a0 	cmpeqi	zero,zero,394
    632c:	000062a0 	cmpeqi	zero,zero,394
    6330:	000062a0 	cmpeqi	zero,zero,394
    6334:	000062a0 	cmpeqi	zero,zero,394
    6338:	000062a0 	cmpeqi	zero,zero,394
    633c:	000062a0 	cmpeqi	zero,zero,394
    6340:	000062a0 	cmpeqi	zero,zero,394
    6344:	000062a0 	cmpeqi	zero,zero,394
    6348:	000062a0 	cmpeqi	zero,zero,394
    634c:	000062a0 	cmpeqi	zero,zero,394
    6350:	000062a0 	cmpeqi	zero,zero,394
    6354:	000062a0 	cmpeqi	zero,zero,394
    6358:	000062a0 	cmpeqi	zero,zero,394
    635c:	000062a0 	cmpeqi	zero,zero,394
    6360:	000062a0 	cmpeqi	zero,zero,394
    6364:	000062a0 	cmpeqi	zero,zero,394
    6368:	000062a0 	cmpeqi	zero,zero,394
    636c:	000062a0 	cmpeqi	zero,zero,394
    6370:	000062a0 	cmpeqi	zero,zero,394
    6374:	000062a0 	cmpeqi	zero,zero,394
    6378:	000062a0 	cmpeqi	zero,zero,394
    637c:	000062a0 	cmpeqi	zero,zero,394
    6380:	000062a0 	cmpeqi	zero,zero,394
    6384:	000062a0 	cmpeqi	zero,zero,394
    6388:	000062a0 	cmpeqi	zero,zero,394
    638c:	000062a0 	cmpeqi	zero,zero,394
    6390:	000062a0 	cmpeqi	zero,zero,394
    6394:	000062a0 	cmpeqi	zero,zero,394
    6398:	000062a0 	cmpeqi	zero,zero,394
    639c:	000062a0 	cmpeqi	zero,zero,394
    63a0:	000062a0 	cmpeqi	zero,zero,394
    63a4:	000062a0 	cmpeqi	zero,zero,394
    63a8:	000062a0 	cmpeqi	zero,zero,394
    63ac:	000062a0 	cmpeqi	zero,zero,394
    63b0:	000062a0 	cmpeqi	zero,zero,394
    63b4:	000062a0 	cmpeqi	zero,zero,394
    63b8:	000062a0 	cmpeqi	zero,zero,394
    63bc:	000062a0 	cmpeqi	zero,zero,394
    63c0:	000062a0 	cmpeqi	zero,zero,394
    63c4:	000062a0 	cmpeqi	zero,zero,394
    63c8:	000062a0 	cmpeqi	zero,zero,394
    63cc:	000062a0 	cmpeqi	zero,zero,394
    63d0:	000062a0 	cmpeqi	zero,zero,394
    63d4:	000062a0 	cmpeqi	zero,zero,394
    63d8:	000062a0 	cmpeqi	zero,zero,394
    63dc:	000062a0 	cmpeqi	zero,zero,394
    63e0:	000062a0 	cmpeqi	zero,zero,394
    63e4:	000062a0 	cmpeqi	zero,zero,394
    63e8:	000062a0 	cmpeqi	zero,zero,394
    63ec:	000062a0 	cmpeqi	zero,zero,394
    63f0:	000062a0 	cmpeqi	zero,zero,394
    63f4:	000062a0 	cmpeqi	zero,zero,394
    63f8:	000062a0 	cmpeqi	zero,zero,394
    63fc:	000062a0 	cmpeqi	zero,zero,394
    6400:	000062a0 	cmpeqi	zero,zero,394
    6404:	000062a0 	cmpeqi	zero,zero,394
    6408:	000062a0 	cmpeqi	zero,zero,394
    640c:	000062a0 	cmpeqi	zero,zero,394
    6410:	000062a0 	cmpeqi	zero,zero,394
    6414:	000062a0 	cmpeqi	zero,zero,394
    6418:	000062a0 	cmpeqi	zero,zero,394
    641c:	000062a0 	cmpeqi	zero,zero,394
    6420:	000062a0 	cmpeqi	zero,zero,394
    6424:	000062a0 	cmpeqi	zero,zero,394
    6428:	000062a0 	cmpeqi	zero,zero,394
    642c:	000062a0 	cmpeqi	zero,zero,394
    6430:	000062a0 	cmpeqi	zero,zero,394
    6434:	000062a0 	cmpeqi	zero,zero,394
    6438:	000062a0 	cmpeqi	zero,zero,394
    643c:	000062a0 	cmpeqi	zero,zero,394
    6440:	000062a0 	cmpeqi	zero,zero,394
    6444:	000062a0 	cmpeqi	zero,zero,394
    6448:	000062a0 	cmpeqi	zero,zero,394
    644c:	000062a0 	cmpeqi	zero,zero,394
    6450:	000062a0 	cmpeqi	zero,zero,394
    6454:	000062a0 	cmpeqi	zero,zero,394
    6458:	000062a0 	cmpeqi	zero,zero,394
    645c:	000062a0 	cmpeqi	zero,zero,394
    6460:	000062a0 	cmpeqi	zero,zero,394
    6464:	000062a0 	cmpeqi	zero,zero,394
    6468:	000062a0 	cmpeqi	zero,zero,394
    646c:	000062a0 	cmpeqi	zero,zero,394
    6470:	000062a0 	cmpeqi	zero,zero,394
    6474:	000062a0 	cmpeqi	zero,zero,394
    6478:	000062a0 	cmpeqi	zero,zero,394
    647c:	000062a0 	cmpeqi	zero,zero,394
    6480:	000062a0 	cmpeqi	zero,zero,394
    6484:	000062a0 	cmpeqi	zero,zero,394
    6488:	000062a0 	cmpeqi	zero,zero,394
    648c:	000062a0 	cmpeqi	zero,zero,394
    6490:	000062a0 	cmpeqi	zero,zero,394
    6494:	000062a0 	cmpeqi	zero,zero,394
    6498:	000062a0 	cmpeqi	zero,zero,394
    649c:	000062a0 	cmpeqi	zero,zero,394
    64a0:	000062a0 	cmpeqi	zero,zero,394
    64a4:	000062a0 	cmpeqi	zero,zero,394
    64a8:	000062a0 	cmpeqi	zero,zero,394
    64ac:	000062a0 	cmpeqi	zero,zero,394
    64b0:	000062a0 	cmpeqi	zero,zero,394
    64b4:	000062a0 	cmpeqi	zero,zero,394
    64b8:	000062a0 	cmpeqi	zero,zero,394
    64bc:	000062a0 	cmpeqi	zero,zero,394
    64c0:	000062a0 	cmpeqi	zero,zero,394
    64c4:	000062a0 	cmpeqi	zero,zero,394
    64c8:	000062a0 	cmpeqi	zero,zero,394
    64cc:	000062a0 	cmpeqi	zero,zero,394
    64d0:	000062a0 	cmpeqi	zero,zero,394
    64d4:	000062a0 	cmpeqi	zero,zero,394
    64d8:	000062a0 	cmpeqi	zero,zero,394
    64dc:	000062a0 	cmpeqi	zero,zero,394
    64e0:	000062a0 	cmpeqi	zero,zero,394
    64e4:	000062a0 	cmpeqi	zero,zero,394
    64e8:	000062a0 	cmpeqi	zero,zero,394
    64ec:	000062a0 	cmpeqi	zero,zero,394
    64f0:	000062a0 	cmpeqi	zero,zero,394
    64f4:	000062a0 	cmpeqi	zero,zero,394
    64f8:	000062a0 	cmpeqi	zero,zero,394
    64fc:	000062a0 	cmpeqi	zero,zero,394
    6500:	000062a0 	cmpeqi	zero,zero,394
    6504:	000062a0 	cmpeqi	zero,zero,394
    6508:	000062a0 	cmpeqi	zero,zero,394
    650c:	000062a0 	cmpeqi	zero,zero,394
    6510:	000062a0 	cmpeqi	zero,zero,394
    6514:	000062a0 	cmpeqi	zero,zero,394
    6518:	000062a0 	cmpeqi	zero,zero,394
    651c:	000062a0 	cmpeqi	zero,zero,394
    6520:	000062a0 	cmpeqi	zero,zero,394
    6524:	000062a0 	cmpeqi	zero,zero,394
    6528:	000062a0 	cmpeqi	zero,zero,394
    652c:	000062a0 	cmpeqi	zero,zero,394
    6530:	000062a0 	cmpeqi	zero,zero,394
    6534:	000062a0 	cmpeqi	zero,zero,394
    6538:	000062a0 	cmpeqi	zero,zero,394
    653c:	000062a0 	cmpeqi	zero,zero,394
    6540:	000062a0 	cmpeqi	zero,zero,394
    6544:	000062a0 	cmpeqi	zero,zero,394
    6548:	000062a0 	cmpeqi	zero,zero,394
    654c:	000062a0 	cmpeqi	zero,zero,394
    6550:	000062a0 	cmpeqi	zero,zero,394
    6554:	000062a0 	cmpeqi	zero,zero,394
    6558:	000062a0 	cmpeqi	zero,zero,394
    655c:	000062a0 	cmpeqi	zero,zero,394
    6560:	000062a0 	cmpeqi	zero,zero,394
    6564:	000062a0 	cmpeqi	zero,zero,394
    6568:	000062a0 	cmpeqi	zero,zero,394
    656c:	000062a0 	cmpeqi	zero,zero,394
    6570:	000062a0 	cmpeqi	zero,zero,394
    6574:	000062a0 	cmpeqi	zero,zero,394
    6578:	000062a0 	cmpeqi	zero,zero,394
    657c:	000062a0 	cmpeqi	zero,zero,394
    6580:	000062a0 	cmpeqi	zero,zero,394
    6584:	000062a0 	cmpeqi	zero,zero,394
    6588:	000062a0 	cmpeqi	zero,zero,394
    658c:	000062a0 	cmpeqi	zero,zero,394
    6590:	000062a0 	cmpeqi	zero,zero,394
    6594:	000062a0 	cmpeqi	zero,zero,394
    6598:	00006a44 	movi	zero,425
    659c:	000062a0 	cmpeqi	zero,zero,394
    65a0:	000062a0 	cmpeqi	zero,zero,394
    65a4:	000062a0 	cmpeqi	zero,zero,394
    65a8:	000062a0 	cmpeqi	zero,zero,394
    65ac:	000062a0 	cmpeqi	zero,zero,394
    65b0:	000062a0 	cmpeqi	zero,zero,394
    65b4:	000062a0 	cmpeqi	zero,zero,394
    65b8:	000062a0 	cmpeqi	zero,zero,394
    65bc:	000062a0 	cmpeqi	zero,zero,394
    65c0:	000062a0 	cmpeqi	zero,zero,394
    65c4:	000062a0 	cmpeqi	zero,zero,394
    65c8:	000062a0 	cmpeqi	zero,zero,394
    65cc:	000062a0 	cmpeqi	zero,zero,394
    65d0:	000062a0 	cmpeqi	zero,zero,394
    65d4:	000062a0 	cmpeqi	zero,zero,394
    65d8:	000062a0 	cmpeqi	zero,zero,394
    65dc:	000062a0 	cmpeqi	zero,zero,394
    65e0:	000062a0 	cmpeqi	zero,zero,394
    65e4:	000062a0 	cmpeqi	zero,zero,394
    65e8:	000062a0 	cmpeqi	zero,zero,394
    65ec:	000062a0 	cmpeqi	zero,zero,394
    65f0:	000062a0 	cmpeqi	zero,zero,394
    65f4:	000062a0 	cmpeqi	zero,zero,394
    65f8:	000062a0 	cmpeqi	zero,zero,394
    65fc:	000062a0 	cmpeqi	zero,zero,394
    6600:	000062a0 	cmpeqi	zero,zero,394
    6604:	000062a0 	cmpeqi	zero,zero,394
    6608:	000062a0 	cmpeqi	zero,zero,394
    660c:	000062a0 	cmpeqi	zero,zero,394
    6610:	000062a0 	cmpeqi	zero,zero,394
    6614:	000062a0 	cmpeqi	zero,zero,394
    6618:	000062a0 	cmpeqi	zero,zero,394
    661c:	000062a0 	cmpeqi	zero,zero,394
    6620:	000062a0 	cmpeqi	zero,zero,394
    6624:	000062a0 	cmpeqi	zero,zero,394
    6628:	000062a0 	cmpeqi	zero,zero,394
    662c:	000062a0 	cmpeqi	zero,zero,394
    6630:	000062a0 	cmpeqi	zero,zero,394
    6634:	000062a0 	cmpeqi	zero,zero,394
    6638:	000062a0 	cmpeqi	zero,zero,394
    663c:	000062a0 	cmpeqi	zero,zero,394
    6640:	000062a0 	cmpeqi	zero,zero,394
    6644:	000062a0 	cmpeqi	zero,zero,394
    6648:	000062a0 	cmpeqi	zero,zero,394
    664c:	000062a0 	cmpeqi	zero,zero,394
    6650:	000062a0 	cmpeqi	zero,zero,394
    6654:	000062a0 	cmpeqi	zero,zero,394
    6658:	000062a0 	cmpeqi	zero,zero,394
    665c:	00006a24 	muli	zero,zero,424
    6660:	00006a10 	cmplti	zero,zero,424
    6664:	000069f0 	cmpltui	zero,zero,423
    6668:	000069dc 	xori	zero,zero,423
    666c:	000069bc 	xorhi	zero,zero,422
    6670:	00006984 	movi	zero,422
    6674:	00006970 	cmpltui	zero,zero,421
    6678:	0000695c 	xori	zero,zero,421
    667c:	00006948 	cmpgei	zero,zero,421
    6680:	00006934 	movhi	zero,420
    6684:	00006920 	cmpeqi	zero,zero,420
    6688:	0000690c 	andi	zero,zero,420
    668c:	000068ec 	andhi	zero,zero,419
    6690:	000068cc 	andi	zero,zero,419
    6694:	00006894 	movui	zero,418
    6698:	00006874 	movhi	zero,417
    669c:	0000683c 	xorhi	zero,zero,416
    66a0:	0000681c 	xori	zero,zero,416
    66a4:	000067fc 	xorhi	zero,zero,415
    66a8:	000067c4 	movi	zero,415
    66ac:	0000677c 	xorhi	zero,zero,413
    66b0:	0000672c 	andhi	zero,zero,412
    66b4:	00006700 	call	670 <dispatcher_3+0x40>
    66b8:	000066ec 	andhi	zero,zero,411
    66bc:	000066d8 	cmpnei	zero,zero,411
    66c0:	000066c4 	movi	zero,411
    66c4:	00082800 	call	8280 <atk2_strerror>
    66c8:	01000184 	movi	r4,6
    66cc:	01400074 	movhi	r5,1
    66d0:	29406d04 	addi	r5,r5,436
    66d4:	003ef606 	br	62b0 <ErrorHook+0x30>
    66d8:	00082800 	call	8280 <atk2_strerror>
    66dc:	01000184 	movi	r4,6
    66e0:	01400074 	movhi	r5,1
    66e4:	29406804 	addi	r5,r5,416
    66e8:	003ef106 	br	62b0 <ErrorHook+0x30>
    66ec:	00082800 	call	8280 <atk2_strerror>
    66f0:	01000184 	movi	r4,6
    66f4:	01400074 	movhi	r5,1
    66f8:	29405f04 	addi	r5,r5,380
    66fc:	003eec06 	br	62b0 <ErrorHook+0x30>
    6700:	00082800 	call	8280 <atk2_strerror>
    6704:	00c00074 	movhi	r3,1
    6708:	18c33804 	addi	r3,r3,3296
    670c:	19c00017 	ldw	r7,0(r3)
    6710:	01000184 	movi	r4,6
    6714:	01400074 	movhi	r5,1
    6718:	29402804 	addi	r5,r5,160
    671c:	100d883a 	mov	r6,r2
    6720:	dfc00217 	ldw	ra,8(sp)
    6724:	dec00304 	addi	sp,sp,12
    6728:	00080401 	jmpi	8040 <syslog>
    672c:	00082800 	call	8280 <atk2_strerror>
    6730:	00c00074 	movhi	r3,1
    6734:	18c33704 	addi	r3,r3,3292
    6738:	19000017 	ldw	r4,0(r3)
    673c:	00c00074 	movhi	r3,1
    6740:	18c33604 	addi	r3,r3,3288
    6744:	18c00017 	ldw	r3,0(r3)
    6748:	01400074 	movhi	r5,1
    674c:	29433804 	addi	r5,r5,3296
    6750:	29c00017 	ldw	r7,0(r5)
    6754:	100d883a 	mov	r6,r2
    6758:	d9000015 	stw	r4,0(sp)
    675c:	d8c00115 	stw	r3,4(sp)
    6760:	01000184 	movi	r4,6
    6764:	01400074 	movhi	r5,1
    6768:	29401f04 	addi	r5,r5,124
    676c:	00080400 	call	8040 <syslog>
    6770:	dfc00217 	ldw	ra,8(sp)
    6774:	dec00304 	addi	sp,sp,12
    6778:	f800283a 	ret
    677c:	00082800 	call	8280 <atk2_strerror>
    6780:	00c00074 	movhi	r3,1
    6784:	18c33704 	addi	r3,r3,3292
    6788:	19000017 	ldw	r4,0(r3)
    678c:	00c00074 	movhi	r3,1
    6790:	18c33604 	addi	r3,r3,3288
    6794:	18c00017 	ldw	r3,0(r3)
    6798:	01400074 	movhi	r5,1
    679c:	29433804 	addi	r5,r5,3296
    67a0:	29c00017 	ldw	r7,0(r5)
    67a4:	100d883a 	mov	r6,r2
    67a8:	d9000015 	stw	r4,0(sp)
    67ac:	d8c00115 	stw	r3,4(sp)
    67b0:	01000184 	movi	r4,6
    67b4:	01400074 	movhi	r5,1
    67b8:	29401604 	addi	r5,r5,88
    67bc:	00080400 	call	8040 <syslog>
    67c0:	003feb06 	br	6770 <ErrorHook+0x4f0>
    67c4:	00082800 	call	8280 <atk2_strerror>
    67c8:	00c00074 	movhi	r3,1
    67cc:	18c33704 	addi	r3,r3,3292
    67d0:	18c00017 	ldw	r3,0(r3)
    67d4:	01000074 	movhi	r4,1
    67d8:	21033804 	addi	r4,r4,3296
    67dc:	21c00017 	ldw	r7,0(r4)
    67e0:	01400074 	movhi	r5,1
    67e4:	29400f04 	addi	r5,r5,60
    67e8:	01000184 	movi	r4,6
    67ec:	d8c00015 	stw	r3,0(sp)
    67f0:	100d883a 	mov	r6,r2
    67f4:	00080400 	call	8040 <syslog>
    67f8:	003fdd06 	br	6770 <ErrorHook+0x4f0>
    67fc:	00082800 	call	8280 <atk2_strerror>
    6800:	00c00074 	movhi	r3,1
    6804:	18c33804 	addi	r3,r3,3296
    6808:	19c00017 	ldw	r7,0(r3)
    680c:	01000184 	movi	r4,6
    6810:	01400074 	movhi	r5,1
    6814:	29400804 	addi	r5,r5,32
    6818:	003fc006 	br	671c <ErrorHook+0x49c>
    681c:	00082800 	call	8280 <atk2_strerror>
    6820:	00c00074 	movhi	r3,1
    6824:	18c33804 	addi	r3,r3,3296
    6828:	19c00017 	ldw	r7,0(r3)
    682c:	01000184 	movi	r4,6
    6830:	01400074 	movhi	r5,1
    6834:	29400104 	addi	r5,r5,4
    6838:	003fb806 	br	671c <ErrorHook+0x49c>
    683c:	00082800 	call	8280 <atk2_strerror>
    6840:	00c00074 	movhi	r3,1
    6844:	18c33704 	addi	r3,r3,3292
    6848:	18c00017 	ldw	r3,0(r3)
    684c:	01000074 	movhi	r4,1
    6850:	21033804 	addi	r4,r4,3296
    6854:	21c00017 	ldw	r7,0(r4)
    6858:	01400074 	movhi	r5,1
    685c:	297ffa04 	addi	r5,r5,-24
    6860:	01000184 	movi	r4,6
    6864:	d8c00015 	stw	r3,0(sp)
    6868:	100d883a 	mov	r6,r2
    686c:	00080400 	call	8040 <syslog>
    6870:	003fbf06 	br	6770 <ErrorHook+0x4f0>
    6874:	00082800 	call	8280 <atk2_strerror>
    6878:	00c00074 	movhi	r3,1
    687c:	18c33804 	addi	r3,r3,3296
    6880:	19c00017 	ldw	r7,0(r3)
    6884:	01000184 	movi	r4,6
    6888:	01400074 	movhi	r5,1
    688c:	297ff304 	addi	r5,r5,-52
    6890:	003fa206 	br	671c <ErrorHook+0x49c>
    6894:	00082800 	call	8280 <atk2_strerror>
    6898:	00c00074 	movhi	r3,1
    689c:	18c33704 	addi	r3,r3,3292
    68a0:	18c00017 	ldw	r3,0(r3)
    68a4:	01000074 	movhi	r4,1
    68a8:	21033804 	addi	r4,r4,3296
    68ac:	21c00017 	ldw	r7,0(r4)
    68b0:	01400074 	movhi	r5,1
    68b4:	297fec04 	addi	r5,r5,-80
    68b8:	01000184 	movi	r4,6
    68bc:	d8c00015 	stw	r3,0(sp)
    68c0:	100d883a 	mov	r6,r2
    68c4:	00080400 	call	8040 <syslog>
    68c8:	003fa906 	br	6770 <ErrorHook+0x4f0>
    68cc:	00082800 	call	8280 <atk2_strerror>
    68d0:	00c00074 	movhi	r3,1
    68d4:	18c33804 	addi	r3,r3,3296
    68d8:	19c00017 	ldw	r7,0(r3)
    68dc:	01000184 	movi	r4,6
    68e0:	01400074 	movhi	r5,1
    68e4:	297fe404 	addi	r5,r5,-112
    68e8:	003f8c06 	br	671c <ErrorHook+0x49c>
    68ec:	00082800 	call	8280 <atk2_strerror>
    68f0:	00c00074 	movhi	r3,1
    68f4:	18c33804 	addi	r3,r3,3296
    68f8:	19c00017 	ldw	r7,0(r3)
    68fc:	01000184 	movi	r4,6
    6900:	01400074 	movhi	r5,1
    6904:	297fdd04 	addi	r5,r5,-140
    6908:	003f8406 	br	671c <ErrorHook+0x49c>
    690c:	00082800 	call	8280 <atk2_strerror>
    6910:	01000184 	movi	r4,6
    6914:	01400074 	movhi	r5,1
    6918:	297fd004 	addi	r5,r5,-192
    691c:	003e6406 	br	62b0 <ErrorHook+0x30>
    6920:	00082800 	call	8280 <atk2_strerror>
    6924:	01000184 	movi	r4,6
    6928:	01400074 	movhi	r5,1
    692c:	297fc804 	addi	r5,r5,-224
    6930:	003e5f06 	br	62b0 <ErrorHook+0x30>
    6934:	00082800 	call	8280 <atk2_strerror>
    6938:	01000184 	movi	r4,6
    693c:	01400074 	movhi	r5,1
    6940:	297fc004 	addi	r5,r5,-256
    6944:	003e5a06 	br	62b0 <ErrorHook+0x30>
    6948:	00082800 	call	8280 <atk2_strerror>
    694c:	01000184 	movi	r4,6
    6950:	01400074 	movhi	r5,1
    6954:	297fb804 	addi	r5,r5,-288
    6958:	003e5506 	br	62b0 <ErrorHook+0x30>
    695c:	00082800 	call	8280 <atk2_strerror>
    6960:	01000184 	movi	r4,6
    6964:	01400074 	movhi	r5,1
    6968:	297fb004 	addi	r5,r5,-320
    696c:	003e5006 	br	62b0 <ErrorHook+0x30>
    6970:	00082800 	call	8280 <atk2_strerror>
    6974:	01000184 	movi	r4,6
    6978:	01400074 	movhi	r5,1
    697c:	297fa804 	addi	r5,r5,-352
    6980:	003e4b06 	br	62b0 <ErrorHook+0x30>
    6984:	00082800 	call	8280 <atk2_strerror>
    6988:	00c00074 	movhi	r3,1
    698c:	18c33704 	addi	r3,r3,3292
    6990:	18c00017 	ldw	r3,0(r3)
    6994:	01000074 	movhi	r4,1
    6998:	21033804 	addi	r4,r4,3296
    699c:	21c00017 	ldw	r7,0(r4)
    69a0:	01400074 	movhi	r5,1
    69a4:	297fa004 	addi	r5,r5,-384
    69a8:	01000184 	movi	r4,6
    69ac:	d8c00015 	stw	r3,0(sp)
    69b0:	100d883a 	mov	r6,r2
    69b4:	00080400 	call	8040 <syslog>
    69b8:	003f6d06 	br	6770 <ErrorHook+0x4f0>
    69bc:	00082800 	call	8280 <atk2_strerror>
    69c0:	00c00074 	movhi	r3,1
    69c4:	18c33804 	addi	r3,r3,3296
    69c8:	19c00017 	ldw	r7,0(r3)
    69cc:	01000184 	movi	r4,6
    69d0:	01400074 	movhi	r5,1
    69d4:	297f9904 	addi	r5,r5,-412
    69d8:	003f5006 	br	671c <ErrorHook+0x49c>
    69dc:	00082800 	call	8280 <atk2_strerror>
    69e0:	01000184 	movi	r4,6
    69e4:	01400074 	movhi	r5,1
    69e8:	297f9404 	addi	r5,r5,-432
    69ec:	003e3006 	br	62b0 <ErrorHook+0x30>
    69f0:	00082800 	call	8280 <atk2_strerror>
    69f4:	00c00074 	movhi	r3,1
    69f8:	18c33804 	addi	r3,r3,3296
    69fc:	19c00017 	ldw	r7,0(r3)
    6a00:	01000184 	movi	r4,6
    6a04:	01400074 	movhi	r5,1
    6a08:	297f8e04 	addi	r5,r5,-456
    6a0c:	003f4306 	br	671c <ErrorHook+0x49c>
    6a10:	00082800 	call	8280 <atk2_strerror>
    6a14:	01000184 	movi	r4,6
    6a18:	01400074 	movhi	r5,1
    6a1c:	297f8704 	addi	r5,r5,-484
    6a20:	003e2306 	br	62b0 <ErrorHook+0x30>
    6a24:	00082800 	call	8280 <atk2_strerror>
    6a28:	00c00074 	movhi	r3,1
    6a2c:	18c33804 	addi	r3,r3,3296
    6a30:	19c00017 	ldw	r7,0(r3)
    6a34:	01000184 	movi	r4,6
    6a38:	01400074 	movhi	r5,1
    6a3c:	297f8004 	addi	r5,r5,-512
    6a40:	003f3606 	br	671c <ErrorHook+0x49c>
    6a44:	00082800 	call	8280 <atk2_strerror>
    6a48:	01000184 	movi	r4,6
    6a4c:	01400074 	movhi	r5,1
    6a50:	29407b04 	addi	r5,r5,492
    6a54:	003e1606 	br	62b0 <ErrorHook+0x30>
    6a58:	00082800 	call	8280 <atk2_strerror>
    6a5c:	00c00074 	movhi	r3,1
    6a60:	18c33804 	addi	r3,r3,3296
    6a64:	19c00017 	ldw	r7,0(r3)
    6a68:	01000184 	movi	r4,6
    6a6c:	01400074 	movhi	r5,1
    6a70:	29407304 	addi	r5,r5,460
    6a74:	003f2906 	br	671c <ErrorHook+0x49c>
    6a78:	00082800 	call	8280 <atk2_strerror>
    6a7c:	00c00074 	movhi	r3,1
    6a80:	18c33704 	addi	r3,r3,3292
    6a84:	18c00017 	ldw	r3,0(r3)
    6a88:	01000074 	movhi	r4,1
    6a8c:	21033804 	addi	r4,r4,3296
    6a90:	21c00017 	ldw	r7,0(r4)
    6a94:	01400074 	movhi	r5,1
    6a98:	29405404 	addi	r5,r5,336
    6a9c:	01000184 	movi	r4,6
    6aa0:	d8c00015 	stw	r3,0(sp)
    6aa4:	100d883a 	mov	r6,r2
    6aa8:	00080400 	call	8040 <syslog>
    6aac:	003f3006 	br	6770 <ErrorHook+0x4f0>
    6ab0:	00082800 	call	8280 <atk2_strerror>
    6ab4:	00c00074 	movhi	r3,1
    6ab8:	18c33704 	addi	r3,r3,3292
    6abc:	18c00017 	ldw	r3,0(r3)
    6ac0:	01000074 	movhi	r4,1
    6ac4:	21033804 	addi	r4,r4,3296
    6ac8:	21c00017 	ldw	r7,0(r4)
    6acc:	01400074 	movhi	r5,1
    6ad0:	29404b04 	addi	r5,r5,300
    6ad4:	01000184 	movi	r4,6
    6ad8:	d8c00015 	stw	r3,0(sp)
    6adc:	100d883a 	mov	r6,r2
    6ae0:	00080400 	call	8040 <syslog>
    6ae4:	003f2206 	br	6770 <ErrorHook+0x4f0>
    6ae8:	00082800 	call	8280 <atk2_strerror>
    6aec:	00c00074 	movhi	r3,1
    6af0:	18c33804 	addi	r3,r3,3296
    6af4:	19c00017 	ldw	r7,0(r3)
    6af8:	01000184 	movi	r4,6
    6afc:	01400074 	movhi	r5,1
    6b00:	29404304 	addi	r5,r5,268
    6b04:	003f0506 	br	671c <ErrorHook+0x49c>
    6b08:	00082800 	call	8280 <atk2_strerror>
    6b0c:	00c00074 	movhi	r3,1
    6b10:	18c33704 	addi	r3,r3,3292
    6b14:	18c00017 	ldw	r3,0(r3)
    6b18:	01000074 	movhi	r4,1
    6b1c:	21033804 	addi	r4,r4,3296
    6b20:	21c00017 	ldw	r7,0(r4)
    6b24:	01400074 	movhi	r5,1
    6b28:	29403904 	addi	r5,r5,228
    6b2c:	01000184 	movi	r4,6
    6b30:	d8c00015 	stw	r3,0(sp)
    6b34:	100d883a 	mov	r6,r2
    6b38:	00080400 	call	8040 <syslog>
    6b3c:	003f0c06 	br	6770 <ErrorHook+0x4f0>
    6b40:	00082800 	call	8280 <atk2_strerror>
    6b44:	00c00074 	movhi	r3,1
    6b48:	18c33704 	addi	r3,r3,3292
    6b4c:	18c00017 	ldw	r3,0(r3)
    6b50:	01000074 	movhi	r4,1
    6b54:	21033804 	addi	r4,r4,3296
    6b58:	21c00017 	ldw	r7,0(r4)
    6b5c:	01400074 	movhi	r5,1
    6b60:	29402f04 	addi	r5,r5,188
    6b64:	01000184 	movi	r4,6
    6b68:	d8c00015 	stw	r3,0(sp)
    6b6c:	100d883a 	mov	r6,r2
    6b70:	00080400 	call	8040 <syslog>
    6b74:	003efe06 	br	6770 <ErrorHook+0x4f0>
    6b78:	00082800 	call	8280 <atk2_strerror>
    6b7c:	01000184 	movi	r4,6
    6b80:	01400074 	movhi	r5,1
    6b84:	297fd804 	addi	r5,r5,-160
    6b88:	003dc906 	br	62b0 <ErrorHook+0x30>
    6b8c:	0001883a 	nop
    6b90:	0001883a 	nop
    6b94:	0001883a 	nop
    6b98:	0001883a 	nop
    6b9c:	0001883a 	nop

00006ba0 <PreTaskHook>:
    6ba0:	f800283a 	ret
    6ba4:	0001883a 	nop
    6ba8:	0001883a 	nop
    6bac:	0001883a 	nop
    6bb0:	0001883a 	nop
    6bb4:	0001883a 	nop
    6bb8:	0001883a 	nop
    6bbc:	0001883a 	nop

00006bc0 <PostTaskHook>:
    6bc0:	f800283a 	ret
    6bc4:	0001883a 	nop
    6bc8:	0001883a 	nop
    6bcc:	0001883a 	nop
    6bd0:	0001883a 	nop
    6bd4:	0001883a 	nop
    6bd8:	0001883a 	nop
    6bdc:	0001883a 	nop

00006be0 <StartupHook>:
    6be0:	defffd04 	addi	sp,sp,-12
    6be4:	dc400115 	stw	r17,4(sp)
    6be8:	dc000015 	stw	r16,0(sp)
    6bec:	dfc00215 	stw	ra,8(sp)
    6bf0:	0021883a 	mov	r16,zero
    6bf4:	0449c404 	movi	r17,10000
    6bf8:	84000044 	addi	r16,r16,1
    6bfc:	8009883a 	mov	r4,r16
    6c00:	0140fa04 	movi	r5,1000
    6c04:	01800074 	movhi	r6,1
    6c08:	31878204 	addi	r6,r6,7688
    6c0c:	0006e000 	call	6e00 <init_hist>
    6c10:	847ff91e 	bne	r16,r17,6bf8 <StartupHook+0x18>
    6c14:	0001e000 	call	1e00 <tinet_initialize>
    6c18:	00079400 	call	7940 <net_atk2_initialize>
    6c1c:	00078e00 	call	78e0 <ethernet_initialize>
    6c20:	00090600 	call	9060 <target_timer_initialize>
    6c24:	0007a800 	call	7a80 <syslog_initialize>
    6c28:	01001fc4 	movi	r4,127
    6c2c:	0007b200 	call	7b20 <syslog_msk_log>
    6c30:	0007b400 	call	7b40 <InitSerial>
    6c34:	dfc00217 	ldw	ra,8(sp)
    6c38:	dc400117 	ldw	r17,4(sp)
    6c3c:	dc000017 	ldw	r16,0(sp)
    6c40:	dec00304 	addi	sp,sp,12
    6c44:	0007a201 	jmpi	7a20 <print_banner>
    6c48:	0001883a 	nop
    6c4c:	0001883a 	nop
    6c50:	0001883a 	nop
    6c54:	0001883a 	nop
    6c58:	0001883a 	nop
    6c5c:	0001883a 	nop

00006c60 <ShutdownHook>:
    6c60:	defffe04 	addi	sp,sp,-8
    6c64:	dc000015 	stw	r16,0(sp)
    6c68:	01400074 	movhi	r5,1
    6c6c:	29424504 	addi	r5,r5,2324
    6c70:	2021883a 	mov	r16,r4
    6c74:	01000184 	movi	r4,6
    6c78:	dfc00115 	stw	ra,4(sp)
    6c7c:	00080400 	call	8040 <syslog>
    6c80:	01400074 	movhi	r5,1
    6c84:	29408704 	addi	r5,r5,540
    6c88:	01000184 	movi	r4,6
    6c8c:	00080400 	call	8040 <syslog>
    6c90:	84003fcc 	andi	r16,r16,255
    6c94:	8009883a 	mov	r4,r16
    6c98:	00082800 	call	8280 <atk2_strerror>
    6c9c:	100d883a 	mov	r6,r2
    6ca0:	01000184 	movi	r4,6
    6ca4:	01400074 	movhi	r5,1
    6ca8:	29408d04 	addi	r5,r5,564
    6cac:	00080400 	call	8040 <syslog>
    6cb0:	01000184 	movi	r4,6
    6cb4:	01400074 	movhi	r5,1
    6cb8:	29424504 	addi	r5,r5,2324
    6cbc:	00080400 	call	8040 <syslog>
    6cc0:	008006c4 	movi	r2,27
    6cc4:	80800526 	beq	r16,r2,6cdc <ShutdownHook+0x7c>
    6cc8:	00090c00 	call	90c0 <target_timer_terminate>
    6ccc:	dfc00117 	ldw	ra,4(sp)
    6cd0:	dc000017 	ldw	r16,0(sp)
    6cd4:	dec00204 	addi	sp,sp,8
    6cd8:	0007b601 	jmpi	7b60 <TermSerial>
    6cdc:	00800074 	movhi	r2,1
    6ce0:	10833204 	addi	r2,r2,3272
    6ce4:	11800017 	ldw	r6,0(r2)
    6ce8:	01000184 	movi	r4,6
    6cec:	01400074 	movhi	r5,1
    6cf0:	29409104 	addi	r5,r5,580
    6cf4:	00080400 	call	8040 <syslog>
    6cf8:	00800074 	movhi	r2,1
    6cfc:	10833104 	addi	r2,r2,3268
    6d00:	11800017 	ldw	r6,0(r2)
    6d04:	01000184 	movi	r4,6
    6d08:	01400074 	movhi	r5,1
    6d0c:	29409604 	addi	r5,r5,600
    6d10:	00080400 	call	8040 <syslog>
    6d14:	00090c00 	call	90c0 <target_timer_terminate>
    6d18:	dfc00117 	ldw	ra,4(sp)
    6d1c:	dc000017 	ldw	r16,0(sp)
    6d20:	dec00204 	addi	sp,sp,8
    6d24:	0007b601 	jmpi	7b60 <TermSerial>
    6d28:	0001883a 	nop
    6d2c:	0001883a 	nop
    6d30:	0001883a 	nop
    6d34:	0001883a 	nop
    6d38:	0001883a 	nop
    6d3c:	0001883a 	nop

00006d40 <ProtectionHook>:
    6d40:	defffe04 	addi	sp,sp,-8
    6d44:	dc000015 	stw	r16,0(sp)
    6d48:	01400074 	movhi	r5,1
    6d4c:	29424504 	addi	r5,r5,2324
    6d50:	2021883a 	mov	r16,r4
    6d54:	01000184 	movi	r4,6
    6d58:	dfc00115 	stw	ra,4(sp)
    6d5c:	00080400 	call	8040 <syslog>
    6d60:	01000184 	movi	r4,6
    6d64:	01400074 	movhi	r5,1
    6d68:	29409b04 	addi	r5,r5,620
    6d6c:	00080400 	call	8040 <syslog>
    6d70:	81003fcc 	andi	r4,r16,255
    6d74:	00800344 	movi	r2,13
    6d78:	20801026 	beq	r4,r2,6dbc <ProtectionHook+0x7c>
    6d7c:	00800584 	movi	r2,22
    6d80:	20800526 	beq	r4,r2,6d98 <ProtectionHook+0x58>
    6d84:	00800044 	movi	r2,1
    6d88:	dfc00117 	ldw	ra,4(sp)
    6d8c:	dc000017 	ldw	r16,0(sp)
    6d90:	dec00204 	addi	sp,sp,8
    6d94:	f800283a 	ret
    6d98:	01000184 	movi	r4,6
    6d9c:	01400074 	movhi	r5,1
    6da0:	2940a304 	addi	r5,r5,652
    6da4:	00080400 	call	8040 <syslog>
    6da8:	0005883a 	mov	r2,zero
    6dac:	dfc00117 	ldw	ra,4(sp)
    6db0:	dc000017 	ldw	r16,0(sp)
    6db4:	dec00204 	addi	sp,sp,8
    6db8:	f800283a 	ret
    6dbc:	01000184 	movi	r4,6
    6dc0:	01400074 	movhi	r5,1
    6dc4:	29409f04 	addi	r5,r5,636
    6dc8:	00080400 	call	8040 <syslog>
    6dcc:	00800044 	movi	r2,1
    6dd0:	003fed06 	br	6d88 <ProtectionHook+0x48>
	...

00006de0 <main>:
    6de0:	deffff04 	addi	sp,sp,-4
    6de4:	0009883a 	mov	r4,zero
    6de8:	dfc00015 	stw	ra,0(sp)
    6dec:	000b1000 	call	b100 <StartOS>
    6df0:	003fff06 	br	6df0 <main+0x10>
	...

00006e00 <init_hist>:
    6e00:	213fffc4 	addi	r4,r4,-1
    6e04:	0089c3c4 	movi	r2,9999
    6e08:	11001136 	bltu	r2,r4,6e50 <init_hist+0x50>
    6e0c:	21000624 	muli	r4,r4,24
    6e10:	00800074 	movhi	r2,1
    6e14:	108b6b04 	addi	r2,r2,11692
    6e18:	3007883a 	mov	r3,r6
    6e1c:	2089883a 	add	r4,r4,r2
    6e20:	0005883a 	mov	r2,zero
    6e24:	18000015 	stw	zero,0(r3)
    6e28:	10800044 	addi	r2,r2,1
    6e2c:	18c00104 	addi	r3,r3,4
    6e30:	28bffc2e 	bgeu	r5,r2,6e24 <init_hist+0x24>
    6e34:	00800044 	movi	r2,1
    6e38:	21400115 	stw	r5,4(r4)
    6e3c:	21800215 	stw	r6,8(r4)
    6e40:	20000315 	stw	zero,12(r4)
    6e44:	20000415 	stw	zero,16(r4)
    6e48:	20800505 	stb	r2,20(r4)
    6e4c:	f800283a 	ret
    6e50:	0005883a 	mov	r2,zero
    6e54:	f800283a 	ret
    6e58:	0001883a 	nop
    6e5c:	0001883a 	nop

00006e60 <begin_measure>:
    6e60:	defffe04 	addi	sp,sp,-8
    6e64:	dfc00115 	stw	ra,4(sp)
    6e68:	dc000015 	stw	r16,0(sp)
    6e6c:	213fffc4 	addi	r4,r4,-1
    6e70:	0089c3c4 	movi	r2,9999
    6e74:	11000636 	bltu	r2,r4,6e90 <begin_measure+0x30>
    6e78:	21000624 	muli	r4,r4,24
    6e7c:	00800074 	movhi	r2,1
    6e80:	108b6b04 	addi	r2,r2,11692
    6e84:	20a1883a 	add	r16,r4,r2
    6e88:	80800503 	ldbu	r2,20(r16)
    6e8c:	1000051e 	bne	r2,zero,6ea4 <begin_measure+0x44>
    6e90:	0005883a 	mov	r2,zero
    6e94:	dfc00117 	ldw	ra,4(sp)
    6e98:	dc000017 	ldw	r16,0(sp)
    6e9c:	dec00204 	addi	sp,sp,8
    6ea0:	f800283a 	ret
    6ea4:	01440014 	movui	r5,4096

00006ea8 <ichache_loop>:
    6ea8:	2801483a 	initi	r5
    6eac:	297ff804 	addi	r5,r5,-32
    6eb0:	017ffd16 	blt	zero,r5,6ea8 <ichache_loop>
    6eb4:	00090600 	call	9060 <target_timer_initialize>
    6eb8:	0008f200 	call	8f20 <get_tim_utime>
    6ebc:	80800015 	stw	r2,0(r16)
    6ec0:	00800044 	movi	r2,1
    6ec4:	dfc00117 	ldw	ra,4(sp)
    6ec8:	dc000017 	ldw	r16,0(sp)
    6ecc:	dec00204 	addi	sp,sp,8
    6ed0:	f800283a 	ret
    6ed4:	0001883a 	nop
    6ed8:	0001883a 	nop
    6edc:	0001883a 	nop

00006ee0 <end_measure>:
    6ee0:	defffe04 	addi	sp,sp,-8
    6ee4:	dc000015 	stw	r16,0(sp)
    6ee8:	dfc00115 	stw	ra,4(sp)
    6eec:	2021883a 	mov	r16,r4
    6ef0:	0008f200 	call	8f20 <get_tim_utime>
    6ef4:	813fffc4 	addi	r4,r16,-1
    6ef8:	00c9c3c4 	movi	r3,9999
    6efc:	19001336 	bltu	r3,r4,6f4c <end_measure+0x6c>
    6f00:	21000624 	muli	r4,r4,24
    6f04:	00c00074 	movhi	r3,1
    6f08:	18cb6b04 	addi	r3,r3,11692
    6f0c:	20c9883a 	add	r4,r4,r3
    6f10:	20c00503 	ldbu	r3,20(r4)
    6f14:	18000d26 	beq	r3,zero,6f4c <end_measure+0x6c>
    6f18:	21400017 	ldw	r5,0(r4)
    6f1c:	20c00117 	ldw	r3,4(r4)
    6f20:	1145c83a 	sub	r2,r2,r5
    6f24:	1880132e 	bgeu	r3,r2,6f74 <end_measure+0x94>
    6f28:	10000d16 	blt	r2,zero,6f60 <end_measure+0x80>
    6f2c:	20c00317 	ldw	r3,12(r4)
    6f30:	00800044 	movi	r2,1
    6f34:	18c00044 	addi	r3,r3,1
    6f38:	20c00315 	stw	r3,12(r4)
    6f3c:	dfc00117 	ldw	ra,4(sp)
    6f40:	dc000017 	ldw	r16,0(sp)
    6f44:	dec00204 	addi	sp,sp,8
    6f48:	f800283a 	ret
    6f4c:	0005883a 	mov	r2,zero
    6f50:	dfc00117 	ldw	ra,4(sp)
    6f54:	dc000017 	ldw	r16,0(sp)
    6f58:	dec00204 	addi	sp,sp,8
    6f5c:	f800283a 	ret
    6f60:	20c00417 	ldw	r3,16(r4)
    6f64:	00800044 	movi	r2,1
    6f68:	18c00044 	addi	r3,r3,1
    6f6c:	20c00415 	stw	r3,16(r4)
    6f70:	003ff706 	br	6f50 <end_measure+0x70>
    6f74:	20c00217 	ldw	r3,8(r4)
    6f78:	1085883a 	add	r2,r2,r2
    6f7c:	1085883a 	add	r2,r2,r2
    6f80:	1887883a 	add	r3,r3,r2
    6f84:	19000017 	ldw	r4,0(r3)
    6f88:	00800044 	movi	r2,1
    6f8c:	21000044 	addi	r4,r4,1
    6f90:	19000015 	stw	r4,0(r3)
    6f94:	dfc00117 	ldw	ra,4(sp)
    6f98:	dc000017 	ldw	r16,0(sp)
    6f9c:	dec00204 	addi	sp,sp,8
    6fa0:	f800283a 	ret
    6fa4:	0001883a 	nop
    6fa8:	0001883a 	nop
    6fac:	0001883a 	nop
    6fb0:	0001883a 	nop
    6fb4:	0001883a 	nop
    6fb8:	0001883a 	nop
    6fbc:	0001883a 	nop

00006fc0 <print_hist>:
    6fc0:	defff204 	addi	sp,sp,-56
    6fc4:	dfc00d15 	stw	ra,52(sp)
    6fc8:	dd000c15 	stw	r20,48(sp)
    6fcc:	dcc00b15 	stw	r19,44(sp)
    6fd0:	dc800a15 	stw	r18,40(sp)
    6fd4:	dc400915 	stw	r17,36(sp)
    6fd8:	dc000815 	stw	r16,32(sp)
    6fdc:	213fffc4 	addi	r4,r4,-1
    6fe0:	0089c3c4 	movi	r2,9999
    6fe4:	11002b36 	bltu	r2,r4,7094 <print_hist+0xd4>
    6fe8:	24800624 	muli	r18,r4,24
    6fec:	00800074 	movhi	r2,1
    6ff0:	108b6b04 	addi	r2,r2,11692
    6ff4:	90a5883a 	add	r18,r18,r2
    6ff8:	90800503 	ldbu	r2,20(r18)
    6ffc:	10002526 	beq	r2,zero,7094 <print_hist+0xd4>
    7000:	0023883a 	mov	r17,zero
    7004:	0021883a 	mov	r16,zero
    7008:	05000044 	movi	r20,1
    700c:	04c00074 	movhi	r19,1
    7010:	9cc0aa04 	addi	r19,r19,680
    7014:	00000306 	br	7024 <print_hist+0x64>
    7018:	90800117 	ldw	r2,4(r18)
    701c:	84000044 	addi	r16,r16,1
    7020:	14000f36 	bltu	r2,r16,7060 <print_hist+0xa0>
    7024:	90800217 	ldw	r2,8(r18)
    7028:	1445883a 	add	r2,r2,r17
    702c:	10800017 	ldw	r2,0(r2)
    7030:	8c400104 	addi	r17,r17,4
    7034:	103ff826 	beq	r2,zero,7018 <print_hist+0x58>
    7038:	01000144 	movi	r4,5
    703c:	d80b883a 	mov	r5,sp
    7040:	dc000315 	stw	r16,12(sp)
    7044:	dd000015 	stw	r20,0(sp)
    7048:	dcc00215 	stw	r19,8(sp)
    704c:	d8800415 	stw	r2,16(sp)
    7050:	0007aa00 	call	7aa0 <syslog_wri_log>
    7054:	90800117 	ldw	r2,4(r18)
    7058:	84000044 	addi	r16,r16,1
    705c:	143ff12e 	bgeu	r2,r16,7024 <print_hist+0x64>
    7060:	90c00317 	ldw	r3,12(r18)
    7064:	1800261e 	bne	r3,zero,7100 <print_hist+0x140>
    7068:	90c00417 	ldw	r3,16(r18)
    706c:	1800121e 	bne	r3,zero,70b8 <print_hist+0xf8>
    7070:	00800044 	movi	r2,1
    7074:	dfc00d17 	ldw	ra,52(sp)
    7078:	dd000c17 	ldw	r20,48(sp)
    707c:	dcc00b17 	ldw	r19,44(sp)
    7080:	dc800a17 	ldw	r18,40(sp)
    7084:	dc400917 	ldw	r17,36(sp)
    7088:	dc000817 	ldw	r16,32(sp)
    708c:	dec00e04 	addi	sp,sp,56
    7090:	f800283a 	ret
    7094:	0005883a 	mov	r2,zero
    7098:	dfc00d17 	ldw	ra,52(sp)
    709c:	dd000c17 	ldw	r20,48(sp)
    70a0:	dcc00b17 	ldw	r19,44(sp)
    70a4:	dc800a17 	ldw	r18,40(sp)
    70a8:	dc400917 	ldw	r17,36(sp)
    70ac:	dc000817 	ldw	r16,32(sp)
    70b0:	dec00e04 	addi	sp,sp,56
    70b4:	f800283a 	ret
    70b8:	04000044 	movi	r16,1
    70bc:	01000144 	movi	r4,5
    70c0:	d80b883a 	mov	r5,sp
    70c4:	00800074 	movhi	r2,1
    70c8:	1080af04 	addi	r2,r2,700
    70cc:	dc000015 	stw	r16,0(sp)
    70d0:	d8800215 	stw	r2,8(sp)
    70d4:	d8c00315 	stw	r3,12(sp)
    70d8:	0007aa00 	call	7aa0 <syslog_wri_log>
    70dc:	8005883a 	mov	r2,r16
    70e0:	dfc00d17 	ldw	ra,52(sp)
    70e4:	dd000c17 	ldw	r20,48(sp)
    70e8:	dcc00b17 	ldw	r19,44(sp)
    70ec:	dc800a17 	ldw	r18,40(sp)
    70f0:	dc400917 	ldw	r17,36(sp)
    70f4:	dc000817 	ldw	r16,32(sp)
    70f8:	dec00e04 	addi	sp,sp,56
    70fc:	f800283a 	ret
    7100:	01800044 	movi	r6,1
    7104:	d9800015 	stw	r6,0(sp)
    7108:	01000144 	movi	r4,5
    710c:	01800074 	movhi	r6,1
    7110:	3180ac04 	addi	r6,r6,688
    7114:	d80b883a 	mov	r5,sp
    7118:	d9800215 	stw	r6,8(sp)
    711c:	d8800315 	stw	r2,12(sp)
    7120:	d8c00415 	stw	r3,16(sp)
    7124:	0007aa00 	call	7aa0 <syslog_wri_log>
    7128:	003fcf06 	br	7068 <print_hist+0xa8>
	...

00007140 <eventflag_initialize>:
    7140:	20000c26 	beq	r4,zero,7174 <eventflag_initialize+0x34>
    7144:	200890fa 	slli	r4,r4,3
    7148:	29400104 	addi	r5,r5,4
    714c:	30800104 	addi	r2,r6,4
    7150:	3109883a 	add	r4,r6,r4
    7154:	28ffff04 	addi	r3,r5,-4
    7158:	30c00015 	stw	r3,0(r6)
    715c:	28c00017 	ldw	r3,0(r5)
    7160:	31800204 	addi	r6,r6,8
    7164:	29400204 	addi	r5,r5,8
    7168:	10c00015 	stw	r3,0(r2)
    716c:	10800204 	addi	r2,r2,8
    7170:	313ff81e 	bne	r6,r4,7154 <eventflag_initialize+0x14>
    7174:	f800283a 	ret
    7178:	0001883a 	nop
    717c:	0001883a 	nop

00007180 <check_flg_cond>:
    7180:	3180004c 	andi	r6,r6,1
    7184:	20800117 	ldw	r2,4(r4)
    7188:	30000c26 	beq	r6,zero,71bc <check_flg_cond+0x3c>
    718c:	288a703a 	and	r5,r5,r2
    7190:	280ac03a 	cmpne	r5,r5,zero
    7194:	29403fcc 	andi	r5,r5,255
    7198:	28000c26 	beq	r5,zero,71cc <check_flg_cond+0x4c>
    719c:	38800015 	stw	r2,0(r7)
    71a0:	20800017 	ldw	r2,0(r4)
    71a4:	10800017 	ldw	r2,0(r2)
    71a8:	1080010c 	andi	r2,r2,4
    71ac:	10000926 	beq	r2,zero,71d4 <check_flg_cond+0x54>
    71b0:	20000115 	stw	zero,4(r4)
    71b4:	00800044 	movi	r2,1
    71b8:	f800283a 	ret
    71bc:	2886703a 	and	r3,r5,r2
    71c0:	194b003a 	cmpeq	r5,r3,r5
    71c4:	29403fcc 	andi	r5,r5,255
    71c8:	283ff41e 	bne	r5,zero,719c <check_flg_cond+0x1c>
    71cc:	0005883a 	mov	r2,zero
    71d0:	f800283a 	ret
    71d4:	00800044 	movi	r2,1
    71d8:	f800283a 	ret
    71dc:	0001883a 	nop

000071e0 <set_flg>:
    71e0:	defffd04 	addi	sp,sp,-12
    71e4:	dc400115 	stw	r17,4(sp)
    71e8:	dfc00215 	stw	ra,8(sp)
    71ec:	dc000015 	stw	r16,0(sp)
    71f0:	3823883a 	mov	r17,r7
    71f4:	31000d2e 	bgeu	r6,r4,722c <set_flg+0x4c>
    71f8:	300c90fa 	slli	r6,r6,3
    71fc:	29a1883a 	add	r16,r5,r6
    7200:	000db000 	call	db00 <SuspendOSInterrupts>
    7204:	80800117 	ldw	r2,4(r16)
    7208:	1462b03a 	or	r17,r2,r17
    720c:	84400115 	stw	r17,4(r16)
    7210:	000dce00 	call	dce0 <ResumeOSInterrupts>
    7214:	0005883a 	mov	r2,zero
    7218:	dfc00217 	ldw	ra,8(sp)
    721c:	dc400117 	ldw	r17,4(sp)
    7220:	dc000017 	ldw	r16,0(sp)
    7224:	dec00304 	addi	sp,sp,12
    7228:	f800283a 	ret
    722c:	00bffb84 	movi	r2,-18
    7230:	003ff906 	br	7218 <set_flg+0x38>
    7234:	0001883a 	nop
    7238:	0001883a 	nop
    723c:	0001883a 	nop

00007240 <clr_flg>:
    7240:	defffd04 	addi	sp,sp,-12
    7244:	dc400115 	stw	r17,4(sp)
    7248:	dfc00215 	stw	ra,8(sp)
    724c:	dc000015 	stw	r16,0(sp)
    7250:	3823883a 	mov	r17,r7
    7254:	31000d2e 	bgeu	r6,r4,728c <clr_flg+0x4c>
    7258:	300c90fa 	slli	r6,r6,3
    725c:	29a1883a 	add	r16,r5,r6
    7260:	000db000 	call	db00 <SuspendOSInterrupts>
    7264:	80800117 	ldw	r2,4(r16)
    7268:	1462703a 	and	r17,r2,r17
    726c:	84400115 	stw	r17,4(r16)
    7270:	000dce00 	call	dce0 <ResumeOSInterrupts>
    7274:	0005883a 	mov	r2,zero
    7278:	dfc00217 	ldw	ra,8(sp)
    727c:	dc400117 	ldw	r17,4(sp)
    7280:	dc000017 	ldw	r16,0(sp)
    7284:	dec00304 	addi	sp,sp,12
    7288:	f800283a 	ret
    728c:	00bffb84 	movi	r2,-18
    7290:	003ff906 	br	7278 <clr_flg+0x38>
    7294:	0001883a 	nop
    7298:	0001883a 	nop
    729c:	0001883a 	nop

000072a0 <wai_flg>:
    72a0:	defffb04 	addi	sp,sp,-20
    72a4:	dc400215 	stw	r17,8(sp)
    72a8:	dc000115 	stw	r16,4(sp)
    72ac:	dfc00415 	stw	ra,16(sp)
    72b0:	dc800315 	stw	r18,12(sp)
    72b4:	3821883a 	mov	r16,r7
    72b8:	dc400517 	ldw	r17,20(sp)
    72bc:	31002d2e 	bgeu	r6,r4,7374 <wai_flg+0xd4>
    72c0:	38002326 	beq	r7,zero,7350 <wai_flg+0xb0>
    72c4:	88bfffc4 	addi	r2,r17,-1
    72c8:	00c00044 	movi	r3,1
    72cc:	18802036 	bltu	r3,r2,7350 <wai_flg+0xb0>
    72d0:	300c90fa 	slli	r6,r6,3
    72d4:	8c40004c 	andi	r17,r17,1
    72d8:	29a5883a 	add	r18,r5,r6
    72dc:	000db000 	call	db00 <SuspendOSInterrupts>
    72e0:	90800117 	ldw	r2,4(r18)
    72e4:	8800141e 	bne	r17,zero,7338 <wai_flg+0x98>
    72e8:	8086703a 	and	r3,r16,r2
    72ec:	80e1003a 	cmpeq	r16,r16,r3
    72f0:	84003fcc 	andi	r16,r16,255
    72f4:	80001426 	beq	r16,zero,7348 <wai_flg+0xa8>
    72f8:	d8c00617 	ldw	r3,24(sp)
    72fc:	18800015 	stw	r2,0(r3)
    7300:	90800017 	ldw	r2,0(r18)
    7304:	10800017 	ldw	r2,0(r2)
    7308:	1080010c 	andi	r2,r2,4
    730c:	1000171e 	bne	r2,zero,736c <wai_flg+0xcc>
    7310:	0005883a 	mov	r2,zero
    7314:	d8800015 	stw	r2,0(sp)
    7318:	000dce00 	call	dce0 <ResumeOSInterrupts>
    731c:	d8800017 	ldw	r2,0(sp)
    7320:	dfc00417 	ldw	ra,16(sp)
    7324:	dc800317 	ldw	r18,12(sp)
    7328:	dc400217 	ldw	r17,8(sp)
    732c:	dc000117 	ldw	r16,4(sp)
    7330:	dec00504 	addi	sp,sp,20
    7334:	f800283a 	ret
    7338:	80a0703a 	and	r16,r16,r2
    733c:	8020c03a 	cmpne	r16,r16,zero
    7340:	84003fcc 	andi	r16,r16,255
    7344:	803fec1e 	bne	r16,zero,72f8 <wai_flg+0x58>
    7348:	00bff384 	movi	r2,-50
    734c:	003ff106 	br	7314 <wai_flg+0x74>
    7350:	00bffbc4 	movi	r2,-17
    7354:	dfc00417 	ldw	ra,16(sp)
    7358:	dc800317 	ldw	r18,12(sp)
    735c:	dc400217 	ldw	r17,8(sp)
    7360:	dc000117 	ldw	r16,4(sp)
    7364:	dec00504 	addi	sp,sp,20
    7368:	f800283a 	ret
    736c:	90000115 	stw	zero,4(r18)
    7370:	003fe706 	br	7310 <wai_flg+0x70>
    7374:	00bffb84 	movi	r2,-18
    7378:	003fe906 	br	7320 <wai_flg+0x80>
    737c:	00000000 	call	0 <__alt_mem_ext_flash>

00007380 <dataqueue_initialize>:
    7380:	20000f26 	beq	r4,zero,73c0 <dataqueue_initialize+0x40>
    7384:	200890fa 	slli	r4,r4,3
    7388:	31c00104 	addi	r7,r6,4
    738c:	30c00204 	addi	r3,r6,8
    7390:	30800304 	addi	r2,r6,12
    7394:	2909883a 	add	r4,r5,r4
    7398:	31400015 	stw	r5,0(r6)
    739c:	38000015 	stw	zero,0(r7)
    73a0:	18000015 	stw	zero,0(r3)
    73a4:	10000015 	stw	zero,0(r2)
    73a8:	29400204 	addi	r5,r5,8
    73ac:	31800404 	addi	r6,r6,16
    73b0:	39c00404 	addi	r7,r7,16
    73b4:	18c00404 	addi	r3,r3,16
    73b8:	10800404 	addi	r2,r2,16
    73bc:	293ff61e 	bne	r5,r4,7398 <dataqueue_initialize+0x18>
    73c0:	f800283a 	ret
    73c4:	0001883a 	nop
    73c8:	0001883a 	nop
    73cc:	0001883a 	nop
    73d0:	0001883a 	nop
    73d4:	0001883a 	nop
    73d8:	0001883a 	nop
    73dc:	0001883a 	nop

000073e0 <enqueue_data>:
    73e0:	20c00017 	ldw	r3,0(r4)
    73e4:	20800317 	ldw	r2,12(r4)
    73e8:	18c00117 	ldw	r3,4(r3)
    73ec:	1085883a 	add	r2,r2,r2
    73f0:	1085883a 	add	r2,r2,r2
    73f4:	1885883a 	add	r2,r3,r2
    73f8:	11400015 	stw	r5,0(r2)
    73fc:	21400117 	ldw	r5,4(r4)
    7400:	20800317 	ldw	r2,12(r4)
    7404:	20c00017 	ldw	r3,0(r4)
    7408:	29400044 	addi	r5,r5,1
    740c:	10800044 	addi	r2,r2,1
    7410:	21400115 	stw	r5,4(r4)
    7414:	20800315 	stw	r2,12(r4)
    7418:	18c00017 	ldw	r3,0(r3)
    741c:	10c00136 	bltu	r2,r3,7424 <enqueue_data+0x44>
    7420:	20000315 	stw	zero,12(r4)
    7424:	f800283a 	ret
    7428:	0001883a 	nop
    742c:	0001883a 	nop
    7430:	0001883a 	nop
    7434:	0001883a 	nop
    7438:	0001883a 	nop
    743c:	0001883a 	nop

00007440 <dequeue_data>:
    7440:	20c00017 	ldw	r3,0(r4)
    7444:	20800217 	ldw	r2,8(r4)
    7448:	18c00117 	ldw	r3,4(r3)
    744c:	1085883a 	add	r2,r2,r2
    7450:	1085883a 	add	r2,r2,r2
    7454:	1885883a 	add	r2,r3,r2
    7458:	10800017 	ldw	r2,0(r2)
    745c:	28800015 	stw	r2,0(r5)
    7460:	21400117 	ldw	r5,4(r4)
    7464:	20800217 	ldw	r2,8(r4)
    7468:	20c00017 	ldw	r3,0(r4)
    746c:	297fffc4 	addi	r5,r5,-1
    7470:	10800044 	addi	r2,r2,1
    7474:	21400115 	stw	r5,4(r4)
    7478:	20800215 	stw	r2,8(r4)
    747c:	18c00017 	ldw	r3,0(r3)
    7480:	10c00136 	bltu	r2,r3,7488 <dequeue_data+0x48>
    7484:	20000215 	stw	zero,8(r4)
    7488:	f800283a 	ret
    748c:	0001883a 	nop
    7490:	0001883a 	nop
    7494:	0001883a 	nop
    7498:	0001883a 	nop
    749c:	0001883a 	nop

000074a0 <send_data>:
    74a0:	20800017 	ldw	r2,0(r4)
    74a4:	20c00117 	ldw	r3,4(r4)
    74a8:	11800017 	ldw	r6,0(r2)
    74ac:	1980142e 	bgeu	r3,r6,7500 <send_data+0x60>
    74b0:	20c00317 	ldw	r3,12(r4)
    74b4:	11800117 	ldw	r6,4(r2)
    74b8:	18c5883a 	add	r2,r3,r3
    74bc:	1085883a 	add	r2,r2,r2
    74c0:	3085883a 	add	r2,r6,r2
    74c4:	11400015 	stw	r5,0(r2)
    74c8:	21400117 	ldw	r5,4(r4)
    74cc:	20800317 	ldw	r2,12(r4)
    74d0:	20c00017 	ldw	r3,0(r4)
    74d4:	29400044 	addi	r5,r5,1
    74d8:	10800044 	addi	r2,r2,1
    74dc:	21400115 	stw	r5,4(r4)
    74e0:	20800315 	stw	r2,12(r4)
    74e4:	18c00017 	ldw	r3,0(r3)
    74e8:	10c00336 	bltu	r2,r3,74f8 <send_data+0x58>
    74ec:	20000315 	stw	zero,12(r4)
    74f0:	00800044 	movi	r2,1
    74f4:	f800283a 	ret
    74f8:	00800044 	movi	r2,1
    74fc:	f800283a 	ret
    7500:	0005883a 	mov	r2,zero
    7504:	f800283a 	ret
    7508:	0001883a 	nop
    750c:	0001883a 	nop
    7510:	0001883a 	nop
    7514:	0001883a 	nop
    7518:	0001883a 	nop
    751c:	0001883a 	nop

00007520 <receive_data>:
    7520:	20800117 	ldw	r2,4(r4)
    7524:	10001626 	beq	r2,zero,7580 <receive_data+0x60>
    7528:	20c00017 	ldw	r3,0(r4)
    752c:	20800217 	ldw	r2,8(r4)
    7530:	18c00117 	ldw	r3,4(r3)
    7534:	1085883a 	add	r2,r2,r2
    7538:	1085883a 	add	r2,r2,r2
    753c:	1885883a 	add	r2,r3,r2
    7540:	10800017 	ldw	r2,0(r2)
    7544:	28800015 	stw	r2,0(r5)
    7548:	21400117 	ldw	r5,4(r4)
    754c:	20800217 	ldw	r2,8(r4)
    7550:	20c00017 	ldw	r3,0(r4)
    7554:	297fffc4 	addi	r5,r5,-1
    7558:	10800044 	addi	r2,r2,1
    755c:	21400115 	stw	r5,4(r4)
    7560:	20800215 	stw	r2,8(r4)
    7564:	18c00017 	ldw	r3,0(r3)
    7568:	10c00336 	bltu	r2,r3,7578 <receive_data+0x58>
    756c:	20000215 	stw	zero,8(r4)
    7570:	00800044 	movi	r2,1
    7574:	f800283a 	ret
    7578:	00800044 	movi	r2,1
    757c:	f800283a 	ret
    7580:	0005883a 	mov	r2,zero
    7584:	f800283a 	ret
    7588:	0001883a 	nop
    758c:	0001883a 	nop
    7590:	0001883a 	nop
    7594:	0001883a 	nop
    7598:	0001883a 	nop
    759c:	0001883a 	nop

000075a0 <snd_dtq>:
    75a0:	defffd04 	addi	sp,sp,-12
    75a4:	dc000015 	stw	r16,0(sp)
    75a8:	dfc00215 	stw	ra,8(sp)
    75ac:	dc400115 	stw	r17,4(sp)
    75b0:	3821883a 	mov	r16,r7
    75b4:	3100122e 	bgeu	r6,r4,7600 <snd_dtq+0x60>
    75b8:	300c913a 	slli	r6,r6,4
    75bc:	29a3883a 	add	r17,r5,r6
    75c0:	000db000 	call	db00 <SuspendOSInterrupts>
    75c4:	8809883a 	mov	r4,r17
    75c8:	800b883a 	mov	r5,r16
    75cc:	00074a00 	call	74a0 <send_data>
    75d0:	10803fcc 	andi	r2,r2,255
    75d4:	10000826 	beq	r2,zero,75f8 <snd_dtq+0x58>
    75d8:	0021883a 	mov	r16,zero
    75dc:	000dce00 	call	dce0 <ResumeOSInterrupts>
    75e0:	8005883a 	mov	r2,r16
    75e4:	dfc00217 	ldw	ra,8(sp)
    75e8:	dc400117 	ldw	r17,4(sp)
    75ec:	dc000017 	ldw	r16,0(sp)
    75f0:	dec00304 	addi	sp,sp,12
    75f4:	f800283a 	ret
    75f8:	043ff384 	movi	r16,-50
    75fc:	003ff706 	br	75dc <snd_dtq+0x3c>
    7600:	043ffb84 	movi	r16,-18
    7604:	003ff606 	br	75e0 <snd_dtq+0x40>
    7608:	0001883a 	nop
    760c:	0001883a 	nop
    7610:	0001883a 	nop
    7614:	0001883a 	nop
    7618:	0001883a 	nop
    761c:	0001883a 	nop

00007620 <rcv_dtq>:
    7620:	defffd04 	addi	sp,sp,-12
    7624:	dc000015 	stw	r16,0(sp)
    7628:	dfc00215 	stw	ra,8(sp)
    762c:	dc400115 	stw	r17,4(sp)
    7630:	3821883a 	mov	r16,r7
    7634:	3100122e 	bgeu	r6,r4,7680 <rcv_dtq+0x60>
    7638:	300c913a 	slli	r6,r6,4
    763c:	29a3883a 	add	r17,r5,r6
    7640:	000db000 	call	db00 <SuspendOSInterrupts>
    7644:	8809883a 	mov	r4,r17
    7648:	800b883a 	mov	r5,r16
    764c:	00075200 	call	7520 <receive_data>
    7650:	10803fcc 	andi	r2,r2,255
    7654:	10000826 	beq	r2,zero,7678 <rcv_dtq+0x58>
    7658:	0021883a 	mov	r16,zero
    765c:	000dce00 	call	dce0 <ResumeOSInterrupts>
    7660:	8005883a 	mov	r2,r16
    7664:	dfc00217 	ldw	ra,8(sp)
    7668:	dc400117 	ldw	r17,4(sp)
    766c:	dc000017 	ldw	r16,0(sp)
    7670:	dec00304 	addi	sp,sp,12
    7674:	f800283a 	ret
    7678:	043ff384 	movi	r16,-50
    767c:	003ff706 	br	765c <rcv_dtq+0x3c>
    7680:	043ffb84 	movi	r16,-18
    7684:	003ff606 	br	7660 <rcv_dtq+0x40>
	...

000076a0 <mempfix_initialize>:
    76a0:	20001126 	beq	r4,zero,76e8 <mempfix_initialize+0x48>
    76a4:	2008913a 	slli	r4,r4,4
    76a8:	31c00104 	addi	r7,r6,4
    76ac:	30c00204 	addi	r3,r6,8
    76b0:	30800304 	addi	r2,r6,12
    76b4:	2909883a 	add	r4,r5,r4
    76b8:	027fffc4 	movi	r9,-1
    76bc:	31400015 	stw	r5,0(r6)
    76c0:	2a000017 	ldw	r8,0(r5)
    76c4:	29400404 	addi	r5,r5,16
    76c8:	31800404 	addi	r6,r6,16
    76cc:	3a000015 	stw	r8,0(r7)
    76d0:	18000015 	stw	zero,0(r3)
    76d4:	12400015 	stw	r9,0(r2)
    76d8:	39c00404 	addi	r7,r7,16
    76dc:	18c00404 	addi	r3,r3,16
    76e0:	10800404 	addi	r2,r2,16
    76e4:	293ff51e 	bne	r5,r4,76bc <mempfix_initialize+0x1c>
    76e8:	f800283a 	ret
    76ec:	0001883a 	nop
    76f0:	0001883a 	nop
    76f4:	0001883a 	nop
    76f8:	0001883a 	nop
    76fc:	0001883a 	nop

00007700 <get_mpf_block>:
    7700:	20800317 	ldw	r2,12(r4)
    7704:	00ffffc4 	movi	r3,-1
    7708:	10c01526 	beq	r2,r3,7760 <get_mpf_block+0x60>
    770c:	20c00017 	ldw	r3,0(r4)
    7710:	108d883a 	add	r6,r2,r2
    7714:	318d883a 	add	r6,r6,r6
    7718:	19c00317 	ldw	r7,12(r3)
    771c:	398f883a 	add	r7,r7,r6
    7720:	39c00017 	ldw	r7,0(r7)
    7724:	21c00315 	stw	r7,12(r4)
    7728:	19c00117 	ldw	r7,4(r3)
    772c:	18c00217 	ldw	r3,8(r3)
    7730:	11c5383a 	mul	r2,r2,r7
    7734:	1885883a 	add	r2,r3,r2
    7738:	28800015 	stw	r2,0(r5)
    773c:	20c00117 	ldw	r3,4(r4)
    7740:	20800017 	ldw	r2,0(r4)
    7744:	18ffffc4 	addi	r3,r3,-1
    7748:	20c00115 	stw	r3,4(r4)
    774c:	10800317 	ldw	r2,12(r2)
    7750:	118d883a 	add	r6,r2,r6
    7754:	00bfff84 	movi	r2,-2
    7758:	30800015 	stw	r2,0(r6)
    775c:	f800283a 	ret
    7760:	20800217 	ldw	r2,8(r4)
    7764:	20c00017 	ldw	r3,0(r4)
    7768:	11c00044 	addi	r7,r2,1
    776c:	108d883a 	add	r6,r2,r2
    7770:	21c00215 	stw	r7,8(r4)
    7774:	318d883a 	add	r6,r6,r6
    7778:	003feb06 	br	7728 <get_mpf_block+0x28>
    777c:	0001883a 	nop

00007780 <get_mpf>:
    7780:	defffd04 	addi	sp,sp,-12
    7784:	dc400115 	stw	r17,4(sp)
    7788:	dfc00215 	stw	ra,8(sp)
    778c:	dc000015 	stw	r16,0(sp)
    7790:	3823883a 	mov	r17,r7
    7794:	3100122e 	bgeu	r6,r4,77e0 <get_mpf+0x60>
    7798:	300c913a 	slli	r6,r6,4
    779c:	29a1883a 	add	r16,r5,r6
    77a0:	000db000 	call	db00 <SuspendOSInterrupts>
    77a4:	80800117 	ldw	r2,4(r16)
    77a8:	1000081e 	bne	r2,zero,77cc <get_mpf+0x4c>
    77ac:	043ff384 	movi	r16,-50
    77b0:	000dce00 	call	dce0 <ResumeOSInterrupts>
    77b4:	8005883a 	mov	r2,r16
    77b8:	dfc00217 	ldw	ra,8(sp)
    77bc:	dc400117 	ldw	r17,4(sp)
    77c0:	dc000017 	ldw	r16,0(sp)
    77c4:	dec00304 	addi	sp,sp,12
    77c8:	f800283a 	ret
    77cc:	8009883a 	mov	r4,r16
    77d0:	880b883a 	mov	r5,r17
    77d4:	00077000 	call	7700 <get_mpf_block>
    77d8:	0021883a 	mov	r16,zero
    77dc:	003ff406 	br	77b0 <get_mpf+0x30>
    77e0:	043ffb84 	movi	r16,-18
    77e4:	003ff306 	br	77b4 <get_mpf+0x34>
    77e8:	0001883a 	nop
    77ec:	0001883a 	nop
    77f0:	0001883a 	nop
    77f4:	0001883a 	nop
    77f8:	0001883a 	nop
    77fc:	0001883a 	nop

00007800 <rel_mpf>:
    7800:	defffc04 	addi	sp,sp,-16
    7804:	dfc00315 	stw	ra,12(sp)
    7808:	dc800215 	stw	r18,8(sp)
    780c:	dc400115 	stw	r17,4(sp)
    7810:	dc000015 	stw	r16,0(sp)
    7814:	31002c2e 	bgeu	r6,r4,78c8 <rel_mpf+0xc8>
    7818:	3020913a 	slli	r16,r6,4
    781c:	2c21883a 	add	r16,r5,r16
    7820:	80800017 	ldw	r2,0(r16)
    7824:	10c00217 	ldw	r3,8(r2)
    7828:	38c02036 	bltu	r7,r3,78ac <rel_mpf+0xac>
    782c:	11000117 	ldw	r4,4(r2)
    7830:	38cfc83a 	sub	r7,r7,r3
    7834:	3923203a 	divu	r17,r7,r4
    7838:	8909383a 	mul	r4,r17,r4
    783c:	39001b1e 	bne	r7,r4,78ac <rel_mpf+0xac>
    7840:	80c00217 	ldw	r3,8(r16)
    7844:	88c0192e 	bgeu	r17,r3,78ac <rel_mpf+0xac>
    7848:	10c00317 	ldw	r3,12(r2)
    784c:	8c45883a 	add	r2,r17,r17
    7850:	10a5883a 	add	r18,r2,r2
    7854:	1c85883a 	add	r2,r3,r18
    7858:	10c00017 	ldw	r3,0(r2)
    785c:	00bfff84 	movi	r2,-2
    7860:	1880121e 	bne	r3,r2,78ac <rel_mpf+0xac>
    7864:	000db000 	call	db00 <SuspendOSInterrupts>
    7868:	81000117 	ldw	r4,4(r16)
    786c:	80800017 	ldw	r2,0(r16)
    7870:	80c00317 	ldw	r3,12(r16)
    7874:	21000044 	addi	r4,r4,1
    7878:	81000115 	stw	r4,4(r16)
    787c:	10800317 	ldw	r2,12(r2)
    7880:	14a5883a 	add	r18,r2,r18
    7884:	90c00015 	stw	r3,0(r18)
    7888:	84400315 	stw	r17,12(r16)
    788c:	000dce00 	call	dce0 <ResumeOSInterrupts>
    7890:	0005883a 	mov	r2,zero
    7894:	dfc00317 	ldw	ra,12(sp)
    7898:	dc800217 	ldw	r18,8(sp)
    789c:	dc400117 	ldw	r17,4(sp)
    78a0:	dc000017 	ldw	r16,0(sp)
    78a4:	dec00404 	addi	sp,sp,16
    78a8:	f800283a 	ret
    78ac:	00bffbc4 	movi	r2,-17
    78b0:	dfc00317 	ldw	ra,12(sp)
    78b4:	dc800217 	ldw	r18,8(sp)
    78b8:	dc400117 	ldw	r17,4(sp)
    78bc:	dc000017 	ldw	r16,0(sp)
    78c0:	dec00404 	addi	sp,sp,16
    78c4:	f800283a 	ret
    78c8:	00bffb84 	movi	r2,-18
    78cc:	003ff106 	br	7894 <rel_mpf+0x94>
	...

000078e0 <ethernet_initialize>:
    78e0:	01000044 	movi	r4,1
    78e4:	d1600d04 	addi	r5,gp,-32716
    78e8:	01800174 	movhi	r6,5
    78ec:	31b5cb04 	addi	r6,r6,-10452
    78f0:	00073801 	jmpi	7380 <dataqueue_initialize>
    78f4:	0001883a 	nop
    78f8:	0001883a 	nop
    78fc:	0001883a 	nop

00007900 <ethernet_snd_dtq>:
    7900:	200d883a 	mov	r6,r4
    7904:	280f883a 	mov	r7,r5
    7908:	01000044 	movi	r4,1
    790c:	01400174 	movhi	r5,5
    7910:	2975cb04 	addi	r5,r5,-10452
    7914:	00075a01 	jmpi	75a0 <snd_dtq>
    7918:	0001883a 	nop
    791c:	0001883a 	nop

00007920 <ethernet_rcv_dtq>:
    7920:	200d883a 	mov	r6,r4
    7924:	280f883a 	mov	r7,r5
    7928:	01000044 	movi	r4,1
    792c:	01400174 	movhi	r5,5
    7930:	2975cb04 	addi	r5,r5,-10452
    7934:	00076201 	jmpi	7620 <rcv_dtq>
	...

00007940 <net_atk2_initialize>:
    7940:	010001c4 	movi	r4,7
    7944:	01400074 	movhi	r5,1
    7948:	2940b404 	addi	r5,r5,720
    794c:	01800174 	movhi	r6,5
    7950:	31b5cf04 	addi	r6,r6,-10436
    7954:	00076a01 	jmpi	76a0 <mempfix_initialize>
    7958:	0001883a 	nop
    795c:	0001883a 	nop

00007960 <net_atk2_get_mpf>:
    7960:	200d883a 	mov	r6,r4
    7964:	280f883a 	mov	r7,r5
    7968:	010001c4 	movi	r4,7
    796c:	01400174 	movhi	r5,5
    7970:	2975cf04 	addi	r5,r5,-10436
    7974:	00077801 	jmpi	7780 <get_mpf>
    7978:	0001883a 	nop
    797c:	0001883a 	nop

00007980 <net_atk2_rel_mpf>:
    7980:	200d883a 	mov	r6,r4
    7984:	280f883a 	mov	r7,r5
    7988:	010001c4 	movi	r4,7
    798c:	01400174 	movhi	r5,5
    7990:	2975cf04 	addi	r5,r5,-10436
    7994:	00078001 	jmpi	7800 <rel_mpf>
	...

000079a0 <InitHwSerial>:
    79a0:	00820034 	movhi	r2,2048
    79a4:	10806904 	addi	r2,r2,420
    79a8:	10c00037 	ldwio	r3,0(r2)
    79ac:	18c00054 	ori	r3,r3,1
    79b0:	10c00035 	stwio	r3,0(r2)
    79b4:	f800283a 	ret
    79b8:	0001883a 	nop
    79bc:	0001883a 	nop

000079c0 <TermHwSerial>:
    79c0:	00820034 	movhi	r2,2048
    79c4:	10806904 	addi	r2,r2,420
    79c8:	11000037 	ldwio	r4,0(r2)
    79cc:	00ffff84 	movi	r3,-2
    79d0:	20c6703a 	and	r3,r4,r3
    79d4:	10c00035 	stwio	r3,0(r2)
    79d8:	f800283a 	ret
    79dc:	0001883a 	nop

000079e0 <ISRMainRxHwSerialInt>:
    79e0:	00820034 	movhi	r2,2048
    79e4:	10806804 	addi	r2,r2,416
    79e8:	11000037 	ldwio	r4,0(r2)
    79ec:	d1202e05 	stb	r4,-32584(gp)
    79f0:	20a0000c 	andi	r2,r4,32768
    79f4:	1000011e 	bne	r2,zero,79fc <ISRMainRxHwSerialInt+0x1c>
    79f8:	f800283a 	ret
    79fc:	21003fcc 	andi	r4,r4,255
    7a00:	0007be01 	jmpi	7be0 <RxSerialInt>
	...

00007a20 <print_banner>:
    7a20:	defff704 	addi	sp,sp,-36
    7a24:	00800044 	movi	r2,1
    7a28:	d8800015 	stw	r2,0(sp)
    7a2c:	d8800315 	stw	r2,12(sp)
    7a30:	008000c4 	movi	r2,3
    7a34:	00c00074 	movhi	r3,1
    7a38:	18c0d004 	addi	r3,r3,832
    7a3c:	d8800415 	stw	r2,16(sp)
    7a40:	01000144 	movi	r4,5
    7a44:	d80b883a 	mov	r5,sp
    7a48:	00800084 	movi	r2,2
    7a4c:	dfc00815 	stw	ra,32(sp)
    7a50:	d8c00215 	stw	r3,8(sp)
    7a54:	d8800515 	stw	r2,20(sp)
    7a58:	0007aa00 	call	7aa0 <syslog_wri_log>
    7a5c:	dfc00817 	ldw	ra,32(sp)
    7a60:	dec00904 	addi	sp,sp,36
    7a64:	f800283a 	ret
	...

00007a80 <syslog_initialize>:
    7a80:	d0202f15 	stw	zero,-32580(gp)
    7a84:	f800283a 	ret
    7a88:	0001883a 	nop
    7a8c:	0001883a 	nop
    7a90:	0001883a 	nop
    7a94:	0001883a 	nop
    7a98:	0001883a 	nop
    7a9c:	0001883a 	nop

00007aa0 <syslog_wri_log>:
    7aa0:	defffe04 	addi	sp,sp,-8
    7aa4:	dfc00115 	stw	ra,4(sp)
    7aa8:	dc000015 	stw	r16,0(sp)
    7aac:	0005303a 	rdctl	r2,status
    7ab0:	00ffff84 	movi	r3,-2
    7ab4:	10c6703a 	and	r3,r2,r3
    7ab8:	1801703a 	wrctl	status,r3
    7abc:	00c00044 	movi	r3,1
    7ac0:	1400004c 	andi	r16,r2,1
    7ac4:	d0a02f17 	ldw	r2,-32580(gp)
    7ac8:	1906983a 	sll	r3,r3,r4
    7acc:	0084303a 	nor	r2,zero,r2
    7ad0:	1884703a 	and	r2,r3,r2
    7ad4:	10000626 	beq	r2,zero,7af0 <syslog_wri_log+0x50>
    7ad8:	2809883a 	mov	r4,r5
    7adc:	01400074 	movhi	r5,1
    7ae0:	2961b004 	addi	r5,r5,-31040
    7ae4:	00080000 	call	8000 <syslog_print>
    7ae8:	01000284 	movi	r4,10
    7aec:	00086c00 	call	86c0 <target_fput_log>
    7af0:	0005303a 	rdctl	r2,status
    7af4:	00ffff84 	movi	r3,-2
    7af8:	10c4703a 	and	r2,r2,r3
    7afc:	1420b03a 	or	r16,r2,r16
    7b00:	8001703a 	wrctl	status,r16
    7b04:	0005883a 	mov	r2,zero
    7b08:	dfc00117 	ldw	ra,4(sp)
    7b0c:	dc000017 	ldw	r16,0(sp)
    7b10:	dec00204 	addi	sp,sp,8
    7b14:	f800283a 	ret
    7b18:	0001883a 	nop
    7b1c:	0001883a 	nop

00007b20 <syslog_msk_log>:
    7b20:	0108303a 	nor	r4,zero,r4
    7b24:	d1202f15 	stw	r4,-32580(gp)
    7b28:	0005883a 	mov	r2,zero
    7b2c:	f800283a 	ret
	...

00007b40 <InitSerial>:
    7b40:	d0203005 	stb	zero,-32576(gp)
    7b44:	00079a01 	jmpi	79a0 <InitHwSerial>
    7b48:	0001883a 	nop
    7b4c:	0001883a 	nop
    7b50:	0001883a 	nop
    7b54:	0001883a 	nop
    7b58:	0001883a 	nop
    7b5c:	0001883a 	nop

00007b60 <TermSerial>:
    7b60:	deffff04 	addi	sp,sp,-4
    7b64:	dfc00015 	stw	ra,0(sp)
    7b68:	00079c00 	call	79c0 <TermHwSerial>
    7b6c:	d0203005 	stb	zero,-32576(gp)
    7b70:	dfc00017 	ldw	ra,0(sp)
    7b74:	dec00104 	addi	sp,sp,4
    7b78:	f800283a 	ret
    7b7c:	0001883a 	nop

00007b80 <RecvPolSerialChar>:
    7b80:	defffe04 	addi	sp,sp,-8
    7b84:	dc000015 	stw	r16,0(sp)
    7b88:	dfc00115 	stw	ra,4(sp)
    7b8c:	2021883a 	mov	r16,r4
    7b90:	000d7c00 	call	d7c0 <SuspendAllInterrupts>
    7b94:	d0a03003 	ldbu	r2,-32576(gp)
    7b98:	1000051e 	bne	r2,zero,7bb0 <RecvPolSerialChar+0x30>
    7b9c:	80000005 	stb	zero,0(r16)
    7ba0:	dfc00117 	ldw	ra,4(sp)
    7ba4:	dc000017 	ldw	r16,0(sp)
    7ba8:	dec00204 	addi	sp,sp,8
    7bac:	000d9601 	jmpi	d960 <ResumeAllInterrupts>
    7bb0:	d0a03043 	ldbu	r2,-32575(gp)
    7bb4:	d0203005 	stb	zero,-32576(gp)
    7bb8:	80800005 	stb	r2,0(r16)
    7bbc:	dfc00117 	ldw	ra,4(sp)
    7bc0:	dc000017 	ldw	r16,0(sp)
    7bc4:	dec00204 	addi	sp,sp,8
    7bc8:	000d9601 	jmpi	d960 <ResumeAllInterrupts>
    7bcc:	0001883a 	nop
    7bd0:	0001883a 	nop
    7bd4:	0001883a 	nop
    7bd8:	0001883a 	nop
    7bdc:	0001883a 	nop

00007be0 <RxSerialInt>:
    7be0:	defffe04 	addi	sp,sp,-8
    7be4:	dc000015 	stw	r16,0(sp)
    7be8:	dfc00115 	stw	ra,4(sp)
    7bec:	2021883a 	mov	r16,r4
    7bf0:	000d7c00 	call	d7c0 <SuspendAllInterrupts>
    7bf4:	00800044 	movi	r2,1
    7bf8:	d4203045 	stb	r16,-32575(gp)
    7bfc:	d0a03005 	stb	r2,-32576(gp)
    7c00:	dfc00117 	ldw	ra,4(sp)
    7c04:	dc000017 	ldw	r16,0(sp)
    7c08:	dec00204 	addi	sp,sp,8
    7c0c:	000d9601 	jmpi	d960 <ResumeAllInterrupts>
	...

00007c20 <convert>:
    7c20:	2145203a 	divu	r2,r4,r5
    7c24:	1147383a 	mul	r3,r2,r5
    7c28:	defff504 	addi	sp,sp,-44
    7c2c:	dd800915 	stw	r22,36(sp)
    7c30:	20c7c83a 	sub	r3,r4,r3
    7c34:	dd400815 	stw	r21,32(sp)
    7c38:	dcc00615 	stw	r19,24(sp)
    7c3c:	dc800515 	stw	r18,20(sp)
    7c40:	dc000315 	stw	r16,12(sp)
    7c44:	dfc00a15 	stw	ra,40(sp)
    7c48:	dd000715 	stw	r20,28(sp)
    7c4c:	dc400415 	stw	r17,16(sp)
    7c50:	30c7883a 	add	r3,r6,r3
    7c54:	18c00003 	ldbu	r3,0(r3)
    7c58:	dc800d17 	ldw	r18,52(sp)
    7c5c:	dd800b03 	ldbu	r22,44(sp)
    7c60:	dd400c03 	ldbu	r21,48(sp)
    7c64:	3827883a 	mov	r19,r7
    7c68:	d8c00005 	stb	r3,0(sp)
    7c6c:	04000044 	movi	r16,1
    7c70:	020002c4 	movi	r8,11
    7c74:	dc09883a 	add	r4,sp,r16
    7c78:	10000926 	beq	r2,zero,7ca0 <convert+0x80>
    7c7c:	1147203a 	divu	r3,r2,r5
    7c80:	194f383a 	mul	r7,r3,r5
    7c84:	84000044 	addi	r16,r16,1
    7c88:	11c5c83a 	sub	r2,r2,r7
    7c8c:	3085883a 	add	r2,r6,r2
    7c90:	11c00003 	ldbu	r7,0(r2)
    7c94:	1805883a 	mov	r2,r3
    7c98:	21c00005 	stb	r7,0(r4)
    7c9c:	823ff51e 	bne	r16,r8,7c74 <convert+0x54>
    7ca0:	b5803fcc 	andi	r22,r22,255
    7ca4:	b0000426 	beq	r22,zero,7cb8 <convert+0x98>
    7ca8:	98000126 	beq	r19,zero,7cb0 <convert+0x90>
    7cac:	9cffffc4 	addi	r19,r19,-1
    7cb0:	ad003fcc 	andi	r20,r21,255
    7cb4:	a000241e 	bne	r20,zero,7d48 <convert+0x128>
    7cb8:	84c0072e 	bgeu	r16,r19,7cd8 <convert+0xb8>
    7cbc:	8023883a 	mov	r17,r16
    7cc0:	ad003fcc 	andi	r20,r21,255
    7cc4:	a000161e 	bne	r20,zero,7d20 <convert+0x100>
    7cc8:	01000804 	movi	r4,32
    7ccc:	8c400044 	addi	r17,r17,1
    7cd0:	903ee83a 	callr	r18
    7cd4:	8cfffb36 	bltu	r17,r19,7cc4 <convert+0xa4>
    7cd8:	b0000226 	beq	r22,zero,7ce4 <convert+0xc4>
    7cdc:	ad403fcc 	andi	r21,r21,255
    7ce0:	a8001126 	beq	r21,zero,7d28 <convert+0x108>
    7ce4:	843fffc4 	addi	r16,r16,-1
    7ce8:	dc05883a 	add	r2,sp,r16
    7cec:	11000007 	ldb	r4,0(r2)
    7cf0:	903ee83a 	callr	r18
    7cf4:	803ffb1e 	bne	r16,zero,7ce4 <convert+0xc4>
    7cf8:	dfc00a17 	ldw	ra,40(sp)
    7cfc:	dd800917 	ldw	r22,36(sp)
    7d00:	dd400817 	ldw	r21,32(sp)
    7d04:	dd000717 	ldw	r20,28(sp)
    7d08:	dcc00617 	ldw	r19,24(sp)
    7d0c:	dc800517 	ldw	r18,20(sp)
    7d10:	dc400417 	ldw	r17,16(sp)
    7d14:	dc000317 	ldw	r16,12(sp)
    7d18:	dec00b04 	addi	sp,sp,44
    7d1c:	f800283a 	ret
    7d20:	01000c04 	movi	r4,48
    7d24:	003fe906 	br	7ccc <convert+0xac>
    7d28:	01000b44 	movi	r4,45
    7d2c:	903ee83a 	callr	r18
    7d30:	843fffc4 	addi	r16,r16,-1
    7d34:	dc05883a 	add	r2,sp,r16
    7d38:	11000007 	ldb	r4,0(r2)
    7d3c:	903ee83a 	callr	r18
    7d40:	803fe81e 	bne	r16,zero,7ce4 <convert+0xc4>
    7d44:	003fec06 	br	7cf8 <convert+0xd8>
    7d48:	01000b44 	movi	r4,45
    7d4c:	903ee83a 	callr	r18
    7d50:	003fd906 	br	7cb8 <convert+0x98>
    7d54:	0001883a 	nop
    7d58:	0001883a 	nop
    7d5c:	0001883a 	nop

00007d60 <syslog_printf>:
    7d60:	defff604 	addi	sp,sp,-40
    7d64:	dd000715 	stw	r20,28(sp)
    7d68:	dcc00615 	stw	r19,24(sp)
    7d6c:	dc800515 	stw	r18,20(sp)
    7d70:	dc400415 	stw	r17,16(sp)
    7d74:	dc000315 	stw	r16,12(sp)
    7d78:	dfc00915 	stw	ra,36(sp)
    7d7c:	dd400815 	stw	r21,32(sp)
    7d80:	2021883a 	mov	r16,r4
    7d84:	2827883a 	mov	r19,r5
    7d88:	3023883a 	mov	r17,r6
    7d8c:	04800944 	movi	r18,37
    7d90:	05000c04 	movi	r20,48
    7d94:	81000007 	ldb	r4,0(r16)
    7d98:	20000526 	beq	r4,zero,7db0 <syslog_printf+0x50>
    7d9c:	24800d26 	beq	r4,r18,7dd4 <syslog_printf+0x74>
    7da0:	84000044 	addi	r16,r16,1
    7da4:	883ee83a 	callr	r17
    7da8:	81000007 	ldb	r4,0(r16)
    7dac:	203ffb1e 	bne	r4,zero,7d9c <syslog_printf+0x3c>
    7db0:	dfc00917 	ldw	ra,36(sp)
    7db4:	dd400817 	ldw	r21,32(sp)
    7db8:	dd000717 	ldw	r20,28(sp)
    7dbc:	dcc00617 	ldw	r19,24(sp)
    7dc0:	dc800517 	ldw	r18,20(sp)
    7dc4:	dc400417 	ldw	r17,16(sp)
    7dc8:	dc000317 	ldw	r16,12(sp)
    7dcc:	dec00a04 	addi	sp,sp,40
    7dd0:	f800283a 	ret
    7dd4:	80800043 	ldbu	r2,1(r16)
    7dd8:	10c03fcc 	andi	r3,r2,255
    7ddc:	18c0201c 	xori	r3,r3,128
    7de0:	18ffe004 	addi	r3,r3,-128
    7de4:	1d004d26 	beq	r3,r20,7f1c <syslog_printf+0x1bc>
    7de8:	84000084 	addi	r16,r16,2
    7dec:	000b883a 	mov	r5,zero
    7df0:	10bff404 	addi	r2,r2,-48
    7df4:	10803fcc 	andi	r2,r2,255
    7df8:	01000244 	movi	r4,9
    7dfc:	000f883a 	mov	r7,zero
    7e00:	20800b36 	bltu	r4,r2,7e30 <syslog_printf+0xd0>
    7e04:	80800003 	ldbu	r2,0(r16)
    7e08:	39c002a4 	muli	r7,r7,10
    7e0c:	84000044 	addi	r16,r16,1
    7e10:	123ff404 	addi	r8,r2,-48
    7e14:	38cf883a 	add	r7,r7,r3
    7e18:	10c03fcc 	andi	r3,r2,255
    7e1c:	18c0201c 	xori	r3,r3,128
    7e20:	42003fcc 	andi	r8,r8,255
    7e24:	39fff404 	addi	r7,r7,-48
    7e28:	18ffe004 	addi	r3,r3,-128
    7e2c:	223ff52e 	bgeu	r4,r8,7e04 <syslog_printf+0xa4>
    7e30:	00801b04 	movi	r2,108
    7e34:	18802726 	beq	r3,r2,7ed4 <syslog_printf+0x174>
    7e38:	00801c04 	movi	r2,112
    7e3c:	18802c26 	beq	r3,r2,7ef0 <syslog_printf+0x190>
    7e40:	10c01416 	blt	r2,r3,7e94 <syslog_printf+0x134>
    7e44:	008018c4 	movi	r2,99
    7e48:	18804926 	beq	r3,r2,7f70 <syslog_printf+0x210>
    7e4c:	10c03a16 	blt	r2,r3,7f38 <syslog_printf+0x1d8>
    7e50:	00801604 	movi	r2,88
    7e54:	18800426 	beq	r3,r2,7e68 <syslog_printf+0x108>
    7e58:	10ffce16 	blt	r2,r3,7d94 <syslog_printf+0x34>
    7e5c:	18005d1e 	bne	r3,zero,7fd4 <syslog_printf+0x274>
    7e60:	843fffc4 	addi	r16,r16,-1
    7e64:	003fcb06 	br	7d94 <syslog_printf+0x34>
    7e68:	99000017 	ldw	r4,0(r19)
    7e6c:	29403fcc 	andi	r5,r5,255
    7e70:	d9400115 	stw	r5,4(sp)
    7e74:	d8000015 	stw	zero,0(sp)
    7e78:	dc400215 	stw	r17,8(sp)
    7e7c:	01400404 	movi	r5,16
    7e80:	01800074 	movhi	r6,1
    7e84:	3180f704 	addi	r6,r6,988
    7e88:	9cc00104 	addi	r19,r19,4
    7e8c:	0007c200 	call	7c20 <convert>
    7e90:	003fc006 	br	7d94 <syslog_printf+0x34>
    7e94:	00801d44 	movi	r2,117
    7e98:	18803926 	beq	r3,r2,7f80 <syslog_printf+0x220>
    7e9c:	00801e04 	movi	r2,120
    7ea0:	18801326 	beq	r3,r2,7ef0 <syslog_printf+0x190>
    7ea4:	00801cc4 	movi	r2,115
    7ea8:	18bfba1e 	bne	r3,r2,7d94 <syslog_printf+0x34>
    7eac:	9d400017 	ldw	r21,0(r19)
    7eb0:	9cc00104 	addi	r19,r19,4
    7eb4:	a9000007 	ldb	r4,0(r21)
    7eb8:	ad400044 	addi	r21,r21,1
    7ebc:	203fb526 	beq	r4,zero,7d94 <syslog_printf+0x34>
    7ec0:	883ee83a 	callr	r17
    7ec4:	a9000007 	ldb	r4,0(r21)
    7ec8:	ad400044 	addi	r21,r21,1
    7ecc:	203ffc1e 	bne	r4,zero,7ec0 <syslog_printf+0x160>
    7ed0:	003fb006 	br	7d94 <syslog_printf+0x34>
    7ed4:	80800003 	ldbu	r2,0(r16)
    7ed8:	84000044 	addi	r16,r16,1
    7edc:	10c03fcc 	andi	r3,r2,255
    7ee0:	18c0201c 	xori	r3,r3,128
    7ee4:	18ffe004 	addi	r3,r3,-128
    7ee8:	00801c04 	movi	r2,112
    7eec:	18bfd41e 	bne	r3,r2,7e40 <syslog_printf+0xe0>
    7ef0:	99000017 	ldw	r4,0(r19)
    7ef4:	29403fcc 	andi	r5,r5,255
    7ef8:	d9400115 	stw	r5,4(sp)
    7efc:	d8000015 	stw	zero,0(sp)
    7f00:	dc400215 	stw	r17,8(sp)
    7f04:	01400404 	movi	r5,16
    7f08:	01800074 	movhi	r6,1
    7f0c:	3180f204 	addi	r6,r6,968
    7f10:	9cc00104 	addi	r19,r19,4
    7f14:	0007c200 	call	7c20 <convert>
    7f18:	003f9e06 	br	7d94 <syslog_printf+0x34>
    7f1c:	80800083 	ldbu	r2,2(r16)
    7f20:	01400044 	movi	r5,1
    7f24:	840000c4 	addi	r16,r16,3
    7f28:	10c03fcc 	andi	r3,r2,255
    7f2c:	18c0201c 	xori	r3,r3,128
    7f30:	18ffe004 	addi	r3,r3,-128
    7f34:	003fae06 	br	7df0 <syslog_printf+0x90>
    7f38:	00801904 	movi	r2,100
    7f3c:	18bf951e 	bne	r3,r2,7d94 <syslog_printf+0x34>
    7f40:	99000017 	ldw	r4,0(r19)
    7f44:	29403fcc 	andi	r5,r5,255
    7f48:	9cc00104 	addi	r19,r19,4
    7f4c:	20001716 	blt	r4,zero,7fac <syslog_printf+0x24c>
    7f50:	d9400115 	stw	r5,4(sp)
    7f54:	d8000015 	stw	zero,0(sp)
    7f58:	dc400215 	stw	r17,8(sp)
    7f5c:	01400284 	movi	r5,10
    7f60:	01800074 	movhi	r6,1
    7f64:	3180ef04 	addi	r6,r6,956
    7f68:	0007c200 	call	7c20 <convert>
    7f6c:	003f8906 	br	7d94 <syslog_printf+0x34>
    7f70:	99000007 	ldb	r4,0(r19)
    7f74:	9cc00104 	addi	r19,r19,4
    7f78:	883ee83a 	callr	r17
    7f7c:	003f8506 	br	7d94 <syslog_printf+0x34>
    7f80:	99000017 	ldw	r4,0(r19)
    7f84:	29403fcc 	andi	r5,r5,255
    7f88:	d9400115 	stw	r5,4(sp)
    7f8c:	d8000015 	stw	zero,0(sp)
    7f90:	dc400215 	stw	r17,8(sp)
    7f94:	01400284 	movi	r5,10
    7f98:	01800074 	movhi	r6,1
    7f9c:	3180ef04 	addi	r6,r6,956
    7fa0:	9cc00104 	addi	r19,r19,4
    7fa4:	0007c200 	call	7c20 <convert>
    7fa8:	003f7a06 	br	7d94 <syslog_printf+0x34>
    7fac:	00800044 	movi	r2,1
    7fb0:	d9400115 	stw	r5,4(sp)
    7fb4:	d8800015 	stw	r2,0(sp)
    7fb8:	dc400215 	stw	r17,8(sp)
    7fbc:	0109c83a 	sub	r4,zero,r4
    7fc0:	01400284 	movi	r5,10
    7fc4:	01800074 	movhi	r6,1
    7fc8:	3180ef04 	addi	r6,r6,956
    7fcc:	0007c200 	call	7c20 <convert>
    7fd0:	003f7006 	br	7d94 <syslog_printf+0x34>
    7fd4:	1cbf6f1e 	bne	r3,r18,7d94 <syslog_printf+0x34>
    7fd8:	9009883a 	mov	r4,r18
    7fdc:	883ee83a 	callr	r17
    7fe0:	003f6c06 	br	7d94 <syslog_printf+0x34>
    7fe4:	0001883a 	nop
    7fe8:	0001883a 	nop
    7fec:	0001883a 	nop
    7ff0:	0001883a 	nop
    7ff4:	0001883a 	nop
    7ff8:	0001883a 	nop
    7ffc:	0001883a 	nop

00008000 <syslog_print>:
    8000:	20c00017 	ldw	r3,0(r4)
    8004:	2005883a 	mov	r2,r4
    8008:	01000044 	movi	r4,1
    800c:	280d883a 	mov	r6,r5
    8010:	19000326 	beq	r3,r4,8020 <syslog_print+0x20>
    8014:	01000084 	movi	r4,2
    8018:	19000426 	beq	r3,r4,802c <syslog_print+0x2c>
    801c:	f800283a 	ret
    8020:	11000217 	ldw	r4,8(r2)
    8024:	11400304 	addi	r5,r2,12
    8028:	0007d601 	jmpi	7d60 <syslog_printf>
    802c:	01000074 	movhi	r4,1
    8030:	2100e704 	addi	r4,r4,924
    8034:	11400204 	addi	r5,r2,8
    8038:	0007d601 	jmpi	7d60 <syslog_printf>
    803c:	00000000 	call	0 <__alt_mem_ext_flash>

00008040 <syslog>:
    8040:	defff204 	addi	sp,sp,-56
    8044:	dfc00b15 	stw	ra,44(sp)
    8048:	dc800a15 	stw	r18,40(sp)
    804c:	dc400915 	stw	r17,36(sp)
    8050:	dc000815 	stw	r16,32(sp)
    8054:	d9800c15 	stw	r6,48(sp)
    8058:	d9c00d15 	stw	r7,52(sp)
    805c:	01c00044 	movi	r7,1
    8060:	d9c00015 	stw	r7,0(sp)
    8064:	d9400215 	stw	r5,8(sp)
    8068:	da800c04 	addi	r10,sp,48
    806c:	02000144 	movi	r8,5
    8070:	02400944 	movi	r9,37
    8074:	01800244 	movi	r6,9
    8078:	03001b04 	movi	r12,108
    807c:	02c01c04 	movi	r11,112
    8080:	03801d44 	movi	r14,117
    8084:	03c01e04 	movi	r15,120
    8088:	04001cc4 	movi	r16,115
    808c:	034018c4 	movi	r13,99
    8090:	04401904 	movi	r17,100
    8094:	04801604 	movi	r18,88
    8098:	28800007 	ldb	r2,0(r5)
    809c:	28c00044 	addi	r3,r5,1
    80a0:	10000626 	beq	r2,zero,80bc <syslog+0x7c>
    80a4:	41c00536 	bltu	r8,r7,80bc <syslog+0x7c>
    80a8:	12400c26 	beq	r2,r9,80dc <syslog+0x9c>
    80ac:	180b883a 	mov	r5,r3
    80b0:	28800007 	ldb	r2,0(r5)
    80b4:	28c00044 	addi	r3,r5,1
    80b8:	103ffa1e 	bne	r2,zero,80a4 <syslog+0x64>
    80bc:	d80b883a 	mov	r5,sp
    80c0:	0007aa00 	call	7aa0 <syslog_wri_log>
    80c4:	dfc00b17 	ldw	ra,44(sp)
    80c8:	dc800a17 	ldw	r18,40(sp)
    80cc:	dc400917 	ldw	r17,36(sp)
    80d0:	dc000817 	ldw	r16,32(sp)
    80d4:	dec00e04 	addi	sp,sp,56
    80d8:	f800283a 	ret
    80dc:	28800043 	ldbu	r2,1(r5)
    80e0:	29400084 	addi	r5,r5,2
    80e4:	10fff404 	addi	r3,r2,-48
    80e8:	18c03fcc 	andi	r3,r3,255
    80ec:	30c00536 	bltu	r6,r3,8104 <syslog+0xc4>
    80f0:	28800003 	ldbu	r2,0(r5)
    80f4:	29400044 	addi	r5,r5,1
    80f8:	10fff404 	addi	r3,r2,-48
    80fc:	18c03fcc 	andi	r3,r3,255
    8100:	30fffb2e 	bgeu	r6,r3,80f0 <syslog+0xb0>
    8104:	10803fcc 	andi	r2,r2,255
    8108:	1080201c 	xori	r2,r2,128
    810c:	10bfe004 	addi	r2,r2,-128
    8110:	13000e26 	beq	r2,r12,814c <syslog+0x10c>
    8114:	12c01326 	beq	r2,r11,8164 <syslog+0x124>
    8118:	58801b16 	blt	r11,r2,8188 <syslog+0x148>
    811c:	13401126 	beq	r2,r13,8164 <syslog+0x124>
    8120:	6880250e 	bge	r13,r2,81b8 <syslog+0x178>
    8124:	147fdc1e 	bne	r2,r17,8098 <syslog+0x58>
    8128:	38800084 	addi	r2,r7,2
    812c:	50c00017 	ldw	r3,0(r10)
    8130:	1085883a 	add	r2,r2,r2
    8134:	1085883a 	add	r2,r2,r2
    8138:	d885883a 	add	r2,sp,r2
    813c:	52800104 	addi	r10,r10,4
    8140:	10c00015 	stw	r3,0(r2)
    8144:	39c00044 	addi	r7,r7,1
    8148:	003fd306 	br	8098 <syslog+0x58>
    814c:	28800003 	ldbu	r2,0(r5)
    8150:	29400044 	addi	r5,r5,1
    8154:	10803fcc 	andi	r2,r2,255
    8158:	1080201c 	xori	r2,r2,128
    815c:	10bfe004 	addi	r2,r2,-128
    8160:	12ffed1e 	bne	r2,r11,8118 <syslog+0xd8>
    8164:	38800084 	addi	r2,r7,2
    8168:	50c00017 	ldw	r3,0(r10)
    816c:	1085883a 	add	r2,r2,r2
    8170:	1085883a 	add	r2,r2,r2
    8174:	d885883a 	add	r2,sp,r2
    8178:	10c00015 	stw	r3,0(r2)
    817c:	39c00044 	addi	r7,r7,1
    8180:	52800104 	addi	r10,r10,4
    8184:	003fc406 	br	8098 <syslog+0x58>
    8188:	13bfe726 	beq	r2,r14,8128 <syslog+0xe8>
    818c:	13ffe626 	beq	r2,r15,8128 <syslog+0xe8>
    8190:	143fc11e 	bne	r2,r16,8098 <syslog+0x58>
    8194:	38800084 	addi	r2,r7,2
    8198:	50c00017 	ldw	r3,0(r10)
    819c:	1085883a 	add	r2,r2,r2
    81a0:	1085883a 	add	r2,r2,r2
    81a4:	d885883a 	add	r2,sp,r2
    81a8:	10c00015 	stw	r3,0(r2)
    81ac:	39c00044 	addi	r7,r7,1
    81b0:	52800104 	addi	r10,r10,4
    81b4:	003fb806 	br	8098 <syslog+0x58>
    81b8:	1000021e 	bne	r2,zero,81c4 <syslog+0x184>
    81bc:	297fffc4 	addi	r5,r5,-1
    81c0:	003fb506 	br	8098 <syslog+0x58>
    81c4:	14bfb41e 	bne	r2,r18,8098 <syslog+0x58>
    81c8:	003fd706 	br	8128 <syslog+0xe8>
	...

000081e0 <t_perror>:
    81e0:	defff204 	addi	sp,sp,-56
    81e4:	dc000815 	stw	r16,32(sp)
    81e8:	dc000e03 	ldbu	r16,56(sp)
    81ec:	dc800a15 	stw	r18,40(sp)
    81f0:	2025883a 	mov	r18,r4
    81f4:	8009883a 	mov	r4,r16
    81f8:	dfc00d15 	stw	ra,52(sp)
    81fc:	dd000c15 	stw	r20,48(sp)
    8200:	dcc00b15 	stw	r19,44(sp)
    8204:	3829883a 	mov	r20,r7
    8208:	3027883a 	mov	r19,r6
    820c:	dc400915 	stw	r17,36(sp)
    8210:	2823883a 	mov	r17,r5
    8214:	00082800 	call	8280 <atk2_strerror>
    8218:	00c00044 	movi	r3,1
    821c:	d8c00015 	stw	r3,0(sp)
    8220:	9009883a 	mov	r4,r18
    8224:	00c00074 	movhi	r3,1
    8228:	18c0fc04 	addi	r3,r3,1008
    822c:	d80b883a 	mov	r5,sp
    8230:	d8c00215 	stw	r3,8(sp)
    8234:	d8800315 	stw	r2,12(sp)
    8238:	dc000415 	stw	r16,16(sp)
    823c:	dd000515 	stw	r20,20(sp)
    8240:	dcc00615 	stw	r19,24(sp)
    8244:	dc400715 	stw	r17,28(sp)
    8248:	0007aa00 	call	7aa0 <syslog_wri_log>
    824c:	dfc00d17 	ldw	ra,52(sp)
    8250:	dd000c17 	ldw	r20,48(sp)
    8254:	dcc00b17 	ldw	r19,44(sp)
    8258:	dc800a17 	ldw	r18,40(sp)
    825c:	dc400917 	ldw	r17,36(sp)
    8260:	dc000817 	ldw	r16,32(sp)
    8264:	dec00e04 	addi	sp,sp,56
    8268:	f800283a 	ret
	...

00008280 <atk2_strerror>:
    8280:	21003fcc 	andi	r4,r4,255
    8284:	008006c4 	movi	r2,27
    8288:	1100012e 	bgeu	r2,r4,8290 <atk2_strerror+0x10>
    828c:	01000704 	movi	r4,28
    8290:	2109883a 	add	r4,r4,r4
    8294:	00800074 	movhi	r2,1
    8298:	10818e04 	addi	r2,r2,1592
    829c:	2109883a 	add	r4,r4,r4
    82a0:	1109883a 	add	r4,r2,r4
    82a4:	20800017 	ldw	r2,0(r4)
    82a8:	f800283a 	ret
	...

000082c0 <_setevent_alarm_2>:
    82c0:	010000c4 	movi	r4,3
    82c4:	01400044 	movi	r5,1
    82c8:	000cea01 	jmpi	cea0 <set_event_action>
    82cc:	0001883a 	nop
    82d0:	0001883a 	nop
    82d4:	0001883a 	nop
    82d8:	0001883a 	nop
    82dc:	0001883a 	nop

000082e0 <_setevent_alarm_1>:
    82e0:	01000084 	movi	r4,2
    82e4:	01400044 	movi	r5,1
    82e8:	000cea01 	jmpi	cea0 <set_event_action>
    82ec:	0001883a 	nop
    82f0:	0001883a 	nop
    82f4:	0001883a 	nop
    82f8:	0001883a 	nop
    82fc:	0001883a 	nop

00008300 <_kernel_inthdr_0>:
    8300:	00090e01 	jmpi	90e0 <ISRMaintarget_timer_hdr>
    8304:	0001883a 	nop
    8308:	0001883a 	nop
    830c:	0001883a 	nop
    8310:	0001883a 	nop
    8314:	0001883a 	nop
    8318:	0001883a 	nop
    831c:	0001883a 	nop

00008320 <_kernel_inthdr_12>:
    8320:	00047a01 	jmpi	47a0 <ISRMainif_tse_rx_handler>
    8324:	0001883a 	nop
    8328:	0001883a 	nop
    832c:	0001883a 	nop
    8330:	0001883a 	nop
    8334:	0001883a 	nop
    8338:	0001883a 	nop
    833c:	0001883a 	nop

00008340 <_kernel_inthdr_13>:
    8340:	00046a01 	jmpi	46a0 <ISRMainif_tse_tx_handler>
    8344:	0001883a 	nop
    8348:	0001883a 	nop
    834c:	0001883a 	nop
    8350:	0001883a 	nop
    8354:	0001883a 	nop
    8358:	0001883a 	nop
    835c:	0001883a 	nop

00008360 <object_initialize>:
    8360:	deffff04 	addi	sp,sp,-4
    8364:	dfc00015 	stw	ra,0(sp)
    8368:	000e0600 	call	e060 <interrupt_initialize>
    836c:	000cfe00 	call	cfe0 <resource_initialize>
    8370:	000e7600 	call	e760 <task_initialize>
    8374:	0009de00 	call	9de0 <counter_initialize>
    8378:	dfc00017 	ldw	ra,0(sp)
    837c:	dec00104 	addi	sp,sp,4
    8380:	000a4401 	jmpi	a440 <alarm_initialize>
    8384:	0001883a 	nop
    8388:	0001883a 	nop
    838c:	0001883a 	nop
    8390:	0001883a 	nop
    8394:	0001883a 	nop
    8398:	0001883a 	nop
    839c:	0001883a 	nop

000083a0 <object_terminate>:
    83a0:	0009ee01 	jmpi	9ee0 <counter_terminate>
    83a4:	0001883a 	nop
    83a8:	0001883a 	nop
    83ac:	0001883a 	nop
    83b0:	0001883a 	nop
    83b4:	0001883a 	nop
    83b8:	0001883a 	nop
    83bc:	0001883a 	nop

000083c0 <ISRMainC2ISR_for_MAIN_HW_COUNTER>:
    83c0:	0009883a 	mov	r4,zero
    83c4:	00097401 	jmpi	9740 <notify_hardware_counter>
    83c8:	0001883a 	nop
    83cc:	0001883a 	nop
    83d0:	0001883a 	nop
    83d4:	0001883a 	nop
    83d8:	0001883a 	nop
    83dc:	0001883a 	nop

000083e0 <_kernel_inthdr_16>:
    83e0:	00083c01 	jmpi	83c0 <ISRMainC2ISR_for_MAIN_HW_COUNTER>
    83e4:	0001883a 	nop
    83e8:	0001883a 	nop
    83ec:	0001883a 	nop
    83f0:	0001883a 	nop
    83f4:	0001883a 	nop
    83f8:	0001883a 	nop
    83fc:	0001883a 	nop

00008400 <int_handler_entry_0>:
    8400:	06000004 	movi	et,0
    8404:	00001e01 	jmpi	1e0 <interrupt>
    8408:	f800283a 	ret
    840c:	0001883a 	nop
    8410:	0001883a 	nop
    8414:	0001883a 	nop
    8418:	0001883a 	nop
    841c:	0001883a 	nop

00008420 <int_handler_entry_12>:
    8420:	06000304 	movi	et,12
    8424:	00001e01 	jmpi	1e0 <interrupt>
    8428:	f800283a 	ret
    842c:	0001883a 	nop
    8430:	0001883a 	nop
    8434:	0001883a 	nop
    8438:	0001883a 	nop
    843c:	0001883a 	nop

00008440 <int_handler_entry_13>:
    8440:	06000344 	movi	et,13
    8444:	00001e01 	jmpi	1e0 <interrupt>
    8448:	f800283a 	ret
    844c:	0001883a 	nop
    8450:	0001883a 	nop
    8454:	0001883a 	nop
    8458:	0001883a 	nop
    845c:	0001883a 	nop

00008460 <int_handler_entry_16>:
    8460:	06000404 	movi	et,16
    8464:	00001e01 	jmpi	1e0 <interrupt>
    8468:	f800283a 	ret
    846c:	0001883a 	nop
    8470:	0001883a 	nop
    8474:	0001883a 	nop
    8478:	0001883a 	nop
    847c:	0001883a 	nop

00008480 <kernel_vectors>:
    8480:	00084001 	jmpi	8400 <int_handler_entry_0>
    8484:	0008ea01 	jmpi	8ea0 <default_int_handler>
    8488:	0008ea01 	jmpi	8ea0 <default_int_handler>
    848c:	0008ea01 	jmpi	8ea0 <default_int_handler>
    8490:	0008ea01 	jmpi	8ea0 <default_int_handler>
    8494:	0008ea01 	jmpi	8ea0 <default_int_handler>
    8498:	0008ea01 	jmpi	8ea0 <default_int_handler>
    849c:	0008ea01 	jmpi	8ea0 <default_int_handler>
    84a0:	0008ea01 	jmpi	8ea0 <default_int_handler>
    84a4:	0008ea01 	jmpi	8ea0 <default_int_handler>
    84a8:	0008ea01 	jmpi	8ea0 <default_int_handler>
    84ac:	0008ea01 	jmpi	8ea0 <default_int_handler>
    84b0:	00084201 	jmpi	8420 <int_handler_entry_12>
    84b4:	00084401 	jmpi	8440 <int_handler_entry_13>
    84b8:	0008ea01 	jmpi	8ea0 <default_int_handler>
    84bc:	0008ea01 	jmpi	8ea0 <default_int_handler>
    84c0:	00084601 	jmpi	8460 <int_handler_entry_16>
    84c4:	0008ea01 	jmpi	8ea0 <default_int_handler>
    84c8:	0008ea01 	jmpi	8ea0 <default_int_handler>
    84cc:	0008ea01 	jmpi	8ea0 <default_int_handler>
    84d0:	0008ea01 	jmpi	8ea0 <default_int_handler>
    84d4:	0008ea01 	jmpi	8ea0 <default_int_handler>
    84d8:	0008ea01 	jmpi	8ea0 <default_int_handler>
    84dc:	0008ea01 	jmpi	8ea0 <default_int_handler>
    84e0:	0008ea01 	jmpi	8ea0 <default_int_handler>
    84e4:	0008ea01 	jmpi	8ea0 <default_int_handler>
    84e8:	0008ea01 	jmpi	8ea0 <default_int_handler>
    84ec:	0008ea01 	jmpi	8ea0 <default_int_handler>
    84f0:	0008ea01 	jmpi	8ea0 <default_int_handler>
    84f4:	0008ea01 	jmpi	8ea0 <default_int_handler>
    84f8:	0008ea01 	jmpi	8ea0 <default_int_handler>
    84fc:	0008ea01 	jmpi	8ea0 <default_int_handler>
    8500:	f800283a 	ret
	...

00008520 <start_r>:
    8520:	d1204d17 	ldw	r4,-32460(gp)
    8524:	21800217 	ldw	r6,8(r4)
    8528:	31400407 	ldb	r5,16(r6)
    852c:	21400305 	stb	r5,12(r4)
    8530:	d0203505 	stb	zero,-32556(gp)
    8534:	0005303a 	rdctl	r2,status
    8538:	00ff03c4 	movi	r3,-1009
    853c:	10c4703a 	and	r2,r2,r3
    8540:	1001703a 	wrctl	status,r2
    8544:	07c00074 	movhi	ra,1
    8548:	fffa5804 	addi	ra,ra,-5792
    854c:	20c00217 	ldw	r3,8(r4)
    8550:	18800017 	ldw	r2,0(r3)
    8554:	1000683a 	jmp	r2
	...

00008560 <stack_change_and_call_func_1>:
    8560:	deffff04 	addi	sp,sp,-4
    8564:	dfc00015 	stw	ra,0(sp)
    8568:	d0a03a17 	ldw	r2,-32536(gp)
    856c:	10c00044 	addi	r3,r2,1
    8570:	d0e03a15 	stw	r3,-32536(gp)
    8574:	0080041e 	bne	zero,r2,8588 <stack_change_and_call_func_1+0x28>
    8578:	d0a01017 	ldw	r2,-32704(gp)
    857c:	10bfff04 	addi	r2,r2,-4
    8580:	16c00015 	stw	sp,0(r2)
    8584:	1037883a 	mov	sp,r2
    8588:	2005883a 	mov	r2,r4
    858c:	2809883a 	mov	r4,r5
    8590:	300b883a 	mov	r5,r6
    8594:	103ee83a 	callr	r2
    8598:	d0a03a17 	ldw	r2,-32536(gp)
    859c:	10bfffc4 	addi	r2,r2,-1
    85a0:	d0a03a15 	stw	r2,-32536(gp)
    85a4:	0080011e 	bne	zero,r2,85ac <stack_change_and_call_func_1+0x4c>
    85a8:	dec00017 	ldw	sp,0(sp)
    85ac:	dfc00017 	ldw	ra,0(sp)
    85b0:	dec00104 	addi	sp,sp,4
    85b4:	f800283a 	ret
	...

000085c0 <target_fput_str>:
    85c0:	21400007 	ldb	r5,0(r4)
    85c4:	28000b26 	beq	r5,zero,85f4 <target_fput_str+0x34>
    85c8:	00c20034 	movhi	r3,2048
    85cc:	18c06904 	addi	r3,r3,420
    85d0:	01820034 	movhi	r6,2048
    85d4:	31806804 	addi	r6,r6,416
    85d8:	18800037 	ldwio	r2,0(r3)
    85dc:	10bfffec 	andhi	r2,r2,65535
    85e0:	103ffd26 	beq	r2,zero,85d8 <target_fput_str+0x18>
    85e4:	31400035 	stwio	r5,0(r6)
    85e8:	21000044 	addi	r4,r4,1
    85ec:	21400007 	ldb	r5,0(r4)
    85f0:	283ff91e 	bne	r5,zero,85d8 <target_fput_str+0x18>
    85f4:	00c20034 	movhi	r3,2048
    85f8:	18c06904 	addi	r3,r3,420
    85fc:	18800037 	ldwio	r2,0(r3)
    8600:	10bfffec 	andhi	r2,r2,65535
    8604:	103ffd26 	beq	r2,zero,85fc <target_fput_str+0x3c>
    8608:	00820034 	movhi	r2,2048
    860c:	10806804 	addi	r2,r2,416
    8610:	00c00284 	movi	r3,10
    8614:	10c00035 	stwio	r3,0(r2)
    8618:	f800283a 	ret
    861c:	0001883a 	nop

00008620 <target_hardware_initialize>:
    8620:	deffff04 	addi	sp,sp,-4
    8624:	00820034 	movhi	r2,2048
    8628:	10807204 	addi	r2,r2,456
    862c:	dfc00015 	stw	ra,0(sp)
    8630:	10c00037 	ldwio	r3,0(r2)
    8634:	00800044 	movi	r2,1
    8638:	18800426 	beq	r3,r2,864c <target_hardware_initialize+0x2c>
    863c:	01000074 	movhi	r4,1
    8640:	21023e04 	addi	r4,r4,2296
    8644:	00085c00 	call	85c0 <target_fput_str>
    8648:	003fff06 	br	8648 <target_hardware_initialize+0x28>
    864c:	00820034 	movhi	r2,2048
    8650:	10807004 	addi	r2,r2,448
    8654:	10c00037 	ldwio	r3,0(r2)
    8658:	008001c4 	movi	r2,7
    865c:	18800426 	beq	r3,r2,8670 <target_hardware_initialize+0x50>
    8660:	01000074 	movhi	r4,1
    8664:	21024604 	addi	r4,r4,2328
    8668:	00085c00 	call	85c0 <target_fput_str>
    866c:	003fff06 	br	866c <target_hardware_initialize+0x4c>
    8670:	dfc00017 	ldw	ra,0(sp)
    8674:	dec00104 	addi	sp,sp,4
    8678:	0008da01 	jmpi	8da0 <prc_hardware_initialize>
    867c:	0001883a 	nop

00008680 <target_initialize>:
    8680:	0008dc01 	jmpi	8dc0 <prc_initialize>
    8684:	0001883a 	nop
    8688:	0001883a 	nop
    868c:	0001883a 	nop
    8690:	0001883a 	nop
    8694:	0001883a 	nop
    8698:	0001883a 	nop
    869c:	0001883a 	nop

000086a0 <target_exit>:
    86a0:	deffff04 	addi	sp,sp,-4
    86a4:	01000074 	movhi	r4,1
    86a8:	21025004 	addi	r4,r4,2368
    86ac:	dfc00015 	stw	ra,0(sp)
    86b0:	00085c00 	call	85c0 <target_fput_str>
    86b4:	0008de00 	call	8de0 <prc_terminate>
    86b8:	003fff06 	br	86b8 <target_exit+0x18>
    86bc:	0001883a 	nop

000086c0 <target_fput_log>:
    86c0:	00c20034 	movhi	r3,2048
    86c4:	18c06904 	addi	r3,r3,420
    86c8:	18800037 	ldwio	r2,0(r3)
    86cc:	10bfffec 	andhi	r2,r2,65535
    86d0:	103ffd26 	beq	r2,zero,86c8 <target_fput_log+0x8>
    86d4:	21003fcc 	andi	r4,r4,255
    86d8:	2100201c 	xori	r4,r4,128
    86dc:	213fe004 	addi	r4,r4,-128
    86e0:	00820034 	movhi	r2,2048
    86e4:	10806804 	addi	r2,r2,416
    86e8:	11000035 	stwio	r4,0(r2)
    86ec:	f800283a 	ret
	...

00008700 <set_hwcounter>:
    8700:	00801034 	movhi	r2,64
    8704:	2085883a 	add	r2,r4,r2
    8708:	1004917a 	slli	r2,r2,5
    870c:	10000035 	stwio	zero,0(r2)
    8710:	00c01034 	movhi	r3,64
    8714:	18c00044 	addi	r3,r3,1
    8718:	20c9883a 	add	r4,r4,r3
    871c:	2008917a 	slli	r4,r4,5
    8720:	20c00404 	addi	r3,r4,16
    8724:	18000035 	stwio	zero,0(r3)
    8728:	19c00037 	ldwio	r7,0(r3)
    872c:	20c00537 	ldwio	r3,20(r4)
    8730:	1806943a 	slli	r3,r3,16
    8734:	19c6b03a 	or	r3,r3,r7
    8738:	30cdc83a 	sub	r6,r6,r3
    873c:	29800b36 	bltu	r5,r6,876c <set_hwcounter+0x6c>
    8740:	298bc83a 	sub	r5,r5,r6
    8744:	00c00044 	movi	r3,1
    8748:	19400c2e 	bgeu	r3,r5,877c <set_hwcounter+0x7c>
    874c:	297fffc4 	addi	r5,r5,-1
    8750:	2808d43a 	srli	r4,r5,16
    8754:	28ffffcc 	andi	r3,r5,65535
    8758:	11000335 	stwio	r4,12(r2)
    875c:	10c00235 	stwio	r3,8(r2)
    8760:	00c00144 	movi	r3,5
    8764:	10c00135 	stwio	r3,4(r2)
    8768:	f800283a 	ret
    876c:	29400044 	addi	r5,r5,1
    8770:	28cb883a 	add	r5,r5,r3
    8774:	00c00044 	movi	r3,1
    8778:	197ff436 	bltu	r3,r5,874c <set_hwcounter+0x4c>
    877c:	0009883a 	mov	r4,zero
    8780:	11000335 	stwio	r4,12(r2)
    8784:	10c00235 	stwio	r3,8(r2)
    8788:	00c00144 	movi	r3,5
    878c:	10c00135 	stwio	r3,4(r2)
    8790:	f800283a 	ret
    8794:	0001883a 	nop
    8798:	0001883a 	nop
    879c:	0001883a 	nop

000087a0 <init_hwcounter_MAIN_HW_COUNTER>:
    87a0:	00c00204 	movi	r3,8
    87a4:	d1203115 	stw	r4,-32572(gp)
    87a8:	00820034 	movhi	r2,2048
    87ac:	10808104 	addi	r2,r2,516
    87b0:	10c00035 	stwio	r3,0(r2)
    87b4:	0005883a 	mov	r2,zero
    87b8:	01420034 	movhi	r5,2048
    87bc:	29408004 	addi	r5,r5,512
    87c0:	28800035 	stwio	r2,0(r5)
    87c4:	29400904 	addi	r5,r5,36
    87c8:	28c00035 	stwio	r3,0(r5)
    87cc:	00c20034 	movhi	r3,2048
    87d0:	18c08804 	addi	r3,r3,544
    87d4:	18800035 	stwio	r2,0(r3)
    87d8:	2006d43a 	srli	r3,r4,16
    87dc:	00820034 	movhi	r2,2048
    87e0:	10808b04 	addi	r2,r2,556
    87e4:	10c00035 	stwio	r3,0(r2)
    87e8:	213fffcc 	andi	r4,r4,65535
    87ec:	10bfff04 	addi	r2,r2,-4
    87f0:	11000035 	stwio	r4,0(r2)
    87f4:	f800283a 	ret
    87f8:	0001883a 	nop
    87fc:	0001883a 	nop

00008800 <start_hwcounter_MAIN_HW_COUNTER>:
    8800:	00820034 	movhi	r2,2048
    8804:	10808904 	addi	r2,r2,548
    8808:	00c00184 	movi	r3,6
    880c:	10c00035 	stwio	r3,0(r2)
    8810:	f800283a 	ret
    8814:	0001883a 	nop
    8818:	0001883a 	nop
    881c:	0001883a 	nop

00008820 <stop_hwcounter_MAIN_HW_COUNTER>:
    8820:	00c00204 	movi	r3,8
    8824:	00820034 	movhi	r2,2048
    8828:	10808104 	addi	r2,r2,516
    882c:	10c00035 	stwio	r3,0(r2)
    8830:	0005883a 	mov	r2,zero
    8834:	01020034 	movhi	r4,2048
    8838:	21008004 	addi	r4,r4,512
    883c:	20800035 	stwio	r2,0(r4)
    8840:	21000904 	addi	r4,r4,36
    8844:	20c00035 	stwio	r3,0(r4)
    8848:	00c20034 	movhi	r3,2048
    884c:	18c08804 	addi	r3,r3,544
    8850:	18800035 	stwio	r2,0(r3)
    8854:	f800283a 	ret
    8858:	0001883a 	nop
    885c:	0001883a 	nop

00008860 <set_hwcounter_MAIN_HW_COUNTER>:
    8860:	d1a03117 	ldw	r6,-32572(gp)
    8864:	200b883a 	mov	r5,r4
    8868:	01000404 	movi	r4,16
    886c:	00087001 	jmpi	8700 <set_hwcounter>
    8870:	0001883a 	nop
    8874:	0001883a 	nop
    8878:	0001883a 	nop
    887c:	0001883a 	nop

00008880 <get_hwcounter_MAIN_HW_COUNTER>:
    8880:	00820034 	movhi	r2,2048
    8884:	10808c04 	addi	r2,r2,560
    8888:	10000035 	stwio	zero,0(r2)
    888c:	10c00037 	ldwio	r3,0(r2)
    8890:	10800104 	addi	r2,r2,4
    8894:	10800037 	ldwio	r2,0(r2)
    8898:	1004943a 	slli	r2,r2,16
    889c:	10c4b03a 	or	r2,r2,r3
    88a0:	d0e03117 	ldw	r3,-32572(gp)
    88a4:	1885c83a 	sub	r2,r3,r2
    88a8:	f800283a 	ret
    88ac:	0001883a 	nop
    88b0:	0001883a 	nop
    88b4:	0001883a 	nop
    88b8:	0001883a 	nop
    88bc:	0001883a 	nop

000088c0 <cancel_hwcounter_MAIN_HW_COUNTER>:
    88c0:	00820034 	movhi	r2,2048
    88c4:	10808104 	addi	r2,r2,516
    88c8:	00c00204 	movi	r3,8
    88cc:	10c00035 	stwio	r3,0(r2)
    88d0:	f800283a 	ret
    88d4:	0001883a 	nop
    88d8:	0001883a 	nop
    88dc:	0001883a 	nop

000088e0 <trigger_hwcounter_MAIN_HW_COUNTER>:
    88e0:	00820034 	movhi	r2,2048
    88e4:	10808104 	addi	r2,r2,516
    88e8:	00c00204 	movi	r3,8
    88ec:	10c00035 	stwio	r3,0(r2)
    88f0:	0007883a 	mov	r3,zero
    88f4:	01020034 	movhi	r4,2048
    88f8:	21008004 	addi	r4,r4,512
    88fc:	20c00035 	stwio	r3,0(r4)
    8900:	21000304 	addi	r4,r4,12
    8904:	20c00035 	stwio	r3,0(r4)
    8908:	00c20034 	movhi	r3,2048
    890c:	18c08204 	addi	r3,r3,520
    8910:	01000044 	movi	r4,1
    8914:	19000035 	stwio	r4,0(r3)
    8918:	00c00144 	movi	r3,5
    891c:	10c00035 	stwio	r3,0(r2)
    8920:	f800283a 	ret
    8924:	0001883a 	nop
    8928:	0001883a 	nop
    892c:	0001883a 	nop
    8930:	0001883a 	nop
    8934:	0001883a 	nop
    8938:	0001883a 	nop
    893c:	0001883a 	nop

00008940 <int_clear_hwcounter_MAIN_HW_COUNTER>:
    8940:	00820034 	movhi	r2,2048
    8944:	10808004 	addi	r2,r2,512
    8948:	10000035 	stwio	zero,0(r2)
    894c:	f800283a 	ret
    8950:	0001883a 	nop
    8954:	0001883a 	nop
    8958:	0001883a 	nop
    895c:	0001883a 	nop

00008960 <int_cancel_hwcounter_MAIN_HW_COUNTER>:
    8960:	00820034 	movhi	r2,2048
    8964:	10808004 	addi	r2,r2,512
    8968:	10000035 	stwio	zero,0(r2)
    896c:	f800283a 	ret
    8970:	0001883a 	nop
    8974:	0001883a 	nop
    8978:	0001883a 	nop
    897c:	0001883a 	nop

00008980 <increment_hwcounter_MAIN_HW_COUNTER>:
    8980:	f800283a 	ret
    8984:	0001883a 	nop
    8988:	0001883a 	nop
    898c:	0001883a 	nop
    8990:	0001883a 	nop
    8994:	0001883a 	nop
    8998:	0001883a 	nop
    899c:	0001883a 	nop

000089a0 <init_hwcounter_SUB_HW_COUNTER1>:
    89a0:	00c00204 	movi	r3,8
    89a4:	d1203215 	stw	r4,-32568(gp)
    89a8:	00820034 	movhi	r2,2048
    89ac:	10809104 	addi	r2,r2,580
    89b0:	10c00035 	stwio	r3,0(r2)
    89b4:	0005883a 	mov	r2,zero
    89b8:	01420034 	movhi	r5,2048
    89bc:	29409004 	addi	r5,r5,576
    89c0:	28800035 	stwio	r2,0(r5)
    89c4:	29400904 	addi	r5,r5,36
    89c8:	28c00035 	stwio	r3,0(r5)
    89cc:	00c20034 	movhi	r3,2048
    89d0:	18c09804 	addi	r3,r3,608
    89d4:	18800035 	stwio	r2,0(r3)
    89d8:	2006d43a 	srli	r3,r4,16
    89dc:	00820034 	movhi	r2,2048
    89e0:	10809b04 	addi	r2,r2,620
    89e4:	10c00035 	stwio	r3,0(r2)
    89e8:	213fffcc 	andi	r4,r4,65535
    89ec:	10bfff04 	addi	r2,r2,-4
    89f0:	11000035 	stwio	r4,0(r2)
    89f4:	f800283a 	ret
    89f8:	0001883a 	nop
    89fc:	0001883a 	nop

00008a00 <start_hwcounter_SUB_HW_COUNTER1>:
    8a00:	00820034 	movhi	r2,2048
    8a04:	10809904 	addi	r2,r2,612
    8a08:	00c00184 	movi	r3,6
    8a0c:	10c00035 	stwio	r3,0(r2)
    8a10:	f800283a 	ret
    8a14:	0001883a 	nop
    8a18:	0001883a 	nop
    8a1c:	0001883a 	nop

00008a20 <stop_hwcounter_SUB_HW_COUNTER1>:
    8a20:	00c00204 	movi	r3,8
    8a24:	00820034 	movhi	r2,2048
    8a28:	10809104 	addi	r2,r2,580
    8a2c:	10c00035 	stwio	r3,0(r2)
    8a30:	0005883a 	mov	r2,zero
    8a34:	01020034 	movhi	r4,2048
    8a38:	21009004 	addi	r4,r4,576
    8a3c:	20800035 	stwio	r2,0(r4)
    8a40:	21000904 	addi	r4,r4,36
    8a44:	20c00035 	stwio	r3,0(r4)
    8a48:	00c20034 	movhi	r3,2048
    8a4c:	18c09804 	addi	r3,r3,608
    8a50:	18800035 	stwio	r2,0(r3)
    8a54:	f800283a 	ret
    8a58:	0001883a 	nop
    8a5c:	0001883a 	nop

00008a60 <set_hwcounter_SUB_HW_COUNTER1>:
    8a60:	d1a03217 	ldw	r6,-32568(gp)
    8a64:	200b883a 	mov	r5,r4
    8a68:	01000484 	movi	r4,18
    8a6c:	00087001 	jmpi	8700 <set_hwcounter>
    8a70:	0001883a 	nop
    8a74:	0001883a 	nop
    8a78:	0001883a 	nop
    8a7c:	0001883a 	nop

00008a80 <get_hwcounter_SUB_HW_COUNTER1>:
    8a80:	00820034 	movhi	r2,2048
    8a84:	10809c04 	addi	r2,r2,624
    8a88:	10000035 	stwio	zero,0(r2)
    8a8c:	10c00037 	ldwio	r3,0(r2)
    8a90:	10800104 	addi	r2,r2,4
    8a94:	10800037 	ldwio	r2,0(r2)
    8a98:	1004943a 	slli	r2,r2,16
    8a9c:	10c4b03a 	or	r2,r2,r3
    8aa0:	d0e03217 	ldw	r3,-32568(gp)
    8aa4:	1885c83a 	sub	r2,r3,r2
    8aa8:	f800283a 	ret
    8aac:	0001883a 	nop
    8ab0:	0001883a 	nop
    8ab4:	0001883a 	nop
    8ab8:	0001883a 	nop
    8abc:	0001883a 	nop

00008ac0 <cancel_hwcounter_SUB_HW_COUNTER1>:
    8ac0:	00820034 	movhi	r2,2048
    8ac4:	10809104 	addi	r2,r2,580
    8ac8:	00c00204 	movi	r3,8
    8acc:	10c00035 	stwio	r3,0(r2)
    8ad0:	f800283a 	ret
    8ad4:	0001883a 	nop
    8ad8:	0001883a 	nop
    8adc:	0001883a 	nop

00008ae0 <trigger_hwcounter_SUB_HW_COUNTER1>:
    8ae0:	00820034 	movhi	r2,2048
    8ae4:	10809104 	addi	r2,r2,580
    8ae8:	00c00204 	movi	r3,8
    8aec:	10c00035 	stwio	r3,0(r2)
    8af0:	0007883a 	mov	r3,zero
    8af4:	01020034 	movhi	r4,2048
    8af8:	21009004 	addi	r4,r4,576
    8afc:	20c00035 	stwio	r3,0(r4)
    8b00:	21000304 	addi	r4,r4,12
    8b04:	20c00035 	stwio	r3,0(r4)
    8b08:	00c20034 	movhi	r3,2048
    8b0c:	18c09204 	addi	r3,r3,584
    8b10:	01000044 	movi	r4,1
    8b14:	19000035 	stwio	r4,0(r3)
    8b18:	00c00144 	movi	r3,5
    8b1c:	10c00035 	stwio	r3,0(r2)
    8b20:	f800283a 	ret
    8b24:	0001883a 	nop
    8b28:	0001883a 	nop
    8b2c:	0001883a 	nop
    8b30:	0001883a 	nop
    8b34:	0001883a 	nop
    8b38:	0001883a 	nop
    8b3c:	0001883a 	nop

00008b40 <int_clear_hwcounter_SUB_HW_COUNTER1>:
    8b40:	00820034 	movhi	r2,2048
    8b44:	10809004 	addi	r2,r2,576
    8b48:	10000035 	stwio	zero,0(r2)
    8b4c:	f800283a 	ret
    8b50:	0001883a 	nop
    8b54:	0001883a 	nop
    8b58:	0001883a 	nop
    8b5c:	0001883a 	nop

00008b60 <int_cancel_hwcounter_SUB_HW_COUNTER1>:
    8b60:	00820034 	movhi	r2,2048
    8b64:	10809004 	addi	r2,r2,576
    8b68:	10000035 	stwio	zero,0(r2)
    8b6c:	f800283a 	ret
    8b70:	0001883a 	nop
    8b74:	0001883a 	nop
    8b78:	0001883a 	nop
    8b7c:	0001883a 	nop

00008b80 <increment_hwcounter_SUB_HW_COUNTER1>:
    8b80:	f800283a 	ret
    8b84:	0001883a 	nop
    8b88:	0001883a 	nop
    8b8c:	0001883a 	nop
    8b90:	0001883a 	nop
    8b94:	0001883a 	nop
    8b98:	0001883a 	nop
    8b9c:	0001883a 	nop

00008ba0 <init_hwcounter_SUB_HW_COUNTER2>:
    8ba0:	00c00204 	movi	r3,8
    8ba4:	d1203315 	stw	r4,-32564(gp)
    8ba8:	00820034 	movhi	r2,2048
    8bac:	1080a104 	addi	r2,r2,644
    8bb0:	10c00035 	stwio	r3,0(r2)
    8bb4:	0005883a 	mov	r2,zero
    8bb8:	01420034 	movhi	r5,2048
    8bbc:	2940a004 	addi	r5,r5,640
    8bc0:	28800035 	stwio	r2,0(r5)
    8bc4:	29400904 	addi	r5,r5,36
    8bc8:	28c00035 	stwio	r3,0(r5)
    8bcc:	00c20034 	movhi	r3,2048
    8bd0:	18c0a804 	addi	r3,r3,672
    8bd4:	18800035 	stwio	r2,0(r3)
    8bd8:	2006d43a 	srli	r3,r4,16
    8bdc:	00820034 	movhi	r2,2048
    8be0:	1080ab04 	addi	r2,r2,684
    8be4:	10c00035 	stwio	r3,0(r2)
    8be8:	213fffcc 	andi	r4,r4,65535
    8bec:	10bfff04 	addi	r2,r2,-4
    8bf0:	11000035 	stwio	r4,0(r2)
    8bf4:	f800283a 	ret
    8bf8:	0001883a 	nop
    8bfc:	0001883a 	nop

00008c00 <start_hwcounter_SUB_HW_COUNTER2>:
    8c00:	00820034 	movhi	r2,2048
    8c04:	1080a904 	addi	r2,r2,676
    8c08:	00c00184 	movi	r3,6
    8c0c:	10c00035 	stwio	r3,0(r2)
    8c10:	f800283a 	ret
    8c14:	0001883a 	nop
    8c18:	0001883a 	nop
    8c1c:	0001883a 	nop

00008c20 <stop_hwcounter_SUB_HW_COUNTER2>:
    8c20:	00c00204 	movi	r3,8
    8c24:	00820034 	movhi	r2,2048
    8c28:	1080a104 	addi	r2,r2,644
    8c2c:	10c00035 	stwio	r3,0(r2)
    8c30:	0005883a 	mov	r2,zero
    8c34:	01020034 	movhi	r4,2048
    8c38:	2100a004 	addi	r4,r4,640
    8c3c:	20800035 	stwio	r2,0(r4)
    8c40:	21000904 	addi	r4,r4,36
    8c44:	20c00035 	stwio	r3,0(r4)
    8c48:	00c20034 	movhi	r3,2048
    8c4c:	18c0a804 	addi	r3,r3,672
    8c50:	18800035 	stwio	r2,0(r3)
    8c54:	f800283a 	ret
    8c58:	0001883a 	nop
    8c5c:	0001883a 	nop

00008c60 <set_hwcounter_SUB_HW_COUNTER2>:
    8c60:	d1a03317 	ldw	r6,-32564(gp)
    8c64:	200b883a 	mov	r5,r4
    8c68:	01000504 	movi	r4,20
    8c6c:	00087001 	jmpi	8700 <set_hwcounter>
    8c70:	0001883a 	nop
    8c74:	0001883a 	nop
    8c78:	0001883a 	nop
    8c7c:	0001883a 	nop

00008c80 <get_hwcounter_SUB_HW_COUNTER2>:
    8c80:	00820034 	movhi	r2,2048
    8c84:	1080ac04 	addi	r2,r2,688
    8c88:	10000035 	stwio	zero,0(r2)
    8c8c:	10c00037 	ldwio	r3,0(r2)
    8c90:	10800104 	addi	r2,r2,4
    8c94:	10800037 	ldwio	r2,0(r2)
    8c98:	1004943a 	slli	r2,r2,16
    8c9c:	10c4b03a 	or	r2,r2,r3
    8ca0:	d0e03317 	ldw	r3,-32564(gp)
    8ca4:	1885c83a 	sub	r2,r3,r2
    8ca8:	f800283a 	ret
    8cac:	0001883a 	nop
    8cb0:	0001883a 	nop
    8cb4:	0001883a 	nop
    8cb8:	0001883a 	nop
    8cbc:	0001883a 	nop

00008cc0 <cancel_hwcounter_SUB_HW_COUNTER2>:
    8cc0:	00820034 	movhi	r2,2048
    8cc4:	1080a104 	addi	r2,r2,644
    8cc8:	00c00204 	movi	r3,8
    8ccc:	10c00035 	stwio	r3,0(r2)
    8cd0:	f800283a 	ret
    8cd4:	0001883a 	nop
    8cd8:	0001883a 	nop
    8cdc:	0001883a 	nop

00008ce0 <trigger_hwcounter_SUB_HW_COUNTER2>:
    8ce0:	00820034 	movhi	r2,2048
    8ce4:	1080a104 	addi	r2,r2,644
    8ce8:	00c00204 	movi	r3,8
    8cec:	10c00035 	stwio	r3,0(r2)
    8cf0:	0007883a 	mov	r3,zero
    8cf4:	01020034 	movhi	r4,2048
    8cf8:	2100a004 	addi	r4,r4,640
    8cfc:	20c00035 	stwio	r3,0(r4)
    8d00:	21000304 	addi	r4,r4,12
    8d04:	20c00035 	stwio	r3,0(r4)
    8d08:	00c20034 	movhi	r3,2048
    8d0c:	18c0a204 	addi	r3,r3,648
    8d10:	01000044 	movi	r4,1
    8d14:	19000035 	stwio	r4,0(r3)
    8d18:	00c00144 	movi	r3,5
    8d1c:	10c00035 	stwio	r3,0(r2)
    8d20:	f800283a 	ret
    8d24:	0001883a 	nop
    8d28:	0001883a 	nop
    8d2c:	0001883a 	nop
    8d30:	0001883a 	nop
    8d34:	0001883a 	nop
    8d38:	0001883a 	nop
    8d3c:	0001883a 	nop

00008d40 <int_clear_hwcounter_SUB_HW_COUNTER2>:
    8d40:	00820034 	movhi	r2,2048
    8d44:	1080a004 	addi	r2,r2,640
    8d48:	10000035 	stwio	zero,0(r2)
    8d4c:	f800283a 	ret
    8d50:	0001883a 	nop
    8d54:	0001883a 	nop
    8d58:	0001883a 	nop
    8d5c:	0001883a 	nop

00008d60 <int_cancel_hwcounter_SUB_HW_COUNTER2>:
    8d60:	00820034 	movhi	r2,2048
    8d64:	1080a004 	addi	r2,r2,640
    8d68:	10000035 	stwio	zero,0(r2)
    8d6c:	f800283a 	ret
    8d70:	0001883a 	nop
    8d74:	0001883a 	nop
    8d78:	0001883a 	nop
    8d7c:	0001883a 	nop

00008d80 <increment_hwcounter_SUB_HW_COUNTER2>:
    8d80:	f800283a 	ret
	...

00008da0 <prc_hardware_initialize>:
    8da0:	0008f001 	jmpi	8f00 <vic_initialize>
    8da4:	0001883a 	nop
    8da8:	0001883a 	nop
    8dac:	0001883a 	nop
    8db0:	0001883a 	nop
    8db4:	0001883a 	nop
    8db8:	0001883a 	nop
    8dbc:	0001883a 	nop

00008dc0 <prc_initialize>:
    8dc0:	00800044 	movi	r2,1
    8dc4:	d0a03a15 	stw	r2,-32536(gp)
    8dc8:	f800283a 	ret
    8dcc:	0001883a 	nop
    8dd0:	0001883a 	nop
    8dd4:	0001883a 	nop
    8dd8:	0001883a 	nop
    8ddc:	0001883a 	nop

00008de0 <prc_terminate>:
    8de0:	f800283a 	ret
    8de4:	0001883a 	nop
    8de8:	0001883a 	nop
    8dec:	0001883a 	nop
    8df0:	0001883a 	nop
    8df4:	0001883a 	nop
    8df8:	0001883a 	nop
    8dfc:	0001883a 	nop

00008e00 <x_config_int>:
    8e00:	defffd04 	addi	sp,sp,-12
    8e04:	dc000115 	stw	r16,4(sp)
    8e08:	dfc00215 	stw	ra,8(sp)
    8e0c:	008007c4 	movi	r2,31
    8e10:	2021883a 	mov	r16,r4
    8e14:	11000d2e 	bgeu	r2,r4,8e4c <x_config_int+0x4c>
    8e18:	00c00074 	movhi	r3,1
    8e1c:	18c25404 	addi	r3,r3,2384
    8e20:	00800074 	movhi	r2,1
    8e24:	10833204 	addi	r2,r2,3272
    8e28:	10c00015 	stw	r3,0(r2)
    8e2c:	00c01d04 	movi	r3,116
    8e30:	00800074 	movhi	r2,1
    8e34:	10833104 	addi	r2,r2,3268
    8e38:	10c00015 	stw	r3,0(r2)
    8e3c:	010006c4 	movi	r4,27
    8e40:	d9800015 	stw	r6,0(sp)
    8e44:	000b7c00 	call	b7c0 <internal_shutdownos>
    8e48:	d9800017 	ldw	r6,0(sp)
    8e4c:	80803fcc 	andi	r2,r16,255
    8e50:	1085883a 	add	r2,r2,r2
    8e54:	00c3c034 	movhi	r3,3840
    8e58:	1085883a 	add	r2,r2,r2
    8e5c:	10c5883a 	add	r2,r2,r3
    8e60:	018dc83a 	sub	r6,zero,r6
    8e64:	11800035 	stwio	r6,0(r2)
    8e68:	00800044 	movi	r2,1
    8e6c:	1420983a 	sll	r16,r2,r16
    8e70:	0083c034 	movhi	r2,3840
    8e74:	10802104 	addi	r2,r2,132
    8e78:	14000035 	stwio	r16,0(r2)
    8e7c:	dfc00217 	ldw	ra,8(sp)
    8e80:	dc000117 	ldw	r16,4(sp)
    8e84:	dec00304 	addi	sp,sp,12
    8e88:	f800283a 	ret
    8e8c:	0001883a 	nop
    8e90:	0001883a 	nop
    8e94:	0001883a 	nop
    8e98:	0001883a 	nop
    8e9c:	0001883a 	nop

00008ea0 <default_int_handler>:
    8ea0:	deffff04 	addi	sp,sp,-4
    8ea4:	01000074 	movhi	r4,1
    8ea8:	21025d04 	addi	r4,r4,2420
    8eac:	dfc00015 	stw	ra,0(sp)
    8eb0:	00085c00 	call	85c0 <target_fput_str>
    8eb4:	00c00074 	movhi	r3,1
    8eb8:	18c25404 	addi	r3,r3,2384
    8ebc:	00800074 	movhi	r2,1
    8ec0:	10833204 	addi	r2,r2,3272
    8ec4:	10c00015 	stw	r3,0(r2)
    8ec8:	010006c4 	movi	r4,27
    8ecc:	00c02184 	movi	r3,134
    8ed0:	00800074 	movhi	r2,1
    8ed4:	10833104 	addi	r2,r2,3268
    8ed8:	10c00015 	stw	r3,0(r2)
    8edc:	dfc00017 	ldw	ra,0(sp)
    8ee0:	dec00104 	addi	sp,sp,4
    8ee4:	000b7c01 	jmpi	b7c0 <internal_shutdownos>
	...

00008f00 <vic_initialize>:
    8f00:	00c00074 	movhi	r3,1
    8f04:	18e12004 	addi	r3,r3,-31616
    8f08:	0083c034 	movhi	r2,3840
    8f0c:	10802a04 	addi	r2,r2,168
    8f10:	10c00035 	stwio	r3,0(r2)
    8f14:	f800283a 	ret
	...

00008f20 <get_tim_utime>:
    8f20:	0009303a 	rdctl	r4,status
    8f24:	017fff84 	movi	r5,-2
    8f28:	2144703a 	and	r2,r4,r5
    8f2c:	1001703a 	wrctl	status,r2
    8f30:	d2203b17 	ldw	r8,-32532(gp)
    8f34:	00c20034 	movhi	r3,2048
    8f38:	18c05c04 	addi	r3,r3,368
    8f3c:	18000035 	stwio	zero,0(r3)
    8f40:	1a400037 	ldwio	r9,0(r3)
    8f44:	01820034 	movhi	r6,2048
    8f48:	31805d04 	addi	r6,r6,372
    8f4c:	30800037 	ldwio	r2,0(r6)
    8f50:	01fa9814 	movui	r7,60000
    8f54:	1004943a 	slli	r2,r2,16
    8f58:	1244303a 	nor	r2,r2,r9
    8f5c:	11c5883a 	add	r2,r2,r7
    8f60:	02420034 	movhi	r9,2048
    8f64:	4a405804 	addi	r9,r9,352
    8f68:	4a400037 	ldwio	r9,0(r9)
    8f6c:	18000035 	stwio	zero,0(r3)
    8f70:	1a800037 	ldwio	r10,0(r3)
    8f74:	31800037 	ldwio	r6,0(r6)
    8f78:	0007303a 	rdctl	r3,status
    8f7c:	194a703a 	and	r5,r3,r5
    8f80:	2100004c 	andi	r4,r4,1
    8f84:	2908b03a 	or	r4,r5,r4
    8f88:	2001703a 	wrctl	status,r4
    8f8c:	4900004c 	andi	r4,r9,1
    8f90:	40c0fa24 	muli	r3,r8,1000
    8f94:	20000526 	beq	r4,zero,8fac <get_tim_utime+0x8c>
    8f98:	300c943a 	slli	r6,r6,16
    8f9c:	3294303a 	nor	r10,r6,r10
    8fa0:	51cf883a 	add	r7,r10,r7
    8fa4:	38800136 	bltu	r7,r2,8fac <get_tim_utime+0x8c>
    8fa8:	18c0fa04 	addi	r3,r3,1000
    8fac:	1080fa24 	muli	r2,r2,1000
    8fb0:	013a9814 	movui	r4,60000
    8fb4:	1105203a 	divu	r2,r2,r4
    8fb8:	1885883a 	add	r2,r3,r2
    8fbc:	f800283a 	ret

00008fc0 <get_tim_100ntime>:
    8fc0:	0009303a 	rdctl	r4,status
    8fc4:	017fff84 	movi	r5,-2
    8fc8:	2144703a 	and	r2,r4,r5
    8fcc:	1001703a 	wrctl	status,r2
    8fd0:	d2203b17 	ldw	r8,-32532(gp)
    8fd4:	00c20034 	movhi	r3,2048
    8fd8:	18c05c04 	addi	r3,r3,368
    8fdc:	18000035 	stwio	zero,0(r3)
    8fe0:	1a400037 	ldwio	r9,0(r3)
    8fe4:	01820034 	movhi	r6,2048
    8fe8:	31805d04 	addi	r6,r6,372
    8fec:	30800037 	ldwio	r2,0(r6)
    8ff0:	01fa9814 	movui	r7,60000
    8ff4:	1004943a 	slli	r2,r2,16
    8ff8:	1244303a 	nor	r2,r2,r9
    8ffc:	11c5883a 	add	r2,r2,r7
    9000:	02420034 	movhi	r9,2048
    9004:	4a405804 	addi	r9,r9,352
    9008:	4a400037 	ldwio	r9,0(r9)
    900c:	18000035 	stwio	zero,0(r3)
    9010:	1a800037 	ldwio	r10,0(r3)
    9014:	31800037 	ldwio	r6,0(r6)
    9018:	0007303a 	rdctl	r3,status
    901c:	194a703a 	and	r5,r3,r5
    9020:	2100004c 	andi	r4,r4,1
    9024:	2908b03a 	or	r4,r5,r4
    9028:	2001703a 	wrctl	status,r4
    902c:	4900004c 	andi	r4,r9,1
    9030:	40c9c424 	muli	r3,r8,10000
    9034:	20000526 	beq	r4,zero,904c <get_tim_100ntime+0x8c>
    9038:	300c943a 	slli	r6,r6,16
    903c:	3294303a 	nor	r10,r6,r10
    9040:	51cf883a 	add	r7,r10,r7
    9044:	38800136 	bltu	r7,r2,904c <get_tim_100ntime+0x8c>
    9048:	18c9c404 	addi	r3,r3,10000
    904c:	1089c424 	muli	r2,r2,10000
    9050:	013a9814 	movui	r4,60000
    9054:	1105203a 	divu	r2,r2,r4
    9058:	1885883a 	add	r2,r3,r2
    905c:	f800283a 	ret

00009060 <target_timer_initialize>:
    9060:	00820034 	movhi	r2,2048
    9064:	10805904 	addi	r2,r2,356
    9068:	d0203b15 	stw	zero,-32532(gp)
    906c:	00c00204 	movi	r3,8
    9070:	10c00035 	stwio	r3,0(r2)
    9074:	0007883a 	mov	r3,zero
    9078:	01020034 	movhi	r4,2048
    907c:	21005804 	addi	r4,r4,352
    9080:	20c00035 	stwio	r3,0(r4)
    9084:	21000204 	addi	r4,r4,8
    9088:	017a97d4 	movui	r5,59999
    908c:	21400035 	stwio	r5,0(r4)
    9090:	21000104 	addi	r4,r4,4
    9094:	20c00035 	stwio	r3,0(r4)
    9098:	00c001c4 	movi	r3,7
    909c:	10c00035 	stwio	r3,0(r2)
    90a0:	f800283a 	ret
    90a4:	0001883a 	nop
    90a8:	0001883a 	nop
    90ac:	0001883a 	nop
    90b0:	0001883a 	nop
    90b4:	0001883a 	nop
    90b8:	0001883a 	nop
    90bc:	0001883a 	nop

000090c0 <target_timer_terminate>:
    90c0:	00820034 	movhi	r2,2048
    90c4:	10805904 	addi	r2,r2,356
    90c8:	00c00204 	movi	r3,8
    90cc:	10c00035 	stwio	r3,0(r2)
    90d0:	10bfff04 	addi	r2,r2,-4
    90d4:	10000035 	stwio	zero,0(r2)
    90d8:	f800283a 	ret
    90dc:	0001883a 	nop

000090e0 <ISRMaintarget_timer_hdr>:
    90e0:	deffff04 	addi	sp,sp,-4
    90e4:	dfc00015 	stw	ra,0(sp)
    90e8:	00820034 	movhi	r2,2048
    90ec:	10805804 	addi	r2,r2,352
    90f0:	10000035 	stwio	zero,0(r2)
    90f4:	d0a03b17 	ldw	r2,-32532(gp)
    90f8:	01000044 	movi	r4,1
    90fc:	1105883a 	add	r2,r2,r4
    9100:	d0a03b15 	stw	r2,-32532(gp)
    9104:	00099400 	call	9940 <IncrementCounter>
    9108:	11003fcc 	andi	r4,r2,255
    910c:	2000031e 	bne	r4,zero,911c <ISRMaintarget_timer_hdr+0x3c>
    9110:	dfc00017 	ldw	ra,0(sp)
    9114:	dec00104 	addi	sp,sp,4
    9118:	f800283a 	ret
    911c:	dfc00017 	ldw	ra,0(sp)
    9120:	dec00104 	addi	sp,sp,4
    9124:	000b4601 	jmpi	b460 <ShutdownOS>
	...

00009140 <GetCounterValue>:
    9140:	00800074 	movhi	r2,1
    9144:	10833504 	addi	r2,r2,3284
    9148:	1080000b 	ldhu	r2,0(r2)
    914c:	defffa04 	addi	sp,sp,-24
    9150:	dc400215 	stw	r17,8(sp)
    9154:	dfc00515 	stw	ra,20(sp)
    9158:	dcc00415 	stw	r19,16(sp)
    915c:	dc800315 	stw	r18,12(sp)
    9160:	dc000115 	stw	r16,4(sp)
    9164:	10dc000c 	andi	r3,r2,28672
    9168:	200f883a 	mov	r7,r4
    916c:	2823883a 	mov	r17,r5
    9170:	18008d1e 	bne	r3,zero,93a8 <GetCounterValue+0x268>
    9174:	10c000d4 	ori	r3,r2,3
    9178:	18ffffcc 	andi	r3,r3,65535
    917c:	008000c4 	movi	r2,3
    9180:	18803b26 	beq	r3,r2,9270 <GetCounterValue+0x130>
    9184:	00c00084 	movi	r3,2
    9188:	1805883a 	mov	r2,r3
    918c:	04000074 	movhi	r16,1
    9190:	84032a04 	addi	r16,r16,3240
    9194:	81000003 	ldbu	r4,0(r16)
    9198:	21003fcc 	andi	r4,r4,255
    919c:	20000c1e 	bne	r4,zero,91d0 <GetCounterValue+0x90>
    91a0:	0009303a 	rdctl	r4,status
    91a4:	01800074 	movhi	r6,1
    91a8:	31830404 	addi	r6,r6,3088
    91ac:	31800017 	ldw	r6,0(r6)
    91b0:	017f03c4 	movi	r5,-1009
    91b4:	214a703a 	and	r5,r4,r5
    91b8:	298ab03a 	or	r5,r5,r6
    91bc:	2801703a 	wrctl	status,r5
    91c0:	01400074 	movhi	r5,1
    91c4:	29432904 	addi	r5,r5,3236
    91c8:	2100fc0c 	andi	r4,r4,1008
    91cc:	29000015 	stw	r4,0(r5)
    91d0:	81000003 	ldbu	r4,0(r16)
    91d4:	21000044 	addi	r4,r4,1
    91d8:	81000005 	stb	r4,0(r16)
    91dc:	180b883a 	mov	r5,r3
    91e0:	00c00074 	movhi	r3,1
    91e4:	18c33b04 	addi	r3,r3,3308
    91e8:	19c00015 	stw	r7,0(r3)
    91ec:	00c00074 	movhi	r3,1
    91f0:	18c33a04 	addi	r3,r3,3304
    91f4:	1c400015 	stw	r17,0(r3)
    91f8:	01000074 	movhi	r4,1
    91fc:	212d7004 	addi	r4,r4,-19008
    9200:	01800404 	movi	r6,16
    9204:	d8800015 	stw	r2,0(sp)
    9208:	00085600 	call	8560 <stack_change_and_call_func_1>
    920c:	80c00003 	ldbu	r3,0(r16)
    9210:	d8800017 	ldw	r2,0(sp)
    9214:	18c03fcc 	andi	r3,r3,255
    9218:	18005626 	beq	r3,zero,9374 <GetCounterValue+0x234>
    921c:	80c00003 	ldbu	r3,0(r16)
    9220:	18ffffc4 	addi	r3,r3,-1
    9224:	80c00005 	stb	r3,0(r16)
    9228:	80c00003 	ldbu	r3,0(r16)
    922c:	18c03fcc 	andi	r3,r3,255
    9230:	1800081e 	bne	r3,zero,9254 <GetCounterValue+0x114>
    9234:	0007303a 	rdctl	r3,status
    9238:	01000074 	movhi	r4,1
    923c:	21032904 	addi	r4,r4,3236
    9240:	21000017 	ldw	r4,0(r4)
    9244:	017f03c4 	movi	r5,-1009
    9248:	1946703a 	and	r3,r3,r5
    924c:	1906b03a 	or	r3,r3,r4
    9250:	1801703a 	wrctl	status,r3
    9254:	dfc00517 	ldw	ra,20(sp)
    9258:	dcc00417 	ldw	r19,16(sp)
    925c:	dc800317 	ldw	r18,12(sp)
    9260:	dc400217 	ldw	r17,8(sp)
    9264:	dc000117 	ldw	r16,4(sp)
    9268:	dec00604 	addi	sp,sp,24
    926c:	f800283a 	ret
    9270:	00800074 	movhi	r2,1
    9274:	10831104 	addi	r2,r2,3140
    9278:	10800017 	ldw	r2,0(r2)
    927c:	20804e2e 	bgeu	r4,r2,93b8 <GetCounterValue+0x278>
    9280:	28004c26 	beq	r5,zero,93b4 <GetCounterValue+0x274>
    9284:	04000074 	movhi	r16,1
    9288:	84032a04 	addi	r16,r16,3240
    928c:	80800003 	ldbu	r2,0(r16)
    9290:	24c00524 	muli	r19,r4,20
    9294:	00c00174 	movhi	r3,5
    9298:	18c79804 	addi	r3,r3,7776
    929c:	10803fcc 	andi	r2,r2,255
    92a0:	98e7883a 	add	r19,r19,r3
    92a4:	10000c1e 	bne	r2,zero,92d8 <GetCounterValue+0x198>
    92a8:	0005303a 	rdctl	r2,status
    92ac:	01000074 	movhi	r4,1
    92b0:	21030404 	addi	r4,r4,3088
    92b4:	21000017 	ldw	r4,0(r4)
    92b8:	00ff03c4 	movi	r3,-1009
    92bc:	10c6703a 	and	r3,r2,r3
    92c0:	1906b03a 	or	r3,r3,r4
    92c4:	1801703a 	wrctl	status,r3
    92c8:	00c00074 	movhi	r3,1
    92cc:	18c32904 	addi	r3,r3,3236
    92d0:	1080fc0c 	andi	r2,r2,1008
    92d4:	18800015 	stw	r2,0(r3)
    92d8:	80800003 	ldbu	r2,0(r16)
    92dc:	10800044 	addi	r2,r2,1
    92e0:	80800005 	stb	r2,0(r16)
    92e4:	00800074 	movhi	r2,1
    92e8:	10831004 	addi	r2,r2,3136
    92ec:	10800017 	ldw	r2,0(r2)
    92f0:	38803f36 	bltu	r7,r2,93f0 <GetCounterValue+0x2b0>
    92f4:	9c800317 	ldw	r18,12(r19)
    92f8:	80800003 	ldbu	r2,0(r16)
    92fc:	10803fcc 	andi	r2,r2,255
    9300:	10002f26 	beq	r2,zero,93c0 <GetCounterValue+0x280>
    9304:	80800003 	ldbu	r2,0(r16)
    9308:	10bfffc4 	addi	r2,r2,-1
    930c:	80800005 	stb	r2,0(r16)
    9310:	80800003 	ldbu	r2,0(r16)
    9314:	10803fcc 	andi	r2,r2,255
    9318:	1000081e 	bne	r2,zero,933c <GetCounterValue+0x1fc>
    931c:	0005303a 	rdctl	r2,status
    9320:	00c00074 	movhi	r3,1
    9324:	18c32904 	addi	r3,r3,3236
    9328:	18c00017 	ldw	r3,0(r3)
    932c:	013f03c4 	movi	r4,-1009
    9330:	1104703a 	and	r2,r2,r4
    9334:	10c4b03a 	or	r2,r2,r3
    9338:	1001703a 	wrctl	status,r2
    933c:	98800217 	ldw	r2,8(r19)
    9340:	10800017 	ldw	r2,0(r2)
    9344:	1480022e 	bgeu	r2,r18,9350 <GetCounterValue+0x210>
    9348:	0084303a 	nor	r2,zero,r2
    934c:	90a5883a 	add	r18,r18,r2
    9350:	0005883a 	mov	r2,zero
    9354:	8c800015 	stw	r18,0(r17)
    9358:	dfc00517 	ldw	ra,20(sp)
    935c:	dcc00417 	ldw	r19,16(sp)
    9360:	dc800317 	ldw	r18,12(sp)
    9364:	dc400217 	ldw	r17,8(sp)
    9368:	dc000117 	ldw	r16,4(sp)
    936c:	dec00604 	addi	sp,sp,24
    9370:	f800283a 	ret
    9374:	01400074 	movhi	r5,1
    9378:	29426504 	addi	r5,r5,2452
    937c:	00c00074 	movhi	r3,1
    9380:	18c33204 	addi	r3,r3,3272
    9384:	19400015 	stw	r5,0(r3)
    9388:	010006c4 	movi	r4,27
    938c:	014035c4 	movi	r5,215
    9390:	00c00074 	movhi	r3,1
    9394:	18c33104 	addi	r3,r3,3268
    9398:	19400015 	stw	r5,0(r3)
    939c:	000b7c00 	call	b7c0 <internal_shutdownos>
    93a0:	d8800017 	ldw	r2,0(sp)
    93a4:	003f9d06 	br	921c <GetCounterValue+0xdc>
    93a8:	00c00304 	movi	r3,12
    93ac:	1805883a 	mov	r2,r3
    93b0:	003f7606 	br	918c <GetCounterValue+0x4c>
    93b4:	00c00684 	movi	r3,26
    93b8:	1805883a 	mov	r2,r3
    93bc:	003f7306 	br	918c <GetCounterValue+0x4c>
    93c0:	00c00074 	movhi	r3,1
    93c4:	18c26504 	addi	r3,r3,2452
    93c8:	00800074 	movhi	r2,1
    93cc:	10833204 	addi	r2,r2,3272
    93d0:	10c00015 	stw	r3,0(r2)
    93d4:	010006c4 	movi	r4,27
    93d8:	00c035c4 	movi	r3,215
    93dc:	00800074 	movhi	r2,1
    93e0:	10833104 	addi	r2,r2,3268
    93e4:	10c00015 	stw	r3,0(r2)
    93e8:	000b7c00 	call	b7c0 <internal_shutdownos>
    93ec:	003fc506 	br	9304 <GetCounterValue+0x1c4>
    93f0:	39c00b24 	muli	r7,r7,44
    93f4:	00800074 	movhi	r2,1
    93f8:	10821304 	addi	r2,r2,2124
    93fc:	388f883a 	add	r7,r7,r2
    9400:	38800017 	ldw	r2,0(r7)
    9404:	103ee83a 	callr	r2
    9408:	1025883a 	mov	r18,r2
    940c:	003fba06 	br	92f8 <GetCounterValue+0x1b8>
    9410:	0001883a 	nop
    9414:	0001883a 	nop
    9418:	0001883a 	nop
    941c:	0001883a 	nop

00009420 <GetElapsedValue>:
    9420:	00800074 	movhi	r2,1
    9424:	10833504 	addi	r2,r2,3284
    9428:	10c0000b 	ldhu	r3,0(r2)
    942c:	defff904 	addi	sp,sp,-28
    9430:	dc800315 	stw	r18,12(sp)
    9434:	dc400215 	stw	r17,8(sp)
    9438:	dfc00615 	stw	ra,24(sp)
    943c:	dd000515 	stw	r20,20(sp)
    9440:	dcc00415 	stw	r19,16(sp)
    9444:	dc000115 	stw	r16,4(sp)
    9448:	189c000c 	andi	r2,r3,28672
    944c:	200f883a 	mov	r7,r4
    9450:	2823883a 	mov	r17,r5
    9454:	3025883a 	mov	r18,r6
    9458:	1000611e 	bne	r2,zero,95e0 <GetElapsedValue+0x1c0>
    945c:	18c000d4 	ori	r3,r3,3
    9460:	18ffffcc 	andi	r3,r3,65535
    9464:	008000c4 	movi	r2,3
    9468:	18803f26 	beq	r3,r2,9568 <GetElapsedValue+0x148>
    946c:	00c00084 	movi	r3,2
    9470:	1805883a 	mov	r2,r3
    9474:	04000074 	movhi	r16,1
    9478:	84032a04 	addi	r16,r16,3240
    947c:	81000003 	ldbu	r4,0(r16)
    9480:	21003fcc 	andi	r4,r4,255
    9484:	20000c1e 	bne	r4,zero,94b8 <GetElapsedValue+0x98>
    9488:	0009303a 	rdctl	r4,status
    948c:	01800074 	movhi	r6,1
    9490:	31830404 	addi	r6,r6,3088
    9494:	31800017 	ldw	r6,0(r6)
    9498:	017f03c4 	movi	r5,-1009
    949c:	214a703a 	and	r5,r4,r5
    94a0:	298ab03a 	or	r5,r5,r6
    94a4:	2801703a 	wrctl	status,r5
    94a8:	01400074 	movhi	r5,1
    94ac:	29432904 	addi	r5,r5,3236
    94b0:	2100fc0c 	andi	r4,r4,1008
    94b4:	29000015 	stw	r4,0(r5)
    94b8:	81000003 	ldbu	r4,0(r16)
    94bc:	21000044 	addi	r4,r4,1
    94c0:	81000005 	stb	r4,0(r16)
    94c4:	180b883a 	mov	r5,r3
    94c8:	00c00074 	movhi	r3,1
    94cc:	18c33b04 	addi	r3,r3,3308
    94d0:	19c00015 	stw	r7,0(r3)
    94d4:	00c00074 	movhi	r3,1
    94d8:	18c33a04 	addi	r3,r3,3304
    94dc:	1c400015 	stw	r17,0(r3)
    94e0:	00c00074 	movhi	r3,1
    94e4:	18c33904 	addi	r3,r3,3300
    94e8:	1c800015 	stw	r18,0(r3)
    94ec:	01000074 	movhi	r4,1
    94f0:	212d7004 	addi	r4,r4,-19008
    94f4:	01800444 	movi	r6,17
    94f8:	d8800015 	stw	r2,0(sp)
    94fc:	00085600 	call	8560 <stack_change_and_call_func_1>
    9500:	80c00003 	ldbu	r3,0(r16)
    9504:	d8800017 	ldw	r2,0(sp)
    9508:	18c03fcc 	andi	r3,r3,255
    950c:	18002726 	beq	r3,zero,95ac <GetElapsedValue+0x18c>
    9510:	80c00003 	ldbu	r3,0(r16)
    9514:	18ffffc4 	addi	r3,r3,-1
    9518:	80c00005 	stb	r3,0(r16)
    951c:	80c00003 	ldbu	r3,0(r16)
    9520:	18c03fcc 	andi	r3,r3,255
    9524:	1800081e 	bne	r3,zero,9548 <GetElapsedValue+0x128>
    9528:	0007303a 	rdctl	r3,status
    952c:	01000074 	movhi	r4,1
    9530:	21032904 	addi	r4,r4,3236
    9534:	21000017 	ldw	r4,0(r4)
    9538:	017f03c4 	movi	r5,-1009
    953c:	1946703a 	and	r3,r3,r5
    9540:	1906b03a 	or	r3,r3,r4
    9544:	1801703a 	wrctl	status,r3
    9548:	dfc00617 	ldw	ra,24(sp)
    954c:	dd000517 	ldw	r20,20(sp)
    9550:	dcc00417 	ldw	r19,16(sp)
    9554:	dc800317 	ldw	r18,12(sp)
    9558:	dc400217 	ldw	r17,8(sp)
    955c:	dc000117 	ldw	r16,4(sp)
    9560:	dec00704 	addi	sp,sp,28
    9564:	f800283a 	ret
    9568:	00800074 	movhi	r2,1
    956c:	10831104 	addi	r2,r2,3140
    9570:	10800017 	ldw	r2,0(r2)
    9574:	20800b2e 	bgeu	r4,r2,95a4 <GetElapsedValue+0x184>
    9578:	28005a26 	beq	r5,zero,96e4 <GetElapsedValue+0x2c4>
    957c:	30005926 	beq	r6,zero,96e4 <GetElapsedValue+0x2c4>
    9580:	24c00524 	muli	r19,r4,20
    9584:	00c00174 	movhi	r3,5
    9588:	18c79804 	addi	r3,r3,7776
    958c:	28800017 	ldw	r2,0(r5)
    9590:	98e7883a 	add	r19,r19,r3
    9594:	98c00217 	ldw	r3,8(r19)
    9598:	18c00017 	ldw	r3,0(r3)
    959c:	1880132e 	bgeu	r3,r2,95ec <GetElapsedValue+0x1cc>
    95a0:	00c00204 	movi	r3,8
    95a4:	1805883a 	mov	r2,r3
    95a8:	003fb206 	br	9474 <GetElapsedValue+0x54>
    95ac:	01400074 	movhi	r5,1
    95b0:	29426504 	addi	r5,r5,2452
    95b4:	00c00074 	movhi	r3,1
    95b8:	18c33204 	addi	r3,r3,3272
    95bc:	19400015 	stw	r5,0(r3)
    95c0:	010006c4 	movi	r4,27
    95c4:	014035c4 	movi	r5,215
    95c8:	00c00074 	movhi	r3,1
    95cc:	18c33104 	addi	r3,r3,3268
    95d0:	19400015 	stw	r5,0(r3)
    95d4:	000b7c00 	call	b7c0 <internal_shutdownos>
    95d8:	d8800017 	ldw	r2,0(sp)
    95dc:	003fcc06 	br	9510 <GetElapsedValue+0xf0>
    95e0:	00c00304 	movi	r3,12
    95e4:	1805883a 	mov	r2,r3
    95e8:	003fa206 	br	9474 <GetElapsedValue+0x54>
    95ec:	04000074 	movhi	r16,1
    95f0:	84032a04 	addi	r16,r16,3240
    95f4:	80800003 	ldbu	r2,0(r16)
    95f8:	10803fcc 	andi	r2,r2,255
    95fc:	10000c1e 	bne	r2,zero,9630 <GetElapsedValue+0x210>
    9600:	0005303a 	rdctl	r2,status
    9604:	00c00074 	movhi	r3,1
    9608:	18c30404 	addi	r3,r3,3088
    960c:	18c00017 	ldw	r3,0(r3)
    9610:	013f03c4 	movi	r4,-1009
    9614:	1108703a 	and	r4,r2,r4
    9618:	20c6b03a 	or	r3,r4,r3
    961c:	1801703a 	wrctl	status,r3
    9620:	00c00074 	movhi	r3,1
    9624:	18c32904 	addi	r3,r3,3236
    9628:	1080fc0c 	andi	r2,r2,1008
    962c:	18800015 	stw	r2,0(r3)
    9630:	80800003 	ldbu	r2,0(r16)
    9634:	10800044 	addi	r2,r2,1
    9638:	80800005 	stb	r2,0(r16)
    963c:	00800074 	movhi	r2,1
    9640:	10831004 	addi	r2,r2,3136
    9644:	10800017 	ldw	r2,0(r2)
    9648:	38801e36 	bltu	r7,r2,96c4 <GetElapsedValue+0x2a4>
    964c:	9d000317 	ldw	r20,12(r19)
    9650:	80800003 	ldbu	r2,0(r16)
    9654:	10803fcc 	andi	r2,r2,255
    9658:	10002926 	beq	r2,zero,9700 <GetElapsedValue+0x2e0>
    965c:	80800003 	ldbu	r2,0(r16)
    9660:	10bfffc4 	addi	r2,r2,-1
    9664:	80800005 	stb	r2,0(r16)
    9668:	80800003 	ldbu	r2,0(r16)
    966c:	10803fcc 	andi	r2,r2,255
    9670:	1000081e 	bne	r2,zero,9694 <GetElapsedValue+0x274>
    9674:	0005303a 	rdctl	r2,status
    9678:	00c00074 	movhi	r3,1
    967c:	18c32904 	addi	r3,r3,3236
    9680:	18c00017 	ldw	r3,0(r3)
    9684:	013f03c4 	movi	r4,-1009
    9688:	1104703a 	and	r2,r2,r4
    968c:	10c4b03a 	or	r2,r2,r3
    9690:	1001703a 	wrctl	status,r2
    9694:	98800217 	ldw	r2,8(r19)
    9698:	10c00017 	ldw	r3,0(r2)
    969c:	1d00022e 	bgeu	r3,r20,96a8 <GetElapsedValue+0x288>
    96a0:	00c4303a 	nor	r2,zero,r3
    96a4:	a0a9883a 	add	r20,r20,r2
    96a8:	88800017 	ldw	r2,0(r17)
    96ac:	a0801036 	bltu	r20,r2,96f0 <GetElapsedValue+0x2d0>
    96b0:	a085c83a 	sub	r2,r20,r2
    96b4:	90800015 	stw	r2,0(r18)
    96b8:	8d000015 	stw	r20,0(r17)
    96bc:	0005883a 	mov	r2,zero
    96c0:	003fa106 	br	9548 <GetElapsedValue+0x128>
    96c4:	39c00b24 	muli	r7,r7,44
    96c8:	00800074 	movhi	r2,1
    96cc:	10821304 	addi	r2,r2,2124
    96d0:	3885883a 	add	r2,r7,r2
    96d4:	10800017 	ldw	r2,0(r2)
    96d8:	103ee83a 	callr	r2
    96dc:	1029883a 	mov	r20,r2
    96e0:	003fdb06 	br	9650 <GetElapsedValue+0x230>
    96e4:	00c00684 	movi	r3,26
    96e8:	1805883a 	mov	r2,r3
    96ec:	003f6106 	br	9474 <GetElapsedValue+0x54>
    96f0:	18c00044 	addi	r3,r3,1
    96f4:	1885c83a 	sub	r2,r3,r2
    96f8:	1505883a 	add	r2,r2,r20
    96fc:	003fed06 	br	96b4 <GetElapsedValue+0x294>
    9700:	00c00074 	movhi	r3,1
    9704:	18c26504 	addi	r3,r3,2452
    9708:	00800074 	movhi	r2,1
    970c:	10833204 	addi	r2,r2,3272
    9710:	10c00015 	stw	r3,0(r2)
    9714:	010006c4 	movi	r4,27
    9718:	00c035c4 	movi	r3,215
    971c:	00800074 	movhi	r2,1
    9720:	10833104 	addi	r2,r2,3268
    9724:	10c00015 	stw	r3,0(r2)
    9728:	000b7c00 	call	b7c0 <internal_shutdownos>
    972c:	003fcb06 	br	965c <GetElapsedValue+0x23c>
    9730:	0001883a 	nop
    9734:	0001883a 	nop
    9738:	0001883a 	nop
    973c:	0001883a 	nop

00009740 <notify_hardware_counter>:
    9740:	defffc04 	addi	sp,sp,-16
    9744:	dc000015 	stw	r16,0(sp)
    9748:	04000074 	movhi	r16,1
    974c:	84032a04 	addi	r16,r16,3240
    9750:	80800003 	ldbu	r2,0(r16)
    9754:	dc800215 	stw	r18,8(sp)
    9758:	24800524 	muli	r18,r4,20
    975c:	dc400115 	stw	r17,4(sp)
    9760:	00c00174 	movhi	r3,5
    9764:	18c79804 	addi	r3,r3,7776
    9768:	dfc00315 	stw	ra,12(sp)
    976c:	10803fcc 	andi	r2,r2,255
    9770:	2023883a 	mov	r17,r4
    9774:	90e5883a 	add	r18,r18,r3
    9778:	10000c1e 	bne	r2,zero,97ac <notify_hardware_counter+0x6c>
    977c:	0005303a 	rdctl	r2,status
    9780:	01000074 	movhi	r4,1
    9784:	21030404 	addi	r4,r4,3088
    9788:	21000017 	ldw	r4,0(r4)
    978c:	00ff03c4 	movi	r3,-1009
    9790:	10c6703a 	and	r3,r2,r3
    9794:	1906b03a 	or	r3,r3,r4
    9798:	1801703a 	wrctl	status,r3
    979c:	00c00074 	movhi	r3,1
    97a0:	18c32904 	addi	r3,r3,3236
    97a4:	1080fc0c 	andi	r2,r2,1008
    97a8:	18800015 	stw	r2,0(r3)
    97ac:	80800003 	ldbu	r2,0(r16)
    97b0:	10800044 	addi	r2,r2,1
    97b4:	80800005 	stb	r2,0(r16)
    97b8:	88c00b24 	muli	r3,r17,44
    97bc:	00800074 	movhi	r2,1
    97c0:	10821604 	addi	r2,r2,2136
    97c4:	1885883a 	add	r2,r3,r2
    97c8:	10800017 	ldw	r2,0(r2)
    97cc:	103ee83a 	callr	r2
    97d0:	9009883a 	mov	r4,r18
    97d4:	880b883a 	mov	r5,r17
    97d8:	000a0800 	call	a080 <expire_process>
    97dc:	80800003 	ldbu	r2,0(r16)
    97e0:	10803fcc 	andi	r2,r2,255
    97e4:	10001426 	beq	r2,zero,9838 <notify_hardware_counter+0xf8>
    97e8:	80800003 	ldbu	r2,0(r16)
    97ec:	10bfffc4 	addi	r2,r2,-1
    97f0:	80800005 	stb	r2,0(r16)
    97f4:	80800003 	ldbu	r2,0(r16)
    97f8:	10803fcc 	andi	r2,r2,255
    97fc:	1000081e 	bne	r2,zero,9820 <notify_hardware_counter+0xe0>
    9800:	0005303a 	rdctl	r2,status
    9804:	00c00074 	movhi	r3,1
    9808:	18c32904 	addi	r3,r3,3236
    980c:	18c00017 	ldw	r3,0(r3)
    9810:	013f03c4 	movi	r4,-1009
    9814:	1104703a 	and	r2,r2,r4
    9818:	10c4b03a 	or	r2,r2,r3
    981c:	1001703a 	wrctl	status,r2
    9820:	dfc00317 	ldw	ra,12(sp)
    9824:	dc800217 	ldw	r18,8(sp)
    9828:	dc400117 	ldw	r17,4(sp)
    982c:	dc000017 	ldw	r16,0(sp)
    9830:	dec00404 	addi	sp,sp,16
    9834:	f800283a 	ret
    9838:	00c00074 	movhi	r3,1
    983c:	18c26504 	addi	r3,r3,2452
    9840:	00800074 	movhi	r2,1
    9844:	10833204 	addi	r2,r2,3272
    9848:	10c00015 	stw	r3,0(r2)
    984c:	010006c4 	movi	r4,27
    9850:	00c035c4 	movi	r3,215
    9854:	00800074 	movhi	r2,1
    9858:	10833104 	addi	r2,r2,3268
    985c:	10c00015 	stw	r3,0(r2)
    9860:	000b7c00 	call	b7c0 <internal_shutdownos>
    9864:	003fe006 	br	97e8 <notify_hardware_counter+0xa8>
    9868:	0001883a 	nop
    986c:	0001883a 	nop
    9870:	0001883a 	nop
    9874:	0001883a 	nop
    9878:	0001883a 	nop
    987c:	0001883a 	nop

00009880 <incr_counter_action>:
    9880:	defffe04 	addi	sp,sp,-8
    9884:	dc000015 	stw	r16,0(sp)
    9888:	24000524 	muli	r16,r4,20
    988c:	00c00174 	movhi	r3,5
    9890:	18c79804 	addi	r3,r3,7776
    9894:	dfc00115 	stw	ra,4(sp)
    9898:	80e1883a 	add	r16,r16,r3
    989c:	80c00403 	ldbu	r3,16(r16)
    98a0:	2005883a 	mov	r2,r4
    98a4:	1800111e 	bne	r3,zero,98ec <incr_counter_action+0x6c>
    98a8:	81000217 	ldw	r4,8(r16)
    98ac:	00c00044 	movi	r3,1
    98b0:	80c00405 	stb	r3,16(r16)
    98b4:	21000117 	ldw	r4,4(r4)
    98b8:	80c00317 	ldw	r3,12(r16)
    98bc:	19001826 	beq	r3,r4,9920 <incr_counter_action+0xa0>
    98c0:	18c00044 	addi	r3,r3,1
    98c4:	100b883a 	mov	r5,r2
    98c8:	8009883a 	mov	r4,r16
    98cc:	80c00315 	stw	r3,12(r16)
    98d0:	000a0800 	call	a080 <expire_process>
    98d4:	0005883a 	mov	r2,zero
    98d8:	80000405 	stb	zero,16(r16)
    98dc:	dfc00117 	ldw	ra,4(sp)
    98e0:	dc000017 	ldw	r16,0(sp)
    98e4:	dec00204 	addi	sp,sp,8
    98e8:	f800283a 	ret
    98ec:	00c00074 	movhi	r3,1
    98f0:	18c33b04 	addi	r3,r3,3308
    98f4:	01000074 	movhi	r4,1
    98f8:	212d7004 	addi	r4,r4,-19008
    98fc:	014001c4 	movi	r5,7
    9900:	018003c4 	movi	r6,15
    9904:	18800015 	stw	r2,0(r3)
    9908:	00085600 	call	8560 <stack_change_and_call_func_1>
    990c:	008001c4 	movi	r2,7
    9910:	dfc00117 	ldw	ra,4(sp)
    9914:	dc000017 	ldw	r16,0(sp)
    9918:	dec00204 	addi	sp,sp,8
    991c:	f800283a 	ret
    9920:	0007883a 	mov	r3,zero
    9924:	003fe706 	br	98c4 <incr_counter_action+0x44>
    9928:	0001883a 	nop
    992c:	0001883a 	nop
    9930:	0001883a 	nop
    9934:	0001883a 	nop
    9938:	0001883a 	nop
    993c:	0001883a 	nop

00009940 <IncrementCounter>:
    9940:	00800074 	movhi	r2,1
    9944:	10833504 	addi	r2,r2,3284
    9948:	1140000b 	ldhu	r5,0(r2)
    994c:	defffd04 	addi	sp,sp,-12
    9950:	dfc00215 	stw	ra,8(sp)
    9954:	dc000115 	stw	r16,4(sp)
    9958:	289c000c 	andi	r2,r5,28672
    995c:	2007883a 	mov	r3,r4
    9960:	1000671e 	bne	r2,zero,9b00 <IncrementCounter+0x1c0>
    9964:	294000d4 	ori	r5,r5,3
    9968:	297fffcc 	andi	r5,r5,65535
    996c:	008000c4 	movi	r2,3
    9970:	28803426 	beq	r5,r2,9a44 <IncrementCounter+0x104>
    9974:	01400084 	movi	r5,2
    9978:	2805883a 	mov	r2,r5
    997c:	04000074 	movhi	r16,1
    9980:	84032a04 	addi	r16,r16,3240
    9984:	81000003 	ldbu	r4,0(r16)
    9988:	21003fcc 	andi	r4,r4,255
    998c:	20000c1e 	bne	r4,zero,99c0 <IncrementCounter+0x80>
    9990:	0009303a 	rdctl	r4,status
    9994:	01c00074 	movhi	r7,1
    9998:	39c30404 	addi	r7,r7,3088
    999c:	39c00017 	ldw	r7,0(r7)
    99a0:	01bf03c4 	movi	r6,-1009
    99a4:	218c703a 	and	r6,r4,r6
    99a8:	31ccb03a 	or	r6,r6,r7
    99ac:	3001703a 	wrctl	status,r6
    99b0:	01800074 	movhi	r6,1
    99b4:	31832904 	addi	r6,r6,3236
    99b8:	2100fc0c 	andi	r4,r4,1008
    99bc:	31000015 	stw	r4,0(r6)
    99c0:	81000003 	ldbu	r4,0(r16)
    99c4:	21000044 	addi	r4,r4,1
    99c8:	81000005 	stb	r4,0(r16)
    99cc:	01c00074 	movhi	r7,1
    99d0:	39c33b04 	addi	r7,r7,3308
    99d4:	38c00015 	stw	r3,0(r7)
    99d8:	01000074 	movhi	r4,1
    99dc:	212d7004 	addi	r4,r4,-19008
    99e0:	018003c4 	movi	r6,15
    99e4:	d8800015 	stw	r2,0(sp)
    99e8:	00085600 	call	8560 <stack_change_and_call_func_1>
    99ec:	d8800017 	ldw	r2,0(sp)
    99f0:	80c00003 	ldbu	r3,0(r16)
    99f4:	18c03fcc 	andi	r3,r3,255
    99f8:	18003326 	beq	r3,zero,9ac8 <IncrementCounter+0x188>
    99fc:	80c00003 	ldbu	r3,0(r16)
    9a00:	18ffffc4 	addi	r3,r3,-1
    9a04:	80c00005 	stb	r3,0(r16)
    9a08:	80c00003 	ldbu	r3,0(r16)
    9a0c:	18c03fcc 	andi	r3,r3,255
    9a10:	1800081e 	bne	r3,zero,9a34 <IncrementCounter+0xf4>
    9a14:	0007303a 	rdctl	r3,status
    9a18:	01000074 	movhi	r4,1
    9a1c:	21032904 	addi	r4,r4,3236
    9a20:	21000017 	ldw	r4,0(r4)
    9a24:	017f03c4 	movi	r5,-1009
    9a28:	1946703a 	and	r3,r3,r5
    9a2c:	1906b03a 	or	r3,r3,r4
    9a30:	1801703a 	wrctl	status,r3
    9a34:	dfc00217 	ldw	ra,8(sp)
    9a38:	dc000117 	ldw	r16,4(sp)
    9a3c:	dec00304 	addi	sp,sp,12
    9a40:	f800283a 	ret
    9a44:	00800074 	movhi	r2,1
    9a48:	10831104 	addi	r2,r2,3140
    9a4c:	10800017 	ldw	r2,0(r2)
    9a50:	20801b2e 	bgeu	r4,r2,9ac0 <IncrementCounter+0x180>
    9a54:	00800074 	movhi	r2,1
    9a58:	10831004 	addi	r2,r2,3136
    9a5c:	10800017 	ldw	r2,0(r2)
    9a60:	20801736 	bltu	r4,r2,9ac0 <IncrementCounter+0x180>
    9a64:	04000074 	movhi	r16,1
    9a68:	84032a04 	addi	r16,r16,3240
    9a6c:	80800003 	ldbu	r2,0(r16)
    9a70:	10803fcc 	andi	r2,r2,255
    9a74:	10000c1e 	bne	r2,zero,9aa8 <IncrementCounter+0x168>
    9a78:	0005303a 	rdctl	r2,status
    9a7c:	01000074 	movhi	r4,1
    9a80:	21030404 	addi	r4,r4,3088
    9a84:	21000017 	ldw	r4,0(r4)
    9a88:	017f03c4 	movi	r5,-1009
    9a8c:	114a703a 	and	r5,r2,r5
    9a90:	2908b03a 	or	r4,r5,r4
    9a94:	2001703a 	wrctl	status,r4
    9a98:	01000074 	movhi	r4,1
    9a9c:	21032904 	addi	r4,r4,3236
    9aa0:	1080fc0c 	andi	r2,r2,1008
    9aa4:	20800015 	stw	r2,0(r4)
    9aa8:	80800003 	ldbu	r2,0(r16)
    9aac:	10800044 	addi	r2,r2,1
    9ab0:	80800005 	stb	r2,0(r16)
    9ab4:	1809883a 	mov	r4,r3
    9ab8:	00098800 	call	9880 <incr_counter_action>
    9abc:	003fcc06 	br	99f0 <IncrementCounter+0xb0>
    9ac0:	2805883a 	mov	r2,r5
    9ac4:	003fad06 	br	997c <IncrementCounter+0x3c>
    9ac8:	01400074 	movhi	r5,1
    9acc:	29426504 	addi	r5,r5,2452
    9ad0:	00c00074 	movhi	r3,1
    9ad4:	18c33204 	addi	r3,r3,3272
    9ad8:	19400015 	stw	r5,0(r3)
    9adc:	014035c4 	movi	r5,215
    9ae0:	00c00074 	movhi	r3,1
    9ae4:	18c33104 	addi	r3,r3,3268
    9ae8:	19400015 	stw	r5,0(r3)
    9aec:	010006c4 	movi	r4,27
    9af0:	d8800015 	stw	r2,0(sp)
    9af4:	000b7c00 	call	b7c0 <internal_shutdownos>
    9af8:	d8800017 	ldw	r2,0(sp)
    9afc:	003fbf06 	br	99fc <IncrementCounter+0xbc>
    9b00:	01400304 	movi	r5,12
    9b04:	2805883a 	mov	r2,r5
    9b08:	003f9c06 	br	997c <IncrementCounter+0x3c>
	...

00009b20 <insert_cnt_expr_que>:
    9b20:	defff904 	addi	sp,sp,-28
    9b24:	dc000115 	stw	r16,4(sp)
    9b28:	29800317 	ldw	r6,12(r5)
    9b2c:	24000217 	ldw	r16,8(r4)
    9b30:	dfc00615 	stw	ra,24(sp)
    9b34:	dd000515 	stw	r20,20(sp)
    9b38:	dcc00415 	stw	r19,16(sp)
    9b3c:	dc800315 	stw	r18,12(sp)
    9b40:	dc400215 	stw	r17,8(sp)
    9b44:	28800017 	ldw	r2,0(r5)
    9b48:	34001d2e 	bgeu	r6,r16,9bc0 <insert_cnt_expr_que+0xa0>
    9b4c:	1140251e 	bne	r2,r5,9be4 <insert_cnt_expr_que+0xc4>
    9b50:	11800117 	ldw	r6,4(r2)
    9b54:	00c00174 	movhi	r3,5
    9b58:	18c79804 	addi	r3,r3,7776
    9b5c:	28c7c83a 	sub	r3,r5,r3
    9b60:	1807d0ba 	srai	r3,r3,2
    9b64:	21800115 	stw	r6,4(r4)
    9b68:	11800117 	ldw	r6,4(r2)
    9b6c:	20800015 	stw	r2,0(r4)
    9b70:	01f33374 	movhi	r7,52429
    9b74:	39f33344 	addi	r7,r7,-13107
    9b78:	11000115 	stw	r4,4(r2)
    9b7c:	00800074 	movhi	r2,1
    9b80:	10831004 	addi	r2,r2,3136
    9b84:	19c7383a 	mul	r3,r3,r7
    9b88:	10800017 	ldw	r2,0(r2)
    9b8c:	31000015 	stw	r4,0(r6)
    9b90:	1880022e 	bgeu	r3,r2,9b9c <insert_cnt_expr_que+0x7c>
    9b94:	28800017 	ldw	r2,0(r5)
    9b98:	20801526 	beq	r4,r2,9bf0 <insert_cnt_expr_que+0xd0>
    9b9c:	dfc00617 	ldw	ra,24(sp)
    9ba0:	dd000517 	ldw	r20,20(sp)
    9ba4:	dcc00417 	ldw	r19,16(sp)
    9ba8:	dc800317 	ldw	r18,12(sp)
    9bac:	dc400217 	ldw	r17,8(sp)
    9bb0:	dc000117 	ldw	r16,4(sp)
    9bb4:	dec00704 	addi	sp,sp,28
    9bb8:	f800283a 	ret
    9bbc:	10800017 	ldw	r2,0(r2)
    9bc0:	117fe326 	beq	r2,r5,9b50 <insert_cnt_expr_que+0x30>
    9bc4:	10c00217 	ldw	r3,8(r2)
    9bc8:	19bffc2e 	bgeu	r3,r6,9bbc <insert_cnt_expr_que+0x9c>
    9bcc:	80ffe036 	bltu	r16,r3,9b50 <insert_cnt_expr_que+0x30>
    9bd0:	10800017 	ldw	r2,0(r2)
    9bd4:	003ffa06 	br	9bc0 <insert_cnt_expr_que+0xa0>
    9bd8:	80ffdd36 	bltu	r16,r3,9b50 <insert_cnt_expr_que+0x30>
    9bdc:	10800017 	ldw	r2,0(r2)
    9be0:	117fdb26 	beq	r2,r5,9b50 <insert_cnt_expr_que+0x30>
    9be4:	10c00217 	ldw	r3,8(r2)
    9be8:	19bffb2e 	bgeu	r3,r6,9bd8 <insert_cnt_expr_que+0xb8>
    9bec:	003fd806 	br	9b50 <insert_cnt_expr_que+0x30>
    9bf0:	1c800b24 	muli	r18,r3,44
    9bf4:	04c00074 	movhi	r19,1
    9bf8:	9cc20f04 	addi	r19,r19,2108
    9bfc:	d9400015 	stw	r5,0(sp)
    9c00:	9ca3883a 	add	r17,r19,r18
    9c04:	8d000517 	ldw	r20,20(r17)
    9c08:	a03ee83a 	callr	r20
    9c0c:	88800317 	ldw	r2,12(r17)
    9c10:	8009883a 	mov	r4,r16
    9c14:	103ee83a 	callr	r2
    9c18:	d9400017 	ldw	r5,0(sp)
    9c1c:	00c00044 	movi	r3,1
    9c20:	88800417 	ldw	r2,16(r17)
    9c24:	28c00445 	stb	r3,17(r5)
    9c28:	d9400015 	stw	r5,0(sp)
    9c2c:	103ee83a 	callr	r2
    9c30:	d9400017 	ldw	r5,0(sp)
    9c34:	29000217 	ldw	r4,8(r5)
    9c38:	20c00117 	ldw	r3,4(r4)
    9c3c:	1400102e 	bgeu	r2,r16,9c80 <insert_cnt_expr_que+0x160>
    9c40:	18c00044 	addi	r3,r3,1
    9c44:	1c21c83a 	sub	r16,r3,r16
    9c48:	8085883a 	add	r2,r16,r2
    9c4c:	20c00017 	ldw	r3,0(r4)
    9c50:	18bfd236 	bltu	r3,r2,9b9c <insert_cnt_expr_que+0x7c>
    9c54:	a03ee83a 	callr	r20
    9c58:	9ca5883a 	add	r18,r19,r18
    9c5c:	90800617 	ldw	r2,24(r18)
    9c60:	dfc00617 	ldw	ra,24(sp)
    9c64:	dd000517 	ldw	r20,20(sp)
    9c68:	dcc00417 	ldw	r19,16(sp)
    9c6c:	dc800317 	ldw	r18,12(sp)
    9c70:	dc400217 	ldw	r17,8(sp)
    9c74:	dc000117 	ldw	r16,4(sp)
    9c78:	dec00704 	addi	sp,sp,28
    9c7c:	1000683a 	jmp	r2
    9c80:	1405c83a 	sub	r2,r2,r16
    9c84:	003ff106 	br	9c4c <insert_cnt_expr_que+0x12c>
    9c88:	0001883a 	nop
    9c8c:	0001883a 	nop
    9c90:	0001883a 	nop
    9c94:	0001883a 	nop
    9c98:	0001883a 	nop
    9c9c:	0001883a 	nop

00009ca0 <delete_cnt_expr_que>:
    9ca0:	20800117 	ldw	r2,4(r4)
    9ca4:	21800017 	ldw	r6,0(r4)
    9ca8:	defffa04 	addi	sp,sp,-24
    9cac:	dc000015 	stw	r16,0(sp)
    9cb0:	dfc00515 	stw	ra,20(sp)
    9cb4:	dd000415 	stw	r20,16(sp)
    9cb8:	dcc00315 	stw	r19,12(sp)
    9cbc:	dc800215 	stw	r18,8(sp)
    9cc0:	dc400115 	stw	r17,4(sp)
    9cc4:	29c00017 	ldw	r7,0(r5)
    9cc8:	00c00174 	movhi	r3,5
    9ccc:	18c79804 	addi	r3,r3,7776
    9cd0:	11800015 	stw	r6,0(r2)
    9cd4:	28c7c83a 	sub	r3,r5,r3
    9cd8:	2821883a 	mov	r16,r5
    9cdc:	21400017 	ldw	r5,0(r4)
    9ce0:	1807d0ba 	srai	r3,r3,2
    9ce4:	01b33374 	movhi	r6,52429
    9ce8:	31b33344 	addi	r6,r6,-13107
    9cec:	28800115 	stw	r2,4(r5)
    9cf0:	00800074 	movhi	r2,1
    9cf4:	10831004 	addi	r2,r2,3136
    9cf8:	1987383a 	mul	r3,r3,r6
    9cfc:	10800017 	ldw	r2,0(r2)
    9d00:	21000115 	stw	r4,4(r4)
    9d04:	21000015 	stw	r4,0(r4)
    9d08:	1880282e 	bgeu	r3,r2,9dac <delete_cnt_expr_que+0x10c>
    9d0c:	80800017 	ldw	r2,0(r16)
    9d10:	11c02626 	beq	r2,r7,9dac <delete_cnt_expr_que+0x10c>
    9d14:	1c800b24 	muli	r18,r3,44
    9d18:	04c00074 	movhi	r19,1
    9d1c:	9cc20f04 	addi	r19,r19,2108
    9d20:	9ca3883a 	add	r17,r19,r18
    9d24:	8d000517 	ldw	r20,20(r17)
    9d28:	a03ee83a 	callr	r20
    9d2c:	88800817 	ldw	r2,32(r17)
    9d30:	103ee83a 	callr	r2
    9d34:	80800017 	ldw	r2,0(r16)
    9d38:	80801c26 	beq	r16,r2,9dac <delete_cnt_expr_que+0x10c>
    9d3c:	11000217 	ldw	r4,8(r2)
    9d40:	88800317 	ldw	r2,12(r17)
    9d44:	103ee83a 	callr	r2
    9d48:	88800417 	ldw	r2,16(r17)
    9d4c:	00c00044 	movi	r3,1
    9d50:	80c00445 	stb	r3,17(r16)
    9d54:	103ee83a 	callr	r2
    9d58:	80c00017 	ldw	r3,0(r16)
    9d5c:	81000217 	ldw	r4,8(r16)
    9d60:	19400217 	ldw	r5,8(r3)
    9d64:	20c00117 	ldw	r3,4(r4)
    9d68:	1140182e 	bgeu	r2,r5,9dcc <delete_cnt_expr_que+0x12c>
    9d6c:	18c00044 	addi	r3,r3,1
    9d70:	194bc83a 	sub	r5,r3,r5
    9d74:	2885883a 	add	r2,r5,r2
    9d78:	20c00017 	ldw	r3,0(r4)
    9d7c:	18800b36 	bltu	r3,r2,9dac <delete_cnt_expr_que+0x10c>
    9d80:	a03ee83a 	callr	r20
    9d84:	9ca5883a 	add	r18,r19,r18
    9d88:	90800617 	ldw	r2,24(r18)
    9d8c:	dfc00517 	ldw	ra,20(sp)
    9d90:	dd000417 	ldw	r20,16(sp)
    9d94:	dcc00317 	ldw	r19,12(sp)
    9d98:	dc800217 	ldw	r18,8(sp)
    9d9c:	dc400117 	ldw	r17,4(sp)
    9da0:	dc000017 	ldw	r16,0(sp)
    9da4:	dec00604 	addi	sp,sp,24
    9da8:	1000683a 	jmp	r2
    9dac:	dfc00517 	ldw	ra,20(sp)
    9db0:	dd000417 	ldw	r20,16(sp)
    9db4:	dcc00317 	ldw	r19,12(sp)
    9db8:	dc800217 	ldw	r18,8(sp)
    9dbc:	dc400117 	ldw	r17,4(sp)
    9dc0:	dc000017 	ldw	r16,0(sp)
    9dc4:	dec00604 	addi	sp,sp,24
    9dc8:	f800283a 	ret
    9dcc:	1145c83a 	sub	r2,r2,r5
    9dd0:	003fe906 	br	9d78 <delete_cnt_expr_que+0xd8>
    9dd4:	0001883a 	nop
    9dd8:	0001883a 	nop
    9ddc:	0001883a 	nop

00009de0 <counter_initialize>:
    9de0:	00800074 	movhi	r2,1
    9de4:	10831104 	addi	r2,r2,3140
    9de8:	11400017 	ldw	r5,0(r2)
    9dec:	defff904 	addi	sp,sp,-28
    9df0:	dfc00615 	stw	ra,24(sp)
    9df4:	dd400515 	stw	r21,20(sp)
    9df8:	dd000415 	stw	r20,16(sp)
    9dfc:	dcc00315 	stw	r19,12(sp)
    9e00:	dc800215 	stw	r18,8(sp)
    9e04:	dc400115 	stw	r17,4(sp)
    9e08:	dc000015 	stw	r16,0(sp)
    9e0c:	28001026 	beq	r5,zero,9e50 <counter_initialize+0x70>
    9e10:	0007883a 	mov	r3,zero
    9e14:	01c00174 	movhi	r7,5
    9e18:	39c79804 	addi	r7,r7,7776
    9e1c:	01800074 	movhi	r6,1
    9e20:	31821a04 	addi	r6,r6,2152
    9e24:	18800524 	muli	r2,r3,20
    9e28:	1808913a 	slli	r4,r3,4
    9e2c:	18c00044 	addi	r3,r3,1
    9e30:	3885883a 	add	r2,r7,r2
    9e34:	3109883a 	add	r4,r6,r4
    9e38:	11000215 	stw	r4,8(r2)
    9e3c:	10000315 	stw	zero,12(r2)
    9e40:	10800115 	stw	r2,4(r2)
    9e44:	10800015 	stw	r2,0(r2)
    9e48:	10000405 	stb	zero,16(r2)
    9e4c:	197ff51e 	bne	r3,r5,9e24 <counter_initialize+0x44>
    9e50:	00800074 	movhi	r2,1
    9e54:	10831004 	addi	r2,r2,3136
    9e58:	15400017 	ldw	r21,0(r2)
    9e5c:	a8001326 	beq	r21,zero,9eac <counter_initialize+0xcc>
    9e60:	04000074 	movhi	r16,1
    9e64:	84020f04 	addi	r16,r16,2108
    9e68:	04800074 	movhi	r18,1
    9e6c:	94821b04 	addi	r18,r18,2156
    9e70:	84400a04 	addi	r17,r16,40
    9e74:	85000104 	addi	r20,r16,4
    9e78:	0027883a 	mov	r19,zero
    9e7c:	91000017 	ldw	r4,0(r18)
    9e80:	89400017 	ldw	r5,0(r17)
    9e84:	80800017 	ldw	r2,0(r16)
    9e88:	9cc00044 	addi	r19,r19,1
    9e8c:	84000b04 	addi	r16,r16,44
    9e90:	103ee83a 	callr	r2
    9e94:	a0800017 	ldw	r2,0(r20)
    9e98:	94800404 	addi	r18,r18,16
    9e9c:	8c400b04 	addi	r17,r17,44
    9ea0:	103ee83a 	callr	r2
    9ea4:	a5000b04 	addi	r20,r20,44
    9ea8:	9d7ff41e 	bne	r19,r21,9e7c <counter_initialize+0x9c>
    9eac:	dfc00617 	ldw	ra,24(sp)
    9eb0:	dd400517 	ldw	r21,20(sp)
    9eb4:	dd000417 	ldw	r20,16(sp)
    9eb8:	dcc00317 	ldw	r19,12(sp)
    9ebc:	dc800217 	ldw	r18,8(sp)
    9ec0:	dc400117 	ldw	r17,4(sp)
    9ec4:	dc000017 	ldw	r16,0(sp)
    9ec8:	dec00704 	addi	sp,sp,28
    9ecc:	f800283a 	ret
    9ed0:	0001883a 	nop
    9ed4:	0001883a 	nop
    9ed8:	0001883a 	nop
    9edc:	0001883a 	nop

00009ee0 <counter_terminate>:
    9ee0:	defffc04 	addi	sp,sp,-16
    9ee4:	00800074 	movhi	r2,1
    9ee8:	10831004 	addi	r2,r2,3136
    9eec:	dc800215 	stw	r18,8(sp)
    9ef0:	14800017 	ldw	r18,0(r2)
    9ef4:	dfc00315 	stw	ra,12(sp)
    9ef8:	dc400115 	stw	r17,4(sp)
    9efc:	dc000015 	stw	r16,0(sp)
    9f00:	90000826 	beq	r18,zero,9f24 <counter_terminate+0x44>
    9f04:	04400074 	movhi	r17,1
    9f08:	8c421104 	addi	r17,r17,2116
    9f0c:	0021883a 	mov	r16,zero
    9f10:	88800017 	ldw	r2,0(r17)
    9f14:	84000044 	addi	r16,r16,1
    9f18:	8c400b04 	addi	r17,r17,44
    9f1c:	103ee83a 	callr	r2
    9f20:	84bffb1e 	bne	r16,r18,9f10 <counter_terminate+0x30>
    9f24:	dfc00317 	ldw	ra,12(sp)
    9f28:	dc800217 	ldw	r18,8(sp)
    9f2c:	dc400117 	ldw	r17,4(sp)
    9f30:	dc000017 	ldw	r16,0(sp)
    9f34:	dec00404 	addi	sp,sp,16
    9f38:	f800283a 	ret
    9f3c:	0001883a 	nop

00009f40 <get_reltick>:
    9f40:	00800174 	movhi	r2,5
    9f44:	10879804 	addi	r2,r2,7776
    9f48:	2085c83a 	sub	r2,r4,r2
    9f4c:	1005d0ba 	srai	r2,r2,2
    9f50:	00f33374 	movhi	r3,52429
    9f54:	18f33344 	addi	r3,r3,-13107
    9f58:	defffd04 	addi	sp,sp,-12
    9f5c:	10c5383a 	mul	r2,r2,r3
    9f60:	00c00074 	movhi	r3,1
    9f64:	18c31004 	addi	r3,r3,3136
    9f68:	18c00017 	ldw	r3,0(r3)
    9f6c:	dfc00215 	stw	ra,8(sp)
    9f70:	10c00b36 	bltu	r2,r3,9fa0 <get_reltick+0x60>
    9f74:	20800317 	ldw	r2,12(r4)
    9f78:	20c00217 	ldw	r3,8(r4)
    9f7c:	18c00117 	ldw	r3,4(r3)
    9f80:	1889c83a 	sub	r4,r3,r2
    9f84:	2140022e 	bgeu	r4,r5,9f90 <get_reltick+0x50>
    9f88:	00c6303a 	nor	r3,zero,r3
    9f8c:	28cb883a 	add	r5,r5,r3
    9f90:	2885883a 	add	r2,r5,r2
    9f94:	dfc00217 	ldw	ra,8(sp)
    9f98:	dec00304 	addi	sp,sp,12
    9f9c:	f800283a 	ret
    9fa0:	10800b24 	muli	r2,r2,44
    9fa4:	00c00074 	movhi	r3,1
    9fa8:	18c21304 	addi	r3,r3,2124
    9fac:	d9000015 	stw	r4,0(sp)
    9fb0:	10c5883a 	add	r2,r2,r3
    9fb4:	10800017 	ldw	r2,0(r2)
    9fb8:	d9400115 	stw	r5,4(sp)
    9fbc:	103ee83a 	callr	r2
    9fc0:	d9000017 	ldw	r4,0(sp)
    9fc4:	d9400117 	ldw	r5,4(sp)
    9fc8:	003feb06 	br	9f78 <get_reltick+0x38>
    9fcc:	0001883a 	nop
    9fd0:	0001883a 	nop
    9fd4:	0001883a 	nop
    9fd8:	0001883a 	nop
    9fdc:	0001883a 	nop

00009fe0 <get_abstick>:
    9fe0:	00800174 	movhi	r2,5
    9fe4:	10879804 	addi	r2,r2,7776
    9fe8:	2085c83a 	sub	r2,r4,r2
    9fec:	1005d0ba 	srai	r2,r2,2
    9ff0:	00f33374 	movhi	r3,52429
    9ff4:	18f33344 	addi	r3,r3,-13107
    9ff8:	defffd04 	addi	sp,sp,-12
    9ffc:	10c5383a 	mul	r2,r2,r3
    a000:	00c00074 	movhi	r3,1
    a004:	18c31004 	addi	r3,r3,3136
    a008:	18c00017 	ldw	r3,0(r3)
    a00c:	dfc00215 	stw	ra,8(sp)
    a010:	10c00f36 	bltu	r2,r3,a050 <get_abstick+0x70>
    a014:	21800317 	ldw	r6,12(r4)
    a018:	20800217 	ldw	r2,8(r4)
    a01c:	10c00017 	ldw	r3,0(r2)
    a020:	18c00044 	addi	r3,r3,1
    a024:	28c5883a 	add	r2,r5,r3
    a028:	30c0052e 	bgeu	r6,r3,a040 <get_abstick+0x60>
    a02c:	3140012e 	bgeu	r6,r5,a034 <get_abstick+0x54>
    a030:	2805883a 	mov	r2,r5
    a034:	dfc00217 	ldw	ra,8(sp)
    a038:	dec00304 	addi	sp,sp,12
    a03c:	f800283a 	ret
    a040:	30bffb2e 	bgeu	r6,r2,a030 <get_abstick+0x50>
    a044:	dfc00217 	ldw	ra,8(sp)
    a048:	dec00304 	addi	sp,sp,12
    a04c:	f800283a 	ret
    a050:	10800b24 	muli	r2,r2,44
    a054:	00c00074 	movhi	r3,1
    a058:	18c21304 	addi	r3,r3,2124
    a05c:	d9000015 	stw	r4,0(sp)
    a060:	10c5883a 	add	r2,r2,r3
    a064:	10800017 	ldw	r2,0(r2)
    a068:	d9400115 	stw	r5,4(sp)
    a06c:	103ee83a 	callr	r2
    a070:	100d883a 	mov	r6,r2
    a074:	d9000017 	ldw	r4,0(sp)
    a078:	d9400117 	ldw	r5,4(sp)
    a07c:	003fe606 	br	a018 <get_abstick+0x38>

0000a080 <expire_process>:
    a080:	defff504 	addi	sp,sp,-44
    a084:	df000915 	stw	fp,36(sp)
    a088:	07000074 	movhi	fp,1
    a08c:	e7031004 	addi	fp,fp,3136
    a090:	e0800017 	ldw	r2,0(fp)
    a094:	dcc00415 	stw	r19,16(sp)
    a098:	dc400215 	stw	r17,8(sp)
    a09c:	dfc00a15 	stw	ra,40(sp)
    a0a0:	ddc00815 	stw	r23,32(sp)
    a0a4:	dd800715 	stw	r22,28(sp)
    a0a8:	dd400615 	stw	r21,24(sp)
    a0ac:	dd000515 	stw	r20,20(sp)
    a0b0:	dc800315 	stw	r18,12(sp)
    a0b4:	dc000115 	stw	r16,4(sp)
    a0b8:	20000445 	stb	zero,17(r4)
    a0bc:	2023883a 	mov	r17,r4
    a0c0:	2827883a 	mov	r19,r5
    a0c4:	2880a236 	bltu	r5,r2,a350 <expire_process+0x2d0>
    a0c8:	20800317 	ldw	r2,12(r4)
    a0cc:	99000b24 	muli	r4,r19,44
    a0d0:	00c00074 	movhi	r3,1
    a0d4:	18c20f04 	addi	r3,r3,2108
    a0d8:	05400074 	movhi	r21,1
    a0dc:	ad434204 	addi	r21,r21,3336
    a0e0:	1909883a 	add	r4,r3,r4
    a0e4:	d9000015 	stw	r4,0(sp)
    a0e8:	25c00404 	addi	r23,r4,16
    a0ec:	05000074 	movhi	r20,1
    a0f0:	a5034104 	addi	r20,r20,3332
    a0f4:	05800074 	movhi	r22,1
    a0f8:	b5833504 	addi	r22,r22,3284
    a0fc:	04800074 	movhi	r18,1
    a100:	94832a04 	addi	r18,r18,3240
    a104:	8c000017 	ldw	r16,0(r17)
    a108:	8c004f26 	beq	r17,r16,a248 <expire_process+0x1c8>
    a10c:	88c00217 	ldw	r3,8(r17)
    a110:	81000217 	ldw	r4,8(r16)
    a114:	19400117 	ldw	r5,4(r3)
    a118:	11005736 	bltu	r2,r4,a278 <expire_process+0x1f8>
    a11c:	18c00017 	ldw	r3,0(r3)
    a120:	1105c83a 	sub	r2,r2,r4
    a124:	18805936 	bltu	r3,r2,a28c <expire_process+0x20c>
    a128:	80800117 	ldw	r2,4(r16)
    a12c:	81400017 	ldw	r5,0(r16)
    a130:	e0c00017 	ldw	r3,0(fp)
    a134:	11400015 	stw	r5,0(r2)
    a138:	81400017 	ldw	r5,0(r16)
    a13c:	84000015 	stw	r16,0(r16)
    a140:	28800115 	stw	r2,4(r5)
    a144:	84000115 	stw	r16,4(r16)
    a148:	98c00d2e 	bgeu	r19,r3,a180 <expire_process+0x100>
    a14c:	88800017 	ldw	r2,0(r17)
    a150:	89000315 	stw	r4,12(r17)
    a154:	88800a26 	beq	r17,r2,a180 <expire_process+0x100>
    a158:	b8800017 	ldw	r2,0(r23)
    a15c:	103ee83a 	callr	r2
    a160:	89000017 	ldw	r4,0(r17)
    a164:	88c00217 	ldw	r3,8(r17)
    a168:	21000217 	ldw	r4,8(r4)
    a16c:	19400117 	ldw	r5,4(r3)
    a170:	11006a36 	bltu	r2,r4,a31c <expire_process+0x29c>
    a174:	18c00017 	ldw	r3,0(r3)
    a178:	1105c83a 	sub	r2,r2,r4
    a17c:	18806c36 	bltu	r3,r2,a330 <expire_process+0x2b0>
    a180:	80800317 	ldw	r2,12(r16)
    a184:	8009883a 	mov	r4,r16
    a188:	880b883a 	mov	r5,r17
    a18c:	103ee83a 	callr	r2
    a190:	a8c00017 	ldw	r3,0(r21)
    a194:	a0800017 	ldw	r2,0(r20)
    a198:	18800326 	beq	r3,r2,a1a8 <expire_process+0x128>
    a19c:	b0c0000b 	ldhu	r3,0(r22)
    a1a0:	00800044 	movi	r2,1
    a1a4:	18806826 	beq	r3,r2,a348 <expire_process+0x2c8>
    a1a8:	90800003 	ldbu	r2,0(r18)
    a1ac:	10803fcc 	andi	r2,r2,255
    a1b0:	10004b26 	beq	r2,zero,a2e0 <expire_process+0x260>
    a1b4:	90800003 	ldbu	r2,0(r18)
    a1b8:	10bfffc4 	addi	r2,r2,-1
    a1bc:	90800005 	stb	r2,0(r18)
    a1c0:	90800003 	ldbu	r2,0(r18)
    a1c4:	10803fcc 	andi	r2,r2,255
    a1c8:	1000081e 	bne	r2,zero,a1ec <expire_process+0x16c>
    a1cc:	0005303a 	rdctl	r2,status
    a1d0:	00c00074 	movhi	r3,1
    a1d4:	18c32904 	addi	r3,r3,3236
    a1d8:	18c00017 	ldw	r3,0(r3)
    a1dc:	013f03c4 	movi	r4,-1009
    a1e0:	1104703a 	and	r2,r2,r4
    a1e4:	10c4b03a 	or	r2,r2,r3
    a1e8:	1001703a 	wrctl	status,r2
    a1ec:	90800003 	ldbu	r2,0(r18)
    a1f0:	10803fcc 	andi	r2,r2,255
    a1f4:	10000c1e 	bne	r2,zero,a228 <expire_process+0x1a8>
    a1f8:	0005303a 	rdctl	r2,status
    a1fc:	01000074 	movhi	r4,1
    a200:	21030404 	addi	r4,r4,3088
    a204:	21000017 	ldw	r4,0(r4)
    a208:	00ff03c4 	movi	r3,-1009
    a20c:	10c6703a 	and	r3,r2,r3
    a210:	1906b03a 	or	r3,r3,r4
    a214:	1801703a 	wrctl	status,r3
    a218:	00c00074 	movhi	r3,1
    a21c:	18c32904 	addi	r3,r3,3236
    a220:	1080fc0c 	andi	r2,r2,1008
    a224:	18800015 	stw	r2,0(r3)
    a228:	90800003 	ldbu	r2,0(r18)
    a22c:	10800044 	addi	r2,r2,1
    a230:	90800005 	stb	r2,0(r18)
    a234:	e0800017 	ldw	r2,0(fp)
    a238:	98803536 	bltu	r19,r2,a310 <expire_process+0x290>
    a23c:	8c000017 	ldw	r16,0(r17)
    a240:	88800317 	ldw	r2,12(r17)
    a244:	8c3fb11e 	bne	r17,r16,a10c <expire_process+0x8c>
    a248:	dfc00a17 	ldw	ra,40(sp)
    a24c:	df000917 	ldw	fp,36(sp)
    a250:	ddc00817 	ldw	r23,32(sp)
    a254:	dd800717 	ldw	r22,28(sp)
    a258:	dd400617 	ldw	r21,24(sp)
    a25c:	dd000517 	ldw	r20,20(sp)
    a260:	dcc00417 	ldw	r19,16(sp)
    a264:	dc800317 	ldw	r18,12(sp)
    a268:	dc400217 	ldw	r17,8(sp)
    a26c:	dc000117 	ldw	r16,4(sp)
    a270:	dec00b04 	addi	sp,sp,44
    a274:	f800283a 	ret
    a278:	29400044 	addi	r5,r5,1
    a27c:	18c00017 	ldw	r3,0(r3)
    a280:	290bc83a 	sub	r5,r5,r4
    a284:	2885883a 	add	r2,r5,r2
    a288:	18bfa72e 	bgeu	r3,r2,a128 <expire_process+0xa8>
    a28c:	e0800017 	ldw	r2,0(fp)
    a290:	98bfed2e 	bgeu	r19,r2,a248 <expire_process+0x1c8>
    a294:	88800443 	ldbu	r2,17(r17)
    a298:	103feb1e 	bne	r2,zero,a248 <expire_process+0x1c8>
    a29c:	9cc00b24 	muli	r19,r19,44
    a2a0:	00800074 	movhi	r2,1
    a2a4:	10821204 	addi	r2,r2,2120
    a2a8:	98a7883a 	add	r19,r19,r2
    a2ac:	98800017 	ldw	r2,0(r19)
    a2b0:	dfc00a17 	ldw	ra,40(sp)
    a2b4:	df000917 	ldw	fp,36(sp)
    a2b8:	ddc00817 	ldw	r23,32(sp)
    a2bc:	dd800717 	ldw	r22,28(sp)
    a2c0:	dd400617 	ldw	r21,24(sp)
    a2c4:	dd000517 	ldw	r20,20(sp)
    a2c8:	dcc00417 	ldw	r19,16(sp)
    a2cc:	dc800317 	ldw	r18,12(sp)
    a2d0:	dc400217 	ldw	r17,8(sp)
    a2d4:	dc000117 	ldw	r16,4(sp)
    a2d8:	dec00b04 	addi	sp,sp,44
    a2dc:	1000683a 	jmp	r2
    a2e0:	00c00074 	movhi	r3,1
    a2e4:	18c26504 	addi	r3,r3,2452
    a2e8:	00800074 	movhi	r2,1
    a2ec:	10833204 	addi	r2,r2,3272
    a2f0:	10c00015 	stw	r3,0(r2)
    a2f4:	010006c4 	movi	r4,27
    a2f8:	00c035c4 	movi	r3,215
    a2fc:	00800074 	movhi	r2,1
    a300:	10833104 	addi	r2,r2,3268
    a304:	10c00015 	stw	r3,0(r2)
    a308:	000b7c00 	call	b7c0 <internal_shutdownos>
    a30c:	003fa906 	br	a1b4 <expire_process+0x134>
    a310:	b8800017 	ldw	r2,0(r23)
    a314:	103ee83a 	callr	r2
    a318:	003f7a06 	br	a104 <expire_process+0x84>
    a31c:	29400044 	addi	r5,r5,1
    a320:	18c00017 	ldw	r3,0(r3)
    a324:	290bc83a 	sub	r5,r5,r4
    a328:	2885883a 	add	r2,r5,r2
    a32c:	18bf942e 	bgeu	r3,r2,a180 <expire_process+0x100>
    a330:	d8c00017 	ldw	r3,0(sp)
    a334:	18800317 	ldw	r2,12(r3)
    a338:	103ee83a 	callr	r2
    a33c:	00800044 	movi	r2,1
    a340:	88800445 	stb	r2,17(r17)
    a344:	003f8e06 	br	a180 <expire_process+0x100>
    a348:	00004c00 	call	4c0 <dispatch>
    a34c:	003f9606 	br	a1a8 <expire_process+0x128>
    a350:	28800b24 	muli	r2,r5,44
    a354:	00c00074 	movhi	r3,1
    a358:	18c21304 	addi	r3,r3,2124
    a35c:	10c5883a 	add	r2,r2,r3
    a360:	10800017 	ldw	r2,0(r2)
    a364:	103ee83a 	callr	r2
    a368:	003f5806 	br	a0cc <expire_process+0x4c>
	...

0000a380 <alarm_expire>:
    a380:	20800517 	ldw	r2,20(r4)
    a384:	defffe04 	addi	sp,sp,-8
    a388:	dc000015 	stw	r16,0(sp)
    a38c:	dfc00115 	stw	ra,4(sp)
    a390:	2021883a 	mov	r16,r4
    a394:	10000b26 	beq	r2,zero,a3c4 <alarm_expire+0x44>
    a398:	29000217 	ldw	r4,8(r5)
    a39c:	80c00217 	ldw	r3,8(r16)
    a3a0:	21000117 	ldw	r4,4(r4)
    a3a4:	20cdc83a 	sub	r6,r4,r3
    a3a8:	30801e2e 	bgeu	r6,r2,a424 <alarm_expire+0xa4>
    a3ac:	1885883a 	add	r2,r3,r2
    a3b0:	0108303a 	nor	r4,zero,r4
    a3b4:	1105883a 	add	r2,r2,r4
    a3b8:	80800215 	stw	r2,8(r16)
    a3bc:	8009883a 	mov	r4,r16
    a3c0:	0009b200 	call	9b20 <insert_cnt_expr_que>
    a3c4:	80800417 	ldw	r2,16(r16)
    a3c8:	10c00517 	ldw	r3,20(r2)
    a3cc:	18c0010c 	andi	r3,r3,4
    a3d0:	18000526 	beq	r3,zero,a3e8 <alarm_expire+0x68>
    a3d4:	00c00074 	movhi	r3,1
    a3d8:	18c33504 	addi	r3,r3,3284
    a3dc:	1900000b 	ldhu	r4,0(r3)
    a3e0:	21002014 	ori	r4,r4,128
    a3e4:	1900000d 	sth	r4,0(r3)
    a3e8:	10800117 	ldw	r2,4(r2)
    a3ec:	103ee83a 	callr	r2
    a3f0:	80800417 	ldw	r2,16(r16)
    a3f4:	10800517 	ldw	r2,20(r2)
    a3f8:	1080010c 	andi	r2,r2,4
    a3fc:	10000526 	beq	r2,zero,a414 <alarm_expire+0x94>
    a400:	00800074 	movhi	r2,1
    a404:	10833504 	addi	r2,r2,3284
    a408:	10c0000b 	ldhu	r3,0(r2)
    a40c:	18ffdfcc 	andi	r3,r3,65407
    a410:	10c0000d 	sth	r3,0(r2)
    a414:	dfc00117 	ldw	ra,4(sp)
    a418:	dc000017 	ldw	r16,0(sp)
    a41c:	dec00204 	addi	sp,sp,8
    a420:	f800283a 	ret
    a424:	1885883a 	add	r2,r3,r2
    a428:	003fe306 	br	a3b8 <alarm_expire+0x38>
    a42c:	0001883a 	nop
    a430:	0001883a 	nop
    a434:	0001883a 	nop
    a438:	0001883a 	nop
    a43c:	0001883a 	nop

0000a440 <alarm_initialize>:
    a440:	defff804 	addi	sp,sp,-32
    a444:	dd400515 	stw	r21,20(sp)
    a448:	05400074 	movhi	r21,1
    a44c:	ad431204 	addi	r21,r21,3144
    a450:	a8800017 	ldw	r2,0(r21)
    a454:	dfc00715 	stw	ra,28(sp)
    a458:	dd800615 	stw	r22,24(sp)
    a45c:	dd000415 	stw	r20,16(sp)
    a460:	dcc00315 	stw	r19,12(sp)
    a464:	dc800215 	stw	r18,8(sp)
    a468:	dc400115 	stw	r17,4(sp)
    a46c:	dc000015 	stw	r16,0(sp)
    a470:	10002926 	beq	r2,zero,a518 <alarm_initialize+0xd8>
    a474:	0023883a 	mov	r17,zero
    a478:	05000174 	movhi	r20,5
    a47c:	a5078c04 	addi	r20,r20,7728
    a480:	04c00074 	movhi	r19,1
    a484:	9cc20304 	addi	r19,r19,2060
    a488:	04800074 	movhi	r18,1
    a48c:	94a8e004 	addi	r18,r18,-23680
    a490:	05800074 	movhi	r22,1
    a494:	b5833404 	addi	r22,r22,3280
    a498:	00001006 	br	a4dc <alarm_initialize+0x9c>
    a49c:	10c00517 	ldw	r3,20(r2)
    a4a0:	11000017 	ldw	r4,0(r2)
    a4a4:	11400317 	ldw	r5,12(r2)
    a4a8:	18c0040c 	andi	r3,r3,16
    a4ac:	18002426 	beq	r3,zero,a540 <alarm_initialize+0x100>
    a4b0:	0009fe00 	call	9fe0 <get_abstick>
    a4b4:	80800215 	stw	r2,8(r16)
    a4b8:	80800417 	ldw	r2,16(r16)
    a4bc:	8009883a 	mov	r4,r16
    a4c0:	8c400044 	addi	r17,r17,1
    a4c4:	10c00417 	ldw	r3,16(r2)
    a4c8:	11400017 	ldw	r5,0(r2)
    a4cc:	80c00515 	stw	r3,20(r16)
    a4d0:	0009b200 	call	9b20 <insert_cnt_expr_que>
    a4d4:	a8800017 	ldw	r2,0(r21)
    a4d8:	88800f2e 	bgeu	r17,r2,a518 <alarm_initialize+0xd8>
    a4dc:	8c000624 	muli	r16,r17,24
    a4e0:	b0c00017 	ldw	r3,0(r22)
    a4e4:	9c05883a 	add	r2,r19,r16
    a4e8:	11000217 	ldw	r4,8(r2)
    a4ec:	a421883a 	add	r16,r20,r16
    a4f0:	80800415 	stw	r2,16(r16)
    a4f4:	20c6d83a 	srl	r3,r4,r3
    a4f8:	84800315 	stw	r18,12(r16)
    a4fc:	18c0004c 	andi	r3,r3,1
    a500:	183fe61e 	bne	r3,zero,a49c <alarm_initialize+0x5c>
    a504:	a8800017 	ldw	r2,0(r21)
    a508:	84000115 	stw	r16,4(r16)
    a50c:	84000015 	stw	r16,0(r16)
    a510:	8c400044 	addi	r17,r17,1
    a514:	88bff136 	bltu	r17,r2,a4dc <alarm_initialize+0x9c>
    a518:	dfc00717 	ldw	ra,28(sp)
    a51c:	dd800617 	ldw	r22,24(sp)
    a520:	dd400517 	ldw	r21,20(sp)
    a524:	dd000417 	ldw	r20,16(sp)
    a528:	dcc00317 	ldw	r19,12(sp)
    a52c:	dc800217 	ldw	r18,8(sp)
    a530:	dc400117 	ldw	r17,4(sp)
    a534:	dc000017 	ldw	r16,0(sp)
    a538:	dec00804 	addi	sp,sp,32
    a53c:	f800283a 	ret
    a540:	0009f400 	call	9f40 <get_reltick>
    a544:	80800215 	stw	r2,8(r16)
    a548:	003fdb06 	br	a4b8 <alarm_initialize+0x78>
    a54c:	0001883a 	nop
    a550:	0001883a 	nop
    a554:	0001883a 	nop
    a558:	0001883a 	nop
    a55c:	0001883a 	nop

0000a560 <GetAlarmBase>:
    a560:	00800074 	movhi	r2,1
    a564:	10833504 	addi	r2,r2,3284
    a568:	1080000b 	ldhu	r2,0(r2)
    a56c:	defffd04 	addi	sp,sp,-12
    a570:	200f883a 	mov	r7,r4
    a574:	dfc00215 	stw	ra,8(sp)
    a578:	dc000115 	stw	r16,4(sp)
    a57c:	111c000c 	andi	r4,r2,28672
    a580:	2807883a 	mov	r3,r5
    a584:	20005f1e 	bne	r4,zero,a704 <GetAlarmBase+0x1a4>
    a588:	108012d4 	ori	r2,r2,75
    a58c:	10bfffcc 	andi	r2,r2,65535
    a590:	010012c4 	movi	r4,75
    a594:	11003726 	beq	r2,r4,a674 <GetAlarmBase+0x114>
    a598:	01400084 	movi	r5,2
    a59c:	2805883a 	mov	r2,r5
    a5a0:	04000074 	movhi	r16,1
    a5a4:	84032a04 	addi	r16,r16,3240
    a5a8:	81000003 	ldbu	r4,0(r16)
    a5ac:	21003fcc 	andi	r4,r4,255
    a5b0:	20000c1e 	bne	r4,zero,a5e4 <GetAlarmBase+0x84>
    a5b4:	0009303a 	rdctl	r4,status
    a5b8:	02000074 	movhi	r8,1
    a5bc:	42030404 	addi	r8,r8,3088
    a5c0:	42000017 	ldw	r8,0(r8)
    a5c4:	01bf03c4 	movi	r6,-1009
    a5c8:	218c703a 	and	r6,r4,r6
    a5cc:	320cb03a 	or	r6,r6,r8
    a5d0:	3001703a 	wrctl	status,r6
    a5d4:	01800074 	movhi	r6,1
    a5d8:	31832904 	addi	r6,r6,3236
    a5dc:	2100fc0c 	andi	r4,r4,1008
    a5e0:	31000015 	stw	r4,0(r6)
    a5e4:	81000003 	ldbu	r4,0(r16)
    a5e8:	21000044 	addi	r4,r4,1
    a5ec:	81000005 	stb	r4,0(r16)
    a5f0:	02000074 	movhi	r8,1
    a5f4:	42033b04 	addi	r8,r8,3308
    a5f8:	41c00015 	stw	r7,0(r8)
    a5fc:	01c00074 	movhi	r7,1
    a600:	39c33a04 	addi	r7,r7,3304
    a604:	38c00015 	stw	r3,0(r7)
    a608:	01000074 	movhi	r4,1
    a60c:	212d7004 	addi	r4,r4,-19008
    a610:	01803c84 	movi	r6,242
    a614:	d8800015 	stw	r2,0(sp)
    a618:	00085600 	call	8560 <stack_change_and_call_func_1>
    a61c:	80c00003 	ldbu	r3,0(r16)
    a620:	d8800017 	ldw	r2,0(sp)
    a624:	18c03fcc 	andi	r3,r3,255
    a628:	18002926 	beq	r3,zero,a6d0 <GetAlarmBase+0x170>
    a62c:	80c00003 	ldbu	r3,0(r16)
    a630:	18ffffc4 	addi	r3,r3,-1
    a634:	80c00005 	stb	r3,0(r16)
    a638:	80c00003 	ldbu	r3,0(r16)
    a63c:	18c03fcc 	andi	r3,r3,255
    a640:	1800081e 	bne	r3,zero,a664 <GetAlarmBase+0x104>
    a644:	0007303a 	rdctl	r3,status
    a648:	01000074 	movhi	r4,1
    a64c:	21032904 	addi	r4,r4,3236
    a650:	21000017 	ldw	r4,0(r4)
    a654:	017f03c4 	movi	r5,-1009
    a658:	1946703a 	and	r3,r3,r5
    a65c:	1906b03a 	or	r3,r3,r4
    a660:	1801703a 	wrctl	status,r3
    a664:	dfc00217 	ldw	ra,8(sp)
    a668:	dc000117 	ldw	r16,4(sp)
    a66c:	dec00304 	addi	sp,sp,12
    a670:	f800283a 	ret
    a674:	00800074 	movhi	r2,1
    a678:	10831204 	addi	r2,r2,3144
    a67c:	10800017 	ldw	r2,0(r2)
    a680:	3880232e 	bgeu	r7,r2,a710 <GetAlarmBase+0x1b0>
    a684:	28002526 	beq	r5,zero,a71c <GetAlarmBase+0x1bc>
    a688:	39c00624 	muli	r7,r7,24
    a68c:	01000174 	movhi	r4,5
    a690:	21078c04 	addi	r4,r4,7728
    a694:	0005883a 	mov	r2,zero
    a698:	390f883a 	add	r7,r7,r4
    a69c:	39000417 	ldw	r4,16(r7)
    a6a0:	21000017 	ldw	r4,0(r4)
    a6a4:	21000217 	ldw	r4,8(r4)
    a6a8:	21800017 	ldw	r6,0(r4)
    a6ac:	21400217 	ldw	r5,8(r4)
    a6b0:	21000317 	ldw	r4,12(r4)
    a6b4:	19800015 	stw	r6,0(r3)
    a6b8:	19400115 	stw	r5,4(r3)
    a6bc:	19000215 	stw	r4,8(r3)
    a6c0:	dfc00217 	ldw	ra,8(sp)
    a6c4:	dc000117 	ldw	r16,4(sp)
    a6c8:	dec00304 	addi	sp,sp,12
    a6cc:	f800283a 	ret
    a6d0:	01400074 	movhi	r5,1
    a6d4:	29426504 	addi	r5,r5,2452
    a6d8:	00c00074 	movhi	r3,1
    a6dc:	18c33204 	addi	r3,r3,3272
    a6e0:	19400015 	stw	r5,0(r3)
    a6e4:	010006c4 	movi	r4,27
    a6e8:	014035c4 	movi	r5,215
    a6ec:	00c00074 	movhi	r3,1
    a6f0:	18c33104 	addi	r3,r3,3268
    a6f4:	19400015 	stw	r5,0(r3)
    a6f8:	000b7c00 	call	b7c0 <internal_shutdownos>
    a6fc:	d8800017 	ldw	r2,0(sp)
    a700:	003fca06 	br	a62c <GetAlarmBase+0xcc>
    a704:	01400304 	movi	r5,12
    a708:	2805883a 	mov	r2,r5
    a70c:	003fa406 	br	a5a0 <GetAlarmBase+0x40>
    a710:	014000c4 	movi	r5,3
    a714:	2805883a 	mov	r2,r5
    a718:	003fa106 	br	a5a0 <GetAlarmBase+0x40>
    a71c:	01400684 	movi	r5,26
    a720:	2805883a 	mov	r2,r5
    a724:	003f9e06 	br	a5a0 <GetAlarmBase+0x40>
    a728:	0001883a 	nop
    a72c:	0001883a 	nop
    a730:	0001883a 	nop
    a734:	0001883a 	nop
    a738:	0001883a 	nop
    a73c:	0001883a 	nop

0000a740 <GetAlarm>:
    a740:	00800074 	movhi	r2,1
    a744:	10833504 	addi	r2,r2,3284
    a748:	1080000b 	ldhu	r2,0(r2)
    a74c:	defffa04 	addi	sp,sp,-24
    a750:	dc400215 	stw	r17,8(sp)
    a754:	dfc00515 	stw	ra,20(sp)
    a758:	dcc00415 	stw	r19,16(sp)
    a75c:	dc800315 	stw	r18,12(sp)
    a760:	dc000115 	stw	r16,4(sp)
    a764:	10dc000c 	andi	r3,r2,28672
    a768:	200f883a 	mov	r7,r4
    a76c:	2823883a 	mov	r17,r5
    a770:	18003f1e 	bne	r3,zero,a870 <GetAlarm+0x130>
    a774:	108012d4 	ori	r2,r2,75
    a778:	10bfffcc 	andi	r2,r2,65535
    a77c:	00c012c4 	movi	r3,75
    a780:	10c04c26 	beq	r2,r3,a8b4 <GetAlarm+0x174>
    a784:	00c00084 	movi	r3,2
    a788:	1805883a 	mov	r2,r3
    a78c:	04000074 	movhi	r16,1
    a790:	84032a04 	addi	r16,r16,3240
    a794:	81000003 	ldbu	r4,0(r16)
    a798:	21003fcc 	andi	r4,r4,255
    a79c:	20000c1e 	bne	r4,zero,a7d0 <GetAlarm+0x90>
    a7a0:	0009303a 	rdctl	r4,status
    a7a4:	01800074 	movhi	r6,1
    a7a8:	31830404 	addi	r6,r6,3088
    a7ac:	31800017 	ldw	r6,0(r6)
    a7b0:	017f03c4 	movi	r5,-1009
    a7b4:	214a703a 	and	r5,r4,r5
    a7b8:	298ab03a 	or	r5,r5,r6
    a7bc:	2801703a 	wrctl	status,r5
    a7c0:	01400074 	movhi	r5,1
    a7c4:	29432904 	addi	r5,r5,3236
    a7c8:	2100fc0c 	andi	r4,r4,1008
    a7cc:	29000015 	stw	r4,0(r5)
    a7d0:	81000003 	ldbu	r4,0(r16)
    a7d4:	21000044 	addi	r4,r4,1
    a7d8:	81000005 	stb	r4,0(r16)
    a7dc:	180b883a 	mov	r5,r3
    a7e0:	00c00074 	movhi	r3,1
    a7e4:	18c33b04 	addi	r3,r3,3308
    a7e8:	19c00015 	stw	r7,0(r3)
    a7ec:	00c00074 	movhi	r3,1
    a7f0:	18c33a04 	addi	r3,r3,3304
    a7f4:	1c400015 	stw	r17,0(r3)
    a7f8:	01000074 	movhi	r4,1
    a7fc:	212d7004 	addi	r4,r4,-19008
    a800:	01803cc4 	movi	r6,243
    a804:	d8800015 	stw	r2,0(sp)
    a808:	00085600 	call	8560 <stack_change_and_call_func_1>
    a80c:	d8800017 	ldw	r2,0(sp)
    a810:	80c00003 	ldbu	r3,0(r16)
    a814:	18c03fcc 	andi	r3,r3,255
    a818:	18001826 	beq	r3,zero,a87c <GetAlarm+0x13c>
    a81c:	80c00003 	ldbu	r3,0(r16)
    a820:	18ffffc4 	addi	r3,r3,-1
    a824:	80c00005 	stb	r3,0(r16)
    a828:	80c00003 	ldbu	r3,0(r16)
    a82c:	18c03fcc 	andi	r3,r3,255
    a830:	1800081e 	bne	r3,zero,a854 <GetAlarm+0x114>
    a834:	0007303a 	rdctl	r3,status
    a838:	01000074 	movhi	r4,1
    a83c:	21032904 	addi	r4,r4,3236
    a840:	21000017 	ldw	r4,0(r4)
    a844:	017f03c4 	movi	r5,-1009
    a848:	1946703a 	and	r3,r3,r5
    a84c:	1906b03a 	or	r3,r3,r4
    a850:	1801703a 	wrctl	status,r3
    a854:	dfc00517 	ldw	ra,20(sp)
    a858:	dcc00417 	ldw	r19,16(sp)
    a85c:	dc800317 	ldw	r18,12(sp)
    a860:	dc400217 	ldw	r17,8(sp)
    a864:	dc000117 	ldw	r16,4(sp)
    a868:	dec00604 	addi	sp,sp,24
    a86c:	f800283a 	ret
    a870:	00c00304 	movi	r3,12
    a874:	1805883a 	mov	r2,r3
    a878:	003fc406 	br	a78c <GetAlarm+0x4c>
    a87c:	01400074 	movhi	r5,1
    a880:	29426504 	addi	r5,r5,2452
    a884:	00c00074 	movhi	r3,1
    a888:	18c33204 	addi	r3,r3,3272
    a88c:	19400015 	stw	r5,0(r3)
    a890:	014035c4 	movi	r5,215
    a894:	00c00074 	movhi	r3,1
    a898:	18c33104 	addi	r3,r3,3268
    a89c:	19400015 	stw	r5,0(r3)
    a8a0:	010006c4 	movi	r4,27
    a8a4:	d8800015 	stw	r2,0(sp)
    a8a8:	000b7c00 	call	b7c0 <internal_shutdownos>
    a8ac:	d8800017 	ldw	r2,0(sp)
    a8b0:	003fda06 	br	a81c <GetAlarm+0xdc>
    a8b4:	00800074 	movhi	r2,1
    a8b8:	10831204 	addi	r2,r2,3144
    a8bc:	10800017 	ldw	r2,0(r2)
    a8c0:	2080332e 	bgeu	r4,r2,a990 <GetAlarm+0x250>
    a8c4:	28003c26 	beq	r5,zero,a9b8 <GetAlarm+0x278>
    a8c8:	24800624 	muli	r18,r4,24
    a8cc:	00800174 	movhi	r2,5
    a8d0:	10878c04 	addi	r2,r2,7728
    a8d4:	04000074 	movhi	r16,1
    a8d8:	84032a04 	addi	r16,r16,3240
    a8dc:	90a5883a 	add	r18,r18,r2
    a8e0:	80800003 	ldbu	r2,0(r16)
    a8e4:	90c00417 	ldw	r3,16(r18)
    a8e8:	10803fcc 	andi	r2,r2,255
    a8ec:	1cc00017 	ldw	r19,0(r3)
    a8f0:	10000c1e 	bne	r2,zero,a924 <GetAlarm+0x1e4>
    a8f4:	0005303a 	rdctl	r2,status
    a8f8:	00c00074 	movhi	r3,1
    a8fc:	18c30404 	addi	r3,r3,3088
    a900:	18c00017 	ldw	r3,0(r3)
    a904:	013f03c4 	movi	r4,-1009
    a908:	1108703a 	and	r4,r2,r4
    a90c:	20c6b03a 	or	r3,r4,r3
    a910:	1801703a 	wrctl	status,r3
    a914:	00c00074 	movhi	r3,1
    a918:	18c32904 	addi	r3,r3,3236
    a91c:	1080fc0c 	andi	r2,r2,1008
    a920:	18800015 	stw	r2,0(r3)
    a924:	80800003 	ldbu	r2,0(r16)
    a928:	10800044 	addi	r2,r2,1
    a92c:	80800005 	stb	r2,0(r16)
    a930:	90800017 	ldw	r2,0(r18)
    a934:	90802326 	beq	r18,r2,a9c4 <GetAlarm+0x284>
    a938:	00c00174 	movhi	r3,5
    a93c:	18c79804 	addi	r3,r3,7776
    a940:	98c7c83a 	sub	r3,r19,r3
    a944:	1807d0ba 	srai	r3,r3,2
    a948:	00b33374 	movhi	r2,52429
    a94c:	10b33344 	addi	r2,r2,-13107
    a950:	1885383a 	mul	r2,r3,r2
    a954:	00c00074 	movhi	r3,1
    a958:	18c31004 	addi	r3,r3,3136
    a95c:	18c00017 	ldw	r3,0(r3)
    a960:	10c00e36 	bltu	r2,r3,a99c <GetAlarm+0x25c>
    a964:	98800317 	ldw	r2,12(r19)
    a968:	99000217 	ldw	r4,8(r19)
    a96c:	90c00217 	ldw	r3,8(r18)
    a970:	21000117 	ldw	r4,4(r4)
    a974:	1880022e 	bgeu	r3,r2,a980 <GetAlarm+0x240>
    a978:	1907883a 	add	r3,r3,r4
    a97c:	18c00044 	addi	r3,r3,1
    a980:	1885c83a 	sub	r2,r3,r2
    a984:	88800015 	stw	r2,0(r17)
    a988:	0005883a 	mov	r2,zero
    a98c:	003fa006 	br	a810 <GetAlarm+0xd0>
    a990:	00c000c4 	movi	r3,3
    a994:	1805883a 	mov	r2,r3
    a998:	003f7c06 	br	a78c <GetAlarm+0x4c>
    a99c:	10800b24 	muli	r2,r2,44
    a9a0:	00c00074 	movhi	r3,1
    a9a4:	18c21304 	addi	r3,r3,2124
    a9a8:	10c5883a 	add	r2,r2,r3
    a9ac:	10800017 	ldw	r2,0(r2)
    a9b0:	103ee83a 	callr	r2
    a9b4:	003fec06 	br	a968 <GetAlarm+0x228>
    a9b8:	00c00684 	movi	r3,26
    a9bc:	1805883a 	mov	r2,r3
    a9c0:	003f7206 	br	a78c <GetAlarm+0x4c>
    a9c4:	00c00144 	movi	r3,5
    a9c8:	1805883a 	mov	r2,r3
    a9cc:	003f8306 	br	a7dc <GetAlarm+0x9c>
    a9d0:	0001883a 	nop
    a9d4:	0001883a 	nop
    a9d8:	0001883a 	nop
    a9dc:	0001883a 	nop

0000a9e0 <SetRelAlarm>:
    a9e0:	00800074 	movhi	r2,1
    a9e4:	10833504 	addi	r2,r2,3284
    a9e8:	1080000b 	ldhu	r2,0(r2)
    a9ec:	defffb04 	addi	sp,sp,-20
    a9f0:	dc800215 	stw	r18,8(sp)
    a9f4:	2007883a 	mov	r3,r4
    a9f8:	dfc00415 	stw	ra,16(sp)
    a9fc:	dcc00315 	stw	r19,12(sp)
    aa00:	dc400115 	stw	r17,4(sp)
    aa04:	dc000015 	stw	r16,0(sp)
    aa08:	111c000c 	andi	r4,r2,28672
    aa0c:	280f883a 	mov	r7,r5
    aa10:	3025883a 	mov	r18,r6
    aa14:	2000411e 	bne	r4,zero,ab1c <SetRelAlarm+0x13c>
    aa18:	108000d4 	ori	r2,r2,3
    aa1c:	10bfffcc 	andi	r2,r2,65535
    aa20:	010000c4 	movi	r4,3
    aa24:	11004c26 	beq	r2,r4,ab58 <SetRelAlarm+0x178>
    aa28:	00800084 	movi	r2,2
    aa2c:	1023883a 	mov	r17,r2
    aa30:	04000074 	movhi	r16,1
    aa34:	84032a04 	addi	r16,r16,3240
    aa38:	81000003 	ldbu	r4,0(r16)
    aa3c:	21003fcc 	andi	r4,r4,255
    aa40:	20000c1e 	bne	r4,zero,aa74 <SetRelAlarm+0x94>
    aa44:	0009303a 	rdctl	r4,status
    aa48:	01800074 	movhi	r6,1
    aa4c:	31830404 	addi	r6,r6,3088
    aa50:	31800017 	ldw	r6,0(r6)
    aa54:	017f03c4 	movi	r5,-1009
    aa58:	214a703a 	and	r5,r4,r5
    aa5c:	298ab03a 	or	r5,r5,r6
    aa60:	2801703a 	wrctl	status,r5
    aa64:	01400074 	movhi	r5,1
    aa68:	29432904 	addi	r5,r5,3236
    aa6c:	2100fc0c 	andi	r4,r4,1008
    aa70:	29000015 	stw	r4,0(r5)
    aa74:	81000003 	ldbu	r4,0(r16)
    aa78:	21000044 	addi	r4,r4,1
    aa7c:	81000005 	stb	r4,0(r16)
    aa80:	100b883a 	mov	r5,r2
    aa84:	00800074 	movhi	r2,1
    aa88:	10833b04 	addi	r2,r2,3308
    aa8c:	10c00015 	stw	r3,0(r2)
    aa90:	00800074 	movhi	r2,1
    aa94:	10833a04 	addi	r2,r2,3304
    aa98:	11c00015 	stw	r7,0(r2)
    aa9c:	01000074 	movhi	r4,1
    aaa0:	212d7004 	addi	r4,r4,-19008
    aaa4:	00800074 	movhi	r2,1
    aaa8:	10833904 	addi	r2,r2,3300
    aaac:	01803d04 	movi	r6,244
    aab0:	14800015 	stw	r18,0(r2)
    aab4:	00085600 	call	8560 <stack_change_and_call_func_1>
    aab8:	80800003 	ldbu	r2,0(r16)
    aabc:	10803fcc 	andi	r2,r2,255
    aac0:	10001926 	beq	r2,zero,ab28 <SetRelAlarm+0x148>
    aac4:	80800003 	ldbu	r2,0(r16)
    aac8:	10bfffc4 	addi	r2,r2,-1
    aacc:	80800005 	stb	r2,0(r16)
    aad0:	80800003 	ldbu	r2,0(r16)
    aad4:	10803fcc 	andi	r2,r2,255
    aad8:	1000081e 	bne	r2,zero,aafc <SetRelAlarm+0x11c>
    aadc:	0005303a 	rdctl	r2,status
    aae0:	00c00074 	movhi	r3,1
    aae4:	18c32904 	addi	r3,r3,3236
    aae8:	18c00017 	ldw	r3,0(r3)
    aaec:	013f03c4 	movi	r4,-1009
    aaf0:	1104703a 	and	r2,r2,r4
    aaf4:	10c4b03a 	or	r2,r2,r3
    aaf8:	1001703a 	wrctl	status,r2
    aafc:	8805883a 	mov	r2,r17
    ab00:	dfc00417 	ldw	ra,16(sp)
    ab04:	dcc00317 	ldw	r19,12(sp)
    ab08:	dc800217 	ldw	r18,8(sp)
    ab0c:	dc400117 	ldw	r17,4(sp)
    ab10:	dc000017 	ldw	r16,0(sp)
    ab14:	dec00504 	addi	sp,sp,20
    ab18:	f800283a 	ret
    ab1c:	00800304 	movi	r2,12
    ab20:	1023883a 	mov	r17,r2
    ab24:	003fc206 	br	aa30 <SetRelAlarm+0x50>
    ab28:	00c00074 	movhi	r3,1
    ab2c:	18c26504 	addi	r3,r3,2452
    ab30:	00800074 	movhi	r2,1
    ab34:	10833204 	addi	r2,r2,3272
    ab38:	10c00015 	stw	r3,0(r2)
    ab3c:	010006c4 	movi	r4,27
    ab40:	00c035c4 	movi	r3,215
    ab44:	00800074 	movhi	r2,1
    ab48:	10833104 	addi	r2,r2,3268
    ab4c:	10c00015 	stw	r3,0(r2)
    ab50:	000b7c00 	call	b7c0 <internal_shutdownos>
    ab54:	003fdb06 	br	aac4 <SetRelAlarm+0xe4>
    ab58:	01000074 	movhi	r4,1
    ab5c:	21031204 	addi	r4,r4,3144
    ab60:	21000017 	ldw	r4,0(r4)
    ab64:	1900282e 	bgeu	r3,r4,ac08 <SetRelAlarm+0x228>
    ab68:	1c400624 	muli	r17,r3,24
    ab6c:	00800174 	movhi	r2,5
    ab70:	10878c04 	addi	r2,r2,7728
    ab74:	88a3883a 	add	r17,r17,r2
    ab78:	88800417 	ldw	r2,16(r17)
    ab7c:	14c00017 	ldw	r19,0(r2)
    ab80:	98800217 	ldw	r2,8(r19)
    ab84:	11000017 	ldw	r4,0(r2)
    ab88:	28001e26 	beq	r5,zero,ac04 <SetRelAlarm+0x224>
    ab8c:	21401d36 	bltu	r4,r5,ac04 <SetRelAlarm+0x224>
    ab90:	30000326 	beq	r6,zero,aba0 <SetRelAlarm+0x1c0>
    ab94:	10800317 	ldw	r2,12(r2)
    ab98:	30801a36 	bltu	r6,r2,ac04 <SetRelAlarm+0x224>
    ab9c:	21801936 	bltu	r4,r6,ac04 <SetRelAlarm+0x224>
    aba0:	04000074 	movhi	r16,1
    aba4:	84032a04 	addi	r16,r16,3240
    aba8:	80800003 	ldbu	r2,0(r16)
    abac:	10803fcc 	andi	r2,r2,255
    abb0:	10000c1e 	bne	r2,zero,abe4 <SetRelAlarm+0x204>
    abb4:	0005303a 	rdctl	r2,status
    abb8:	01000074 	movhi	r4,1
    abbc:	21030404 	addi	r4,r4,3088
    abc0:	21000017 	ldw	r4,0(r4)
    abc4:	017f03c4 	movi	r5,-1009
    abc8:	114a703a 	and	r5,r2,r5
    abcc:	2908b03a 	or	r4,r5,r4
    abd0:	2001703a 	wrctl	status,r4
    abd4:	01000074 	movhi	r4,1
    abd8:	21032904 	addi	r4,r4,3236
    abdc:	1080fc0c 	andi	r2,r2,1008
    abe0:	20800015 	stw	r2,0(r4)
    abe4:	80800003 	ldbu	r2,0(r16)
    abe8:	10800044 	addi	r2,r2,1
    abec:	80800005 	stb	r2,0(r16)
    abf0:	88800017 	ldw	r2,0(r17)
    abf4:	88800626 	beq	r17,r2,ac10 <SetRelAlarm+0x230>
    abf8:	008001c4 	movi	r2,7
    abfc:	1023883a 	mov	r17,r2
    ac00:	003f9f06 	br	aa80 <SetRelAlarm+0xa0>
    ac04:	00800204 	movi	r2,8
    ac08:	1023883a 	mov	r17,r2
    ac0c:	003f8806 	br	aa30 <SetRelAlarm+0x50>
    ac10:	9809883a 	mov	r4,r19
    ac14:	380b883a 	mov	r5,r7
    ac18:	0009f400 	call	9f40 <get_reltick>
    ac1c:	8809883a 	mov	r4,r17
    ac20:	88800215 	stw	r2,8(r17)
    ac24:	8c800515 	stw	r18,20(r17)
    ac28:	980b883a 	mov	r5,r19
    ac2c:	0023883a 	mov	r17,zero
    ac30:	0009b200 	call	9b20 <insert_cnt_expr_que>
    ac34:	003fa006 	br	aab8 <SetRelAlarm+0xd8>
    ac38:	0001883a 	nop
    ac3c:	0001883a 	nop

0000ac40 <SetAbsAlarm>:
    ac40:	00800074 	movhi	r2,1
    ac44:	10833504 	addi	r2,r2,3284
    ac48:	1080000b 	ldhu	r2,0(r2)
    ac4c:	defffb04 	addi	sp,sp,-20
    ac50:	dc800215 	stw	r18,8(sp)
    ac54:	2007883a 	mov	r3,r4
    ac58:	dfc00415 	stw	ra,16(sp)
    ac5c:	dcc00315 	stw	r19,12(sp)
    ac60:	dc400115 	stw	r17,4(sp)
    ac64:	dc000015 	stw	r16,0(sp)
    ac68:	111c000c 	andi	r4,r2,28672
    ac6c:	280f883a 	mov	r7,r5
    ac70:	3025883a 	mov	r18,r6
    ac74:	2000411e 	bne	r4,zero,ad7c <SetAbsAlarm+0x13c>
    ac78:	108000d4 	ori	r2,r2,3
    ac7c:	10bfffcc 	andi	r2,r2,65535
    ac80:	010000c4 	movi	r4,3
    ac84:	11004c26 	beq	r2,r4,adb8 <SetAbsAlarm+0x178>
    ac88:	00800084 	movi	r2,2
    ac8c:	1023883a 	mov	r17,r2
    ac90:	04000074 	movhi	r16,1
    ac94:	84032a04 	addi	r16,r16,3240
    ac98:	81000003 	ldbu	r4,0(r16)
    ac9c:	21003fcc 	andi	r4,r4,255
    aca0:	20000c1e 	bne	r4,zero,acd4 <SetAbsAlarm+0x94>
    aca4:	0009303a 	rdctl	r4,status
    aca8:	01800074 	movhi	r6,1
    acac:	31830404 	addi	r6,r6,3088
    acb0:	31800017 	ldw	r6,0(r6)
    acb4:	017f03c4 	movi	r5,-1009
    acb8:	214a703a 	and	r5,r4,r5
    acbc:	298ab03a 	or	r5,r5,r6
    acc0:	2801703a 	wrctl	status,r5
    acc4:	01400074 	movhi	r5,1
    acc8:	29432904 	addi	r5,r5,3236
    accc:	2100fc0c 	andi	r4,r4,1008
    acd0:	29000015 	stw	r4,0(r5)
    acd4:	81000003 	ldbu	r4,0(r16)
    acd8:	21000044 	addi	r4,r4,1
    acdc:	81000005 	stb	r4,0(r16)
    ace0:	100b883a 	mov	r5,r2
    ace4:	00800074 	movhi	r2,1
    ace8:	10833b04 	addi	r2,r2,3308
    acec:	10c00015 	stw	r3,0(r2)
    acf0:	00800074 	movhi	r2,1
    acf4:	10833a04 	addi	r2,r2,3304
    acf8:	11c00015 	stw	r7,0(r2)
    acfc:	01000074 	movhi	r4,1
    ad00:	212d7004 	addi	r4,r4,-19008
    ad04:	00800074 	movhi	r2,1
    ad08:	10833904 	addi	r2,r2,3300
    ad0c:	01803d44 	movi	r6,245
    ad10:	14800015 	stw	r18,0(r2)
    ad14:	00085600 	call	8560 <stack_change_and_call_func_1>
    ad18:	80800003 	ldbu	r2,0(r16)
    ad1c:	10803fcc 	andi	r2,r2,255
    ad20:	10001926 	beq	r2,zero,ad88 <SetAbsAlarm+0x148>
    ad24:	80800003 	ldbu	r2,0(r16)
    ad28:	10bfffc4 	addi	r2,r2,-1
    ad2c:	80800005 	stb	r2,0(r16)
    ad30:	80800003 	ldbu	r2,0(r16)
    ad34:	10803fcc 	andi	r2,r2,255
    ad38:	1000081e 	bne	r2,zero,ad5c <SetAbsAlarm+0x11c>
    ad3c:	0005303a 	rdctl	r2,status
    ad40:	00c00074 	movhi	r3,1
    ad44:	18c32904 	addi	r3,r3,3236
    ad48:	18c00017 	ldw	r3,0(r3)
    ad4c:	013f03c4 	movi	r4,-1009
    ad50:	1104703a 	and	r2,r2,r4
    ad54:	10c4b03a 	or	r2,r2,r3
    ad58:	1001703a 	wrctl	status,r2
    ad5c:	8805883a 	mov	r2,r17
    ad60:	dfc00417 	ldw	ra,16(sp)
    ad64:	dcc00317 	ldw	r19,12(sp)
    ad68:	dc800217 	ldw	r18,8(sp)
    ad6c:	dc400117 	ldw	r17,4(sp)
    ad70:	dc000017 	ldw	r16,0(sp)
    ad74:	dec00504 	addi	sp,sp,20
    ad78:	f800283a 	ret
    ad7c:	00800304 	movi	r2,12
    ad80:	1023883a 	mov	r17,r2
    ad84:	003fc206 	br	ac90 <SetAbsAlarm+0x50>
    ad88:	00c00074 	movhi	r3,1
    ad8c:	18c26504 	addi	r3,r3,2452
    ad90:	00800074 	movhi	r2,1
    ad94:	10833204 	addi	r2,r2,3272
    ad98:	10c00015 	stw	r3,0(r2)
    ad9c:	010006c4 	movi	r4,27
    ada0:	00c035c4 	movi	r3,215
    ada4:	00800074 	movhi	r2,1
    ada8:	10833104 	addi	r2,r2,3268
    adac:	10c00015 	stw	r3,0(r2)
    adb0:	000b7c00 	call	b7c0 <internal_shutdownos>
    adb4:	003fdb06 	br	ad24 <SetAbsAlarm+0xe4>
    adb8:	01000074 	movhi	r4,1
    adbc:	21031204 	addi	r4,r4,3144
    adc0:	21000017 	ldw	r4,0(r4)
    adc4:	1900272e 	bgeu	r3,r4,ae64 <SetAbsAlarm+0x224>
    adc8:	1c400624 	muli	r17,r3,24
    adcc:	00800174 	movhi	r2,5
    add0:	10878c04 	addi	r2,r2,7728
    add4:	88a3883a 	add	r17,r17,r2
    add8:	88800417 	ldw	r2,16(r17)
    addc:	14c00017 	ldw	r19,0(r2)
    ade0:	98800217 	ldw	r2,8(r19)
    ade4:	11800017 	ldw	r6,0(r2)
    ade8:	31401d36 	bltu	r6,r5,ae60 <SetAbsAlarm+0x220>
    adec:	90000326 	beq	r18,zero,adfc <SetAbsAlarm+0x1bc>
    adf0:	10800317 	ldw	r2,12(r2)
    adf4:	90801a36 	bltu	r18,r2,ae60 <SetAbsAlarm+0x220>
    adf8:	34801936 	bltu	r6,r18,ae60 <SetAbsAlarm+0x220>
    adfc:	04000074 	movhi	r16,1
    ae00:	84032a04 	addi	r16,r16,3240
    ae04:	80800003 	ldbu	r2,0(r16)
    ae08:	10803fcc 	andi	r2,r2,255
    ae0c:	10000c1e 	bne	r2,zero,ae40 <SetAbsAlarm+0x200>
    ae10:	0005303a 	rdctl	r2,status
    ae14:	01000074 	movhi	r4,1
    ae18:	21030404 	addi	r4,r4,3088
    ae1c:	21000017 	ldw	r4,0(r4)
    ae20:	017f03c4 	movi	r5,-1009
    ae24:	114a703a 	and	r5,r2,r5
    ae28:	2908b03a 	or	r4,r5,r4
    ae2c:	2001703a 	wrctl	status,r4
    ae30:	01000074 	movhi	r4,1
    ae34:	21032904 	addi	r4,r4,3236
    ae38:	1080fc0c 	andi	r2,r2,1008
    ae3c:	20800015 	stw	r2,0(r4)
    ae40:	80800003 	ldbu	r2,0(r16)
    ae44:	10800044 	addi	r2,r2,1
    ae48:	80800005 	stb	r2,0(r16)
    ae4c:	88800017 	ldw	r2,0(r17)
    ae50:	88800626 	beq	r17,r2,ae6c <SetAbsAlarm+0x22c>
    ae54:	008001c4 	movi	r2,7
    ae58:	1023883a 	mov	r17,r2
    ae5c:	003fa006 	br	ace0 <SetAbsAlarm+0xa0>
    ae60:	00800204 	movi	r2,8
    ae64:	1023883a 	mov	r17,r2
    ae68:	003f8906 	br	ac90 <SetAbsAlarm+0x50>
    ae6c:	9809883a 	mov	r4,r19
    ae70:	380b883a 	mov	r5,r7
    ae74:	0009fe00 	call	9fe0 <get_abstick>
    ae78:	8809883a 	mov	r4,r17
    ae7c:	88800215 	stw	r2,8(r17)
    ae80:	8c800515 	stw	r18,20(r17)
    ae84:	980b883a 	mov	r5,r19
    ae88:	0023883a 	mov	r17,zero
    ae8c:	0009b200 	call	9b20 <insert_cnt_expr_que>
    ae90:	003fa106 	br	ad18 <SetAbsAlarm+0xd8>
    ae94:	0001883a 	nop
    ae98:	0001883a 	nop
    ae9c:	0001883a 	nop

0000aea0 <CancelAlarm>:
    aea0:	00800074 	movhi	r2,1
    aea4:	10833504 	addi	r2,r2,3284
    aea8:	1140000b 	ldhu	r5,0(r2)
    aeac:	defffd04 	addi	sp,sp,-12
    aeb0:	dfc00215 	stw	ra,8(sp)
    aeb4:	dc400115 	stw	r17,4(sp)
    aeb8:	dc000015 	stw	r16,0(sp)
    aebc:	28dc000c 	andi	r3,r5,28672
    aec0:	2005883a 	mov	r2,r4
    aec4:	1800381e 	bne	r3,zero,afa8 <CancelAlarm+0x108>
    aec8:	294000d4 	ori	r5,r5,3
    aecc:	297fffcc 	andi	r5,r5,65535
    aed0:	00c000c4 	movi	r3,3
    aed4:	28c04326 	beq	r5,r3,afe4 <CancelAlarm+0x144>
    aed8:	01400084 	movi	r5,2
    aedc:	2823883a 	mov	r17,r5
    aee0:	04000074 	movhi	r16,1
    aee4:	84032a04 	addi	r16,r16,3240
    aee8:	80c00003 	ldbu	r3,0(r16)
    aeec:	18c03fcc 	andi	r3,r3,255
    aef0:	18000c1e 	bne	r3,zero,af24 <CancelAlarm+0x84>
    aef4:	0007303a 	rdctl	r3,status
    aef8:	01800074 	movhi	r6,1
    aefc:	31830404 	addi	r6,r6,3088
    af00:	31800017 	ldw	r6,0(r6)
    af04:	013f03c4 	movi	r4,-1009
    af08:	1908703a 	and	r4,r3,r4
    af0c:	2188b03a 	or	r4,r4,r6
    af10:	2001703a 	wrctl	status,r4
    af14:	01000074 	movhi	r4,1
    af18:	21032904 	addi	r4,r4,3236
    af1c:	18c0fc0c 	andi	r3,r3,1008
    af20:	20c00015 	stw	r3,0(r4)
    af24:	80c00003 	ldbu	r3,0(r16)
    af28:	18c00044 	addi	r3,r3,1
    af2c:	80c00005 	stb	r3,0(r16)
    af30:	00c00074 	movhi	r3,1
    af34:	18c33b04 	addi	r3,r3,3308
    af38:	01000074 	movhi	r4,1
    af3c:	212d7004 	addi	r4,r4,-19008
    af40:	01803d84 	movi	r6,246
    af44:	18800015 	stw	r2,0(r3)
    af48:	00085600 	call	8560 <stack_change_and_call_func_1>
    af4c:	80800003 	ldbu	r2,0(r16)
    af50:	10803fcc 	andi	r2,r2,255
    af54:	10001726 	beq	r2,zero,afb4 <CancelAlarm+0x114>
    af58:	80800003 	ldbu	r2,0(r16)
    af5c:	10bfffc4 	addi	r2,r2,-1
    af60:	80800005 	stb	r2,0(r16)
    af64:	80800003 	ldbu	r2,0(r16)
    af68:	10803fcc 	andi	r2,r2,255
    af6c:	1000081e 	bne	r2,zero,af90 <CancelAlarm+0xf0>
    af70:	0005303a 	rdctl	r2,status
    af74:	00c00074 	movhi	r3,1
    af78:	18c32904 	addi	r3,r3,3236
    af7c:	18c00017 	ldw	r3,0(r3)
    af80:	013f03c4 	movi	r4,-1009
    af84:	1104703a 	and	r2,r2,r4
    af88:	10c4b03a 	or	r2,r2,r3
    af8c:	1001703a 	wrctl	status,r2
    af90:	8805883a 	mov	r2,r17
    af94:	dfc00217 	ldw	ra,8(sp)
    af98:	dc400117 	ldw	r17,4(sp)
    af9c:	dc000017 	ldw	r16,0(sp)
    afa0:	dec00304 	addi	sp,sp,12
    afa4:	f800283a 	ret
    afa8:	01400304 	movi	r5,12
    afac:	2823883a 	mov	r17,r5
    afb0:	003fcb06 	br	aee0 <CancelAlarm+0x40>
    afb4:	00c00074 	movhi	r3,1
    afb8:	18c26504 	addi	r3,r3,2452
    afbc:	00800074 	movhi	r2,1
    afc0:	10833204 	addi	r2,r2,3272
    afc4:	10c00015 	stw	r3,0(r2)
    afc8:	010006c4 	movi	r4,27
    afcc:	00c035c4 	movi	r3,215
    afd0:	00800074 	movhi	r2,1
    afd4:	10833104 	addi	r2,r2,3268
    afd8:	10c00015 	stw	r3,0(r2)
    afdc:	000b7c00 	call	b7c0 <internal_shutdownos>
    afe0:	003fdd06 	br	af58 <CancelAlarm+0xb8>
    afe4:	00c00074 	movhi	r3,1
    afe8:	18c31204 	addi	r3,r3,3144
    afec:	18c00017 	ldw	r3,0(r3)
    aff0:	20c00236 	bltu	r4,r3,affc <CancelAlarm+0x15c>
    aff4:	2823883a 	mov	r17,r5
    aff8:	003fb906 	br	aee0 <CancelAlarm+0x40>
    affc:	04000074 	movhi	r16,1
    b000:	84032a04 	addi	r16,r16,3240
    b004:	80c00003 	ldbu	r3,0(r16)
    b008:	21000624 	muli	r4,r4,24
    b00c:	01400174 	movhi	r5,5
    b010:	29478c04 	addi	r5,r5,7728
    b014:	18c03fcc 	andi	r3,r3,255
    b018:	2149883a 	add	r4,r4,r5
    b01c:	18000c1e 	bne	r3,zero,b050 <CancelAlarm+0x1b0>
    b020:	0007303a 	rdctl	r3,status
    b024:	01400074 	movhi	r5,1
    b028:	29430404 	addi	r5,r5,3088
    b02c:	29400017 	ldw	r5,0(r5)
    b030:	01bf03c4 	movi	r6,-1009
    b034:	198c703a 	and	r6,r3,r6
    b038:	314ab03a 	or	r5,r6,r5
    b03c:	2801703a 	wrctl	status,r5
    b040:	01400074 	movhi	r5,1
    b044:	29432904 	addi	r5,r5,3236
    b048:	18c0fc0c 	andi	r3,r3,1008
    b04c:	28c00015 	stw	r3,0(r5)
    b050:	80c00003 	ldbu	r3,0(r16)
    b054:	18c00044 	addi	r3,r3,1
    b058:	80c00005 	stb	r3,0(r16)
    b05c:	20c00017 	ldw	r3,0(r4)
    b060:	20c00526 	beq	r4,r3,b078 <CancelAlarm+0x1d8>
    b064:	20800417 	ldw	r2,16(r4)
    b068:	0023883a 	mov	r17,zero
    b06c:	11400017 	ldw	r5,0(r2)
    b070:	0009ca00 	call	9ca0 <delete_cnt_expr_que>
    b074:	003fb506 	br	af4c <CancelAlarm+0xac>
    b078:	01400144 	movi	r5,5
    b07c:	2823883a 	mov	r17,r5
    b080:	003fab06 	br	af30 <CancelAlarm+0x90>
	...

0000b0a0 <x_nested_lock_os_int>:
    b0a0:	00800074 	movhi	r2,1
    b0a4:	10832a04 	addi	r2,r2,3240
    b0a8:	10c00003 	ldbu	r3,0(r2)
    b0ac:	18c03fcc 	andi	r3,r3,255
    b0b0:	18000c1e 	bne	r3,zero,b0e4 <x_nested_lock_os_int+0x44>
    b0b4:	0007303a 	rdctl	r3,status
    b0b8:	01400074 	movhi	r5,1
    b0bc:	29430404 	addi	r5,r5,3088
    b0c0:	29400017 	ldw	r5,0(r5)
    b0c4:	013f03c4 	movi	r4,-1009
    b0c8:	1908703a 	and	r4,r3,r4
    b0cc:	2148b03a 	or	r4,r4,r5
    b0d0:	2001703a 	wrctl	status,r4
    b0d4:	01000074 	movhi	r4,1
    b0d8:	21032904 	addi	r4,r4,3236
    b0dc:	18c0fc0c 	andi	r3,r3,1008
    b0e0:	20c00015 	stw	r3,0(r4)
    b0e4:	10c00003 	ldbu	r3,0(r2)
    b0e8:	18c00044 	addi	r3,r3,1
    b0ec:	10c00005 	stb	r3,0(r2)
    b0f0:	f800283a 	ret
    b0f4:	0001883a 	nop
    b0f8:	0001883a 	nop
    b0fc:	0001883a 	nop

0000b100 <StartOS>:
    b100:	d0a03e03 	ldbu	r2,-32520(gp)
    b104:	defffc04 	addi	sp,sp,-16
    b108:	dc400215 	stw	r17,8(sp)
    b10c:	dfc00315 	stw	ra,12(sp)
    b110:	dc000115 	stw	r16,4(sp)
    b114:	2023883a 	mov	r17,r4
    b118:	10003a26 	beq	r2,zero,b204 <StartOS+0x104>
    b11c:	04000074 	movhi	r16,1
    b120:	84032a04 	addi	r16,r16,3240
    b124:	80800003 	ldbu	r2,0(r16)
    b128:	10803fcc 	andi	r2,r2,255
    b12c:	10000c1e 	bne	r2,zero,b160 <StartOS+0x60>
    b130:	0005303a 	rdctl	r2,status
    b134:	01000074 	movhi	r4,1
    b138:	21030404 	addi	r4,r4,3088
    b13c:	21000017 	ldw	r4,0(r4)
    b140:	00ff03c4 	movi	r3,-1009
    b144:	10c6703a 	and	r3,r2,r3
    b148:	1906b03a 	or	r3,r3,r4
    b14c:	1801703a 	wrctl	status,r3
    b150:	00c00074 	movhi	r3,1
    b154:	18c32904 	addi	r3,r3,3236
    b158:	1080fc0c 	andi	r2,r2,1008
    b15c:	18800015 	stw	r2,0(r3)
    b160:	80800003 	ldbu	r2,0(r16)
    b164:	10800044 	addi	r2,r2,1
    b168:	80800005 	stb	r2,0(r16)
    b16c:	00800074 	movhi	r2,1
    b170:	10833b04 	addi	r2,r2,3308
    b174:	01000074 	movhi	r4,1
    b178:	212d7004 	addi	r4,r4,-19008
    b17c:	01400044 	movi	r5,1
    b180:	01803e04 	movi	r6,248
    b184:	14400015 	stw	r17,0(r2)
    b188:	00085600 	call	8560 <stack_change_and_call_func_1>
    b18c:	80800003 	ldbu	r2,0(r16)
    b190:	10803fcc 	andi	r2,r2,255
    b194:	10001326 	beq	r2,zero,b1e4 <StartOS+0xe4>
    b198:	80800003 	ldbu	r2,0(r16)
    b19c:	10bfffc4 	addi	r2,r2,-1
    b1a0:	80800005 	stb	r2,0(r16)
    b1a4:	80800003 	ldbu	r2,0(r16)
    b1a8:	10803fcc 	andi	r2,r2,255
    b1ac:	1000081e 	bne	r2,zero,b1d0 <StartOS+0xd0>
    b1b0:	0005303a 	rdctl	r2,status
    b1b4:	00c00074 	movhi	r3,1
    b1b8:	18c32904 	addi	r3,r3,3236
    b1bc:	18c00017 	ldw	r3,0(r3)
    b1c0:	013f03c4 	movi	r4,-1009
    b1c4:	1104703a 	and	r2,r2,r4
    b1c8:	10c4b03a 	or	r2,r2,r3
    b1cc:	1001703a 	wrctl	status,r2
    b1d0:	dfc00317 	ldw	ra,12(sp)
    b1d4:	dc400217 	ldw	r17,8(sp)
    b1d8:	dc000117 	ldw	r16,4(sp)
    b1dc:	dec00404 	addi	sp,sp,16
    b1e0:	f800283a 	ret
    b1e4:	00800074 	movhi	r2,1
    b1e8:	10826504 	addi	r2,r2,2452
    b1ec:	010006c4 	movi	r4,27
    b1f0:	d0a03d15 	stw	r2,-32524(gp)
    b1f4:	008035c4 	movi	r2,215
    b1f8:	d0a03c15 	stw	r2,-32528(gp)
    b1fc:	000b7c00 	call	b7c0 <internal_shutdownos>
    b200:	003fe506 	br	b198 <StartOS+0x98>
    b204:	0007303a 	rdctl	r3,status
    b208:	00bfff84 	movi	r2,-2
    b20c:	1884703a 	and	r2,r3,r2
    b210:	1001703a 	wrctl	status,r2
    b214:	000b7600 	call	b760 <init_stack_magic_region>
    b218:	d4603f15 	stw	r17,-32516(gp)
    b21c:	00086800 	call	8680 <target_initialize>
    b220:	00083600 	call	8360 <object_initialize>
    b224:	00800044 	movi	r2,1
    b228:	d0a03e05 	stb	r2,-32520(gp)
    b22c:	00800074 	movhi	r2,1
    b230:	10830b04 	addi	r2,r2,3116
    b234:	10800017 	ldw	r2,0(r2)
    b238:	d020400d 	sth	zero,-32512(gp)
    b23c:	8880352e 	bgeu	r17,r2,b314 <StartOS+0x214>
    b240:	000b0a00 	call	b0a0 <x_nested_lock_os_int>
    b244:	0005303a 	rdctl	r2,status
    b248:	10800054 	ori	r2,r2,1
    b24c:	1001703a 	wrctl	status,r2
    b250:	00800034 	movhi	r2,0
    b254:	109af804 	addi	r2,r2,27616
    b258:	d8800015 	stw	r2,0(sp)
    b25c:	d8800017 	ldw	r2,0(sp)
    b260:	10000926 	beq	r2,zero,b288 <StartOS+0x188>
    b264:	d0a0400b 	ldhu	r2,-32512(gp)
    b268:	10800414 	ori	r2,r2,16
    b26c:	d0a0400d 	sth	r2,-32512(gp)
    b270:	0006be00 	call	6be0 <StartupHook>
    b274:	d0a0400b 	ldhu	r2,-32512(gp)
    b278:	01002c44 	movi	r4,177
    b27c:	10bffbcc 	andi	r2,r2,65519
    b280:	d0a0400d 	sth	r2,-32512(gp)
    b284:	000e1200 	call	e120 <release_interrupts>
    b288:	0007303a 	rdctl	r3,status
    b28c:	00bfff84 	movi	r2,-2
    b290:	1884703a 	and	r2,r3,r2
    b294:	1001703a 	wrctl	status,r2
    b298:	04000074 	movhi	r16,1
    b29c:	84032a04 	addi	r16,r16,3240
    b2a0:	80800003 	ldbu	r2,0(r16)
    b2a4:	10803fcc 	andi	r2,r2,255
    b2a8:	10001226 	beq	r2,zero,b2f4 <StartOS+0x1f4>
    b2ac:	80800003 	ldbu	r2,0(r16)
    b2b0:	10bfffc4 	addi	r2,r2,-1
    b2b4:	80800005 	stb	r2,0(r16)
    b2b8:	80800003 	ldbu	r2,0(r16)
    b2bc:	10803fcc 	andi	r2,r2,255
    b2c0:	1000081e 	bne	r2,zero,b2e4 <StartOS+0x1e4>
    b2c4:	0009303a 	rdctl	r4,status
    b2c8:	00800074 	movhi	r2,1
    b2cc:	10832904 	addi	r2,r2,3236
    b2d0:	10800017 	ldw	r2,0(r2)
    b2d4:	00ff03c4 	movi	r3,-1009
    b2d8:	20c6703a 	and	r3,r4,r3
    b2dc:	1884b03a 	or	r2,r3,r2
    b2e0:	1001703a 	wrctl	status,r2
    b2e4:	d0a0400b 	ldhu	r2,-32512(gp)
    b2e8:	10800054 	ori	r2,r2,1
    b2ec:	d0a0400d 	sth	r2,-32512(gp)
    b2f0:	00005600 	call	560 <start_dispatch>
    b2f4:	00800074 	movhi	r2,1
    b2f8:	10826504 	addi	r2,r2,2452
    b2fc:	010006c4 	movi	r4,27
    b300:	d0a03d15 	stw	r2,-32524(gp)
    b304:	008035c4 	movi	r2,215
    b308:	d0a03c15 	stw	r2,-32528(gp)
    b30c:	000b7c00 	call	b7c0 <internal_shutdownos>
    b310:	003fe606 	br	b2ac <StartOS+0x1ac>
    b314:	000b0a00 	call	b0a0 <x_nested_lock_os_int>
    b318:	0005303a 	rdctl	r2,status
    b31c:	10800054 	ori	r2,r2,1
    b320:	1001703a 	wrctl	status,r2
    b324:	01000604 	movi	r4,24
    b328:	000b7c00 	call	b7c0 <internal_shutdownos>
    b32c:	003fc406 	br	b240 <StartOS+0x140>
    b330:	0001883a 	nop
    b334:	0001883a 	nop
    b338:	0001883a 	nop
    b33c:	0001883a 	nop

0000b340 <GetActiveApplicationMode>:
    b340:	d0a0400b 	ldhu	r2,-32512(gp)
    b344:	defffe04 	addi	sp,sp,-8
    b348:	dfc00115 	stw	ra,4(sp)
    b34c:	dc000015 	stw	r16,0(sp)
    b350:	10dc000c 	andi	r3,r2,28672
    b354:	1800331e 	bne	r3,zero,b424 <GetActiveApplicationMode+0xe4>
    b358:	10801ed4 	ori	r2,r2,123
    b35c:	10bfffcc 	andi	r2,r2,65535
    b360:	00c01ec4 	movi	r3,123
    b364:	10c03926 	beq	r2,r3,b44c <GetActiveApplicationMode+0x10c>
    b368:	01400084 	movi	r5,2
    b36c:	04000074 	movhi	r16,1
    b370:	84032a04 	addi	r16,r16,3240
    b374:	80800003 	ldbu	r2,0(r16)
    b378:	10803fcc 	andi	r2,r2,255
    b37c:	10000c1e 	bne	r2,zero,b3b0 <GetActiveApplicationMode+0x70>
    b380:	0005303a 	rdctl	r2,status
    b384:	01000074 	movhi	r4,1
    b388:	21030404 	addi	r4,r4,3088
    b38c:	21000017 	ldw	r4,0(r4)
    b390:	00ff03c4 	movi	r3,-1009
    b394:	10c6703a 	and	r3,r2,r3
    b398:	1906b03a 	or	r3,r3,r4
    b39c:	1801703a 	wrctl	status,r3
    b3a0:	00c00074 	movhi	r3,1
    b3a4:	18c32904 	addi	r3,r3,3236
    b3a8:	1080fc0c 	andi	r2,r2,1008
    b3ac:	18800015 	stw	r2,0(r3)
    b3b0:	80800003 	ldbu	r2,0(r16)
    b3b4:	10800044 	addi	r2,r2,1
    b3b8:	80800005 	stb	r2,0(r16)
    b3bc:	01000074 	movhi	r4,1
    b3c0:	212d7004 	addi	r4,r4,-19008
    b3c4:	01803dc4 	movi	r6,247
    b3c8:	00085600 	call	8560 <stack_change_and_call_func_1>
    b3cc:	80800003 	ldbu	r2,0(r16)
    b3d0:	10803fcc 	andi	r2,r2,255
    b3d4:	10001526 	beq	r2,zero,b42c <GetActiveApplicationMode+0xec>
    b3d8:	80800003 	ldbu	r2,0(r16)
    b3dc:	10bfffc4 	addi	r2,r2,-1
    b3e0:	80800005 	stb	r2,0(r16)
    b3e4:	80800003 	ldbu	r2,0(r16)
    b3e8:	10803fcc 	andi	r2,r2,255
    b3ec:	1000081e 	bne	r2,zero,b410 <GetActiveApplicationMode+0xd0>
    b3f0:	0005303a 	rdctl	r2,status
    b3f4:	00c00074 	movhi	r3,1
    b3f8:	18c32904 	addi	r3,r3,3236
    b3fc:	18c00017 	ldw	r3,0(r3)
    b400:	013f03c4 	movi	r4,-1009
    b404:	1104703a 	and	r2,r2,r4
    b408:	10c4b03a 	or	r2,r2,r3
    b40c:	1001703a 	wrctl	status,r2
    b410:	00bfffc4 	movi	r2,-1
    b414:	dfc00117 	ldw	ra,4(sp)
    b418:	dc000017 	ldw	r16,0(sp)
    b41c:	dec00204 	addi	sp,sp,8
    b420:	f800283a 	ret
    b424:	01400304 	movi	r5,12
    b428:	003fd006 	br	b36c <GetActiveApplicationMode+0x2c>
    b42c:	00800074 	movhi	r2,1
    b430:	10826504 	addi	r2,r2,2452
    b434:	010006c4 	movi	r4,27
    b438:	d0a03d15 	stw	r2,-32524(gp)
    b43c:	008035c4 	movi	r2,215
    b440:	d0a03c15 	stw	r2,-32528(gp)
    b444:	000b7c00 	call	b7c0 <internal_shutdownos>
    b448:	003fe306 	br	b3d8 <GetActiveApplicationMode+0x98>
    b44c:	d0a03f17 	ldw	r2,-32516(gp)
    b450:	003ff006 	br	b414 <GetActiveApplicationMode+0xd4>
    b454:	0001883a 	nop
    b458:	0001883a 	nop
    b45c:	0001883a 	nop

0000b460 <ShutdownOS>:
    b460:	d0e0400b 	ldhu	r3,-32512(gp)
    b464:	008014c4 	movi	r2,83
    b468:	18c3eb0c 	andi	r3,r3,4012
    b46c:	18c014d4 	ori	r3,r3,83
    b470:	18800226 	beq	r3,r2,b47c <ShutdownOS+0x1c>
    b474:	01000644 	movi	r4,25
    b478:	000b7c01 	jmpi	b7c0 <internal_shutdownos>
    b47c:	21003fcc 	andi	r4,r4,255
    b480:	008006c4 	movi	r2,27
    b484:	113ffc2e 	bgeu	r2,r4,b478 <ShutdownOS+0x18>
    b488:	01000644 	movi	r4,25
    b48c:	003ffa06 	br	b478 <ShutdownOS+0x18>
    b490:	0001883a 	nop
    b494:	0001883a 	nop
    b498:	0001883a 	nop
    b49c:	0001883a 	nop

0000b4a0 <GetFaultyContext>:
    b4a0:	d0a0400b 	ldhu	r2,-32512(gp)
    b4a4:	10c0010c 	andi	r3,r2,4
    b4a8:	18ffffcc 	andi	r3,r3,65535
    b4ac:	18000a26 	beq	r3,zero,b4d8 <GetFaultyContext+0x38>
    b4b0:	10ffffcc 	andi	r3,r2,65535
    b4b4:	18e0001c 	xori	r3,r3,32768
    b4b8:	18e00004 	addi	r3,r3,-32768
    b4bc:	18000616 	blt	r3,zero,b4d8 <GetFaultyContext+0x38>
    b4c0:	10c01e0c 	andi	r3,r2,120
    b4c4:	18000626 	beq	r3,zero,b4e0 <GetFaultyContext+0x40>
    b4c8:	008000c4 	movi	r2,3
    b4cc:	f800283a 	ret
    b4d0:	10c0004c 	andi	r3,r2,1
    b4d4:	18000a1e 	bne	r3,zero,b500 <GetFaultyContext+0x60>
    b4d8:	0005883a 	mov	r2,zero
    b4dc:	f800283a 	ret
    b4e0:	10c0008c 	andi	r3,r2,2
    b4e4:	18ffffcc 	andi	r3,r3,65535
    b4e8:	183ff926 	beq	r3,zero,b4d0 <GetFaultyContext+0x30>
    b4ec:	1080200c 	andi	r2,r2,128
    b4f0:	10bfffcc 	andi	r2,r2,65535
    b4f4:	1005003a 	cmpeq	r2,r2,zero
    b4f8:	1004907a 	slli	r2,r2,1
    b4fc:	f800283a 	ret
    b500:	10bfffcc 	andi	r2,r2,65535
    b504:	1004d1fa 	srli	r2,r2,7
    b508:	1080005c 	xori	r2,r2,1
    b50c:	1080004c 	andi	r2,r2,1
    b510:	f800283a 	ret
	...

0000b520 <internal_call_shtdwnhk>:
    b520:	defffd04 	addi	sp,sp,-12
    b524:	dc000115 	stw	r16,4(sp)
    b528:	04000074 	movhi	r16,1
    b52c:	84033504 	addi	r16,r16,3284
    b530:	8080000b 	ldhu	r2,0(r16)
    b534:	dfc00215 	stw	ra,8(sp)
    b538:	10c0080c 	andi	r3,r2,32
    b53c:	18ffffcc 	andi	r3,r3,65535
    b540:	1800141e 	bne	r3,zero,b594 <internal_call_shtdwnhk+0x74>
    b544:	00c00034 	movhi	r3,0
    b548:	18db1804 	addi	r3,r3,27744
    b54c:	d8c00015 	stw	r3,0(sp)
    b550:	d8c00017 	ldw	r3,0(sp)
    b554:	18000f26 	beq	r3,zero,b594 <internal_call_shtdwnhk+0x74>
    b558:	00c00074 	movhi	r3,1
    b55c:	18c33d84 	addi	r3,r3,3318
    b560:	10800814 	ori	r2,r2,32
    b564:	18000005 	stb	zero,0(r3)
    b568:	21003fcc 	andi	r4,r4,255
    b56c:	00c00074 	movhi	r3,1
    b570:	18c33d04 	addi	r3,r3,3316
    b574:	8080000d 	sth	r2,0(r16)
    b578:	18000005 	stb	zero,0(r3)
    b57c:	0006c600 	call	6c60 <ShutdownHook>
    b580:	8080000b 	ldhu	r2,0(r16)
    b584:	01002c44 	movi	r4,177
    b588:	10bff7cc 	andi	r2,r2,65503
    b58c:	8080000d 	sth	r2,0(r16)
    b590:	000e1200 	call	e120 <release_interrupts>
    b594:	dfc00217 	ldw	ra,8(sp)
    b598:	dc000117 	ldw	r16,4(sp)
    b59c:	dec00304 	addi	sp,sp,12
    b5a0:	f800283a 	ret
    b5a4:	0001883a 	nop
    b5a8:	0001883a 	nop
    b5ac:	0001883a 	nop
    b5b0:	0001883a 	nop
    b5b4:	0001883a 	nop
    b5b8:	0001883a 	nop
    b5bc:	0001883a 	nop

0000b5c0 <internal_call_errorhook>:
    b5c0:	defff904 	addi	sp,sp,-28
    b5c4:	00800034 	movhi	r2,0
    b5c8:	1098a004 	addi	r2,r2,25216
    b5cc:	d8800015 	stw	r2,0(sp)
    b5d0:	d8800017 	ldw	r2,0(sp)
    b5d4:	dfc00615 	stw	ra,24(sp)
    b5d8:	dd000515 	stw	r20,20(sp)
    b5dc:	dcc00415 	stw	r19,16(sp)
    b5e0:	dc800315 	stw	r18,12(sp)
    b5e4:	dc400215 	stw	r17,8(sp)
    b5e8:	dc000115 	stw	r16,4(sp)
    b5ec:	10001f26 	beq	r2,zero,b66c <internal_call_errorhook+0xac>
    b5f0:	04000074 	movhi	r16,1
    b5f4:	84033504 	addi	r16,r16,3284
    b5f8:	8080000b 	ldhu	r2,0(r16)
    b5fc:	10e0100c 	andi	r3,r2,32832
    b600:	18001a1e 	bne	r3,zero,b66c <internal_call_errorhook+0xac>
    b604:	d0e04617 	ldw	r3,-32488(gp)
    b608:	04800074 	movhi	r18,1
    b60c:	94833d84 	addi	r18,r18,3318
    b610:	04400074 	movhi	r17,1
    b614:	8c433d04 	addi	r17,r17,3316
    b618:	d0e04315 	stw	r3,-32500(gp)
    b61c:	d0e04517 	ldw	r3,-32492(gp)
    b620:	10801014 	ori	r2,r2,64
    b624:	21003fcc 	andi	r4,r4,255
    b628:	d0e04215 	stw	r3,-32504(gp)
    b62c:	d0e04417 	ldw	r3,-32496(gp)
    b630:	95000003 	ldbu	r20,0(r18)
    b634:	8cc00003 	ldbu	r19,0(r17)
    b638:	d1604705 	stb	r5,-32484(gp)
    b63c:	d0e04115 	stw	r3,-32508(gp)
    b640:	8080000d 	sth	r2,0(r16)
    b644:	90000005 	stb	zero,0(r18)
    b648:	88000005 	stb	zero,0(r17)
    b64c:	00062800 	call	6280 <ErrorHook>
    b650:	8080000b 	ldhu	r2,0(r16)
    b654:	01002c44 	movi	r4,177
    b658:	10bfefcc 	andi	r2,r2,65471
    b65c:	8080000d 	sth	r2,0(r16)
    b660:	000e1200 	call	e120 <release_interrupts>
    b664:	95000005 	stb	r20,0(r18)
    b668:	8cc00005 	stb	r19,0(r17)
    b66c:	dfc00617 	ldw	ra,24(sp)
    b670:	dd000517 	ldw	r20,20(sp)
    b674:	dcc00417 	ldw	r19,16(sp)
    b678:	dc800317 	ldw	r18,12(sp)
    b67c:	dc400217 	ldw	r17,8(sp)
    b680:	dc000117 	ldw	r16,4(sp)
    b684:	dec00704 	addi	sp,sp,28
    b688:	f800283a 	ret
    b68c:	0001883a 	nop
    b690:	0001883a 	nop
    b694:	0001883a 	nop
    b698:	0001883a 	nop
    b69c:	0001883a 	nop

0000b6a0 <call_posttaskhook>:
    b6a0:	defffe04 	addi	sp,sp,-8
    b6a4:	dc000015 	stw	r16,0(sp)
    b6a8:	04000074 	movhi	r16,1
    b6ac:	84033504 	addi	r16,r16,3284
    b6b0:	8080000b 	ldhu	r2,0(r16)
    b6b4:	dfc00115 	stw	ra,4(sp)
    b6b8:	10800214 	ori	r2,r2,8
    b6bc:	8080000d 	sth	r2,0(r16)
    b6c0:	0006bc00 	call	6bc0 <PostTaskHook>
    b6c4:	8080000b 	ldhu	r2,0(r16)
    b6c8:	01002c44 	movi	r4,177
    b6cc:	10bffdcc 	andi	r2,r2,65527
    b6d0:	8080000d 	sth	r2,0(r16)
    b6d4:	dfc00117 	ldw	ra,4(sp)
    b6d8:	dc000017 	ldw	r16,0(sp)
    b6dc:	dec00204 	addi	sp,sp,8
    b6e0:	000e1201 	jmpi	e120 <release_interrupts>
    b6e4:	0001883a 	nop
    b6e8:	0001883a 	nop
    b6ec:	0001883a 	nop
    b6f0:	0001883a 	nop
    b6f4:	0001883a 	nop
    b6f8:	0001883a 	nop
    b6fc:	0001883a 	nop

0000b700 <call_pretaskhook>:
    b700:	defffe04 	addi	sp,sp,-8
    b704:	dc000015 	stw	r16,0(sp)
    b708:	04000074 	movhi	r16,1
    b70c:	84033504 	addi	r16,r16,3284
    b710:	8080000b 	ldhu	r2,0(r16)
    b714:	dfc00115 	stw	ra,4(sp)
    b718:	10800214 	ori	r2,r2,8
    b71c:	8080000d 	sth	r2,0(r16)
    b720:	0006ba00 	call	6ba0 <PreTaskHook>
    b724:	8080000b 	ldhu	r2,0(r16)
    b728:	01002c44 	movi	r4,177
    b72c:	10bffdcc 	andi	r2,r2,65527
    b730:	8080000d 	sth	r2,0(r16)
    b734:	dfc00117 	ldw	ra,4(sp)
    b738:	dc000017 	ldw	r16,0(sp)
    b73c:	dec00204 	addi	sp,sp,8
    b740:	000e1201 	jmpi	e120 <release_interrupts>
    b744:	0001883a 	nop
    b748:	0001883a 	nop
    b74c:	0001883a 	nop
    b750:	0001883a 	nop
    b754:	0001883a 	nop
    b758:	0001883a 	nop
    b75c:	0001883a 	nop

0000b760 <init_stack_magic_region>:
    b760:	00800074 	movhi	r2,1
    b764:	10830d04 	addi	r2,r2,3124
    b768:	11400017 	ldw	r5,0(r2)
    b76c:	00800074 	movhi	r2,1
    b770:	10830604 	addi	r2,r2,3096
    b774:	10800017 	ldw	r2,0(r2)
    b778:	019390f4 	movhi	r6,20035
    b77c:	319154c4 	addi	r6,r6,17747
    b780:	11800015 	stw	r6,0(r2)
    b784:	28000826 	beq	r5,zero,b7a8 <init_stack_magic_region+0x48>
    b788:	00c00074 	movhi	r3,1
    b78c:	18c22404 	addi	r3,r3,2192
    b790:	0005883a 	mov	r2,zero
    b794:	19000017 	ldw	r4,0(r3)
    b798:	10800044 	addi	r2,r2,1
    b79c:	18c00704 	addi	r3,r3,28
    b7a0:	21800015 	stw	r6,0(r4)
    b7a4:	117ffb1e 	bne	r2,r5,b794 <init_stack_magic_region+0x34>
    b7a8:	f800283a 	ret
    b7ac:	0001883a 	nop
    b7b0:	0001883a 	nop
    b7b4:	0001883a 	nop
    b7b8:	0001883a 	nop
    b7bc:	0001883a 	nop

0000b7c0 <internal_shutdownos>:
    b7c0:	deffff04 	addi	sp,sp,-4
    b7c4:	dfc00015 	stw	ra,0(sp)
    b7c8:	00800074 	movhi	r2,1
    b7cc:	10832a04 	addi	r2,r2,3240
    b7d0:	10c00003 	ldbu	r3,0(r2)
    b7d4:	200b883a 	mov	r5,r4
    b7d8:	18c03fcc 	andi	r3,r3,255
    b7dc:	18000c1e 	bne	r3,zero,b810 <internal_shutdownos+0x50>
    b7e0:	0007303a 	rdctl	r3,status
    b7e4:	01800074 	movhi	r6,1
    b7e8:	31830404 	addi	r6,r6,3088
    b7ec:	31800017 	ldw	r6,0(r6)
    b7f0:	013f03c4 	movi	r4,-1009
    b7f4:	1908703a 	and	r4,r3,r4
    b7f8:	2188b03a 	or	r4,r4,r6
    b7fc:	2001703a 	wrctl	status,r4
    b800:	01000074 	movhi	r4,1
    b804:	21032904 	addi	r4,r4,3236
    b808:	18c0fc0c 	andi	r3,r3,1008
    b80c:	20c00015 	stw	r3,0(r4)
    b810:	10c00003 	ldbu	r3,0(r2)
    b814:	18c00044 	addi	r3,r3,1
    b818:	10c00005 	stb	r3,0(r2)
    b81c:	01000074 	movhi	r4,1
    b820:	212d4804 	addi	r4,r4,-19168
    b824:	29403fcc 	andi	r5,r5,255
    b828:	00085600 	call	8560 <stack_change_and_call_func_1>
    b82c:	00083a00 	call	83a0 <object_terminate>
    b830:	0005303a 	rdctl	r2,status
    b834:	00ffff84 	movi	r3,-2
    b838:	10c4703a 	and	r2,r2,r3
    b83c:	1001703a 	wrctl	status,r2
    b840:	00086a00 	call	86a0 <target_exit>
    b844:	0001883a 	nop
    b848:	0001883a 	nop
    b84c:	0001883a 	nop
    b850:	0001883a 	nop
    b854:	0001883a 	nop
    b858:	0001883a 	nop
    b85c:	0001883a 	nop

0000b860 <call_protectionhk_main>:
    b860:	defff704 	addi	sp,sp,-36
    b864:	dc000115 	stw	r16,4(sp)
    b868:	04000074 	movhi	r16,1
    b86c:	84033504 	addi	r16,r16,3284
    b870:	8080000b 	ldhu	r2,0(r16)
    b874:	dfc00815 	stw	ra,32(sp)
    b878:	dd800715 	stw	r22,28(sp)
    b87c:	10c0010c 	andi	r3,r2,4
    b880:	dd400615 	stw	r21,24(sp)
    b884:	dd000515 	stw	r20,20(sp)
    b888:	dcc00415 	stw	r19,16(sp)
    b88c:	dc800315 	stw	r18,12(sp)
    b890:	dc400215 	stw	r17,8(sp)
    b894:	18ffffcc 	andi	r3,r3,65535
    b898:	18002b1e 	bne	r3,zero,b948 <call_protectionhk_main+0xe8>
    b89c:	00c00034 	movhi	r3,0
    b8a0:	18db5004 	addi	r3,r3,27968
    b8a4:	d8c00015 	stw	r3,0(sp)
    b8a8:	d8c00017 	ldw	r3,0(sp)
    b8ac:	18002a26 	beq	r3,zero,b958 <call_protectionhk_main+0xf8>
    b8b0:	d8c00017 	ldw	r3,0(sp)
    b8b4:	24c03fcc 	andi	r19,r4,255
    b8b8:	04800074 	movhi	r18,1
    b8bc:	94833d84 	addi	r18,r18,3318
    b8c0:	04400074 	movhi	r17,1
    b8c4:	8c433d04 	addi	r17,r17,3316
    b8c8:	10800114 	ori	r2,r2,4
    b8cc:	9809883a 	mov	r4,r19
    b8d0:	95400003 	ldbu	r21,0(r18)
    b8d4:	8d000003 	ldbu	r20,0(r17)
    b8d8:	90000005 	stb	zero,0(r18)
    b8dc:	88000005 	stb	zero,0(r17)
    b8e0:	8080000d 	sth	r2,0(r16)
    b8e4:	183ee83a 	callr	r3
    b8e8:	102d883a 	mov	r22,r2
    b8ec:	8080000b 	ldhu	r2,0(r16)
    b8f0:	01002c44 	movi	r4,177
    b8f4:	10bffecc 	andi	r2,r2,65531
    b8f8:	8080000d 	sth	r2,0(r16)
    b8fc:	000e1200 	call	e120 <release_interrupts>
    b900:	b0803fcc 	andi	r2,r22,255
    b904:	95400005 	stb	r21,0(r18)
    b908:	8d000005 	stb	r20,0(r17)
    b90c:	10000c1e 	bne	r2,zero,b940 <call_protectionhk_main+0xe0>
    b910:	00800584 	movi	r2,22
    b914:	98800c1e 	bne	r19,r2,b948 <call_protectionhk_main+0xe8>
    b918:	dfc00817 	ldw	ra,32(sp)
    b91c:	dd800717 	ldw	r22,28(sp)
    b920:	dd400617 	ldw	r21,24(sp)
    b924:	dd000517 	ldw	r20,20(sp)
    b928:	dcc00417 	ldw	r19,16(sp)
    b92c:	dc800317 	ldw	r18,12(sp)
    b930:	dc400217 	ldw	r17,8(sp)
    b934:	dc000117 	ldw	r16,4(sp)
    b938:	dec00904 	addi	sp,sp,36
    b93c:	f800283a 	ret
    b940:	00c00044 	movi	r3,1
    b944:	10c00226 	beq	r2,r3,b950 <call_protectionhk_main+0xf0>
    b948:	010005c4 	movi	r4,23
    b94c:	000b7c00 	call	b7c0 <internal_shutdownos>
    b950:	9809883a 	mov	r4,r19
    b954:	000b7c00 	call	b7c0 <internal_shutdownos>
    b958:	21003fcc 	andi	r4,r4,255
    b95c:	000b7c00 	call	b7c0 <internal_shutdownos>

0000b960 <ActivateTask>:
    b960:	defffc04 	addi	sp,sp,-16
    b964:	dc400215 	stw	r17,8(sp)
    b968:	04400074 	movhi	r17,1
    b96c:	8c433504 	addi	r17,r17,3284
    b970:	8940000b 	ldhu	r5,0(r17)
    b974:	dfc00315 	stw	ra,12(sp)
    b978:	dc000115 	stw	r16,4(sp)
    b97c:	289c000c 	andi	r2,r5,28672
    b980:	2007883a 	mov	r3,r4
    b984:	1000391e 	bne	r2,zero,ba6c <ActivateTask+0x10c>
    b988:	294000d4 	ori	r5,r5,3
    b98c:	297fffcc 	andi	r5,r5,65535
    b990:	008000c4 	movi	r2,3
    b994:	28804626 	beq	r5,r2,bab0 <ActivateTask+0x150>
    b998:	01400084 	movi	r5,2
    b99c:	2805883a 	mov	r2,r5
    b9a0:	04000074 	movhi	r16,1
    b9a4:	84032a04 	addi	r16,r16,3240
    b9a8:	81000003 	ldbu	r4,0(r16)
    b9ac:	21003fcc 	andi	r4,r4,255
    b9b0:	20000c1e 	bne	r4,zero,b9e4 <ActivateTask+0x84>
    b9b4:	0009303a 	rdctl	r4,status
    b9b8:	01c00074 	movhi	r7,1
    b9bc:	39c30404 	addi	r7,r7,3088
    b9c0:	39c00017 	ldw	r7,0(r7)
    b9c4:	01bf03c4 	movi	r6,-1009
    b9c8:	218c703a 	and	r6,r4,r6
    b9cc:	31ccb03a 	or	r6,r6,r7
    b9d0:	3001703a 	wrctl	status,r6
    b9d4:	01800074 	movhi	r6,1
    b9d8:	31832904 	addi	r6,r6,3236
    b9dc:	2100fc0c 	andi	r4,r4,1008
    b9e0:	31000015 	stw	r4,0(r6)
    b9e4:	81000003 	ldbu	r4,0(r16)
    b9e8:	21000044 	addi	r4,r4,1
    b9ec:	81000005 	stb	r4,0(r16)
    b9f0:	01c00074 	movhi	r7,1
    b9f4:	39c33b04 	addi	r7,r7,3308
    b9f8:	38c00015 	stw	r3,0(r7)
    b9fc:	01000074 	movhi	r4,1
    ba00:	212d7004 	addi	r4,r4,-19008
    ba04:	01803804 	movi	r6,224
    ba08:	d8800015 	stw	r2,0(sp)
    ba0c:	00085600 	call	8560 <stack_change_and_call_func_1>
    ba10:	d8800017 	ldw	r2,0(sp)
    ba14:	80c00003 	ldbu	r3,0(r16)
    ba18:	18c03fcc 	andi	r3,r3,255
    ba1c:	18001626 	beq	r3,zero,ba78 <ActivateTask+0x118>
    ba20:	80c00003 	ldbu	r3,0(r16)
    ba24:	18ffffc4 	addi	r3,r3,-1
    ba28:	80c00005 	stb	r3,0(r16)
    ba2c:	80c00003 	ldbu	r3,0(r16)
    ba30:	18c03fcc 	andi	r3,r3,255
    ba34:	1800081e 	bne	r3,zero,ba58 <ActivateTask+0xf8>
    ba38:	0007303a 	rdctl	r3,status
    ba3c:	01000074 	movhi	r4,1
    ba40:	21032904 	addi	r4,r4,3236
    ba44:	21000017 	ldw	r4,0(r4)
    ba48:	017f03c4 	movi	r5,-1009
    ba4c:	1946703a 	and	r3,r3,r5
    ba50:	1906b03a 	or	r3,r3,r4
    ba54:	1801703a 	wrctl	status,r3
    ba58:	dfc00317 	ldw	ra,12(sp)
    ba5c:	dc400217 	ldw	r17,8(sp)
    ba60:	dc000117 	ldw	r16,4(sp)
    ba64:	dec00404 	addi	sp,sp,16
    ba68:	f800283a 	ret
    ba6c:	01400304 	movi	r5,12
    ba70:	2805883a 	mov	r2,r5
    ba74:	003fca06 	br	b9a0 <ActivateTask+0x40>
    ba78:	01400074 	movhi	r5,1
    ba7c:	29426504 	addi	r5,r5,2452
    ba80:	00c00074 	movhi	r3,1
    ba84:	18c33204 	addi	r3,r3,3272
    ba88:	19400015 	stw	r5,0(r3)
    ba8c:	014035c4 	movi	r5,215
    ba90:	00c00074 	movhi	r3,1
    ba94:	18c33104 	addi	r3,r3,3268
    ba98:	19400015 	stw	r5,0(r3)
    ba9c:	010006c4 	movi	r4,27
    baa0:	d8800015 	stw	r2,0(sp)
    baa4:	000b7c00 	call	b7c0 <internal_shutdownos>
    baa8:	d8800017 	ldw	r2,0(sp)
    baac:	003fdc06 	br	ba20 <ActivateTask+0xc0>
    bab0:	00800074 	movhi	r2,1
    bab4:	10830d04 	addi	r2,r2,3124
    bab8:	10800017 	ldw	r2,0(r2)
    babc:	20800236 	bltu	r4,r2,bac8 <ActivateTask+0x168>
    bac0:	2805883a 	mov	r2,r5
    bac4:	003fb606 	br	b9a0 <ActivateTask+0x40>
    bac8:	04000074 	movhi	r16,1
    bacc:	84032a04 	addi	r16,r16,3240
    bad0:	80800003 	ldbu	r2,0(r16)
    bad4:	21000a24 	muli	r4,r4,40
    bad8:	01400174 	movhi	r5,5
    badc:	2947a204 	addi	r5,r5,7816
    bae0:	10803fcc 	andi	r2,r2,255
    bae4:	2149883a 	add	r4,r4,r5
    bae8:	10000c1e 	bne	r2,zero,bb1c <ActivateTask+0x1bc>
    baec:	0005303a 	rdctl	r2,status
    baf0:	01400074 	movhi	r5,1
    baf4:	29430404 	addi	r5,r5,3088
    baf8:	29400017 	ldw	r5,0(r5)
    bafc:	01bf03c4 	movi	r6,-1009
    bb00:	118c703a 	and	r6,r2,r6
    bb04:	314ab03a 	or	r5,r6,r5
    bb08:	2801703a 	wrctl	status,r5
    bb0c:	01400074 	movhi	r5,1
    bb10:	29432904 	addi	r5,r5,3236
    bb14:	1080fc0c 	andi	r2,r2,1008
    bb18:	28800015 	stw	r2,0(r5)
    bb1c:	80800003 	ldbu	r2,0(r16)
    bb20:	10800044 	addi	r2,r2,1
    bb24:	80800005 	stb	r2,0(r16)
    bb28:	20800403 	ldbu	r2,16(r4)
    bb2c:	10000926 	beq	r2,zero,bb54 <ActivateTask+0x1f4>
    bb30:	21400217 	ldw	r5,8(r4)
    bb34:	20800443 	ldbu	r2,17(r4)
    bb38:	29400503 	ldbu	r5,20(r5)
    bb3c:	11803fcc 	andi	r6,r2,255
    bb40:	31400f2e 	bgeu	r6,r5,bb80 <ActivateTask+0x220>
    bb44:	10800044 	addi	r2,r2,1
    bb48:	20800445 	stb	r2,17(r4)
    bb4c:	0005883a 	mov	r2,zero
    bb50:	003fb006 	br	ba14 <ActivateTask+0xb4>
    bb54:	000e6e00 	call	e6e0 <make_active>
    bb58:	10803fcc 	andi	r2,r2,255
    bb5c:	10000326 	beq	r2,zero,bb6c <ActivateTask+0x20c>
    bb60:	88c0000b 	ldhu	r3,0(r17)
    bb64:	00800044 	movi	r2,1
    bb68:	18800226 	beq	r3,r2,bb74 <ActivateTask+0x214>
    bb6c:	0005883a 	mov	r2,zero
    bb70:	003fa806 	br	ba14 <ActivateTask+0xb4>
    bb74:	00004c00 	call	4c0 <dispatch>
    bb78:	0005883a 	mov	r2,zero
    bb7c:	003fa506 	br	ba14 <ActivateTask+0xb4>
    bb80:	01400104 	movi	r5,4
    bb84:	2805883a 	mov	r2,r5
    bb88:	003f9906 	br	b9f0 <ActivateTask+0x90>
    bb8c:	0001883a 	nop
    bb90:	0001883a 	nop
    bb94:	0001883a 	nop
    bb98:	0001883a 	nop
    bb9c:	0001883a 	nop

0000bba0 <TerminateTask>:
    bba0:	00800074 	movhi	r2,1
    bba4:	10833504 	addi	r2,r2,3284
    bba8:	1080000b 	ldhu	r2,0(r2)
    bbac:	defffd04 	addi	sp,sp,-12
    bbb0:	dfc00215 	stw	ra,8(sp)
    bbb4:	dc400115 	stw	r17,4(sp)
    bbb8:	dc000015 	stw	r16,0(sp)
    bbbc:	10dc000c 	andi	r3,r2,28672
    bbc0:	1800491e 	bne	r3,zero,bce8 <TerminateTask+0x148>
    bbc4:	10800054 	ori	r2,r2,1
    bbc8:	10bfffcc 	andi	r2,r2,65535
    bbcc:	00c00044 	movi	r3,1
    bbd0:	10c03126 	beq	r2,r3,bc98 <TerminateTask+0xf8>
    bbd4:	01400084 	movi	r5,2
    bbd8:	2823883a 	mov	r17,r5
    bbdc:	04000074 	movhi	r16,1
    bbe0:	84032a04 	addi	r16,r16,3240
    bbe4:	80800003 	ldbu	r2,0(r16)
    bbe8:	10803fcc 	andi	r2,r2,255
    bbec:	10000c1e 	bne	r2,zero,bc20 <TerminateTask+0x80>
    bbf0:	0005303a 	rdctl	r2,status
    bbf4:	01000074 	movhi	r4,1
    bbf8:	21030404 	addi	r4,r4,3088
    bbfc:	21000017 	ldw	r4,0(r4)
    bc00:	00ff03c4 	movi	r3,-1009
    bc04:	10c6703a 	and	r3,r2,r3
    bc08:	1906b03a 	or	r3,r3,r4
    bc0c:	1801703a 	wrctl	status,r3
    bc10:	00c00074 	movhi	r3,1
    bc14:	18c32904 	addi	r3,r3,3236
    bc18:	1080fc0c 	andi	r2,r2,1008
    bc1c:	18800015 	stw	r2,0(r3)
    bc20:	80800003 	ldbu	r2,0(r16)
    bc24:	10800044 	addi	r2,r2,1
    bc28:	80800005 	stb	r2,0(r16)
    bc2c:	01000074 	movhi	r4,1
    bc30:	212d7004 	addi	r4,r4,-19008
    bc34:	01803844 	movi	r6,225
    bc38:	00085600 	call	8560 <stack_change_and_call_func_1>
    bc3c:	80800003 	ldbu	r2,0(r16)
    bc40:	10803fcc 	andi	r2,r2,255
    bc44:	10001c26 	beq	r2,zero,bcb8 <TerminateTask+0x118>
    bc48:	80800003 	ldbu	r2,0(r16)
    bc4c:	10bfffc4 	addi	r2,r2,-1
    bc50:	80800005 	stb	r2,0(r16)
    bc54:	80800003 	ldbu	r2,0(r16)
    bc58:	10803fcc 	andi	r2,r2,255
    bc5c:	1000081e 	bne	r2,zero,bc80 <TerminateTask+0xe0>
    bc60:	0005303a 	rdctl	r2,status
    bc64:	00c00074 	movhi	r3,1
    bc68:	18c32904 	addi	r3,r3,3236
    bc6c:	18c00017 	ldw	r3,0(r3)
    bc70:	013f03c4 	movi	r4,-1009
    bc74:	1104703a 	and	r2,r2,r4
    bc78:	10c4b03a 	or	r2,r2,r3
    bc7c:	1001703a 	wrctl	status,r2
    bc80:	8805883a 	mov	r2,r17
    bc84:	dfc00217 	ldw	ra,8(sp)
    bc88:	dc400117 	ldw	r17,4(sp)
    bc8c:	dc000017 	ldw	r16,0(sp)
    bc90:	dec00304 	addi	sp,sp,12
    bc94:	f800283a 	ret
    bc98:	00800074 	movhi	r2,1
    bc9c:	10834204 	addi	r2,r2,3336
    bca0:	10800017 	ldw	r2,0(r2)
    bca4:	10800717 	ldw	r2,28(r2)
    bca8:	10001226 	beq	r2,zero,bcf4 <TerminateTask+0x154>
    bcac:	01400184 	movi	r5,6
    bcb0:	2823883a 	mov	r17,r5
    bcb4:	003fc906 	br	bbdc <TerminateTask+0x3c>
    bcb8:	00c00074 	movhi	r3,1
    bcbc:	18c26504 	addi	r3,r3,2452
    bcc0:	00800074 	movhi	r2,1
    bcc4:	10833204 	addi	r2,r2,3272
    bcc8:	10c00015 	stw	r3,0(r2)
    bccc:	010006c4 	movi	r4,27
    bcd0:	00c035c4 	movi	r3,215
    bcd4:	00800074 	movhi	r2,1
    bcd8:	10833104 	addi	r2,r2,3268
    bcdc:	10c00015 	stw	r3,0(r2)
    bce0:	000b7c00 	call	b7c0 <internal_shutdownos>
    bce4:	003fd806 	br	bc48 <TerminateTask+0xa8>
    bce8:	01400304 	movi	r5,12
    bcec:	2823883a 	mov	r17,r5
    bcf0:	003fba06 	br	bbdc <TerminateTask+0x3c>
    bcf4:	04000074 	movhi	r16,1
    bcf8:	84032a04 	addi	r16,r16,3240
    bcfc:	80800003 	ldbu	r2,0(r16)
    bd00:	10803fcc 	andi	r2,r2,255
    bd04:	10000c1e 	bne	r2,zero,bd38 <TerminateTask+0x198>
    bd08:	0005303a 	rdctl	r2,status
    bd0c:	00c00074 	movhi	r3,1
    bd10:	18c30404 	addi	r3,r3,3088
    bd14:	18c00017 	ldw	r3,0(r3)
    bd18:	013f03c4 	movi	r4,-1009
    bd1c:	1108703a 	and	r4,r2,r4
    bd20:	20c6b03a 	or	r3,r4,r3
    bd24:	1801703a 	wrctl	status,r3
    bd28:	00c00074 	movhi	r3,1
    bd2c:	18c32904 	addi	r3,r3,3236
    bd30:	1080fc0c 	andi	r2,r2,1008
    bd34:	18800015 	stw	r2,0(r3)
    bd38:	80800003 	ldbu	r2,0(r16)
    bd3c:	10800044 	addi	r2,r2,1
    bd40:	80800005 	stb	r2,0(r16)
    bd44:	000e9000 	call	e900 <suspend>
    bd48:	00005a00 	call	5a0 <exit_and_dispatch>
    bd4c:	0001883a 	nop
    bd50:	0001883a 	nop
    bd54:	0001883a 	nop
    bd58:	0001883a 	nop
    bd5c:	0001883a 	nop

0000bd60 <ChainTask>:
    bd60:	00800074 	movhi	r2,1
    bd64:	10833504 	addi	r2,r2,3284
    bd68:	1080000b 	ldhu	r2,0(r2)
    bd6c:	defffd04 	addi	sp,sp,-12
    bd70:	2007883a 	mov	r3,r4
    bd74:	dfc00215 	stw	ra,8(sp)
    bd78:	dc400115 	stw	r17,4(sp)
    bd7c:	dc000015 	stw	r16,0(sp)
    bd80:	111c000c 	andi	r4,r2,28672
    bd84:	2000381e 	bne	r4,zero,be68 <ChainTask+0x108>
    bd88:	10800054 	ori	r2,r2,1
    bd8c:	10bfffcc 	andi	r2,r2,65535
    bd90:	01000044 	movi	r4,1
    bd94:	11004326 	beq	r2,r4,bea4 <ChainTask+0x144>
    bd98:	01400084 	movi	r5,2
    bd9c:	2823883a 	mov	r17,r5
    bda0:	04000074 	movhi	r16,1
    bda4:	84032a04 	addi	r16,r16,3240
    bda8:	80800003 	ldbu	r2,0(r16)
    bdac:	10803fcc 	andi	r2,r2,255
    bdb0:	10000c1e 	bne	r2,zero,bde4 <ChainTask+0x84>
    bdb4:	0005303a 	rdctl	r2,status
    bdb8:	01800074 	movhi	r6,1
    bdbc:	31830404 	addi	r6,r6,3088
    bdc0:	31800017 	ldw	r6,0(r6)
    bdc4:	013f03c4 	movi	r4,-1009
    bdc8:	1108703a 	and	r4,r2,r4
    bdcc:	2188b03a 	or	r4,r4,r6
    bdd0:	2001703a 	wrctl	status,r4
    bdd4:	01000074 	movhi	r4,1
    bdd8:	21032904 	addi	r4,r4,3236
    bddc:	1080fc0c 	andi	r2,r2,1008
    bde0:	20800015 	stw	r2,0(r4)
    bde4:	80800003 	ldbu	r2,0(r16)
    bde8:	10800044 	addi	r2,r2,1
    bdec:	80800005 	stb	r2,0(r16)
    bdf0:	01c00074 	movhi	r7,1
    bdf4:	39c33b04 	addi	r7,r7,3308
    bdf8:	01000074 	movhi	r4,1
    bdfc:	212d7004 	addi	r4,r4,-19008
    be00:	01803884 	movi	r6,226
    be04:	38c00015 	stw	r3,0(r7)
    be08:	00085600 	call	8560 <stack_change_and_call_func_1>
    be0c:	80c00003 	ldbu	r3,0(r16)
    be10:	18c03fcc 	andi	r3,r3,255
    be14:	18001726 	beq	r3,zero,be74 <ChainTask+0x114>
    be18:	80c00003 	ldbu	r3,0(r16)
    be1c:	18ffffc4 	addi	r3,r3,-1
    be20:	80c00005 	stb	r3,0(r16)
    be24:	80c00003 	ldbu	r3,0(r16)
    be28:	18c03fcc 	andi	r3,r3,255
    be2c:	1800081e 	bne	r3,zero,be50 <ChainTask+0xf0>
    be30:	0005303a 	rdctl	r2,status
    be34:	00c00074 	movhi	r3,1
    be38:	18c32904 	addi	r3,r3,3236
    be3c:	18c00017 	ldw	r3,0(r3)
    be40:	013f03c4 	movi	r4,-1009
    be44:	1104703a 	and	r2,r2,r4
    be48:	10c4b03a 	or	r2,r2,r3
    be4c:	1001703a 	wrctl	status,r2
    be50:	8805883a 	mov	r2,r17
    be54:	dfc00217 	ldw	ra,8(sp)
    be58:	dc400117 	ldw	r17,4(sp)
    be5c:	dc000017 	ldw	r16,0(sp)
    be60:	dec00304 	addi	sp,sp,12
    be64:	f800283a 	ret
    be68:	01400304 	movi	r5,12
    be6c:	2823883a 	mov	r17,r5
    be70:	003fcb06 	br	bda0 <ChainTask+0x40>
    be74:	00c00074 	movhi	r3,1
    be78:	18c26504 	addi	r3,r3,2452
    be7c:	00800074 	movhi	r2,1
    be80:	10833204 	addi	r2,r2,3272
    be84:	10c00015 	stw	r3,0(r2)
    be88:	010006c4 	movi	r4,27
    be8c:	00c035c4 	movi	r3,215
    be90:	00800074 	movhi	r2,1
    be94:	10833104 	addi	r2,r2,3268
    be98:	10c00015 	stw	r3,0(r2)
    be9c:	000b7c00 	call	b7c0 <internal_shutdownos>
    bea0:	003fdd06 	br	be18 <ChainTask+0xb8>
    bea4:	00800074 	movhi	r2,1
    bea8:	10834204 	addi	r2,r2,3336
    beac:	11000017 	ldw	r4,0(r2)
    beb0:	21000717 	ldw	r4,28(r4)
    beb4:	20000326 	beq	r4,zero,bec4 <ChainTask+0x164>
    beb8:	01400184 	movi	r5,6
    bebc:	2823883a 	mov	r17,r5
    bec0:	003fb706 	br	bda0 <ChainTask+0x40>
    bec4:	01000074 	movhi	r4,1
    bec8:	21030d04 	addi	r4,r4,3124
    becc:	21000017 	ldw	r4,0(r4)
    bed0:	19000336 	bltu	r3,r4,bee0 <ChainTask+0x180>
    bed4:	014000c4 	movi	r5,3
    bed8:	2823883a 	mov	r17,r5
    bedc:	003fb006 	br	bda0 <ChainTask+0x40>
    bee0:	04000074 	movhi	r16,1
    bee4:	84032a04 	addi	r16,r16,3240
    bee8:	81000003 	ldbu	r4,0(r16)
    beec:	1c400a24 	muli	r17,r3,40
    bef0:	01400174 	movhi	r5,5
    bef4:	2947a204 	addi	r5,r5,7816
    bef8:	21003fcc 	andi	r4,r4,255
    befc:	8963883a 	add	r17,r17,r5
    bf00:	20000c1e 	bne	r4,zero,bf34 <ChainTask+0x1d4>
    bf04:	0009303a 	rdctl	r4,status
    bf08:	01400074 	movhi	r5,1
    bf0c:	29430404 	addi	r5,r5,3088
    bf10:	29400017 	ldw	r5,0(r5)
    bf14:	01bf03c4 	movi	r6,-1009
    bf18:	218c703a 	and	r6,r4,r6
    bf1c:	314ab03a 	or	r5,r6,r5
    bf20:	2801703a 	wrctl	status,r5
    bf24:	01400074 	movhi	r5,1
    bf28:	29432904 	addi	r5,r5,3236
    bf2c:	2100fc0c 	andi	r4,r4,1008
    bf30:	29000015 	stw	r4,0(r5)
    bf34:	81000003 	ldbu	r4,0(r16)
    bf38:	21000044 	addi	r4,r4,1
    bf3c:	81000005 	stb	r4,0(r16)
    bf40:	10800017 	ldw	r2,0(r2)
    bf44:	88800926 	beq	r17,r2,bf6c <ChainTask+0x20c>
    bf48:	88800403 	ldbu	r2,16(r17)
    bf4c:	10000d26 	beq	r2,zero,bf84 <ChainTask+0x224>
    bf50:	88800217 	ldw	r2,8(r17)
    bf54:	89000443 	ldbu	r4,17(r17)
    bf58:	10800503 	ldbu	r2,20(r2)
    bf5c:	20800936 	bltu	r4,r2,bf84 <ChainTask+0x224>
    bf60:	01400104 	movi	r5,4
    bf64:	2823883a 	mov	r17,r5
    bf68:	003fa106 	br	bdf0 <ChainTask+0x90>
    bf6c:	000e6c00 	call	e6c0 <make_non_runnable>
    bf70:	00800074 	movhi	r2,1
    bf74:	10834204 	addi	r2,r2,3336
    bf78:	11000017 	ldw	r4,0(r2)
    bf7c:	000e6e00 	call	e6e0 <make_active>
    bf80:	00005a00 	call	5a0 <exit_and_dispatch>
    bf84:	000e9000 	call	e900 <suspend>
    bf88:	88800403 	ldbu	r2,16(r17)
    bf8c:	10000426 	beq	r2,zero,bfa0 <ChainTask+0x240>
    bf90:	88800443 	ldbu	r2,17(r17)
    bf94:	10800044 	addi	r2,r2,1
    bf98:	88800445 	stb	r2,17(r17)
    bf9c:	003ff806 	br	bf80 <ChainTask+0x220>
    bfa0:	8809883a 	mov	r4,r17
    bfa4:	000e6e00 	call	e6e0 <make_active>
    bfa8:	003ff506 	br	bf80 <ChainTask+0x220>
    bfac:	0001883a 	nop
    bfb0:	0001883a 	nop
    bfb4:	0001883a 	nop
    bfb8:	0001883a 	nop
    bfbc:	0001883a 	nop

0000bfc0 <Schedule>:
    bfc0:	00800074 	movhi	r2,1
    bfc4:	10833504 	addi	r2,r2,3284
    bfc8:	1080000b 	ldhu	r2,0(r2)
    bfcc:	defffd04 	addi	sp,sp,-12
    bfd0:	dfc00215 	stw	ra,8(sp)
    bfd4:	dc400115 	stw	r17,4(sp)
    bfd8:	dc000015 	stw	r16,0(sp)
    bfdc:	10dc000c 	andi	r3,r2,28672
    bfe0:	1800491e 	bne	r3,zero,c108 <Schedule+0x148>
    bfe4:	10800054 	ori	r2,r2,1
    bfe8:	10bfffcc 	andi	r2,r2,65535
    bfec:	00c00044 	movi	r3,1
    bff0:	10c03126 	beq	r2,r3,c0b8 <Schedule+0xf8>
    bff4:	01400084 	movi	r5,2
    bff8:	2823883a 	mov	r17,r5
    bffc:	04000074 	movhi	r16,1
    c000:	84032a04 	addi	r16,r16,3240
    c004:	80800003 	ldbu	r2,0(r16)
    c008:	10803fcc 	andi	r2,r2,255
    c00c:	10000c1e 	bne	r2,zero,c040 <Schedule+0x80>
    c010:	0005303a 	rdctl	r2,status
    c014:	01000074 	movhi	r4,1
    c018:	21030404 	addi	r4,r4,3088
    c01c:	21000017 	ldw	r4,0(r4)
    c020:	00ff03c4 	movi	r3,-1009
    c024:	10c6703a 	and	r3,r2,r3
    c028:	1906b03a 	or	r3,r3,r4
    c02c:	1801703a 	wrctl	status,r3
    c030:	00c00074 	movhi	r3,1
    c034:	18c32904 	addi	r3,r3,3236
    c038:	1080fc0c 	andi	r2,r2,1008
    c03c:	18800015 	stw	r2,0(r3)
    c040:	80800003 	ldbu	r2,0(r16)
    c044:	10800044 	addi	r2,r2,1
    c048:	80800005 	stb	r2,0(r16)
    c04c:	01000074 	movhi	r4,1
    c050:	212d7004 	addi	r4,r4,-19008
    c054:	018038c4 	movi	r6,227
    c058:	00085600 	call	8560 <stack_change_and_call_func_1>
    c05c:	80800003 	ldbu	r2,0(r16)
    c060:	10803fcc 	andi	r2,r2,255
    c064:	10001c26 	beq	r2,zero,c0d8 <Schedule+0x118>
    c068:	80800003 	ldbu	r2,0(r16)
    c06c:	10bfffc4 	addi	r2,r2,-1
    c070:	80800005 	stb	r2,0(r16)
    c074:	80800003 	ldbu	r2,0(r16)
    c078:	10803fcc 	andi	r2,r2,255
    c07c:	1000081e 	bne	r2,zero,c0a0 <Schedule+0xe0>
    c080:	0005303a 	rdctl	r2,status
    c084:	00c00074 	movhi	r3,1
    c088:	18c32904 	addi	r3,r3,3236
    c08c:	18c00017 	ldw	r3,0(r3)
    c090:	013f03c4 	movi	r4,-1009
    c094:	1104703a 	and	r2,r2,r4
    c098:	10c4b03a 	or	r2,r2,r3
    c09c:	1001703a 	wrctl	status,r2
    c0a0:	8805883a 	mov	r2,r17
    c0a4:	dfc00217 	ldw	ra,8(sp)
    c0a8:	dc400117 	ldw	r17,4(sp)
    c0ac:	dc000017 	ldw	r16,0(sp)
    c0b0:	dec00304 	addi	sp,sp,12
    c0b4:	f800283a 	ret
    c0b8:	00800074 	movhi	r2,1
    c0bc:	10834204 	addi	r2,r2,3336
    c0c0:	10c00017 	ldw	r3,0(r2)
    c0c4:	18c00717 	ldw	r3,28(r3)
    c0c8:	18001226 	beq	r3,zero,c114 <Schedule+0x154>
    c0cc:	01400184 	movi	r5,6
    c0d0:	2823883a 	mov	r17,r5
    c0d4:	003fc906 	br	bffc <Schedule+0x3c>
    c0d8:	00c00074 	movhi	r3,1
    c0dc:	18c26504 	addi	r3,r3,2452
    c0e0:	00800074 	movhi	r2,1
    c0e4:	10833204 	addi	r2,r2,3272
    c0e8:	10c00015 	stw	r3,0(r2)
    c0ec:	010006c4 	movi	r4,27
    c0f0:	00c035c4 	movi	r3,215
    c0f4:	00800074 	movhi	r2,1
    c0f8:	10833104 	addi	r2,r2,3268
    c0fc:	10c00015 	stw	r3,0(r2)
    c100:	000b7c00 	call	b7c0 <internal_shutdownos>
    c104:	003fd806 	br	c068 <Schedule+0xa8>
    c108:	01400304 	movi	r5,12
    c10c:	2823883a 	mov	r17,r5
    c110:	003fba06 	br	bffc <Schedule+0x3c>
    c114:	04000074 	movhi	r16,1
    c118:	84032a04 	addi	r16,r16,3240
    c11c:	80c00003 	ldbu	r3,0(r16)
    c120:	18c03fcc 	andi	r3,r3,255
    c124:	18000c1e 	bne	r3,zero,c158 <Schedule+0x198>
    c128:	0007303a 	rdctl	r3,status
    c12c:	01000074 	movhi	r4,1
    c130:	21030404 	addi	r4,r4,3088
    c134:	21000017 	ldw	r4,0(r4)
    c138:	017f03c4 	movi	r5,-1009
    c13c:	194a703a 	and	r5,r3,r5
    c140:	2908b03a 	or	r4,r5,r4
    c144:	2001703a 	wrctl	status,r4
    c148:	01000074 	movhi	r4,1
    c14c:	21032904 	addi	r4,r4,3236
    c150:	18c0fc0c 	andi	r3,r3,1008
    c154:	20c00015 	stw	r3,0(r4)
    c158:	80c00003 	ldbu	r3,0(r16)
    c15c:	18c00044 	addi	r3,r3,1
    c160:	80c00005 	stb	r3,0(r16)
    c164:	10800017 	ldw	r2,0(r2)
    c168:	00c00074 	movhi	r3,1
    c16c:	18c34004 	addi	r3,r3,3328
    c170:	19000017 	ldw	r4,0(r3)
    c174:	10c00217 	ldw	r3,8(r2)
    c178:	18c00317 	ldw	r3,12(r3)
    c17c:	20c00216 	blt	r4,r3,c188 <Schedule+0x1c8>
    c180:	0023883a 	mov	r17,zero
    c184:	003fb506 	br	c05c <Schedule+0x9c>
    c188:	10c00315 	stw	r3,12(r2)
    c18c:	000e8600 	call	e860 <preempt>
    c190:	00004c00 	call	4c0 <dispatch>
    c194:	00800074 	movhi	r2,1
    c198:	10834204 	addi	r2,r2,3336
    c19c:	10800017 	ldw	r2,0(r2)
    c1a0:	0023883a 	mov	r17,zero
    c1a4:	10c00217 	ldw	r3,8(r2)
    c1a8:	18c00417 	ldw	r3,16(r3)
    c1ac:	10c00315 	stw	r3,12(r2)
    c1b0:	003faa06 	br	c05c <Schedule+0x9c>
    c1b4:	0001883a 	nop
    c1b8:	0001883a 	nop
    c1bc:	0001883a 	nop

0000c1c0 <GetTaskID>:
    c1c0:	00800074 	movhi	r2,1
    c1c4:	10833504 	addi	r2,r2,3284
    c1c8:	1080000b 	ldhu	r2,0(r2)
    c1cc:	defffd04 	addi	sp,sp,-12
    c1d0:	2007883a 	mov	r3,r4
    c1d4:	109c13d4 	ori	r2,r2,28751
    c1d8:	dfc00215 	stw	ra,8(sp)
    c1dc:	dc000115 	stw	r16,4(sp)
    c1e0:	10bfffcc 	andi	r2,r2,65535
    c1e4:	011c13c4 	movi	r4,28751
    c1e8:	1100121e 	bne	r2,r4,c234 <GetTaskID+0x74>
    c1ec:	18005426 	beq	r3,zero,c340 <GetTaskID+0x180>
    c1f0:	00800074 	movhi	r2,1
    c1f4:	10834204 	addi	r2,r2,3336
    c1f8:	10800017 	ldw	r2,0(r2)
    c1fc:	10004126 	beq	r2,zero,c304 <GetTaskID+0x144>
    c200:	01000174 	movhi	r4,5
    c204:	2107a204 	addi	r4,r4,7816
    c208:	1105c83a 	sub	r2,r2,r4
    c20c:	1005d0fa 	srai	r2,r2,3
    c210:	01333374 	movhi	r4,52429
    c214:	21333344 	addi	r4,r4,-13107
    c218:	1105383a 	mul	r2,r2,r4
    c21c:	18800015 	stw	r2,0(r3)
    c220:	0005883a 	mov	r2,zero
    c224:	dfc00217 	ldw	ra,8(sp)
    c228:	dc000117 	ldw	r16,4(sp)
    c22c:	dec00304 	addi	sp,sp,12
    c230:	f800283a 	ret
    c234:	01400084 	movi	r5,2
    c238:	2805883a 	mov	r2,r5
    c23c:	04000074 	movhi	r16,1
    c240:	84032a04 	addi	r16,r16,3240
    c244:	81000003 	ldbu	r4,0(r16)
    c248:	21003fcc 	andi	r4,r4,255
    c24c:	20000c1e 	bne	r4,zero,c280 <GetTaskID+0xc0>
    c250:	0009303a 	rdctl	r4,status
    c254:	01c00074 	movhi	r7,1
    c258:	39c30404 	addi	r7,r7,3088
    c25c:	39c00017 	ldw	r7,0(r7)
    c260:	01bf03c4 	movi	r6,-1009
    c264:	218c703a 	and	r6,r4,r6
    c268:	31ccb03a 	or	r6,r6,r7
    c26c:	3001703a 	wrctl	status,r6
    c270:	01800074 	movhi	r6,1
    c274:	31832904 	addi	r6,r6,3236
    c278:	2100fc0c 	andi	r4,r4,1008
    c27c:	31000015 	stw	r4,0(r6)
    c280:	81000003 	ldbu	r4,0(r16)
    c284:	21000044 	addi	r4,r4,1
    c288:	81000005 	stb	r4,0(r16)
    c28c:	01c00074 	movhi	r7,1
    c290:	39c33b04 	addi	r7,r7,3308
    c294:	38c00015 	stw	r3,0(r7)
    c298:	01000074 	movhi	r4,1
    c29c:	212d7004 	addi	r4,r4,-19008
    c2a0:	01803904 	movi	r6,228
    c2a4:	d8800015 	stw	r2,0(sp)
    c2a8:	00085600 	call	8560 <stack_change_and_call_func_1>
    c2ac:	80c00003 	ldbu	r3,0(r16)
    c2b0:	d8800017 	ldw	r2,0(sp)
    c2b4:	18c03fcc 	andi	r3,r3,255
    c2b8:	18001426 	beq	r3,zero,c30c <GetTaskID+0x14c>
    c2bc:	80c00003 	ldbu	r3,0(r16)
    c2c0:	18ffffc4 	addi	r3,r3,-1
    c2c4:	80c00005 	stb	r3,0(r16)
    c2c8:	80c00003 	ldbu	r3,0(r16)
    c2cc:	18c03fcc 	andi	r3,r3,255
    c2d0:	183fd41e 	bne	r3,zero,c224 <GetTaskID+0x64>
    c2d4:	0007303a 	rdctl	r3,status
    c2d8:	01000074 	movhi	r4,1
    c2dc:	21032904 	addi	r4,r4,3236
    c2e0:	21000017 	ldw	r4,0(r4)
    c2e4:	017f03c4 	movi	r5,-1009
    c2e8:	1946703a 	and	r3,r3,r5
    c2ec:	1906b03a 	or	r3,r3,r4
    c2f0:	1801703a 	wrctl	status,r3
    c2f4:	dfc00217 	ldw	ra,8(sp)
    c2f8:	dc000117 	ldw	r16,4(sp)
    c2fc:	dec00304 	addi	sp,sp,12
    c300:	f800283a 	ret
    c304:	00bfffc4 	movi	r2,-1
    c308:	003fc406 	br	c21c <GetTaskID+0x5c>
    c30c:	01400074 	movhi	r5,1
    c310:	29426504 	addi	r5,r5,2452
    c314:	00c00074 	movhi	r3,1
    c318:	18c33204 	addi	r3,r3,3272
    c31c:	19400015 	stw	r5,0(r3)
    c320:	010006c4 	movi	r4,27
    c324:	014035c4 	movi	r5,215
    c328:	00c00074 	movhi	r3,1
    c32c:	18c33104 	addi	r3,r3,3268
    c330:	19400015 	stw	r5,0(r3)
    c334:	000b7c00 	call	b7c0 <internal_shutdownos>
    c338:	d8800017 	ldw	r2,0(sp)
    c33c:	003fdf06 	br	c2bc <GetTaskID+0xfc>
    c340:	01400684 	movi	r5,26
    c344:	2805883a 	mov	r2,r5
    c348:	003fbc06 	br	c23c <GetTaskID+0x7c>
    c34c:	0001883a 	nop
    c350:	0001883a 	nop
    c354:	0001883a 	nop
    c358:	0001883a 	nop
    c35c:	0001883a 	nop

0000c360 <GetTaskState>:
    c360:	00800074 	movhi	r2,1
    c364:	10833504 	addi	r2,r2,3284
    c368:	1080000b 	ldhu	r2,0(r2)
    c36c:	defffd04 	addi	sp,sp,-12
    c370:	2007883a 	mov	r3,r4
    c374:	109c12d4 	ori	r2,r2,28747
    c378:	dfc00215 	stw	ra,8(sp)
    c37c:	dc000115 	stw	r16,4(sp)
    c380:	10bfffcc 	andi	r2,r2,65535
    c384:	011c12c4 	movi	r4,28747
    c388:	280f883a 	mov	r7,r5
    c38c:	11004b1e 	bne	r2,r4,c4bc <GetTaskState+0x15c>
    c390:	00800074 	movhi	r2,1
    c394:	10830d04 	addi	r2,r2,3124
    c398:	10800017 	ldw	r2,0(r2)
    c39c:	1880102e 	bgeu	r3,r2,c3e0 <GetTaskState+0x80>
    c3a0:	28005826 	beq	r5,zero,c504 <GetTaskState+0x1a4>
    c3a4:	18c00a24 	muli	r3,r3,40
    c3a8:	00800074 	movhi	r2,1
    c3ac:	10834204 	addi	r2,r2,3336
    c3b0:	10800017 	ldw	r2,0(r2)
    c3b4:	01000174 	movhi	r4,5
    c3b8:	2107a204 	addi	r4,r4,7816
    c3bc:	1907883a 	add	r3,r3,r4
    c3c0:	18804e26 	beq	r3,r2,c4fc <GetTaskState+0x19c>
    c3c4:	18800403 	ldbu	r2,16(r3)
    c3c8:	38800005 	stb	r2,0(r7)
    c3cc:	0005883a 	mov	r2,zero
    c3d0:	dfc00217 	ldw	ra,8(sp)
    c3d4:	dc000117 	ldw	r16,4(sp)
    c3d8:	dec00304 	addi	sp,sp,12
    c3dc:	f800283a 	ret
    c3e0:	014000c4 	movi	r5,3
    c3e4:	2805883a 	mov	r2,r5
    c3e8:	04000074 	movhi	r16,1
    c3ec:	84032a04 	addi	r16,r16,3240
    c3f0:	81000003 	ldbu	r4,0(r16)
    c3f4:	21003fcc 	andi	r4,r4,255
    c3f8:	20000c1e 	bne	r4,zero,c42c <GetTaskState+0xcc>
    c3fc:	0009303a 	rdctl	r4,status
    c400:	02000074 	movhi	r8,1
    c404:	42030404 	addi	r8,r8,3088
    c408:	42000017 	ldw	r8,0(r8)
    c40c:	01bf03c4 	movi	r6,-1009
    c410:	218c703a 	and	r6,r4,r6
    c414:	320cb03a 	or	r6,r6,r8
    c418:	3001703a 	wrctl	status,r6
    c41c:	01800074 	movhi	r6,1
    c420:	31832904 	addi	r6,r6,3236
    c424:	2100fc0c 	andi	r4,r4,1008
    c428:	31000015 	stw	r4,0(r6)
    c42c:	81000003 	ldbu	r4,0(r16)
    c430:	21000044 	addi	r4,r4,1
    c434:	81000005 	stb	r4,0(r16)
    c438:	02000074 	movhi	r8,1
    c43c:	42033b04 	addi	r8,r8,3308
    c440:	40c00015 	stw	r3,0(r8)
    c444:	00c00074 	movhi	r3,1
    c448:	18c33a04 	addi	r3,r3,3304
    c44c:	19c00015 	stw	r7,0(r3)
    c450:	01000074 	movhi	r4,1
    c454:	212d7004 	addi	r4,r4,-19008
    c458:	01803944 	movi	r6,229
    c45c:	d8800015 	stw	r2,0(sp)
    c460:	00085600 	call	8560 <stack_change_and_call_func_1>
    c464:	80c00003 	ldbu	r3,0(r16)
    c468:	d8800017 	ldw	r2,0(sp)
    c46c:	18c03fcc 	andi	r3,r3,255
    c470:	18001526 	beq	r3,zero,c4c8 <GetTaskState+0x168>
    c474:	80c00003 	ldbu	r3,0(r16)
    c478:	18ffffc4 	addi	r3,r3,-1
    c47c:	80c00005 	stb	r3,0(r16)
    c480:	80c00003 	ldbu	r3,0(r16)
    c484:	18c03fcc 	andi	r3,r3,255
    c488:	183fd11e 	bne	r3,zero,c3d0 <GetTaskState+0x70>
    c48c:	0007303a 	rdctl	r3,status
    c490:	01000074 	movhi	r4,1
    c494:	21032904 	addi	r4,r4,3236
    c498:	21000017 	ldw	r4,0(r4)
    c49c:	017f03c4 	movi	r5,-1009
    c4a0:	1946703a 	and	r3,r3,r5
    c4a4:	1906b03a 	or	r3,r3,r4
    c4a8:	1801703a 	wrctl	status,r3
    c4ac:	dfc00217 	ldw	ra,8(sp)
    c4b0:	dc000117 	ldw	r16,4(sp)
    c4b4:	dec00304 	addi	sp,sp,12
    c4b8:	f800283a 	ret
    c4bc:	01400084 	movi	r5,2
    c4c0:	2805883a 	mov	r2,r5
    c4c4:	003fc806 	br	c3e8 <GetTaskState+0x88>
    c4c8:	01400074 	movhi	r5,1
    c4cc:	29426504 	addi	r5,r5,2452
    c4d0:	00c00074 	movhi	r3,1
    c4d4:	18c33204 	addi	r3,r3,3272
    c4d8:	19400015 	stw	r5,0(r3)
    c4dc:	010006c4 	movi	r4,27
    c4e0:	014035c4 	movi	r5,215
    c4e4:	00c00074 	movhi	r3,1
    c4e8:	18c33104 	addi	r3,r3,3268
    c4ec:	19400015 	stw	r5,0(r3)
    c4f0:	000b7c00 	call	b7c0 <internal_shutdownos>
    c4f4:	d8800017 	ldw	r2,0(sp)
    c4f8:	003fde06 	br	c474 <GetTaskState+0x114>
    c4fc:	00800044 	movi	r2,1
    c500:	003fb106 	br	c3c8 <GetTaskState+0x68>
    c504:	01400684 	movi	r5,26
    c508:	2805883a 	mov	r2,r5
    c50c:	003fb606 	br	c3e8 <GetTaskState+0x88>
    c510:	0001883a 	nop
    c514:	0001883a 	nop
    c518:	0001883a 	nop
    c51c:	0001883a 	nop

0000c520 <activate_task_action>:
    c520:	2007883a 	mov	r3,r4
    c524:	21000a24 	muli	r4,r4,40
    c528:	deffff04 	addi	sp,sp,-4
    c52c:	00800174 	movhi	r2,5
    c530:	1087a204 	addi	r2,r2,7816
    c534:	dfc00015 	stw	ra,0(sp)
    c538:	2085883a 	add	r2,r4,r2
    c53c:	11000403 	ldbu	r4,16(r2)
    c540:	20001726 	beq	r4,zero,c5a0 <activate_task_action+0x80>
    c544:	11400217 	ldw	r5,8(r2)
    c548:	11000443 	ldbu	r4,17(r2)
    c54c:	29400503 	ldbu	r5,20(r5)
    c550:	21803fcc 	andi	r6,r4,255
    c554:	3140062e 	bgeu	r6,r5,c570 <activate_task_action+0x50>
    c558:	21000044 	addi	r4,r4,1
    c55c:	11000445 	stb	r4,17(r2)
    c560:	0005883a 	mov	r2,zero
    c564:	dfc00017 	ldw	ra,0(sp)
    c568:	dec00104 	addi	sp,sp,4
    c56c:	f800283a 	ret
    c570:	00800074 	movhi	r2,1
    c574:	10833b04 	addi	r2,r2,3308
    c578:	01000074 	movhi	r4,1
    c57c:	212d7004 	addi	r4,r4,-19008
    c580:	01400104 	movi	r5,4
    c584:	01803804 	movi	r6,224
    c588:	10c00015 	stw	r3,0(r2)
    c58c:	00085600 	call	8560 <stack_change_and_call_func_1>
    c590:	00800104 	movi	r2,4
    c594:	dfc00017 	ldw	ra,0(sp)
    c598:	dec00104 	addi	sp,sp,4
    c59c:	f800283a 	ret
    c5a0:	1009883a 	mov	r4,r2
    c5a4:	000e6e00 	call	e6e0 <make_active>
    c5a8:	0005883a 	mov	r2,zero
    c5ac:	dfc00017 	ldw	ra,0(sp)
    c5b0:	dec00104 	addi	sp,sp,4
    c5b4:	f800283a 	ret
	...

0000c5c0 <SetEvent>:
    c5c0:	defffd04 	addi	sp,sp,-12
    c5c4:	dc400115 	stw	r17,4(sp)
    c5c8:	04400074 	movhi	r17,1
    c5cc:	8c433504 	addi	r17,r17,3284
    c5d0:	8880000b 	ldhu	r2,0(r17)
    c5d4:	2007883a 	mov	r3,r4
    c5d8:	dfc00215 	stw	ra,8(sp)
    c5dc:	dc000015 	stw	r16,0(sp)
    c5e0:	111c000c 	andi	r4,r2,28672
    c5e4:	280f883a 	mov	r7,r5
    c5e8:	20003c1e 	bne	r4,zero,c6dc <SetEvent+0x11c>
    c5ec:	108000d4 	ori	r2,r2,3
    c5f0:	10bfffcc 	andi	r2,r2,65535
    c5f4:	010000c4 	movi	r4,3
    c5f8:	11004726 	beq	r2,r4,c718 <SetEvent+0x158>
    c5fc:	00800084 	movi	r2,2
    c600:	1023883a 	mov	r17,r2
    c604:	04000074 	movhi	r16,1
    c608:	84032a04 	addi	r16,r16,3240
    c60c:	81000003 	ldbu	r4,0(r16)
    c610:	21003fcc 	andi	r4,r4,255
    c614:	20000c1e 	bne	r4,zero,c648 <SetEvent+0x88>
    c618:	0009303a 	rdctl	r4,status
    c61c:	01800074 	movhi	r6,1
    c620:	31830404 	addi	r6,r6,3088
    c624:	31800017 	ldw	r6,0(r6)
    c628:	017f03c4 	movi	r5,-1009
    c62c:	214a703a 	and	r5,r4,r5
    c630:	298ab03a 	or	r5,r5,r6
    c634:	2801703a 	wrctl	status,r5
    c638:	01400074 	movhi	r5,1
    c63c:	29432904 	addi	r5,r5,3236
    c640:	2100fc0c 	andi	r4,r4,1008
    c644:	29000015 	stw	r4,0(r5)
    c648:	81000003 	ldbu	r4,0(r16)
    c64c:	21000044 	addi	r4,r4,1
    c650:	81000005 	stb	r4,0(r16)
    c654:	100b883a 	mov	r5,r2
    c658:	00800074 	movhi	r2,1
    c65c:	10833b04 	addi	r2,r2,3308
    c660:	10c00015 	stw	r3,0(r2)
    c664:	01000074 	movhi	r4,1
    c668:	212d7004 	addi	r4,r4,-19008
    c66c:	00800074 	movhi	r2,1
    c670:	10833a04 	addi	r2,r2,3304
    c674:	01803b84 	movi	r6,238
    c678:	11c00015 	stw	r7,0(r2)
    c67c:	00085600 	call	8560 <stack_change_and_call_func_1>
    c680:	80800003 	ldbu	r2,0(r16)
    c684:	10803fcc 	andi	r2,r2,255
    c688:	10001726 	beq	r2,zero,c6e8 <SetEvent+0x128>
    c68c:	80800003 	ldbu	r2,0(r16)
    c690:	10bfffc4 	addi	r2,r2,-1
    c694:	80800005 	stb	r2,0(r16)
    c698:	80800003 	ldbu	r2,0(r16)
    c69c:	10803fcc 	andi	r2,r2,255
    c6a0:	1000081e 	bne	r2,zero,c6c4 <SetEvent+0x104>
    c6a4:	0005303a 	rdctl	r2,status
    c6a8:	00c00074 	movhi	r3,1
    c6ac:	18c32904 	addi	r3,r3,3236
    c6b0:	18c00017 	ldw	r3,0(r3)
    c6b4:	013f03c4 	movi	r4,-1009
    c6b8:	1104703a 	and	r2,r2,r4
    c6bc:	10c4b03a 	or	r2,r2,r3
    c6c0:	1001703a 	wrctl	status,r2
    c6c4:	8805883a 	mov	r2,r17
    c6c8:	dfc00217 	ldw	ra,8(sp)
    c6cc:	dc400117 	ldw	r17,4(sp)
    c6d0:	dc000017 	ldw	r16,0(sp)
    c6d4:	dec00304 	addi	sp,sp,12
    c6d8:	f800283a 	ret
    c6dc:	00800304 	movi	r2,12
    c6e0:	1023883a 	mov	r17,r2
    c6e4:	003fc706 	br	c604 <SetEvent+0x44>
    c6e8:	00c00074 	movhi	r3,1
    c6ec:	18c26504 	addi	r3,r3,2452
    c6f0:	00800074 	movhi	r2,1
    c6f4:	10833204 	addi	r2,r2,3272
    c6f8:	10c00015 	stw	r3,0(r2)
    c6fc:	010006c4 	movi	r4,27
    c700:	00c035c4 	movi	r3,215
    c704:	00800074 	movhi	r2,1
    c708:	10833104 	addi	r2,r2,3268
    c70c:	10c00015 	stw	r3,0(r2)
    c710:	000b7c00 	call	b7c0 <internal_shutdownos>
    c714:	003fdd06 	br	c68c <SetEvent+0xcc>
    c718:	01000074 	movhi	r4,1
    c71c:	21030d04 	addi	r4,r4,3124
    c720:	21000017 	ldw	r4,0(r4)
    c724:	1900052e 	bgeu	r3,r4,c73c <SetEvent+0x17c>
    c728:	00800074 	movhi	r2,1
    c72c:	10830c04 	addi	r2,r2,3120
    c730:	10800017 	ldw	r2,0(r2)
    c734:	18800336 	bltu	r3,r2,c744 <SetEvent+0x184>
    c738:	00800044 	movi	r2,1
    c73c:	1023883a 	mov	r17,r2
    c740:	003fb006 	br	c604 <SetEvent+0x44>
    c744:	04000074 	movhi	r16,1
    c748:	84032a04 	addi	r16,r16,3240
    c74c:	81000003 	ldbu	r4,0(r16)
    c750:	18800a24 	muli	r2,r3,40
    c754:	01400174 	movhi	r5,5
    c758:	2947a204 	addi	r5,r5,7816
    c75c:	21003fcc 	andi	r4,r4,255
    c760:	1145883a 	add	r2,r2,r5
    c764:	20000c1e 	bne	r4,zero,c798 <SetEvent+0x1d8>
    c768:	0009303a 	rdctl	r4,status
    c76c:	01400074 	movhi	r5,1
    c770:	29430404 	addi	r5,r5,3088
    c774:	29400017 	ldw	r5,0(r5)
    c778:	01bf03c4 	movi	r6,-1009
    c77c:	218c703a 	and	r6,r4,r6
    c780:	314ab03a 	or	r5,r6,r5
    c784:	2801703a 	wrctl	status,r5
    c788:	01400074 	movhi	r5,1
    c78c:	29432904 	addi	r5,r5,3236
    c790:	2100fc0c 	andi	r4,r4,1008
    c794:	29000015 	stw	r4,0(r5)
    c798:	81000003 	ldbu	r4,0(r16)
    c79c:	21000044 	addi	r4,r4,1
    c7a0:	81000005 	stb	r4,0(r16)
    c7a4:	11000403 	ldbu	r4,16(r2)
    c7a8:	20001326 	beq	r4,zero,c7f8 <SetEvent+0x238>
    c7ac:	11000517 	ldw	r4,20(r2)
    c7b0:	10c00617 	ldw	r3,24(r2)
    c7b4:	390eb03a 	or	r7,r7,r4
    c7b8:	11c00515 	stw	r7,20(r2)
    c7bc:	38ce703a 	and	r7,r7,r3
    c7c0:	3800021e 	bne	r7,zero,c7cc <SetEvent+0x20c>
    c7c4:	0023883a 	mov	r17,zero
    c7c8:	003fad06 	br	c680 <SetEvent+0xc0>
    c7cc:	1009883a 	mov	r4,r2
    c7d0:	10000615 	stw	zero,24(r2)
    c7d4:	000e6000 	call	e600 <make_runnable>
    c7d8:	10803fcc 	andi	r2,r2,255
    c7dc:	103ff926 	beq	r2,zero,c7c4 <SetEvent+0x204>
    c7e0:	88c0000b 	ldhu	r3,0(r17)
    c7e4:	00800044 	movi	r2,1
    c7e8:	18bff61e 	bne	r3,r2,c7c4 <SetEvent+0x204>
    c7ec:	00004c00 	call	4c0 <dispatch>
    c7f0:	0023883a 	mov	r17,zero
    c7f4:	003fa206 	br	c680 <SetEvent+0xc0>
    c7f8:	008001c4 	movi	r2,7
    c7fc:	1023883a 	mov	r17,r2
    c800:	003f9406 	br	c654 <SetEvent+0x94>
    c804:	0001883a 	nop
    c808:	0001883a 	nop
    c80c:	0001883a 	nop
    c810:	0001883a 	nop
    c814:	0001883a 	nop
    c818:	0001883a 	nop
    c81c:	0001883a 	nop

0000c820 <ClearEvent>:
    c820:	00800074 	movhi	r2,1
    c824:	10833504 	addi	r2,r2,3284
    c828:	1140000b 	ldhu	r5,0(r2)
    c82c:	defffd04 	addi	sp,sp,-12
    c830:	dfc00215 	stw	ra,8(sp)
    c834:	dc000115 	stw	r16,4(sp)
    c838:	289c000c 	andi	r2,r5,28672
    c83c:	2007883a 	mov	r3,r4
    c840:	1000561e 	bne	r2,zero,c99c <ClearEvent+0x17c>
    c844:	29400054 	ori	r5,r5,1
    c848:	297fffcc 	andi	r5,r5,65535
    c84c:	00800044 	movi	r2,1
    c850:	28803426 	beq	r5,r2,c924 <ClearEvent+0x104>
    c854:	01400084 	movi	r5,2
    c858:	2805883a 	mov	r2,r5
    c85c:	04000074 	movhi	r16,1
    c860:	84032a04 	addi	r16,r16,3240
    c864:	81000003 	ldbu	r4,0(r16)
    c868:	21003fcc 	andi	r4,r4,255
    c86c:	20000c1e 	bne	r4,zero,c8a0 <ClearEvent+0x80>
    c870:	0009303a 	rdctl	r4,status
    c874:	01c00074 	movhi	r7,1
    c878:	39c30404 	addi	r7,r7,3088
    c87c:	39c00017 	ldw	r7,0(r7)
    c880:	01bf03c4 	movi	r6,-1009
    c884:	218c703a 	and	r6,r4,r6
    c888:	31ccb03a 	or	r6,r6,r7
    c88c:	3001703a 	wrctl	status,r6
    c890:	01800074 	movhi	r6,1
    c894:	31832904 	addi	r6,r6,3236
    c898:	2100fc0c 	andi	r4,r4,1008
    c89c:	31000015 	stw	r4,0(r6)
    c8a0:	81000003 	ldbu	r4,0(r16)
    c8a4:	21000044 	addi	r4,r4,1
    c8a8:	81000005 	stb	r4,0(r16)
    c8ac:	01c00074 	movhi	r7,1
    c8b0:	39c33b04 	addi	r7,r7,3308
    c8b4:	38c00015 	stw	r3,0(r7)
    c8b8:	01000074 	movhi	r4,1
    c8bc:	212d7004 	addi	r4,r4,-19008
    c8c0:	01803bc4 	movi	r6,239
    c8c4:	d8800015 	stw	r2,0(sp)
    c8c8:	00085600 	call	8560 <stack_change_and_call_func_1>
    c8cc:	d8800017 	ldw	r2,0(sp)
    c8d0:	80c00003 	ldbu	r3,0(r16)
    c8d4:	18c03fcc 	andi	r3,r3,255
    c8d8:	18002226 	beq	r3,zero,c964 <ClearEvent+0x144>
    c8dc:	80c00003 	ldbu	r3,0(r16)
    c8e0:	18ffffc4 	addi	r3,r3,-1
    c8e4:	80c00005 	stb	r3,0(r16)
    c8e8:	80c00003 	ldbu	r3,0(r16)
    c8ec:	18c03fcc 	andi	r3,r3,255
    c8f0:	1800081e 	bne	r3,zero,c914 <ClearEvent+0xf4>
    c8f4:	0007303a 	rdctl	r3,status
    c8f8:	01000074 	movhi	r4,1
    c8fc:	21032904 	addi	r4,r4,3236
    c900:	21000017 	ldw	r4,0(r4)
    c904:	017f03c4 	movi	r5,-1009
    c908:	1946703a 	and	r3,r3,r5
    c90c:	1906b03a 	or	r3,r3,r4
    c910:	1801703a 	wrctl	status,r3
    c914:	dfc00217 	ldw	ra,8(sp)
    c918:	dc000117 	ldw	r16,4(sp)
    c91c:	dec00304 	addi	sp,sp,12
    c920:	f800283a 	ret
    c924:	00800074 	movhi	r2,1
    c928:	10834204 	addi	r2,r2,3336
    c92c:	11800017 	ldw	r6,0(r2)
    c930:	01000174 	movhi	r4,5
    c934:	2107a204 	addi	r4,r4,7816
    c938:	310dc83a 	sub	r6,r6,r4
    c93c:	300dd0fa 	srai	r6,r6,3
    c940:	01333374 	movhi	r4,52429
    c944:	21333344 	addi	r4,r4,-13107
    c948:	310d383a 	mul	r6,r6,r4
    c94c:	01000074 	movhi	r4,1
    c950:	21030c04 	addi	r4,r4,3120
    c954:	21000017 	ldw	r4,0(r4)
    c958:	31001336 	bltu	r6,r4,c9a8 <ClearEvent+0x188>
    c95c:	2805883a 	mov	r2,r5
    c960:	003fbe06 	br	c85c <ClearEvent+0x3c>
    c964:	01400074 	movhi	r5,1
    c968:	29426504 	addi	r5,r5,2452
    c96c:	00c00074 	movhi	r3,1
    c970:	18c33204 	addi	r3,r3,3272
    c974:	19400015 	stw	r5,0(r3)
    c978:	014035c4 	movi	r5,215
    c97c:	00c00074 	movhi	r3,1
    c980:	18c33104 	addi	r3,r3,3268
    c984:	19400015 	stw	r5,0(r3)
    c988:	010006c4 	movi	r4,27
    c98c:	d8800015 	stw	r2,0(sp)
    c990:	000b7c00 	call	b7c0 <internal_shutdownos>
    c994:	d8800017 	ldw	r2,0(sp)
    c998:	003fd006 	br	c8dc <ClearEvent+0xbc>
    c99c:	01400304 	movi	r5,12
    c9a0:	2805883a 	mov	r2,r5
    c9a4:	003fad06 	br	c85c <ClearEvent+0x3c>
    c9a8:	04000074 	movhi	r16,1
    c9ac:	84032a04 	addi	r16,r16,3240
    c9b0:	81000003 	ldbu	r4,0(r16)
    c9b4:	21003fcc 	andi	r4,r4,255
    c9b8:	20000c1e 	bne	r4,zero,c9ec <ClearEvent+0x1cc>
    c9bc:	0009303a 	rdctl	r4,status
    c9c0:	01800074 	movhi	r6,1
    c9c4:	31830404 	addi	r6,r6,3088
    c9c8:	31800017 	ldw	r6,0(r6)
    c9cc:	017f03c4 	movi	r5,-1009
    c9d0:	214a703a 	and	r5,r4,r5
    c9d4:	298ab03a 	or	r5,r5,r6
    c9d8:	2801703a 	wrctl	status,r5
    c9dc:	01400074 	movhi	r5,1
    c9e0:	29432904 	addi	r5,r5,3236
    c9e4:	2100fc0c 	andi	r4,r4,1008
    c9e8:	29000015 	stw	r4,0(r5)
    c9ec:	81000003 	ldbu	r4,0(r16)
    c9f0:	21000044 	addi	r4,r4,1
    c9f4:	81000005 	stb	r4,0(r16)
    c9f8:	11000017 	ldw	r4,0(r2)
    c9fc:	00c6303a 	nor	r3,zero,r3
    ca00:	0005883a 	mov	r2,zero
    ca04:	21400517 	ldw	r5,20(r4)
    ca08:	28c6703a 	and	r3,r5,r3
    ca0c:	20c00515 	stw	r3,20(r4)
    ca10:	003faf06 	br	c8d0 <ClearEvent+0xb0>
    ca14:	0001883a 	nop
    ca18:	0001883a 	nop
    ca1c:	0001883a 	nop

0000ca20 <GetEvent>:
    ca20:	00800074 	movhi	r2,1
    ca24:	10833504 	addi	r2,r2,3284
    ca28:	1080000b 	ldhu	r2,0(r2)
    ca2c:	defffd04 	addi	sp,sp,-12
    ca30:	2007883a 	mov	r3,r4
    ca34:	dfc00215 	stw	ra,8(sp)
    ca38:	dc400115 	stw	r17,4(sp)
    ca3c:	dc000015 	stw	r16,0(sp)
    ca40:	111c000c 	andi	r4,r2,28672
    ca44:	280f883a 	mov	r7,r5
    ca48:	20003c1e 	bne	r4,zero,cb3c <GetEvent+0x11c>
    ca4c:	108012d4 	ori	r2,r2,75
    ca50:	10bfffcc 	andi	r2,r2,65535
    ca54:	010012c4 	movi	r4,75
    ca58:	11004726 	beq	r2,r4,cb78 <GetEvent+0x158>
    ca5c:	00800084 	movi	r2,2
    ca60:	1023883a 	mov	r17,r2
    ca64:	04000074 	movhi	r16,1
    ca68:	84032a04 	addi	r16,r16,3240
    ca6c:	81000003 	ldbu	r4,0(r16)
    ca70:	21003fcc 	andi	r4,r4,255
    ca74:	20000c1e 	bne	r4,zero,caa8 <GetEvent+0x88>
    ca78:	0009303a 	rdctl	r4,status
    ca7c:	01800074 	movhi	r6,1
    ca80:	31830404 	addi	r6,r6,3088
    ca84:	31800017 	ldw	r6,0(r6)
    ca88:	017f03c4 	movi	r5,-1009
    ca8c:	214a703a 	and	r5,r4,r5
    ca90:	298ab03a 	or	r5,r5,r6
    ca94:	2801703a 	wrctl	status,r5
    ca98:	01400074 	movhi	r5,1
    ca9c:	29432904 	addi	r5,r5,3236
    caa0:	2100fc0c 	andi	r4,r4,1008
    caa4:	29000015 	stw	r4,0(r5)
    caa8:	81000003 	ldbu	r4,0(r16)
    caac:	21000044 	addi	r4,r4,1
    cab0:	81000005 	stb	r4,0(r16)
    cab4:	100b883a 	mov	r5,r2
    cab8:	00800074 	movhi	r2,1
    cabc:	10833b04 	addi	r2,r2,3308
    cac0:	10c00015 	stw	r3,0(r2)
    cac4:	01000074 	movhi	r4,1
    cac8:	212d7004 	addi	r4,r4,-19008
    cacc:	00800074 	movhi	r2,1
    cad0:	10833a04 	addi	r2,r2,3304
    cad4:	01803c04 	movi	r6,240
    cad8:	11c00015 	stw	r7,0(r2)
    cadc:	00085600 	call	8560 <stack_change_and_call_func_1>
    cae0:	80800003 	ldbu	r2,0(r16)
    cae4:	10803fcc 	andi	r2,r2,255
    cae8:	10001726 	beq	r2,zero,cb48 <GetEvent+0x128>
    caec:	80800003 	ldbu	r2,0(r16)
    caf0:	10bfffc4 	addi	r2,r2,-1
    caf4:	80800005 	stb	r2,0(r16)
    caf8:	80800003 	ldbu	r2,0(r16)
    cafc:	10803fcc 	andi	r2,r2,255
    cb00:	1000081e 	bne	r2,zero,cb24 <GetEvent+0x104>
    cb04:	0005303a 	rdctl	r2,status
    cb08:	00c00074 	movhi	r3,1
    cb0c:	18c32904 	addi	r3,r3,3236
    cb10:	18c00017 	ldw	r3,0(r3)
    cb14:	013f03c4 	movi	r4,-1009
    cb18:	1104703a 	and	r2,r2,r4
    cb1c:	10c4b03a 	or	r2,r2,r3
    cb20:	1001703a 	wrctl	status,r2
    cb24:	8805883a 	mov	r2,r17
    cb28:	dfc00217 	ldw	ra,8(sp)
    cb2c:	dc400117 	ldw	r17,4(sp)
    cb30:	dc000017 	ldw	r16,0(sp)
    cb34:	dec00304 	addi	sp,sp,12
    cb38:	f800283a 	ret
    cb3c:	00800304 	movi	r2,12
    cb40:	1023883a 	mov	r17,r2
    cb44:	003fc706 	br	ca64 <GetEvent+0x44>
    cb48:	00c00074 	movhi	r3,1
    cb4c:	18c26504 	addi	r3,r3,2452
    cb50:	00800074 	movhi	r2,1
    cb54:	10833204 	addi	r2,r2,3272
    cb58:	10c00015 	stw	r3,0(r2)
    cb5c:	010006c4 	movi	r4,27
    cb60:	00c035c4 	movi	r3,215
    cb64:	00800074 	movhi	r2,1
    cb68:	10833104 	addi	r2,r2,3268
    cb6c:	10c00015 	stw	r3,0(r2)
    cb70:	000b7c00 	call	b7c0 <internal_shutdownos>
    cb74:	003fdd06 	br	caec <GetEvent+0xcc>
    cb78:	00800074 	movhi	r2,1
    cb7c:	10830d04 	addi	r2,r2,3124
    cb80:	10800017 	ldw	r2,0(r2)
    cb84:	1880262e 	bgeu	r3,r2,cc20 <GetEvent+0x200>
    cb88:	00800074 	movhi	r2,1
    cb8c:	10830c04 	addi	r2,r2,3120
    cb90:	10800017 	ldw	r2,0(r2)
    cb94:	1880252e 	bgeu	r3,r2,cc2c <GetEvent+0x20c>
    cb98:	28002b26 	beq	r5,zero,cc48 <GetEvent+0x228>
    cb9c:	04000074 	movhi	r16,1
    cba0:	84032a04 	addi	r16,r16,3240
    cba4:	81000003 	ldbu	r4,0(r16)
    cba8:	18800a24 	muli	r2,r3,40
    cbac:	01400174 	movhi	r5,5
    cbb0:	2947a204 	addi	r5,r5,7816
    cbb4:	21003fcc 	andi	r4,r4,255
    cbb8:	1145883a 	add	r2,r2,r5
    cbbc:	20000c1e 	bne	r4,zero,cbf0 <GetEvent+0x1d0>
    cbc0:	0009303a 	rdctl	r4,status
    cbc4:	01400074 	movhi	r5,1
    cbc8:	29430404 	addi	r5,r5,3088
    cbcc:	29400017 	ldw	r5,0(r5)
    cbd0:	01bf03c4 	movi	r6,-1009
    cbd4:	218c703a 	and	r6,r4,r6
    cbd8:	314ab03a 	or	r5,r6,r5
    cbdc:	2801703a 	wrctl	status,r5
    cbe0:	01400074 	movhi	r5,1
    cbe4:	29432904 	addi	r5,r5,3236
    cbe8:	2100fc0c 	andi	r4,r4,1008
    cbec:	29000015 	stw	r4,0(r5)
    cbf0:	81000003 	ldbu	r4,0(r16)
    cbf4:	21000044 	addi	r4,r4,1
    cbf8:	81000005 	stb	r4,0(r16)
    cbfc:	11000403 	ldbu	r4,16(r2)
    cc00:	20000d1e 	bne	r4,zero,cc38 <GetEvent+0x218>
    cc04:	01000074 	movhi	r4,1
    cc08:	21034204 	addi	r4,r4,3336
    cc0c:	21000017 	ldw	r4,0(r4)
    cc10:	11000926 	beq	r2,r4,cc38 <GetEvent+0x218>
    cc14:	008001c4 	movi	r2,7
    cc18:	1023883a 	mov	r17,r2
    cc1c:	003fa506 	br	cab4 <GetEvent+0x94>
    cc20:	008000c4 	movi	r2,3
    cc24:	1023883a 	mov	r17,r2
    cc28:	003f8e06 	br	ca64 <GetEvent+0x44>
    cc2c:	00800044 	movi	r2,1
    cc30:	1023883a 	mov	r17,r2
    cc34:	003f8b06 	br	ca64 <GetEvent+0x44>
    cc38:	10800517 	ldw	r2,20(r2)
    cc3c:	0023883a 	mov	r17,zero
    cc40:	38800015 	stw	r2,0(r7)
    cc44:	003fa606 	br	cae0 <GetEvent+0xc0>
    cc48:	00800684 	movi	r2,26
    cc4c:	1023883a 	mov	r17,r2
    cc50:	003f8406 	br	ca64 <GetEvent+0x44>
    cc54:	0001883a 	nop
    cc58:	0001883a 	nop
    cc5c:	0001883a 	nop

0000cc60 <WaitEvent>:
    cc60:	00800074 	movhi	r2,1
    cc64:	10833504 	addi	r2,r2,3284
    cc68:	1140000b 	ldhu	r5,0(r2)
    cc6c:	defffd04 	addi	sp,sp,-12
    cc70:	dfc00215 	stw	ra,8(sp)
    cc74:	dc400115 	stw	r17,4(sp)
    cc78:	dc000015 	stw	r16,0(sp)
    cc7c:	28dc000c 	andi	r3,r5,28672
    cc80:	2005883a 	mov	r2,r4
    cc84:	1800571e 	bne	r3,zero,cde4 <WaitEvent+0x184>
    cc88:	29400054 	ori	r5,r5,1
    cc8c:	297fffcc 	andi	r5,r5,65535
    cc90:	00c00044 	movi	r3,1
    cc94:	28c03426 	beq	r5,r3,cd68 <WaitEvent+0x108>
    cc98:	01400084 	movi	r5,2
    cc9c:	2823883a 	mov	r17,r5
    cca0:	04000074 	movhi	r16,1
    cca4:	84032a04 	addi	r16,r16,3240
    cca8:	80c00003 	ldbu	r3,0(r16)
    ccac:	18c03fcc 	andi	r3,r3,255
    ccb0:	18000c1e 	bne	r3,zero,cce4 <WaitEvent+0x84>
    ccb4:	0007303a 	rdctl	r3,status
    ccb8:	01800074 	movhi	r6,1
    ccbc:	31830404 	addi	r6,r6,3088
    ccc0:	31800017 	ldw	r6,0(r6)
    ccc4:	013f03c4 	movi	r4,-1009
    ccc8:	1908703a 	and	r4,r3,r4
    cccc:	2188b03a 	or	r4,r4,r6
    ccd0:	2001703a 	wrctl	status,r4
    ccd4:	01000074 	movhi	r4,1
    ccd8:	21032904 	addi	r4,r4,3236
    ccdc:	18c0fc0c 	andi	r3,r3,1008
    cce0:	20c00015 	stw	r3,0(r4)
    cce4:	80c00003 	ldbu	r3,0(r16)
    cce8:	18c00044 	addi	r3,r3,1
    ccec:	80c00005 	stb	r3,0(r16)
    ccf0:	00c00074 	movhi	r3,1
    ccf4:	18c33b04 	addi	r3,r3,3308
    ccf8:	01000074 	movhi	r4,1
    ccfc:	212d7004 	addi	r4,r4,-19008
    cd00:	01803c44 	movi	r6,241
    cd04:	18800015 	stw	r2,0(r3)
    cd08:	00085600 	call	8560 <stack_change_and_call_func_1>
    cd0c:	80800003 	ldbu	r2,0(r16)
    cd10:	10803fcc 	andi	r2,r2,255
    cd14:	10002726 	beq	r2,zero,cdb4 <WaitEvent+0x154>
    cd18:	80800003 	ldbu	r2,0(r16)
    cd1c:	10bfffc4 	addi	r2,r2,-1
    cd20:	80800005 	stb	r2,0(r16)
    cd24:	80800003 	ldbu	r2,0(r16)
    cd28:	10803fcc 	andi	r2,r2,255
    cd2c:	1000081e 	bne	r2,zero,cd50 <WaitEvent+0xf0>
    cd30:	0005303a 	rdctl	r2,status
    cd34:	00c00074 	movhi	r3,1
    cd38:	18c32904 	addi	r3,r3,3236
    cd3c:	18c00017 	ldw	r3,0(r3)
    cd40:	013f03c4 	movi	r4,-1009
    cd44:	1104703a 	and	r2,r2,r4
    cd48:	10c4b03a 	or	r2,r2,r3
    cd4c:	1001703a 	wrctl	status,r2
    cd50:	8805883a 	mov	r2,r17
    cd54:	dfc00217 	ldw	ra,8(sp)
    cd58:	dc400117 	ldw	r17,4(sp)
    cd5c:	dc000017 	ldw	r16,0(sp)
    cd60:	dec00304 	addi	sp,sp,12
    cd64:	f800283a 	ret
    cd68:	01000074 	movhi	r4,1
    cd6c:	21034204 	addi	r4,r4,3336
    cd70:	20c00017 	ldw	r3,0(r4)
    cd74:	01c00174 	movhi	r7,5
    cd78:	39c7a204 	addi	r7,r7,7816
    cd7c:	01b33374 	movhi	r6,52429
    cd80:	31b33344 	addi	r6,r6,-13107
    cd84:	19cfc83a 	sub	r7,r3,r7
    cd88:	380fd0fa 	srai	r7,r7,3
    cd8c:	398f383a 	mul	r7,r7,r6
    cd90:	01800074 	movhi	r6,1
    cd94:	31830c04 	addi	r6,r6,3120
    cd98:	31800017 	ldw	r6,0(r6)
    cd9c:	3980032e 	bgeu	r7,r6,cdac <WaitEvent+0x14c>
    cda0:	18c00717 	ldw	r3,28(r3)
    cda4:	18001226 	beq	r3,zero,cdf0 <WaitEvent+0x190>
    cda8:	01400184 	movi	r5,6
    cdac:	2823883a 	mov	r17,r5
    cdb0:	003fbb06 	br	cca0 <WaitEvent+0x40>
    cdb4:	00c00074 	movhi	r3,1
    cdb8:	18c26504 	addi	r3,r3,2452
    cdbc:	00800074 	movhi	r2,1
    cdc0:	10833204 	addi	r2,r2,3272
    cdc4:	10c00015 	stw	r3,0(r2)
    cdc8:	010006c4 	movi	r4,27
    cdcc:	00c035c4 	movi	r3,215
    cdd0:	00800074 	movhi	r2,1
    cdd4:	10833104 	addi	r2,r2,3268
    cdd8:	10c00015 	stw	r3,0(r2)
    cddc:	000b7c00 	call	b7c0 <internal_shutdownos>
    cde0:	003fcd06 	br	cd18 <WaitEvent+0xb8>
    cde4:	01400304 	movi	r5,12
    cde8:	2823883a 	mov	r17,r5
    cdec:	003fac06 	br	cca0 <WaitEvent+0x40>
    cdf0:	04000074 	movhi	r16,1
    cdf4:	84032a04 	addi	r16,r16,3240
    cdf8:	80c00003 	ldbu	r3,0(r16)
    cdfc:	18c03fcc 	andi	r3,r3,255
    ce00:	18000c1e 	bne	r3,zero,ce34 <WaitEvent+0x1d4>
    ce04:	0007303a 	rdctl	r3,status
    ce08:	01400074 	movhi	r5,1
    ce0c:	29430404 	addi	r5,r5,3088
    ce10:	29400017 	ldw	r5,0(r5)
    ce14:	01bf03c4 	movi	r6,-1009
    ce18:	198c703a 	and	r6,r3,r6
    ce1c:	314ab03a 	or	r5,r6,r5
    ce20:	2801703a 	wrctl	status,r5
    ce24:	01400074 	movhi	r5,1
    ce28:	29432904 	addi	r5,r5,3236
    ce2c:	18c0fc0c 	andi	r3,r3,1008
    ce30:	28c00015 	stw	r3,0(r5)
    ce34:	80c00003 	ldbu	r3,0(r16)
    ce38:	18c00044 	addi	r3,r3,1
    ce3c:	80c00005 	stb	r3,0(r16)
    ce40:	20c00017 	ldw	r3,0(r4)
    ce44:	19000517 	ldw	r4,20(r3)
    ce48:	1108703a 	and	r4,r2,r4
    ce4c:	20000226 	beq	r4,zero,ce58 <WaitEvent+0x1f8>
    ce50:	0023883a 	mov	r17,zero
    ce54:	003fad06 	br	cd0c <WaitEvent+0xac>
    ce58:	19000217 	ldw	r4,8(r3)
    ce5c:	014000c4 	movi	r5,3
    ce60:	0023883a 	mov	r17,zero
    ce64:	21000317 	ldw	r4,12(r4)
    ce68:	18800615 	stw	r2,24(r3)
    ce6c:	19400405 	stb	r5,16(r3)
    ce70:	19000315 	stw	r4,12(r3)
    ce74:	000e6c00 	call	e6c0 <make_non_runnable>
    ce78:	00004c00 	call	4c0 <dispatch>
    ce7c:	00800074 	movhi	r2,1
    ce80:	10834204 	addi	r2,r2,3336
    ce84:	10800017 	ldw	r2,0(r2)
    ce88:	10c00217 	ldw	r3,8(r2)
    ce8c:	18c00417 	ldw	r3,16(r3)
    ce90:	10c00315 	stw	r3,12(r2)
    ce94:	003f9d06 	br	cd0c <WaitEvent+0xac>
    ce98:	0001883a 	nop
    ce9c:	0001883a 	nop

0000cea0 <set_event_action>:
    cea0:	20800a24 	muli	r2,r4,40
    cea4:	deffff04 	addi	sp,sp,-4
    cea8:	2007883a 	mov	r3,r4
    ceac:	01000174 	movhi	r4,5
    ceb0:	2107a204 	addi	r4,r4,7816
    ceb4:	dfc00015 	stw	ra,0(sp)
    ceb8:	1105883a 	add	r2,r2,r4
    cebc:	11000403 	ldbu	r4,16(r2)
    cec0:	280f883a 	mov	r7,r5
    cec4:	20001126 	beq	r4,zero,cf0c <set_event_action+0x6c>
    cec8:	11000517 	ldw	r4,20(r2)
    cecc:	10c00617 	ldw	r3,24(r2)
    ced0:	290eb03a 	or	r7,r5,r4
    ced4:	11c00515 	stw	r7,20(r2)
    ced8:	38ce703a 	and	r7,r7,r3
    cedc:	3800041e 	bne	r7,zero,cef0 <set_event_action+0x50>
    cee0:	0005883a 	mov	r2,zero
    cee4:	dfc00017 	ldw	ra,0(sp)
    cee8:	dec00104 	addi	sp,sp,4
    ceec:	f800283a 	ret
    cef0:	1009883a 	mov	r4,r2
    cef4:	10000615 	stw	zero,24(r2)
    cef8:	000e6000 	call	e600 <make_runnable>
    cefc:	0005883a 	mov	r2,zero
    cf00:	dfc00017 	ldw	ra,0(sp)
    cf04:	dec00104 	addi	sp,sp,4
    cf08:	f800283a 	ret
    cf0c:	00800074 	movhi	r2,1
    cf10:	10833b04 	addi	r2,r2,3308
    cf14:	10c00015 	stw	r3,0(r2)
    cf18:	01000074 	movhi	r4,1
    cf1c:	212d7004 	addi	r4,r4,-19008
    cf20:	00800074 	movhi	r2,1
    cf24:	10833a04 	addi	r2,r2,3304
    cf28:	014001c4 	movi	r5,7
    cf2c:	01803b84 	movi	r6,238
    cf30:	11c00015 	stw	r7,0(r2)
    cf34:	00085600 	call	8560 <stack_change_and_call_func_1>
    cf38:	008001c4 	movi	r2,7
    cf3c:	dfc00017 	ldw	ra,0(sp)
    cf40:	dec00104 	addi	sp,sp,4
    cf44:	f800283a 	ret
	...

0000cf60 <x_set_ipm>:
    cf60:	defffe04 	addi	sp,sp,-8
    cf64:	dc000015 	stw	r16,0(sp)
    cf68:	dfc00115 	stw	ra,4(sp)
    cf6c:	00800074 	movhi	r2,1
    cf70:	10832a04 	addi	r2,r2,3240
    cf74:	10800003 	ldbu	r2,0(r2)
    cf78:	2021883a 	mov	r16,r4
    cf7c:	10803fcc 	andi	r2,r2,255
    cf80:	10000b1e 	bne	r2,zero,cfb0 <x_set_ipm+0x50>
    cf84:	00c00074 	movhi	r3,1
    cf88:	18c26504 	addi	r3,r3,2452
    cf8c:	00800074 	movhi	r2,1
    cf90:	10833204 	addi	r2,r2,3272
    cf94:	10c00015 	stw	r3,0(r2)
    cf98:	010006c4 	movi	r4,27
    cf9c:	00c04c04 	movi	r3,304
    cfa0:	00800074 	movhi	r2,1
    cfa4:	10833104 	addi	r2,r2,3268
    cfa8:	10c00015 	stw	r3,0(r2)
    cfac:	000b7c00 	call	b7c0 <internal_shutdownos>
    cfb0:	0421c83a 	sub	r16,zero,r16
    cfb4:	8020913a 	slli	r16,r16,4
    cfb8:	00800074 	movhi	r2,1
    cfbc:	10832904 	addi	r2,r2,3236
    cfc0:	14000015 	stw	r16,0(r2)
    cfc4:	dfc00117 	ldw	ra,4(sp)
    cfc8:	dc000017 	ldw	r16,0(sp)
    cfcc:	dec00204 	addi	sp,sp,8
    cfd0:	f800283a 	ret
    cfd4:	0001883a 	nop
    cfd8:	0001883a 	nop
    cfdc:	0001883a 	nop

0000cfe0 <resource_initialize>:
    cfe0:	00800074 	movhi	r2,1
    cfe4:	10830e04 	addi	r2,r2,3128
    cfe8:	11400017 	ldw	r5,0(r2)
    cfec:	28000e26 	beq	r5,zero,d028 <resource_initialize+0x48>
    cff0:	0005883a 	mov	r2,zero
    cff4:	01c00174 	movhi	r7,5
    cff8:	39c76c04 	addi	r7,r7,7600
    cffc:	01800074 	movhi	r6,1
    d000:	3181fb04 	addi	r6,r6,2028
    d004:	1006913a 	slli	r3,r2,4
    d008:	1089883a 	add	r4,r2,r2
    d00c:	2109883a 	add	r4,r4,r4
    d010:	38c7883a 	add	r3,r7,r3
    d014:	3109883a 	add	r4,r6,r4
    d018:	19000015 	stw	r4,0(r3)
    d01c:	18000305 	stb	zero,12(r3)
    d020:	10800044 	addi	r2,r2,1
    d024:	117ff71e 	bne	r2,r5,d004 <resource_initialize+0x24>
    d028:	f800283a 	ret
    d02c:	0001883a 	nop
    d030:	0001883a 	nop
    d034:	0001883a 	nop
    d038:	0001883a 	nop
    d03c:	0001883a 	nop

0000d040 <GetResource>:
    d040:	00800074 	movhi	r2,1
    d044:	10833504 	addi	r2,r2,3284
    d048:	1080000b 	ldhu	r2,0(r2)
    d04c:	defffa04 	addi	sp,sp,-24
    d050:	2007883a 	mov	r3,r4
    d054:	dfc00515 	stw	ra,20(sp)
    d058:	dd000415 	stw	r20,16(sp)
    d05c:	dcc00315 	stw	r19,12(sp)
    d060:	dc800215 	stw	r18,8(sp)
    d064:	dc400115 	stw	r17,4(sp)
    d068:	dc000015 	stw	r16,0(sp)
    d06c:	111c000c 	andi	r4,r2,28672
    d070:	20003b1e 	bne	r4,zero,d160 <GetResource+0x120>
    d074:	114000d4 	ori	r5,r2,3
    d078:	297fffcc 	andi	r5,r5,65535
    d07c:	010000c4 	movi	r4,3
    d080:	29004626 	beq	r5,r4,d19c <GetResource+0x15c>
    d084:	01400084 	movi	r5,2
    d088:	2823883a 	mov	r17,r5
    d08c:	04000074 	movhi	r16,1
    d090:	84032a04 	addi	r16,r16,3240
    d094:	80800003 	ldbu	r2,0(r16)
    d098:	10803fcc 	andi	r2,r2,255
    d09c:	10000c1e 	bne	r2,zero,d0d0 <GetResource+0x90>
    d0a0:	0005303a 	rdctl	r2,status
    d0a4:	01800074 	movhi	r6,1
    d0a8:	31830404 	addi	r6,r6,3088
    d0ac:	31800017 	ldw	r6,0(r6)
    d0b0:	013f03c4 	movi	r4,-1009
    d0b4:	1108703a 	and	r4,r2,r4
    d0b8:	2188b03a 	or	r4,r4,r6
    d0bc:	2001703a 	wrctl	status,r4
    d0c0:	01000074 	movhi	r4,1
    d0c4:	21032904 	addi	r4,r4,3236
    d0c8:	1080fc0c 	andi	r2,r2,1008
    d0cc:	20800015 	stw	r2,0(r4)
    d0d0:	80800003 	ldbu	r2,0(r16)
    d0d4:	10800044 	addi	r2,r2,1
    d0d8:	80800005 	stb	r2,0(r16)
    d0dc:	00800074 	movhi	r2,1
    d0e0:	10833b04 	addi	r2,r2,3308
    d0e4:	01000074 	movhi	r4,1
    d0e8:	212d7004 	addi	r4,r4,-19008
    d0ec:	01803b04 	movi	r6,236
    d0f0:	10c00015 	stw	r3,0(r2)
    d0f4:	00085600 	call	8560 <stack_change_and_call_func_1>
    d0f8:	80800003 	ldbu	r2,0(r16)
    d0fc:	10803fcc 	andi	r2,r2,255
    d100:	10001a26 	beq	r2,zero,d16c <GetResource+0x12c>
    d104:	80800003 	ldbu	r2,0(r16)
    d108:	10bfffc4 	addi	r2,r2,-1
    d10c:	80800005 	stb	r2,0(r16)
    d110:	80800003 	ldbu	r2,0(r16)
    d114:	10803fcc 	andi	r2,r2,255
    d118:	1000081e 	bne	r2,zero,d13c <GetResource+0xfc>
    d11c:	0005303a 	rdctl	r2,status
    d120:	00c00074 	movhi	r3,1
    d124:	18c32904 	addi	r3,r3,3236
    d128:	18c00017 	ldw	r3,0(r3)
    d12c:	013f03c4 	movi	r4,-1009
    d130:	1104703a 	and	r2,r2,r4
    d134:	10c4b03a 	or	r2,r2,r3
    d138:	1001703a 	wrctl	status,r2
    d13c:	8805883a 	mov	r2,r17
    d140:	dfc00517 	ldw	ra,20(sp)
    d144:	dd000417 	ldw	r20,16(sp)
    d148:	dcc00317 	ldw	r19,12(sp)
    d14c:	dc800217 	ldw	r18,8(sp)
    d150:	dc400117 	ldw	r17,4(sp)
    d154:	dc000017 	ldw	r16,0(sp)
    d158:	dec00604 	addi	sp,sp,24
    d15c:	f800283a 	ret
    d160:	01400304 	movi	r5,12
    d164:	2823883a 	mov	r17,r5
    d168:	003fc806 	br	d08c <GetResource+0x4c>
    d16c:	00c00074 	movhi	r3,1
    d170:	18c26504 	addi	r3,r3,2452
    d174:	00800074 	movhi	r2,1
    d178:	10833204 	addi	r2,r2,3272
    d17c:	10c00015 	stw	r3,0(r2)
    d180:	010006c4 	movi	r4,27
    d184:	00c035c4 	movi	r3,215
    d188:	00800074 	movhi	r2,1
    d18c:	10833104 	addi	r2,r2,3268
    d190:	10c00015 	stw	r3,0(r2)
    d194:	000b7c00 	call	b7c0 <internal_shutdownos>
    d198:	003fda06 	br	d104 <GetResource+0xc4>
    d19c:	01000074 	movhi	r4,1
    d1a0:	21030e04 	addi	r4,r4,3128
    d1a4:	21000017 	ldw	r4,0(r4)
    d1a8:	19000f2e 	bgeu	r3,r4,d1e8 <GetResource+0x1a8>
    d1ac:	1822913a 	slli	r17,r3,4
    d1b0:	01000174 	movhi	r4,5
    d1b4:	21076c04 	addi	r4,r4,7600
    d1b8:	10bfffcc 	andi	r2,r2,65535
    d1bc:	8923883a 	add	r17,r17,r4
    d1c0:	89000017 	ldw	r4,0(r17)
    d1c4:	01400044 	movi	r5,1
    d1c8:	24800017 	ldw	r18,0(r4)
    d1cc:	11402126 	beq	r2,r5,d254 <GetResource+0x214>
    d1d0:	04c00074 	movhi	r19,1
    d1d4:	9cc33e04 	addi	r19,r19,3320
    d1d8:	98800017 	ldw	r2,0(r19)
    d1dc:	10800017 	ldw	r2,0(r2)
    d1e0:	10800217 	ldw	r2,8(r2)
    d1e4:	1480020e 	bge	r2,r18,d1f0 <GetResource+0x1b0>
    d1e8:	2823883a 	mov	r17,r5
    d1ec:	003fa706 	br	d08c <GetResource+0x4c>
    d1f0:	04000074 	movhi	r16,1
    d1f4:	84032a04 	addi	r16,r16,3240
    d1f8:	80800003 	ldbu	r2,0(r16)
    d1fc:	10803fcc 	andi	r2,r2,255
    d200:	10000c1e 	bne	r2,zero,d234 <GetResource+0x1f4>
    d204:	0005303a 	rdctl	r2,status
    d208:	01000074 	movhi	r4,1
    d20c:	21030404 	addi	r4,r4,3088
    d210:	21000017 	ldw	r4,0(r4)
    d214:	017f03c4 	movi	r5,-1009
    d218:	114a703a 	and	r5,r2,r5
    d21c:	2908b03a 	or	r4,r5,r4
    d220:	2001703a 	wrctl	status,r4
    d224:	01000074 	movhi	r4,1
    d228:	21032904 	addi	r4,r4,3236
    d22c:	1080fc0c 	andi	r2,r2,1008
    d230:	20800015 	stw	r2,0(r4)
    d234:	80800003 	ldbu	r2,0(r16)
    d238:	10800044 	addi	r2,r2,1
    d23c:	80800005 	stb	r2,0(r16)
    d240:	88800303 	ldbu	r2,12(r17)
    d244:	10000c26 	beq	r2,zero,d278 <GetResource+0x238>
    d248:	01400044 	movi	r5,1
    d24c:	2823883a 	mov	r17,r5
    d250:	003fa206 	br	d0dc <GetResource+0x9c>
    d254:	01000074 	movhi	r4,1
    d258:	21034204 	addi	r4,r4,3336
    d25c:	21400017 	ldw	r5,0(r4)
    d260:	29400217 	ldw	r5,8(r5)
    d264:	29400317 	ldw	r5,12(r5)
    d268:	2c80350e 	bge	r5,r18,d340 <GetResource+0x300>
    d26c:	100b883a 	mov	r5,r2
    d270:	1023883a 	mov	r17,r2
    d274:	003f8506 	br	d08c <GetResource+0x4c>
    d278:	00800074 	movhi	r2,1
    d27c:	10832a04 	addi	r2,r2,3240
    d280:	10800003 	ldbu	r2,0(r2)
    d284:	10803fcc 	andi	r2,r2,255
    d288:	10000b1e 	bne	r2,zero,d2b8 <GetResource+0x278>
    d28c:	00c00074 	movhi	r3,1
    d290:	18c26504 	addi	r3,r3,2452
    d294:	00800074 	movhi	r2,1
    d298:	10833204 	addi	r2,r2,3272
    d29c:	10c00015 	stw	r3,0(r2)
    d2a0:	010006c4 	movi	r4,27
    d2a4:	00c04f44 	movi	r3,317
    d2a8:	00800074 	movhi	r2,1
    d2ac:	10833104 	addi	r2,r2,3268
    d2b0:	10c00015 	stw	r3,0(r2)
    d2b4:	000b7c00 	call	b7c0 <internal_shutdownos>
    d2b8:	05000074 	movhi	r20,1
    d2bc:	a5032904 	addi	r20,r20,3236
    d2c0:	a0800017 	ldw	r2,0(r20)
    d2c4:	98c00017 	ldw	r3,0(r19)
    d2c8:	01000044 	movi	r4,1
    d2cc:	89000305 	stb	r4,12(r17)
    d2d0:	1004d13a 	srli	r2,r2,4
    d2d4:	19000117 	ldw	r4,4(r3)
    d2d8:	0085c83a 	sub	r2,zero,r2
    d2dc:	88800115 	stw	r2,4(r17)
    d2e0:	89000215 	stw	r4,8(r17)
    d2e4:	1c400115 	stw	r17,4(r3)
    d2e8:	90800216 	blt	r18,r2,d2f4 <GetResource+0x2b4>
    d2ec:	0023883a 	mov	r17,zero
    d2f0:	003f8106 	br	d0f8 <GetResource+0xb8>
    d2f4:	80800003 	ldbu	r2,0(r16)
    d2f8:	10803fcc 	andi	r2,r2,255
    d2fc:	10000b1e 	bne	r2,zero,d32c <GetResource+0x2ec>
    d300:	00c00074 	movhi	r3,1
    d304:	18c26504 	addi	r3,r3,2452
    d308:	00800074 	movhi	r2,1
    d30c:	10833204 	addi	r2,r2,3272
    d310:	10c00015 	stw	r3,0(r2)
    d314:	010006c4 	movi	r4,27
    d318:	00c04c04 	movi	r3,304
    d31c:	00800074 	movhi	r2,1
    d320:	10833104 	addi	r2,r2,3268
    d324:	10c00015 	stw	r3,0(r2)
    d328:	000b7c00 	call	b7c0 <internal_shutdownos>
    d32c:	0485c83a 	sub	r2,zero,r18
    d330:	1004913a 	slli	r2,r2,4
    d334:	0023883a 	mov	r17,zero
    d338:	a0800015 	stw	r2,0(r20)
    d33c:	003f6e06 	br	d0f8 <GetResource+0xb8>
    d340:	04000074 	movhi	r16,1
    d344:	84032a04 	addi	r16,r16,3240
    d348:	80800003 	ldbu	r2,0(r16)
    d34c:	10803fcc 	andi	r2,r2,255
    d350:	10000c1e 	bne	r2,zero,d384 <GetResource+0x344>
    d354:	0005303a 	rdctl	r2,status
    d358:	01400074 	movhi	r5,1
    d35c:	29430404 	addi	r5,r5,3088
    d360:	29400017 	ldw	r5,0(r5)
    d364:	01bf03c4 	movi	r6,-1009
    d368:	118c703a 	and	r6,r2,r6
    d36c:	314ab03a 	or	r5,r6,r5
    d370:	2801703a 	wrctl	status,r5
    d374:	01400074 	movhi	r5,1
    d378:	29432904 	addi	r5,r5,3236
    d37c:	1080fc0c 	andi	r2,r2,1008
    d380:	28800015 	stw	r2,0(r5)
    d384:	80800003 	ldbu	r2,0(r16)
    d388:	10800044 	addi	r2,r2,1
    d38c:	80800005 	stb	r2,0(r16)
    d390:	88800303 	ldbu	r2,12(r17)
    d394:	103fac1e 	bne	r2,zero,d248 <GetResource+0x208>
    d398:	20800017 	ldw	r2,0(r4)
    d39c:	01000044 	movi	r4,1
    d3a0:	10c00317 	ldw	r3,12(r2)
    d3a4:	89000305 	stb	r4,12(r17)
    d3a8:	11000717 	ldw	r4,28(r2)
    d3ac:	88c00115 	stw	r3,4(r17)
    d3b0:	89000215 	stw	r4,8(r17)
    d3b4:	14400715 	stw	r17,28(r2)
    d3b8:	90ffcc0e 	bge	r18,r3,d2ec <GetResource+0x2ac>
    d3bc:	14800315 	stw	r18,12(r2)
    d3c0:	903fca0e 	bge	r18,zero,d2ec <GetResource+0x2ac>
    d3c4:	9009883a 	mov	r4,r18
    d3c8:	000cf600 	call	cf60 <x_set_ipm>
    d3cc:	0023883a 	mov	r17,zero
    d3d0:	003f4906 	br	d0f8 <GetResource+0xb8>
    d3d4:	0001883a 	nop
    d3d8:	0001883a 	nop
    d3dc:	0001883a 	nop

0000d3e0 <ReleaseResource>:
    d3e0:	00800074 	movhi	r2,1
    d3e4:	10833504 	addi	r2,r2,3284
    d3e8:	1080000b 	ldhu	r2,0(r2)
    d3ec:	defffa04 	addi	sp,sp,-24
    d3f0:	2007883a 	mov	r3,r4
    d3f4:	dfc00515 	stw	ra,20(sp)
    d3f8:	dd000415 	stw	r20,16(sp)
    d3fc:	dcc00315 	stw	r19,12(sp)
    d400:	dc800215 	stw	r18,8(sp)
    d404:	dc400115 	stw	r17,4(sp)
    d408:	dc000015 	stw	r16,0(sp)
    d40c:	111c000c 	andi	r4,r2,28672
    d410:	20005a1e 	bne	r4,zero,d57c <ReleaseResource+0x19c>
    d414:	114000d4 	ori	r5,r2,3
    d418:	297fffcc 	andi	r5,r5,65535
    d41c:	010000c4 	movi	r4,3
    d420:	29003726 	beq	r5,r4,d500 <ReleaseResource+0x120>
    d424:	01400084 	movi	r5,2
    d428:	2823883a 	mov	r17,r5
    d42c:	04000074 	movhi	r16,1
    d430:	84032a04 	addi	r16,r16,3240
    d434:	80800003 	ldbu	r2,0(r16)
    d438:	10803fcc 	andi	r2,r2,255
    d43c:	10000c1e 	bne	r2,zero,d470 <ReleaseResource+0x90>
    d440:	0005303a 	rdctl	r2,status
    d444:	01800074 	movhi	r6,1
    d448:	31830404 	addi	r6,r6,3088
    d44c:	31800017 	ldw	r6,0(r6)
    d450:	013f03c4 	movi	r4,-1009
    d454:	1108703a 	and	r4,r2,r4
    d458:	2188b03a 	or	r4,r4,r6
    d45c:	2001703a 	wrctl	status,r4
    d460:	01000074 	movhi	r4,1
    d464:	21032904 	addi	r4,r4,3236
    d468:	1080fc0c 	andi	r2,r2,1008
    d46c:	20800015 	stw	r2,0(r4)
    d470:	80800003 	ldbu	r2,0(r16)
    d474:	10800044 	addi	r2,r2,1
    d478:	80800005 	stb	r2,0(r16)
    d47c:	00800074 	movhi	r2,1
    d480:	10833b04 	addi	r2,r2,3308
    d484:	01000074 	movhi	r4,1
    d488:	212d7004 	addi	r4,r4,-19008
    d48c:	01803b44 	movi	r6,237
    d490:	10c00015 	stw	r3,0(r2)
    d494:	00085600 	call	8560 <stack_change_and_call_func_1>
    d498:	80800003 	ldbu	r2,0(r16)
    d49c:	10803fcc 	andi	r2,r2,255
    d4a0:	10002a26 	beq	r2,zero,d54c <ReleaseResource+0x16c>
    d4a4:	80800003 	ldbu	r2,0(r16)
    d4a8:	10bfffc4 	addi	r2,r2,-1
    d4ac:	80800005 	stb	r2,0(r16)
    d4b0:	80800003 	ldbu	r2,0(r16)
    d4b4:	10803fcc 	andi	r2,r2,255
    d4b8:	1000081e 	bne	r2,zero,d4dc <ReleaseResource+0xfc>
    d4bc:	0005303a 	rdctl	r2,status
    d4c0:	00c00074 	movhi	r3,1
    d4c4:	18c32904 	addi	r3,r3,3236
    d4c8:	18c00017 	ldw	r3,0(r3)
    d4cc:	013f03c4 	movi	r4,-1009
    d4d0:	1104703a 	and	r2,r2,r4
    d4d4:	10c4b03a 	or	r2,r2,r3
    d4d8:	1001703a 	wrctl	status,r2
    d4dc:	8805883a 	mov	r2,r17
    d4e0:	dfc00517 	ldw	ra,20(sp)
    d4e4:	dd000417 	ldw	r20,16(sp)
    d4e8:	dcc00317 	ldw	r19,12(sp)
    d4ec:	dc800217 	ldw	r18,8(sp)
    d4f0:	dc400117 	ldw	r17,4(sp)
    d4f4:	dc000017 	ldw	r16,0(sp)
    d4f8:	dec00604 	addi	sp,sp,24
    d4fc:	f800283a 	ret
    d500:	01000074 	movhi	r4,1
    d504:	21030e04 	addi	r4,r4,3128
    d508:	21000017 	ldw	r4,0(r4)
    d50c:	19000d2e 	bgeu	r3,r4,d544 <ReleaseResource+0x164>
    d510:	1808913a 	slli	r4,r3,4
    d514:	01400174 	movhi	r5,5
    d518:	29476c04 	addi	r5,r5,7600
    d51c:	10bfffcc 	andi	r2,r2,65535
    d520:	2149883a 	add	r4,r4,r5
    d524:	01400044 	movi	r5,1
    d528:	11401726 	beq	r2,r5,d588 <ReleaseResource+0x1a8>
    d52c:	04400074 	movhi	r17,1
    d530:	8c433e04 	addi	r17,r17,3320
    d534:	88800017 	ldw	r2,0(r17)
    d538:	14800117 	ldw	r18,4(r2)
    d53c:	91003b26 	beq	r18,r4,d62c <ReleaseResource+0x24c>
    d540:	01400144 	movi	r5,5
    d544:	2823883a 	mov	r17,r5
    d548:	003fb806 	br	d42c <ReleaseResource+0x4c>
    d54c:	00c00074 	movhi	r3,1
    d550:	18c26504 	addi	r3,r3,2452
    d554:	00800074 	movhi	r2,1
    d558:	10833204 	addi	r2,r2,3272
    d55c:	10c00015 	stw	r3,0(r2)
    d560:	010006c4 	movi	r4,27
    d564:	00c035c4 	movi	r3,215
    d568:	00800074 	movhi	r2,1
    d56c:	10833104 	addi	r2,r2,3268
    d570:	10c00015 	stw	r3,0(r2)
    d574:	000b7c00 	call	b7c0 <internal_shutdownos>
    d578:	003fca06 	br	d4a4 <ReleaseResource+0xc4>
    d57c:	01400304 	movi	r5,12
    d580:	2823883a 	mov	r17,r5
    d584:	003fa906 	br	d42c <ReleaseResource+0x4c>
    d588:	04800074 	movhi	r18,1
    d58c:	94834204 	addi	r18,r18,3336
    d590:	90800017 	ldw	r2,0(r18)
    d594:	14400717 	ldw	r17,28(r2)
    d598:	893fe91e 	bne	r17,r4,d540 <ReleaseResource+0x160>
    d59c:	04000074 	movhi	r16,1
    d5a0:	84032a04 	addi	r16,r16,3240
    d5a4:	80800003 	ldbu	r2,0(r16)
    d5a8:	10803fcc 	andi	r2,r2,255
    d5ac:	10000c1e 	bne	r2,zero,d5e0 <ReleaseResource+0x200>
    d5b0:	0005303a 	rdctl	r2,status
    d5b4:	00c00074 	movhi	r3,1
    d5b8:	18c30404 	addi	r3,r3,3088
    d5bc:	18c00017 	ldw	r3,0(r3)
    d5c0:	013f03c4 	movi	r4,-1009
    d5c4:	1108703a 	and	r4,r2,r4
    d5c8:	20c6b03a 	or	r3,r4,r3
    d5cc:	1801703a 	wrctl	status,r3
    d5d0:	00c00074 	movhi	r3,1
    d5d4:	18c32904 	addi	r3,r3,3236
    d5d8:	1080fc0c 	andi	r2,r2,1008
    d5dc:	18800015 	stw	r2,0(r3)
    d5e0:	80800003 	ldbu	r2,0(r16)
    d5e4:	10800044 	addi	r2,r2,1
    d5e8:	80800005 	stb	r2,0(r16)
    d5ec:	89000117 	ldw	r4,4(r17)
    d5f0:	20004116 	blt	r4,zero,d6f8 <ReleaseResource+0x318>
    d5f4:	90800017 	ldw	r2,0(r18)
    d5f8:	10c00317 	ldw	r3,12(r2)
    d5fc:	18004216 	blt	r3,zero,d708 <ReleaseResource+0x328>
    d600:	88c00217 	ldw	r3,8(r17)
    d604:	11000315 	stw	r4,12(r2)
    d608:	10c00715 	stw	r3,28(r2)
    d60c:	88000305 	stb	zero,12(r17)
    d610:	00c00074 	movhi	r3,1
    d614:	18c34004 	addi	r3,r3,3328
    d618:	10800317 	ldw	r2,12(r2)
    d61c:	18c00017 	ldw	r3,0(r3)
    d620:	18803116 	blt	r3,r2,d6e8 <ReleaseResource+0x308>
    d624:	0023883a 	mov	r17,zero
    d628:	003f9b06 	br	d498 <ReleaseResource+0xb8>
    d62c:	04000074 	movhi	r16,1
    d630:	84032a04 	addi	r16,r16,3240
    d634:	80800003 	ldbu	r2,0(r16)
    d638:	10803fcc 	andi	r2,r2,255
    d63c:	1000271e 	bne	r2,zero,d6dc <ReleaseResource+0x2fc>
    d640:	0005303a 	rdctl	r2,status
    d644:	00c00074 	movhi	r3,1
    d648:	18c30404 	addi	r3,r3,3088
    d64c:	18c00017 	ldw	r3,0(r3)
    d650:	013f03c4 	movi	r4,-1009
    d654:	1108703a 	and	r4,r2,r4
    d658:	20c6b03a 	or	r3,r4,r3
    d65c:	1801703a 	wrctl	status,r3
    d660:	04c00074 	movhi	r19,1
    d664:	9cc32904 	addi	r19,r19,3236
    d668:	1080fc0c 	andi	r2,r2,1008
    d66c:	98800015 	stw	r2,0(r19)
    d670:	80800003 	ldbu	r2,0(r16)
    d674:	10800044 	addi	r2,r2,1
    d678:	80800005 	stb	r2,0(r16)
    d67c:	80800003 	ldbu	r2,0(r16)
    d680:	95000117 	ldw	r20,4(r18)
    d684:	10803fcc 	andi	r2,r2,255
    d688:	10000b1e 	bne	r2,zero,d6b8 <ReleaseResource+0x2d8>
    d68c:	00c00074 	movhi	r3,1
    d690:	18c26504 	addi	r3,r3,2452
    d694:	00800074 	movhi	r2,1
    d698:	10833204 	addi	r2,r2,3272
    d69c:	10c00015 	stw	r3,0(r2)
    d6a0:	010006c4 	movi	r4,27
    d6a4:	00c04c04 	movi	r3,304
    d6a8:	00800074 	movhi	r2,1
    d6ac:	10833104 	addi	r2,r2,3268
    d6b0:	10c00015 	stw	r3,0(r2)
    d6b4:	000b7c00 	call	b7c0 <internal_shutdownos>
    d6b8:	88c00017 	ldw	r3,0(r17)
    d6bc:	0505c83a 	sub	r2,zero,r20
    d6c0:	91000217 	ldw	r4,8(r18)
    d6c4:	1004913a 	slli	r2,r2,4
    d6c8:	0023883a 	mov	r17,zero
    d6cc:	19000115 	stw	r4,4(r3)
    d6d0:	98800015 	stw	r2,0(r19)
    d6d4:	90000305 	stb	zero,12(r18)
    d6d8:	003f6f06 	br	d498 <ReleaseResource+0xb8>
    d6dc:	04c00074 	movhi	r19,1
    d6e0:	9cc32904 	addi	r19,r19,3236
    d6e4:	003fe206 	br	d670 <ReleaseResource+0x290>
    d6e8:	000e8600 	call	e860 <preempt>
    d6ec:	0023883a 	mov	r17,zero
    d6f0:	00004c00 	call	4c0 <dispatch>
    d6f4:	003f6806 	br	d498 <ReleaseResource+0xb8>
    d6f8:	000cf600 	call	cf60 <x_set_ipm>
    d6fc:	90800017 	ldw	r2,0(r18)
    d700:	89000117 	ldw	r4,4(r17)
    d704:	003fbe06 	br	d600 <ReleaseResource+0x220>
    d708:	0009883a 	mov	r4,zero
    d70c:	000cf600 	call	cf60 <x_set_ipm>
    d710:	00800074 	movhi	r2,1
    d714:	10834204 	addi	r2,r2,3336
    d718:	10800017 	ldw	r2,0(r2)
    d71c:	89000117 	ldw	r4,4(r17)
    d720:	003fb706 	br	d600 <ReleaseResource+0x220>
	...

0000d740 <DisableAllInterrupts>:
    d740:	00800074 	movhi	r2,1
    d744:	10833504 	addi	r2,r2,3284
    d748:	10c0000b 	ldhu	r3,0(r2)
    d74c:	18dc000c 	andi	r3,r3,28672
    d750:	1800071e 	bne	r3,zero,d770 <DisableAllInterrupts+0x30>
    d754:	0007303a 	rdctl	r3,status
    d758:	013fff84 	movi	r4,-2
    d75c:	1906703a 	and	r3,r3,r4
    d760:	1801703a 	wrctl	status,r3
    d764:	10c0000b 	ldhu	r3,0(r2)
    d768:	18c40014 	ori	r3,r3,4096
    d76c:	10c0000d 	sth	r3,0(r2)
    d770:	f800283a 	ret
    d774:	0001883a 	nop
    d778:	0001883a 	nop
    d77c:	0001883a 	nop

0000d780 <EnableAllInterrupts>:
    d780:	00c00074 	movhi	r3,1
    d784:	18c33504 	addi	r3,r3,3284
    d788:	1880000b 	ldhu	r2,0(r3)
    d78c:	1118000c 	andi	r4,r2,24576
    d790:	2000081e 	bne	r4,zero,d7b4 <EnableAllInterrupts+0x34>
    d794:	1104000c 	andi	r4,r2,4096
    d798:	213fffcc 	andi	r4,r4,65535
    d79c:	20000526 	beq	r4,zero,d7b4 <EnableAllInterrupts+0x34>
    d7a0:	10bbffcc 	andi	r2,r2,61439
    d7a4:	1880000d 	sth	r2,0(r3)
    d7a8:	0005303a 	rdctl	r2,status
    d7ac:	10800054 	ori	r2,r2,1
    d7b0:	1001703a 	wrctl	status,r2
    d7b4:	f800283a 	ret
    d7b8:	0001883a 	nop
    d7bc:	0001883a 	nop

0000d7c0 <SuspendAllInterrupts>:
    d7c0:	00800074 	movhi	r2,1
    d7c4:	10833504 	addi	r2,r2,3284
    d7c8:	10c0000b 	ldhu	r3,0(r2)
    d7cc:	defffe04 	addi	sp,sp,-8
    d7d0:	dfc00115 	stw	ra,4(sp)
    d7d4:	18c4000c 	andi	r3,r3,4096
    d7d8:	dc000015 	stw	r16,0(sp)
    d7dc:	18ffffcc 	andi	r3,r3,65535
    d7e0:	18001a1e 	bne	r3,zero,d84c <SuspendAllInterrupts+0x8c>
    d7e4:	00c00074 	movhi	r3,1
    d7e8:	18c33dc4 	addi	r3,r3,3319
    d7ec:	19000003 	ldbu	r4,0(r3)
    d7f0:	01803fc4 	movi	r6,255
    d7f4:	21403fcc 	andi	r5,r4,255
    d7f8:	29804726 	beq	r5,r6,d918 <SuspendAllInterrupts+0x158>
    d7fc:	2800081e 	bne	r5,zero,d820 <SuspendAllInterrupts+0x60>
    d800:	0009303a 	rdctl	r4,status
    d804:	017fff84 	movi	r5,-2
    d808:	2148703a 	and	r4,r4,r5
    d80c:	2001703a 	wrctl	status,r4
    d810:	1140000b 	ldhu	r5,0(r2)
    d814:	19000003 	ldbu	r4,0(r3)
    d818:	29480014 	ori	r5,r5,8192
    d81c:	1140000d 	sth	r5,0(r2)
    d820:	00800074 	movhi	r2,1
    d824:	10833d84 	addi	r2,r2,3318
    d828:	11400003 	ldbu	r5,0(r2)
    d82c:	21000044 	addi	r4,r4,1
    d830:	19000005 	stb	r4,0(r3)
    d834:	28c00044 	addi	r3,r5,1
    d838:	10c00005 	stb	r3,0(r2)
    d83c:	dfc00117 	ldw	ra,4(sp)
    d840:	dc000017 	ldw	r16,0(sp)
    d844:	dec00204 	addi	sp,sp,8
    d848:	f800283a 	ret
    d84c:	01400304 	movi	r5,12
    d850:	00800074 	movhi	r2,1
    d854:	10833304 	addi	r2,r2,3276
    d858:	10800003 	ldbu	r2,0(r2)
    d85c:	103ff726 	beq	r2,zero,d83c <SuspendAllInterrupts+0x7c>
    d860:	04000074 	movhi	r16,1
    d864:	84032a04 	addi	r16,r16,3240
    d868:	80800003 	ldbu	r2,0(r16)
    d86c:	10803fcc 	andi	r2,r2,255
    d870:	10000c1e 	bne	r2,zero,d8a4 <SuspendAllInterrupts+0xe4>
    d874:	0005303a 	rdctl	r2,status
    d878:	01000074 	movhi	r4,1
    d87c:	21030404 	addi	r4,r4,3088
    d880:	21000017 	ldw	r4,0(r4)
    d884:	00ff03c4 	movi	r3,-1009
    d888:	10c6703a 	and	r3,r2,r3
    d88c:	1906b03a 	or	r3,r3,r4
    d890:	1801703a 	wrctl	status,r3
    d894:	00c00074 	movhi	r3,1
    d898:	18c32904 	addi	r3,r3,3236
    d89c:	1080fc0c 	andi	r2,r2,1008
    d8a0:	18800015 	stw	r2,0(r3)
    d8a4:	80800003 	ldbu	r2,0(r16)
    d8a8:	10800044 	addi	r2,r2,1
    d8ac:	80800005 	stb	r2,0(r16)
    d8b0:	01000074 	movhi	r4,1
    d8b4:	212d7004 	addi	r4,r4,-19008
    d8b8:	29403fcc 	andi	r5,r5,255
    d8bc:	01803a44 	movi	r6,233
    d8c0:	00085600 	call	8560 <stack_change_and_call_func_1>
    d8c4:	80800003 	ldbu	r2,0(r16)
    d8c8:	10803fcc 	andi	r2,r2,255
    d8cc:	10001426 	beq	r2,zero,d920 <SuspendAllInterrupts+0x160>
    d8d0:	80800003 	ldbu	r2,0(r16)
    d8d4:	10bfffc4 	addi	r2,r2,-1
    d8d8:	80800005 	stb	r2,0(r16)
    d8dc:	80800003 	ldbu	r2,0(r16)
    d8e0:	10803fcc 	andi	r2,r2,255
    d8e4:	103fd51e 	bne	r2,zero,d83c <SuspendAllInterrupts+0x7c>
    d8e8:	0005303a 	rdctl	r2,status
    d8ec:	00c00074 	movhi	r3,1
    d8f0:	18c32904 	addi	r3,r3,3236
    d8f4:	18c00017 	ldw	r3,0(r3)
    d8f8:	013f03c4 	movi	r4,-1009
    d8fc:	1104703a 	and	r2,r2,r4
    d900:	10c4b03a 	or	r2,r2,r3
    d904:	1001703a 	wrctl	status,r2
    d908:	dfc00117 	ldw	ra,4(sp)
    d90c:	dc000017 	ldw	r16,0(sp)
    d910:	dec00204 	addi	sp,sp,8
    d914:	f800283a 	ret
    d918:	01400104 	movi	r5,4
    d91c:	003fcc06 	br	d850 <SuspendAllInterrupts+0x90>
    d920:	00c00074 	movhi	r3,1
    d924:	18c26504 	addi	r3,r3,2452
    d928:	00800074 	movhi	r2,1
    d92c:	10833204 	addi	r2,r2,3272
    d930:	10c00015 	stw	r3,0(r2)
    d934:	010006c4 	movi	r4,27
    d938:	00c035c4 	movi	r3,215
    d93c:	00800074 	movhi	r2,1
    d940:	10833104 	addi	r2,r2,3268
    d944:	10c00015 	stw	r3,0(r2)
    d948:	000b7c00 	call	b7c0 <internal_shutdownos>
    d94c:	003fe006 	br	d8d0 <SuspendAllInterrupts+0x110>
    d950:	0001883a 	nop
    d954:	0001883a 	nop
    d958:	0001883a 	nop
    d95c:	0001883a 	nop

0000d960 <ResumeAllInterrupts>:
    d960:	00800074 	movhi	r2,1
    d964:	10833504 	addi	r2,r2,3284
    d968:	10c0000b 	ldhu	r3,0(r2)
    d96c:	defffe04 	addi	sp,sp,-8
    d970:	dfc00115 	stw	ra,4(sp)
    d974:	1904000c 	andi	r4,r3,4096
    d978:	dc000015 	stw	r16,0(sp)
    d97c:	213fffcc 	andi	r4,r4,65535
    d980:	20000e1e 	bne	r4,zero,d9bc <ResumeAllInterrupts+0x5c>
    d984:	01000074 	movhi	r4,1
    d988:	21033d84 	addi	r4,r4,3318
    d98c:	21400003 	ldbu	r5,0(r4)
    d990:	29803fcc 	andi	r6,r5,255
    d994:	30003c1e 	bne	r6,zero,da88 <ResumeAllInterrupts+0x128>
    d998:	00800074 	movhi	r2,1
    d99c:	10833304 	addi	r2,r2,3276
    d9a0:	10800003 	ldbu	r2,0(r2)
    d9a4:	014001c4 	movi	r5,7
    d9a8:	1000091e 	bne	r2,zero,d9d0 <ResumeAllInterrupts+0x70>
    d9ac:	dfc00117 	ldw	ra,4(sp)
    d9b0:	dc000017 	ldw	r16,0(sp)
    d9b4:	dec00204 	addi	sp,sp,8
    d9b8:	f800283a 	ret
    d9bc:	00800074 	movhi	r2,1
    d9c0:	10833304 	addi	r2,r2,3276
    d9c4:	10800003 	ldbu	r2,0(r2)
    d9c8:	01400304 	movi	r5,12
    d9cc:	103ff726 	beq	r2,zero,d9ac <ResumeAllInterrupts+0x4c>
    d9d0:	04000074 	movhi	r16,1
    d9d4:	84032a04 	addi	r16,r16,3240
    d9d8:	80800003 	ldbu	r2,0(r16)
    d9dc:	10803fcc 	andi	r2,r2,255
    d9e0:	10000c1e 	bne	r2,zero,da14 <ResumeAllInterrupts+0xb4>
    d9e4:	0005303a 	rdctl	r2,status
    d9e8:	01000074 	movhi	r4,1
    d9ec:	21030404 	addi	r4,r4,3088
    d9f0:	21000017 	ldw	r4,0(r4)
    d9f4:	00ff03c4 	movi	r3,-1009
    d9f8:	10c6703a 	and	r3,r2,r3
    d9fc:	1906b03a 	or	r3,r3,r4
    da00:	1801703a 	wrctl	status,r3
    da04:	00c00074 	movhi	r3,1
    da08:	18c32904 	addi	r3,r3,3236
    da0c:	1080fc0c 	andi	r2,r2,1008
    da10:	18800015 	stw	r2,0(r3)
    da14:	80800003 	ldbu	r2,0(r16)
    da18:	10800044 	addi	r2,r2,1
    da1c:	80800005 	stb	r2,0(r16)
    da20:	01000074 	movhi	r4,1
    da24:	212d7004 	addi	r4,r4,-19008
    da28:	29403fcc 	andi	r5,r5,255
    da2c:	01803a04 	movi	r6,232
    da30:	00085600 	call	8560 <stack_change_and_call_func_1>
    da34:	80800003 	ldbu	r2,0(r16)
    da38:	10803fcc 	andi	r2,r2,255
    da3c:	10002426 	beq	r2,zero,dad0 <ResumeAllInterrupts+0x170>
    da40:	80800003 	ldbu	r2,0(r16)
    da44:	10bfffc4 	addi	r2,r2,-1
    da48:	80800005 	stb	r2,0(r16)
    da4c:	80800003 	ldbu	r2,0(r16)
    da50:	10803fcc 	andi	r2,r2,255
    da54:	103fd51e 	bne	r2,zero,d9ac <ResumeAllInterrupts+0x4c>
    da58:	0005303a 	rdctl	r2,status
    da5c:	00c00074 	movhi	r3,1
    da60:	18c32904 	addi	r3,r3,3236
    da64:	18c00017 	ldw	r3,0(r3)
    da68:	013f03c4 	movi	r4,-1009
    da6c:	1104703a 	and	r2,r2,r4
    da70:	10c4b03a 	or	r2,r2,r3
    da74:	1001703a 	wrctl	status,r2
    da78:	dfc00117 	ldw	ra,4(sp)
    da7c:	dc000017 	ldw	r16,0(sp)
    da80:	dec00204 	addi	sp,sp,8
    da84:	f800283a 	ret
    da88:	01800074 	movhi	r6,1
    da8c:	31833dc4 	addi	r6,r6,3319
    da90:	31c00003 	ldbu	r7,0(r6)
    da94:	297fffc4 	addi	r5,r5,-1
    da98:	21400005 	stb	r5,0(r4)
    da9c:	393fffc4 	addi	r4,r7,-1
    daa0:	31000005 	stb	r4,0(r6)
    daa4:	21003fcc 	andi	r4,r4,255
    daa8:	203fc01e 	bne	r4,zero,d9ac <ResumeAllInterrupts+0x4c>
    daac:	18f7ffcc 	andi	r3,r3,57343
    dab0:	10c0000d 	sth	r3,0(r2)
    dab4:	0005303a 	rdctl	r2,status
    dab8:	10800054 	ori	r2,r2,1
    dabc:	1001703a 	wrctl	status,r2
    dac0:	dfc00117 	ldw	ra,4(sp)
    dac4:	dc000017 	ldw	r16,0(sp)
    dac8:	dec00204 	addi	sp,sp,8
    dacc:	f800283a 	ret
    dad0:	00c00074 	movhi	r3,1
    dad4:	18c26504 	addi	r3,r3,2452
    dad8:	00800074 	movhi	r2,1
    dadc:	10833204 	addi	r2,r2,3272
    dae0:	10c00015 	stw	r3,0(r2)
    dae4:	010006c4 	movi	r4,27
    dae8:	00c035c4 	movi	r3,215
    daec:	00800074 	movhi	r2,1
    daf0:	10833104 	addi	r2,r2,3268
    daf4:	10c00015 	stw	r3,0(r2)
    daf8:	000b7c00 	call	b7c0 <internal_shutdownos>
    dafc:	003fd006 	br	da40 <ResumeAllInterrupts+0xe0>

0000db00 <SuspendOSInterrupts>:
    db00:	00800074 	movhi	r2,1
    db04:	10833504 	addi	r2,r2,3284
    db08:	10c0000b 	ldhu	r3,0(r2)
    db0c:	defffe04 	addi	sp,sp,-8
    db10:	dfc00115 	stw	ra,4(sp)
    db14:	1904000c 	andi	r4,r3,4096
    db18:	dc000015 	stw	r16,0(sp)
    db1c:	213fffcc 	andi	r4,r4,65535
    db20:	2000121e 	bne	r4,zero,db6c <SuspendOSInterrupts+0x6c>
    db24:	01000074 	movhi	r4,1
    db28:	21033d44 	addi	r4,r4,3317
    db2c:	21400003 	ldbu	r5,0(r4)
    db30:	01c03fc4 	movi	r7,255
    db34:	29803fcc 	andi	r6,r5,255
    db38:	31c05426 	beq	r6,r7,dc8c <SuspendOSInterrupts+0x18c>
    db3c:	30003926 	beq	r6,zero,dc24 <SuspendOSInterrupts+0x124>
    db40:	00800074 	movhi	r2,1
    db44:	10833d04 	addi	r2,r2,3316
    db48:	10c00003 	ldbu	r3,0(r2)
    db4c:	29400044 	addi	r5,r5,1
    db50:	21400005 	stb	r5,0(r4)
    db54:	18c00044 	addi	r3,r3,1
    db58:	10c00005 	stb	r3,0(r2)
    db5c:	dfc00117 	ldw	ra,4(sp)
    db60:	dc000017 	ldw	r16,0(sp)
    db64:	dec00204 	addi	sp,sp,8
    db68:	f800283a 	ret
    db6c:	01400304 	movi	r5,12
    db70:	04000074 	movhi	r16,1
    db74:	84032a04 	addi	r16,r16,3240
    db78:	80800003 	ldbu	r2,0(r16)
    db7c:	10803fcc 	andi	r2,r2,255
    db80:	10000c1e 	bne	r2,zero,dbb4 <SuspendOSInterrupts+0xb4>
    db84:	0005303a 	rdctl	r2,status
    db88:	01000074 	movhi	r4,1
    db8c:	21030404 	addi	r4,r4,3088
    db90:	21000017 	ldw	r4,0(r4)
    db94:	00ff03c4 	movi	r3,-1009
    db98:	10c6703a 	and	r3,r2,r3
    db9c:	1906b03a 	or	r3,r3,r4
    dba0:	1801703a 	wrctl	status,r3
    dba4:	00c00074 	movhi	r3,1
    dba8:	18c32904 	addi	r3,r3,3236
    dbac:	1080fc0c 	andi	r2,r2,1008
    dbb0:	18800015 	stw	r2,0(r3)
    dbb4:	80800003 	ldbu	r2,0(r16)
    dbb8:	10800044 	addi	r2,r2,1
    dbbc:	80800005 	stb	r2,0(r16)
    dbc0:	01000074 	movhi	r4,1
    dbc4:	212d7004 	addi	r4,r4,-19008
    dbc8:	01803ac4 	movi	r6,235
    dbcc:	00085600 	call	8560 <stack_change_and_call_func_1>
    dbd0:	80800003 	ldbu	r2,0(r16)
    dbd4:	10803fcc 	andi	r2,r2,255
    dbd8:	10002e26 	beq	r2,zero,dc94 <SuspendOSInterrupts+0x194>
    dbdc:	80800003 	ldbu	r2,0(r16)
    dbe0:	10bfffc4 	addi	r2,r2,-1
    dbe4:	80800005 	stb	r2,0(r16)
    dbe8:	80800003 	ldbu	r2,0(r16)
    dbec:	10803fcc 	andi	r2,r2,255
    dbf0:	103fda1e 	bne	r2,zero,db5c <SuspendOSInterrupts+0x5c>
    dbf4:	0005303a 	rdctl	r2,status
    dbf8:	00c00074 	movhi	r3,1
    dbfc:	18c32904 	addi	r3,r3,3236
    dc00:	18c00017 	ldw	r3,0(r3)
    dc04:	013f03c4 	movi	r4,-1009
    dc08:	1104703a 	and	r2,r2,r4
    dc0c:	10c4b03a 	or	r2,r2,r3
    dc10:	1001703a 	wrctl	status,r2
    dc14:	dfc00117 	ldw	ra,4(sp)
    dc18:	dc000017 	ldw	r16,0(sp)
    dc1c:	dec00204 	addi	sp,sp,8
    dc20:	f800283a 	ret
    dc24:	0011303a 	rdctl	r8,status
    dc28:	01800074 	movhi	r6,1
    dc2c:	31830404 	addi	r6,r6,3088
    dc30:	31c00017 	ldw	r7,0(r6)
    dc34:	4180fc0c 	andi	r6,r8,1008
    dc38:	39801136 	bltu	r7,r6,dc80 <SuspendOSInterrupts+0x180>
    dc3c:	04000074 	movhi	r16,1
    dc40:	84032a04 	addi	r16,r16,3240
    dc44:	80c00003 	ldbu	r3,0(r16)
    dc48:	18c03fcc 	andi	r3,r3,255
    dc4c:	1800071e 	bne	r3,zero,dc6c <SuspendOSInterrupts+0x16c>
    dc50:	00ff03c4 	movi	r3,-1009
    dc54:	40d0703a 	and	r8,r8,r3
    dc58:	41ceb03a 	or	r7,r8,r7
    dc5c:	3801703a 	wrctl	status,r7
    dc60:	00c00074 	movhi	r3,1
    dc64:	18c32904 	addi	r3,r3,3236
    dc68:	19800015 	stw	r6,0(r3)
    dc6c:	80c00003 	ldbu	r3,0(r16)
    dc70:	18c00044 	addi	r3,r3,1
    dc74:	80c00005 	stb	r3,0(r16)
    dc78:	10c0000b 	ldhu	r3,0(r2)
    dc7c:	21400003 	ldbu	r5,0(r4)
    dc80:	18d00014 	ori	r3,r3,16384
    dc84:	10c0000d 	sth	r3,0(r2)
    dc88:	003fad06 	br	db40 <SuspendOSInterrupts+0x40>
    dc8c:	01400104 	movi	r5,4
    dc90:	003fb706 	br	db70 <SuspendOSInterrupts+0x70>
    dc94:	00c00074 	movhi	r3,1
    dc98:	18c26504 	addi	r3,r3,2452
    dc9c:	00800074 	movhi	r2,1
    dca0:	10833204 	addi	r2,r2,3272
    dca4:	10c00015 	stw	r3,0(r2)
    dca8:	010006c4 	movi	r4,27
    dcac:	00c035c4 	movi	r3,215
    dcb0:	00800074 	movhi	r2,1
    dcb4:	10833104 	addi	r2,r2,3268
    dcb8:	10c00015 	stw	r3,0(r2)
    dcbc:	000b7c00 	call	b7c0 <internal_shutdownos>
    dcc0:	003fc606 	br	dbdc <SuspendOSInterrupts+0xdc>
    dcc4:	0001883a 	nop
    dcc8:	0001883a 	nop
    dccc:	0001883a 	nop
    dcd0:	0001883a 	nop
    dcd4:	0001883a 	nop
    dcd8:	0001883a 	nop
    dcdc:	0001883a 	nop

0000dce0 <ResumeOSInterrupts>:
    dce0:	00800074 	movhi	r2,1
    dce4:	10833504 	addi	r2,r2,3284
    dce8:	10c0000b 	ldhu	r3,0(r2)
    dcec:	defffd04 	addi	sp,sp,-12
    dcf0:	dfc00215 	stw	ra,8(sp)
    dcf4:	1904000c 	andi	r4,r3,4096
    dcf8:	dc400115 	stw	r17,4(sp)
    dcfc:	dc000015 	stw	r16,0(sp)
    dd00:	213fffcc 	andi	r4,r4,65535
    dd04:	2000421e 	bne	r4,zero,de10 <ResumeOSInterrupts+0x130>
    dd08:	01000074 	movhi	r4,1
    dd0c:	21033d04 	addi	r4,r4,3316
    dd10:	21400003 	ldbu	r5,0(r4)
    dd14:	29803fcc 	andi	r6,r5,255
    dd18:	30002f1e 	bne	r6,zero,ddd8 <ResumeOSInterrupts+0xf8>
    dd1c:	014001c4 	movi	r5,7
    dd20:	04000074 	movhi	r16,1
    dd24:	84032a04 	addi	r16,r16,3240
    dd28:	80800003 	ldbu	r2,0(r16)
    dd2c:	10803fcc 	andi	r2,r2,255
    dd30:	10000c1e 	bne	r2,zero,dd64 <ResumeOSInterrupts+0x84>
    dd34:	0005303a 	rdctl	r2,status
    dd38:	01000074 	movhi	r4,1
    dd3c:	21030404 	addi	r4,r4,3088
    dd40:	21000017 	ldw	r4,0(r4)
    dd44:	00ff03c4 	movi	r3,-1009
    dd48:	10c6703a 	and	r3,r2,r3
    dd4c:	1906b03a 	or	r3,r3,r4
    dd50:	1801703a 	wrctl	status,r3
    dd54:	00c00074 	movhi	r3,1
    dd58:	18c32904 	addi	r3,r3,3236
    dd5c:	1080fc0c 	andi	r2,r2,1008
    dd60:	18800015 	stw	r2,0(r3)
    dd64:	80800003 	ldbu	r2,0(r16)
    dd68:	10800044 	addi	r2,r2,1
    dd6c:	80800005 	stb	r2,0(r16)
    dd70:	01000074 	movhi	r4,1
    dd74:	212d7004 	addi	r4,r4,-19008
    dd78:	01803a84 	movi	r6,234
    dd7c:	00085600 	call	8560 <stack_change_and_call_func_1>
    dd80:	80800003 	ldbu	r2,0(r16)
    dd84:	10803fcc 	andi	r2,r2,255
    dd88:	10002326 	beq	r2,zero,de18 <ResumeOSInterrupts+0x138>
    dd8c:	80800003 	ldbu	r2,0(r16)
    dd90:	10bfffc4 	addi	r2,r2,-1
    dd94:	80800005 	stb	r2,0(r16)
    dd98:	80800003 	ldbu	r2,0(r16)
    dd9c:	10803fcc 	andi	r2,r2,255
    dda0:	1000161e 	bne	r2,zero,ddfc <ResumeOSInterrupts+0x11c>
    dda4:	0005303a 	rdctl	r2,status
    dda8:	00c00074 	movhi	r3,1
    ddac:	18c32904 	addi	r3,r3,3236
    ddb0:	18c00017 	ldw	r3,0(r3)
    ddb4:	013f03c4 	movi	r4,-1009
    ddb8:	1104703a 	and	r2,r2,r4
    ddbc:	10c4b03a 	or	r2,r2,r3
    ddc0:	1001703a 	wrctl	status,r2
    ddc4:	dfc00217 	ldw	ra,8(sp)
    ddc8:	dc400117 	ldw	r17,4(sp)
    ddcc:	dc000017 	ldw	r16,0(sp)
    ddd0:	dec00304 	addi	sp,sp,12
    ddd4:	f800283a 	ret
    ddd8:	01800074 	movhi	r6,1
    dddc:	31833d44 	addi	r6,r6,3317
    dde0:	31c00003 	ldbu	r7,0(r6)
    dde4:	297fffc4 	addi	r5,r5,-1
    dde8:	21400005 	stb	r5,0(r4)
    ddec:	393fffc4 	addi	r4,r7,-1
    ddf0:	31000005 	stb	r4,0(r6)
    ddf4:	21003fcc 	andi	r4,r4,255
    ddf8:	20001326 	beq	r4,zero,de48 <ResumeOSInterrupts+0x168>
    ddfc:	dfc00217 	ldw	ra,8(sp)
    de00:	dc400117 	ldw	r17,4(sp)
    de04:	dc000017 	ldw	r16,0(sp)
    de08:	dec00304 	addi	sp,sp,12
    de0c:	f800283a 	ret
    de10:	01400304 	movi	r5,12
    de14:	003fc206 	br	dd20 <ResumeOSInterrupts+0x40>
    de18:	00c00074 	movhi	r3,1
    de1c:	18c26504 	addi	r3,r3,2452
    de20:	00800074 	movhi	r2,1
    de24:	10833204 	addi	r2,r2,3272
    de28:	10c00015 	stw	r3,0(r2)
    de2c:	010006c4 	movi	r4,27
    de30:	00c035c4 	movi	r3,215
    de34:	00800074 	movhi	r2,1
    de38:	10833104 	addi	r2,r2,3268
    de3c:	10c00015 	stw	r3,0(r2)
    de40:	000b7c00 	call	b7c0 <internal_shutdownos>
    de44:	003fd106 	br	dd8c <ResumeOSInterrupts+0xac>
    de48:	18efffcc 	andi	r3,r3,49151
    de4c:	10c0000d 	sth	r3,0(r2)
    de50:	0023303a 	rdctl	r17,status
    de54:	00c00074 	movhi	r3,1
    de58:	18c30404 	addi	r3,r3,3088
    de5c:	18c00017 	ldw	r3,0(r3)
    de60:	8880fc0c 	andi	r2,r17,1008
    de64:	18bfe536 	bltu	r3,r2,ddfc <ResumeOSInterrupts+0x11c>
    de68:	04000074 	movhi	r16,1
    de6c:	84032a04 	addi	r16,r16,3240
    de70:	80800003 	ldbu	r2,0(r16)
    de74:	10803fcc 	andi	r2,r2,255
    de78:	10000e26 	beq	r2,zero,deb4 <ResumeOSInterrupts+0x1d4>
    de7c:	80800003 	ldbu	r2,0(r16)
    de80:	10bfffc4 	addi	r2,r2,-1
    de84:	80800005 	stb	r2,0(r16)
    de88:	80800003 	ldbu	r2,0(r16)
    de8c:	10803fcc 	andi	r2,r2,255
    de90:	103fda1e 	bne	r2,zero,ddfc <ResumeOSInterrupts+0x11c>
    de94:	00800074 	movhi	r2,1
    de98:	10832904 	addi	r2,r2,3236
    de9c:	10800017 	ldw	r2,0(r2)
    dea0:	00ff03c4 	movi	r3,-1009
    dea4:	88e2703a 	and	r17,r17,r3
    dea8:	88a2b03a 	or	r17,r17,r2
    deac:	8801703a 	wrctl	status,r17
    deb0:	003fd206 	br	ddfc <ResumeOSInterrupts+0x11c>
    deb4:	00c00074 	movhi	r3,1
    deb8:	18c26504 	addi	r3,r3,2452
    debc:	00800074 	movhi	r2,1
    dec0:	10833204 	addi	r2,r2,3272
    dec4:	10c00015 	stw	r3,0(r2)
    dec8:	010006c4 	movi	r4,27
    decc:	00c04644 	movi	r3,281
    ded0:	00800074 	movhi	r2,1
    ded4:	10833104 	addi	r2,r2,3268
    ded8:	10c00015 	stw	r3,0(r2)
    dedc:	000b7c00 	call	b7c0 <internal_shutdownos>
    dee0:	003fe606 	br	de7c <ResumeOSInterrupts+0x19c>
    dee4:	0001883a 	nop
    dee8:	0001883a 	nop
    deec:	0001883a 	nop
    def0:	0001883a 	nop
    def4:	0001883a 	nop
    def8:	0001883a 	nop
    defc:	0001883a 	nop

0000df00 <GetISRID>:
    df00:	00800074 	movhi	r2,1
    df04:	10833504 	addi	r2,r2,3284
    df08:	10c0000b 	ldhu	r3,0(r2)
    df0c:	defffe04 	addi	sp,sp,-8
    df10:	dfc00115 	stw	ra,4(sp)
    df14:	18dc11d4 	ori	r3,r3,28743
    df18:	dc000015 	stw	r16,0(sp)
    df1c:	18ffffcc 	andi	r3,r3,65535
    df20:	009c11c4 	movi	r2,28743
    df24:	18802f26 	beq	r3,r2,dfe4 <GetISRID+0xe4>
    df28:	04000074 	movhi	r16,1
    df2c:	84032a04 	addi	r16,r16,3240
    df30:	80800003 	ldbu	r2,0(r16)
    df34:	10803fcc 	andi	r2,r2,255
    df38:	10000c1e 	bne	r2,zero,df6c <GetISRID+0x6c>
    df3c:	0005303a 	rdctl	r2,status
    df40:	01000074 	movhi	r4,1
    df44:	21030404 	addi	r4,r4,3088
    df48:	21000017 	ldw	r4,0(r4)
    df4c:	00ff03c4 	movi	r3,-1009
    df50:	10c6703a 	and	r3,r2,r3
    df54:	1906b03a 	or	r3,r3,r4
    df58:	1801703a 	wrctl	status,r3
    df5c:	00c00074 	movhi	r3,1
    df60:	18c32904 	addi	r3,r3,3236
    df64:	1080fc0c 	andi	r2,r2,1008
    df68:	18800015 	stw	r2,0(r3)
    df6c:	80800003 	ldbu	r2,0(r16)
    df70:	10800044 	addi	r2,r2,1
    df74:	80800005 	stb	r2,0(r16)
    df78:	01000074 	movhi	r4,1
    df7c:	212d7004 	addi	r4,r4,-19008
    df80:	01400084 	movi	r5,2
    df84:	01800044 	movi	r6,1
    df88:	00085600 	call	8560 <stack_change_and_call_func_1>
    df8c:	80800003 	ldbu	r2,0(r16)
    df90:	10803fcc 	andi	r2,r2,255
    df94:	10001f26 	beq	r2,zero,e014 <GetISRID+0x114>
    df98:	80800003 	ldbu	r2,0(r16)
    df9c:	10bfffc4 	addi	r2,r2,-1
    dfa0:	80800005 	stb	r2,0(r16)
    dfa4:	80800003 	ldbu	r2,0(r16)
    dfa8:	10803fcc 	andi	r2,r2,255
    dfac:	1000081e 	bne	r2,zero,dfd0 <GetISRID+0xd0>
    dfb0:	0005303a 	rdctl	r2,status
    dfb4:	00c00074 	movhi	r3,1
    dfb8:	18c32904 	addi	r3,r3,3236
    dfbc:	18c00017 	ldw	r3,0(r3)
    dfc0:	013f03c4 	movi	r4,-1009
    dfc4:	1104703a 	and	r2,r2,r4
    dfc8:	10c4b03a 	or	r2,r2,r3
    dfcc:	1001703a 	wrctl	status,r2
    dfd0:	00bfffc4 	movi	r2,-1
    dfd4:	dfc00117 	ldw	ra,4(sp)
    dfd8:	dc000017 	ldw	r16,0(sp)
    dfdc:	dec00204 	addi	sp,sp,8
    dfe0:	f800283a 	ret
    dfe4:	00800074 	movhi	r2,1
    dfe8:	10833e04 	addi	r2,r2,3320
    dfec:	10800017 	ldw	r2,0(r2)
    dff0:	103ff726 	beq	r2,zero,dfd0 <GetISRID+0xd0>
    dff4:	00c00174 	movhi	r3,5
    dff8:	18c76404 	addi	r3,r3,7568
    dffc:	10c5c83a 	sub	r2,r2,r3
    e000:	1005d0fa 	srai	r2,r2,3
    e004:	dfc00117 	ldw	ra,4(sp)
    e008:	dc000017 	ldw	r16,0(sp)
    e00c:	dec00204 	addi	sp,sp,8
    e010:	f800283a 	ret
    e014:	00c00074 	movhi	r3,1
    e018:	18c26504 	addi	r3,r3,2452
    e01c:	00800074 	movhi	r2,1
    e020:	10833204 	addi	r2,r2,3272
    e024:	10c00015 	stw	r3,0(r2)
    e028:	010006c4 	movi	r4,27
    e02c:	00800074 	movhi	r2,1
    e030:	10833104 	addi	r2,r2,3268
    e034:	00c035c4 	movi	r3,215
    e038:	10c00015 	stw	r3,0(r2)
    e03c:	000b7c00 	call	b7c0 <internal_shutdownos>
    e040:	80800003 	ldbu	r2,0(r16)
    e044:	10bfffc4 	addi	r2,r2,-1
    e048:	80800005 	stb	r2,0(r16)
    e04c:	80800003 	ldbu	r2,0(r16)
    e050:	10803fcc 	andi	r2,r2,255
    e054:	103fd626 	beq	r2,zero,dfb0 <GetISRID+0xb0>
    e058:	003fdd06 	br	dfd0 <GetISRID+0xd0>
    e05c:	00000000 	call	0 <__alt_mem_ext_flash>

0000e060 <interrupt_initialize>:
    e060:	00800074 	movhi	r2,1
    e064:	10830f04 	addi	r2,r2,3132
    e068:	11400017 	ldw	r5,0(r2)
    e06c:	defffc04 	addi	sp,sp,-16
    e070:	dfc00315 	stw	ra,12(sp)
    e074:	dc800215 	stw	r18,8(sp)
    e078:	dc400115 	stw	r17,4(sp)
    e07c:	dc000015 	stw	r16,0(sp)
    e080:	d0204915 	stw	zero,-32476(gp)
    e084:	d02048c5 	stb	zero,-32477(gp)
    e088:	d0204885 	stb	zero,-32478(gp)
    e08c:	d0204845 	stb	zero,-32479(gp)
    e090:	d0204805 	stb	zero,-32480(gp)
    e094:	28000d26 	beq	r5,zero,e0cc <interrupt_initialize+0x6c>
    e098:	0005883a 	mov	r2,zero
    e09c:	01800174 	movhi	r6,5
    e0a0:	31876404 	addi	r6,r6,7568
    e0a4:	04400074 	movhi	r17,1
    e0a8:	8c41eb04 	addi	r17,r17,1964
    e0ac:	100690fa 	slli	r3,r2,3
    e0b0:	1008913a 	slli	r4,r2,4
    e0b4:	10800044 	addi	r2,r2,1
    e0b8:	30c7883a 	add	r3,r6,r3
    e0bc:	8909883a 	add	r4,r17,r4
    e0c0:	19000015 	stw	r4,0(r3)
    e0c4:	18000115 	stw	zero,4(r3)
    e0c8:	117ff81e 	bne	r2,r5,e0ac <interrupt_initialize+0x4c>
    e0cc:	00800074 	movhi	r2,1
    e0d0:	10830804 	addi	r2,r2,3104
    e0d4:	14800017 	ldw	r18,0(r2)
    e0d8:	90000b26 	beq	r18,zero,e108 <interrupt_initialize+0xa8>
    e0dc:	0021883a 	mov	r16,zero
    e0e0:	04400074 	movhi	r17,1
    e0e4:	8c41eb04 	addi	r17,r17,1964
    e0e8:	8004913a 	slli	r2,r16,4
    e0ec:	84000044 	addi	r16,r16,1
    e0f0:	8885883a 	add	r2,r17,r2
    e0f4:	11000017 	ldw	r4,0(r2)
    e0f8:	11400117 	ldw	r5,4(r2)
    e0fc:	11800217 	ldw	r6,8(r2)
    e100:	0008e000 	call	8e00 <x_config_int>
    e104:	84bff81e 	bne	r16,r18,e0e8 <interrupt_initialize+0x88>
    e108:	dfc00317 	ldw	ra,12(sp)
    e10c:	dc800217 	ldw	r18,8(sp)
    e110:	dc400117 	ldw	r17,4(sp)
    e114:	dc000017 	ldw	r16,0(sp)
    e118:	dec00404 	addi	sp,sp,16
    e11c:	f800283a 	ret

0000e120 <release_interrupts>:
    e120:	d0a04803 	ldbu	r2,-32480(gp)
    e124:	defffd04 	addi	sp,sp,-12
    e128:	dc000015 	stw	r16,0(sp)
    e12c:	dfc00215 	stw	ra,8(sp)
    e130:	dc400115 	stw	r17,4(sp)
    e134:	10c03fcc 	andi	r3,r2,255
    e138:	2021883a 	mov	r16,r4
    e13c:	18002826 	beq	r3,zero,e1e0 <release_interrupts+0xc0>
    e140:	d0e04843 	ldbu	r3,-32479(gp)
    e144:	d0204805 	stb	zero,-32480(gp)
    e148:	1885c83a 	sub	r2,r3,r2
    e14c:	d0a04845 	stb	r2,-32479(gp)
    e150:	10803fcc 	andi	r2,r2,255
    e154:	10003926 	beq	r2,zero,e23c <release_interrupts+0x11c>
    e158:	00c00044 	movi	r3,1
    e15c:	d0a04883 	ldbu	r2,-32478(gp)
    e160:	11003fcc 	andi	r4,r2,255
    e164:	20001226 	beq	r4,zero,e1b0 <release_interrupts+0x90>
    e168:	d0e048c3 	ldbu	r3,-32477(gp)
    e16c:	d0204885 	stb	zero,-32478(gp)
    e170:	1885c83a 	sub	r2,r3,r2
    e174:	d0a048c5 	stb	r2,-32477(gp)
    e178:	10803fcc 	andi	r2,r2,255
    e17c:	10002d1e 	bne	r2,zero,e234 <release_interrupts+0x114>
    e180:	00800074 	movhi	r2,1
    e184:	10833504 	addi	r2,r2,3284
    e188:	10c0000b 	ldhu	r3,0(r2)
    e18c:	1937ffcc 	andi	r4,r3,57343
    e190:	18c4000c 	andi	r3,r3,4096
    e194:	1100000d 	sth	r4,0(r2)
    e198:	18ffffcc 	andi	r3,r3,65535
    e19c:	1800401e 	bne	r3,zero,e2a0 <release_interrupts+0x180>
    e1a0:	0005303a 	rdctl	r2,status
    e1a4:	10800054 	ori	r2,r2,1
    e1a8:	1001703a 	wrctl	status,r2
    e1ac:	00c00044 	movi	r3,1
    e1b0:	81803fcc 	andi	r6,r16,255
    e1b4:	00802c04 	movi	r2,176
    e1b8:	30800b26 	beq	r6,r2,e1e8 <release_interrupts+0xc8>
    e1bc:	00803fc4 	movi	r2,255
    e1c0:	30800226 	beq	r6,r2,e1cc <release_interrupts+0xac>
    e1c4:	18c03fcc 	andi	r3,r3,255
    e1c8:	1800121e 	bne	r3,zero,e214 <release_interrupts+0xf4>
    e1cc:	dfc00217 	ldw	ra,8(sp)
    e1d0:	dc400117 	ldw	r17,4(sp)
    e1d4:	dc000017 	ldw	r16,0(sp)
    e1d8:	dec00304 	addi	sp,sp,12
    e1dc:	f800283a 	ret
    e1e0:	0007883a 	mov	r3,zero
    e1e4:	003fdd06 	br	e15c <release_interrupts+0x3c>
    e1e8:	00800074 	movhi	r2,1
    e1ec:	10833504 	addi	r2,r2,3284
    e1f0:	1100000b 	ldhu	r4,0(r2)
    e1f4:	2144000c 	andi	r5,r4,4096
    e1f8:	297fffcc 	andi	r5,r5,65535
    e1fc:	283ff126 	beq	r5,zero,e1c4 <release_interrupts+0xa4>
    e200:	213bffcc 	andi	r4,r4,61439
    e204:	1100000d 	sth	r4,0(r2)
    e208:	0005303a 	rdctl	r2,status
    e20c:	10800054 	ori	r2,r2,1
    e210:	1001703a 	wrctl	status,r2
    e214:	01000074 	movhi	r4,1
    e218:	212d7004 	addi	r4,r4,-19008
    e21c:	01400304 	movi	r5,12
    e220:	dfc00217 	ldw	ra,8(sp)
    e224:	dc400117 	ldw	r17,4(sp)
    e228:	dc000017 	ldw	r16,0(sp)
    e22c:	dec00304 	addi	sp,sp,12
    e230:	00085601 	jmpi	8560 <stack_change_and_call_func_1>
    e234:	00c00044 	movi	r3,1
    e238:	003fdd06 	br	e1b0 <release_interrupts+0x90>
    e23c:	00800074 	movhi	r2,1
    e240:	10833504 	addi	r2,r2,3284
    e244:	10c0000b 	ldhu	r3,0(r2)
    e248:	18efffcc 	andi	r3,r3,49151
    e24c:	10c0000d 	sth	r3,0(r2)
    e250:	04400074 	movhi	r17,1
    e254:	8c432a04 	addi	r17,r17,3240
    e258:	88800003 	ldbu	r2,0(r17)
    e25c:	10803fcc 	andi	r2,r2,255
    e260:	10001b26 	beq	r2,zero,e2d0 <release_interrupts+0x1b0>
    e264:	88800003 	ldbu	r2,0(r17)
    e268:	10bfffc4 	addi	r2,r2,-1
    e26c:	88800005 	stb	r2,0(r17)
    e270:	88800003 	ldbu	r2,0(r17)
    e274:	10803fcc 	andi	r2,r2,255
    e278:	103fb71e 	bne	r2,zero,e158 <release_interrupts+0x38>
    e27c:	0005303a 	rdctl	r2,status
    e280:	00c00074 	movhi	r3,1
    e284:	18c32904 	addi	r3,r3,3236
    e288:	18c00017 	ldw	r3,0(r3)
    e28c:	013f03c4 	movi	r4,-1009
    e290:	1104703a 	and	r2,r2,r4
    e294:	10c4b03a 	or	r2,r2,r3
    e298:	1001703a 	wrctl	status,r2
    e29c:	003fae06 	br	e158 <release_interrupts+0x38>
    e2a0:	00c00074 	movhi	r3,1
    e2a4:	18c26e04 	addi	r3,r3,2488
    e2a8:	00800074 	movhi	r2,1
    e2ac:	10833204 	addi	r2,r2,3272
    e2b0:	10c00015 	stw	r3,0(r2)
    e2b4:	010006c4 	movi	r4,27
    e2b8:	00c027c4 	movi	r3,159
    e2bc:	00800074 	movhi	r2,1
    e2c0:	10833104 	addi	r2,r2,3268
    e2c4:	10c00015 	stw	r3,0(r2)
    e2c8:	000b7c00 	call	b7c0 <internal_shutdownos>
    e2cc:	003fb406 	br	e1a0 <release_interrupts+0x80>
    e2d0:	00c00074 	movhi	r3,1
    e2d4:	18c26504 	addi	r3,r3,2452
    e2d8:	00800074 	movhi	r2,1
    e2dc:	10833204 	addi	r2,r2,3272
    e2e0:	10c00015 	stw	r3,0(r2)
    e2e4:	010006c4 	movi	r4,27
    e2e8:	00c035c4 	movi	r3,215
    e2ec:	00800074 	movhi	r2,1
    e2f0:	10833104 	addi	r2,r2,3268
    e2f4:	10c00015 	stw	r3,0(r2)
    e2f8:	000b7c00 	call	b7c0 <internal_shutdownos>
    e2fc:	003fd906 	br	e264 <release_interrupts+0x144>

0000e300 <exit_isr2>:
    e300:	defff704 	addi	sp,sp,-36
    e304:	dc400115 	stw	r17,4(sp)
    e308:	04400074 	movhi	r17,1
    e30c:	8c432a04 	addi	r17,r17,3240
    e310:	88800003 	ldbu	r2,0(r17)
    e314:	dfc00815 	stw	ra,32(sp)
    e318:	ddc00715 	stw	r23,28(sp)
    e31c:	dd800615 	stw	r22,24(sp)
    e320:	dd400515 	stw	r21,20(sp)
    e324:	dd000415 	stw	r20,16(sp)
    e328:	dcc00315 	stw	r19,12(sp)
    e32c:	dc800215 	stw	r18,8(sp)
    e330:	dc000015 	stw	r16,0(sp)
    e334:	10803fcc 	andi	r2,r2,255
    e338:	10000c1e 	bne	r2,zero,e36c <exit_isr2+0x6c>
    e33c:	0005303a 	rdctl	r2,status
    e340:	01000074 	movhi	r4,1
    e344:	21030404 	addi	r4,r4,3088
    e348:	21000017 	ldw	r4,0(r4)
    e34c:	00ff03c4 	movi	r3,-1009
    e350:	10c6703a 	and	r3,r2,r3
    e354:	1906b03a 	or	r3,r3,r4
    e358:	1801703a 	wrctl	status,r3
    e35c:	05c00074 	movhi	r23,1
    e360:	bdc32904 	addi	r23,r23,3236
    e364:	1080fc0c 	andi	r2,r2,1008
    e368:	b8800015 	stw	r2,0(r23)
    e36c:	88800003 	ldbu	r2,0(r17)
    e370:	10800044 	addi	r2,r2,1
    e374:	88800005 	stb	r2,0(r17)
    e378:	01002c04 	movi	r4,176
    e37c:	000e1200 	call	e120 <release_interrupts>
    e380:	d4204917 	ldw	r16,-32476(gp)
    e384:	80800117 	ldw	r2,4(r16)
    e388:	10001f26 	beq	r2,zero,e408 <exit_isr2+0x108>
    e38c:	05c00074 	movhi	r23,1
    e390:	bdc32904 	addi	r23,r23,3236
    e394:	05800074 	movhi	r22,1
    e398:	b5833204 	addi	r22,r22,3272
    e39c:	05400074 	movhi	r21,1
    e3a0:	ad426504 	addi	r21,r21,2452
    e3a4:	05000074 	movhi	r20,1
    e3a8:	a5033104 	addi	r20,r20,3268
    e3ac:	04c04c04 	movi	r19,304
    e3b0:	88c00003 	ldbu	r3,0(r17)
    e3b4:	14800117 	ldw	r18,4(r2)
    e3b8:	18c03fcc 	andi	r3,r3,255
    e3bc:	1800051e 	bne	r3,zero,e3d4 <exit_isr2+0xd4>
    e3c0:	010006c4 	movi	r4,27
    e3c4:	b5400015 	stw	r21,0(r22)
    e3c8:	a4c00015 	stw	r19,0(r20)
    e3cc:	000b7c00 	call	b7c0 <internal_shutdownos>
    e3d0:	80800117 	ldw	r2,4(r16)
    e3d4:	10000305 	stb	zero,12(r2)
    e3d8:	80800117 	ldw	r2,4(r16)
    e3dc:	04a5c83a 	sub	r18,zero,r18
    e3e0:	9024913a 	slli	r18,r18,4
    e3e4:	10800217 	ldw	r2,8(r2)
    e3e8:	bc800015 	stw	r18,0(r23)
    e3ec:	80800115 	stw	r2,4(r16)
    e3f0:	103fef1e 	bne	r2,zero,e3b0 <exit_isr2+0xb0>
    e3f4:	01000074 	movhi	r4,1
    e3f8:	212d7004 	addi	r4,r4,-19008
    e3fc:	01400184 	movi	r5,6
    e400:	01802c04 	movi	r6,176
    e404:	00085600 	call	8560 <stack_change_and_call_func_1>
    e408:	88800003 	ldbu	r2,0(r17)
    e40c:	10803fcc 	andi	r2,r2,255
    e410:	10001926 	beq	r2,zero,e478 <exit_isr2+0x178>
    e414:	88800003 	ldbu	r2,0(r17)
    e418:	10bfffc4 	addi	r2,r2,-1
    e41c:	88800005 	stb	r2,0(r17)
    e420:	88800003 	ldbu	r2,0(r17)
    e424:	10803fcc 	andi	r2,r2,255
    e428:	1000081e 	bne	r2,zero,e44c <exit_isr2+0x14c>
    e42c:	0005303a 	rdctl	r2,status
    e430:	00c00074 	movhi	r3,1
    e434:	18c32904 	addi	r3,r3,3236
    e438:	18c00017 	ldw	r3,0(r3)
    e43c:	013f03c4 	movi	r4,-1009
    e440:	1104703a 	and	r2,r2,r4
    e444:	10c4b03a 	or	r2,r2,r3
    e448:	1001703a 	wrctl	status,r2
    e44c:	dfc00817 	ldw	ra,32(sp)
    e450:	ddc00717 	ldw	r23,28(sp)
    e454:	dd800617 	ldw	r22,24(sp)
    e458:	dd400517 	ldw	r21,20(sp)
    e45c:	dd000417 	ldw	r20,16(sp)
    e460:	dcc00317 	ldw	r19,12(sp)
    e464:	dc800217 	ldw	r18,8(sp)
    e468:	dc400117 	ldw	r17,4(sp)
    e46c:	dc000017 	ldw	r16,0(sp)
    e470:	dec00904 	addi	sp,sp,36
    e474:	f800283a 	ret
    e478:	00c00074 	movhi	r3,1
    e47c:	18c26504 	addi	r3,r3,2452
    e480:	00800074 	movhi	r2,1
    e484:	10833204 	addi	r2,r2,3272
    e488:	10c00015 	stw	r3,0(r2)
    e48c:	010006c4 	movi	r4,27
    e490:	00c035c4 	movi	r3,215
    e494:	00800074 	movhi	r2,1
    e498:	10833104 	addi	r2,r2,3268
    e49c:	10c00015 	stw	r3,0(r2)
    e4a0:	000b7c00 	call	b7c0 <internal_shutdownos>
    e4a4:	003fdb06 	br	e414 <exit_isr2+0x114>
	...

0000e4c0 <search_schedtsk>:
    e4c0:	d0a04a0b 	ldhu	r2,-32472(gp)
    e4c4:	defff804 	addi	sp,sp,-32
    e4c8:	dfc00715 	stw	ra,28(sp)
    e4cc:	dc800615 	stw	r18,24(sp)
    e4d0:	dc400515 	stw	r17,20(sp)
    e4d4:	dc000415 	stw	r16,16(sp)
    e4d8:	1000071e 	bne	r2,zero,e4f8 <search_schedtsk+0x38>
    e4dc:	d0204c15 	stw	zero,-32464(gp)
    e4e0:	dfc00717 	ldw	ra,28(sp)
    e4e4:	dc800617 	ldw	r18,24(sp)
    e4e8:	dc400517 	ldw	r17,20(sp)
    e4ec:	dc000417 	ldw	r16,16(sp)
    e4f0:	dec00804 	addi	sp,sp,32
    e4f4:	f800283a 	ret
    e4f8:	d1204b17 	ldw	r4,-32468(gp)
    e4fc:	04400174 	movhi	r17,5
    e500:	8c4eb204 	addi	r17,r17,15048
    e504:	200690fa 	slli	r3,r4,3
    e508:	88e1883a 	add	r16,r17,r3
    e50c:	80800017 	ldw	r2,0(r16)
    e510:	80801326 	beq	r16,r2,e560 <search_schedtsk+0xa0>
    e514:	11400017 	ldw	r5,0(r2)
    e518:	88c7883a 	add	r3,r17,r3
    e51c:	81400015 	stw	r5,0(r16)
    e520:	11800017 	ldw	r6,0(r2)
    e524:	19400017 	ldw	r5,0(r3)
    e528:	d0a04c15 	stw	r2,-32464(gp)
    e52c:	34000115 	stw	r16,4(r6)
    e530:	197feb1e 	bne	r3,r5,e4e0 <search_schedtsk+0x20>
    e534:	043fff84 	movi	r16,-2
    e538:	d0a04a0b 	ldhu	r2,-32472(gp)
    e53c:	8108183a 	rol	r4,r16,r4
    e540:	20a0703a 	and	r16,r4,r2
    e544:	d4204a0d 	sth	r16,-32472(gp)
    e548:	84bfffcc 	andi	r18,r16,65535
    e54c:	8023883a 	mov	r17,r16
    e550:	9000121e 	bne	r18,zero,e59c <search_schedtsk+0xdc>
    e554:	008003c4 	movi	r2,15
    e558:	d0a04b15 	stw	r2,-32468(gp)
    e55c:	003fe006 	br	e4e0 <search_schedtsk+0x20>
    e560:	00c00074 	movhi	r3,1
    e564:	18c27504 	addi	r3,r3,2516
    e568:	00800074 	movhi	r2,1
    e56c:	10833204 	addi	r2,r2,3272
    e570:	10c00015 	stw	r3,0(r2)
    e574:	010006c4 	movi	r4,27
    e578:	00c02144 	movi	r3,133
    e57c:	00800074 	movhi	r2,1
    e580:	10833104 	addi	r2,r2,3268
    e584:	10c00015 	stw	r3,0(r2)
    e588:	000b7c00 	call	b7c0 <internal_shutdownos>
    e58c:	d1204b17 	ldw	r4,-32468(gp)
    e590:	80800017 	ldw	r2,0(r16)
    e594:	200690fa 	slli	r3,r4,3
    e598:	003fde06 	br	e514 <search_schedtsk+0x54>
    e59c:	d809883a 	mov	r4,sp
    e5a0:	01400074 	movhi	r5,1
    e5a4:	29428004 	addi	r5,r5,2560
    e5a8:	018003c4 	movi	r6,15
    e5ac:	84003fcc 	andi	r16,r16,255
    e5b0:	000eafc0 	call	eafc <memcpy>
    e5b4:	80000d1e 	bne	r16,zero,e5ec <search_schedtsk+0x12c>
    e5b8:	9022d23a 	srli	r17,r18,8
    e5bc:	00800204 	movi	r2,8
    e5c0:	88c003cc 	andi	r3,r17,15
    e5c4:	1800031e 	bne	r3,zero,e5d4 <search_schedtsk+0x114>
    e5c8:	8806d13a 	srli	r3,r17,4
    e5cc:	10800104 	addi	r2,r2,4
    e5d0:	18c003cc 	andi	r3,r3,15
    e5d4:	d8c7883a 	add	r3,sp,r3
    e5d8:	18ffffc3 	ldbu	r3,-1(r3)
    e5dc:	1885883a 	add	r2,r3,r2
    e5e0:	10bfffcc 	andi	r2,r2,65535
    e5e4:	d0a04b15 	stw	r2,-32468(gp)
    e5e8:	003fbd06 	br	e4e0 <search_schedtsk+0x20>
    e5ec:	0005883a 	mov	r2,zero
    e5f0:	003ff306 	br	e5c0 <search_schedtsk+0x100>
    e5f4:	0001883a 	nop
    e5f8:	0001883a 	nop
    e5fc:	0001883a 	nop

0000e600 <make_runnable>:
    e600:	d0a04c17 	ldw	r2,-32464(gp)
    e604:	00c00084 	movi	r3,2
    e608:	20c00405 	stb	r3,16(r4)
    e60c:	10002726 	beq	r2,zero,e6ac <make_runnable+0xac>
    e610:	20c00317 	ldw	r3,12(r4)
    e614:	11400317 	ldw	r5,12(r2)
    e618:	19401416 	blt	r3,r5,e66c <make_runnable+0x6c>
    e61c:	180490fa 	slli	r2,r3,3
    e620:	01400174 	movhi	r5,5
    e624:	294eb204 	addi	r5,r5,15048
    e628:	1145883a 	add	r2,r2,r5
    e62c:	11800117 	ldw	r6,4(r2)
    e630:	20800015 	stw	r2,0(r4)
    e634:	01400044 	movi	r5,1
    e638:	21800115 	stw	r6,4(r4)
    e63c:	11800117 	ldw	r6,4(r2)
    e640:	28ca983a 	sll	r5,r5,r3
    e644:	11000115 	stw	r4,4(r2)
    e648:	31000015 	stw	r4,0(r6)
    e64c:	d1a04a0b 	ldhu	r6,-32472(gp)
    e650:	d0a04b17 	ldw	r2,-32468(gp)
    e654:	298ab03a 	or	r5,r5,r6
    e658:	d1604a0d 	sth	r5,-32472(gp)
    e65c:	1880010e 	bge	r3,r2,e664 <make_runnable+0x64>
    e660:	d0e04b15 	stw	r3,-32468(gp)
    e664:	0005883a 	mov	r2,zero
    e668:	f800283a 	ret
    e66c:	280c90fa 	slli	r6,r5,3
    e670:	00c00174 	movhi	r3,5
    e674:	18ceb204 	addi	r3,r3,15048
    e678:	d2204a0b 	ldhu	r8,-32472(gp)
    e67c:	30c7883a 	add	r3,r6,r3
    e680:	19c00017 	ldw	r7,0(r3)
    e684:	01800044 	movi	r6,1
    e688:	314c983a 	sll	r6,r6,r5
    e68c:	11c00015 	stw	r7,0(r2)
    e690:	19c00017 	ldw	r7,0(r3)
    e694:	10c00115 	stw	r3,4(r2)
    e698:	320cb03a 	or	r6,r6,r8
    e69c:	38800115 	stw	r2,4(r7)
    e6a0:	18800015 	stw	r2,0(r3)
    e6a4:	d1a04a0d 	sth	r6,-32472(gp)
    e6a8:	d1604b15 	stw	r5,-32468(gp)
    e6ac:	d1204c15 	stw	r4,-32464(gp)
    e6b0:	00800044 	movi	r2,1
    e6b4:	f800283a 	ret
    e6b8:	0001883a 	nop
    e6bc:	0001883a 	nop

0000e6c0 <make_non_runnable>:
    e6c0:	000e4c01 	jmpi	e4c0 <search_schedtsk>
    e6c4:	0001883a 	nop
    e6c8:	0001883a 	nop
    e6cc:	0001883a 	nop
    e6d0:	0001883a 	nop
    e6d4:	0001883a 	nop
    e6d8:	0001883a 	nop
    e6dc:	0001883a 	nop

0000e6e0 <make_active>:
    e6e0:	20800217 	ldw	r2,8(r4)
    e6e4:	01400174 	movhi	r5,5
    e6e8:	2947a204 	addi	r5,r5,7816
    e6ec:	214bc83a 	sub	r5,r4,r5
    e6f0:	10c00317 	ldw	r3,12(r2)
    e6f4:	280bd0fa 	srai	r5,r5,3
    e6f8:	01b33374 	movhi	r6,52429
    e6fc:	31b33344 	addi	r6,r6,-13107
    e700:	20c00315 	stw	r3,12(r4)
    e704:	00c00074 	movhi	r3,1
    e708:	18c30c04 	addi	r3,r3,3120
    e70c:	298b383a 	mul	r5,r5,r6
    e710:	18c00017 	ldw	r3,0(r3)
    e714:	deffff04 	addi	sp,sp,-4
    e718:	dfc00015 	stw	ra,0(sp)
    e71c:	28c0022e 	bgeu	r5,r3,e728 <make_active+0x48>
    e720:	20000515 	stw	zero,20(r4)
    e724:	20000615 	stw	zero,24(r4)
    e728:	10c00217 	ldw	r3,8(r2)
    e72c:	10800117 	ldw	r2,4(r2)
    e730:	20000715 	stw	zero,28(r4)
    e734:	1885883a 	add	r2,r3,r2
    e738:	20800815 	stw	r2,32(r4)
    e73c:	00800074 	movhi	r2,1
    e740:	10a14804 	addi	r2,r2,-31456
    e744:	20800915 	stw	r2,36(r4)
    e748:	000e6000 	call	e600 <make_runnable>
    e74c:	10803fcc 	andi	r2,r2,255
    e750:	1004c03a 	cmpne	r2,r2,zero
    e754:	dfc00017 	ldw	ra,0(sp)
    e758:	dec00104 	addi	sp,sp,4
    e75c:	f800283a 	ret

0000e760 <task_initialize>:
    e760:	defffa04 	addi	sp,sp,-24
    e764:	dfc00515 	stw	ra,20(sp)
    e768:	dd000415 	stw	r20,16(sp)
    e76c:	dcc00315 	stw	r19,12(sp)
    e770:	dc800215 	stw	r18,8(sp)
    e774:	dc400115 	stw	r17,4(sp)
    e778:	dc000015 	stw	r16,0(sp)
    e77c:	d0204d15 	stw	zero,-32460(gp)
    e780:	d0204c15 	stw	zero,-32464(gp)
    e784:	0007883a 	mov	r3,zero
    e788:	01400174 	movhi	r5,5
    e78c:	294eb204 	addi	r5,r5,15048
    e790:	01000404 	movi	r4,16
    e794:	180490fa 	slli	r2,r3,3
    e798:	18c00044 	addi	r3,r3,1
    e79c:	2885883a 	add	r2,r5,r2
    e7a0:	10800115 	stw	r2,4(r2)
    e7a4:	10800015 	stw	r2,0(r2)
    e7a8:	193ffa1e 	bne	r3,r4,e794 <task_initialize+0x34>
    e7ac:	00800074 	movhi	r2,1
    e7b0:	10830d04 	addi	r2,r2,3124
    e7b4:	14400017 	ldw	r17,0(r2)
    e7b8:	008003c4 	movi	r2,15
    e7bc:	d0a04b15 	stw	r2,-32468(gp)
    e7c0:	d0204a0d 	sth	zero,-32472(gp)
    e7c4:	88001626 	beq	r17,zero,e820 <task_initialize+0xc0>
    e7c8:	0021883a 	mov	r16,zero
    e7cc:	05000174 	movhi	r20,5
    e7d0:	a507a204 	addi	r20,r20,7816
    e7d4:	04c00074 	movhi	r19,1
    e7d8:	9cc22204 	addi	r19,r19,2184
    e7dc:	04800074 	movhi	r18,1
    e7e0:	94833404 	addi	r18,r18,3280
    e7e4:	80800724 	muli	r2,r16,28
    e7e8:	81000a24 	muli	r4,r16,40
    e7ec:	90c00017 	ldw	r3,0(r18)
    e7f0:	9885883a 	add	r2,r19,r2
    e7f4:	11400617 	ldw	r5,24(r2)
    e7f8:	a109883a 	add	r4,r20,r4
    e7fc:	20800215 	stw	r2,8(r4)
    e800:	28c4d83a 	srl	r2,r5,r3
    e804:	20000445 	stb	zero,17(r4)
    e808:	20000515 	stw	zero,20(r4)
    e80c:	20000405 	stb	zero,16(r4)
    e810:	1080004c 	andi	r2,r2,1
    e814:	84000044 	addi	r16,r16,1
    e818:	1000091e 	bne	r2,zero,e840 <task_initialize+0xe0>
    e81c:	847ff11e 	bne	r16,r17,e7e4 <task_initialize+0x84>
    e820:	dfc00517 	ldw	ra,20(sp)
    e824:	dd000417 	ldw	r20,16(sp)
    e828:	dcc00317 	ldw	r19,12(sp)
    e82c:	dc800217 	ldw	r18,8(sp)
    e830:	dc400117 	ldw	r17,4(sp)
    e834:	dc000017 	ldw	r16,0(sp)
    e838:	dec00604 	addi	sp,sp,24
    e83c:	f800283a 	ret
    e840:	000e6e00 	call	e6e0 <make_active>
    e844:	847fe71e 	bne	r16,r17,e7e4 <task_initialize+0x84>
    e848:	003ff506 	br	e820 <task_initialize+0xc0>
    e84c:	0001883a 	nop
    e850:	0001883a 	nop
    e854:	0001883a 	nop
    e858:	0001883a 	nop
    e85c:	0001883a 	nop

0000e860 <preempt>:
    e860:	d0a04d17 	ldw	r2,-32460(gp)
    e864:	d0e04c17 	ldw	r3,-32464(gp)
    e868:	deffff04 	addi	sp,sp,-4
    e86c:	dfc00015 	stw	ra,0(sp)
    e870:	10c00c26 	beq	r2,r3,e8a4 <preempt+0x44>
    e874:	00c00074 	movhi	r3,1
    e878:	18c27b04 	addi	r3,r3,2540
    e87c:	00800074 	movhi	r2,1
    e880:	10833204 	addi	r2,r2,3272
    e884:	10c00015 	stw	r3,0(r2)
    e888:	010006c4 	movi	r4,27
    e88c:	00800074 	movhi	r2,1
    e890:	10833104 	addi	r2,r2,3268
    e894:	00c057c4 	movi	r3,351
    e898:	10c00015 	stw	r3,0(r2)
    e89c:	000b7c00 	call	b7c0 <internal_shutdownos>
    e8a0:	d0a04d17 	ldw	r2,-32460(gp)
    e8a4:	11000317 	ldw	r4,12(r2)
    e8a8:	00c00044 	movi	r3,1
    e8ac:	d1a04a0b 	ldhu	r6,-32472(gp)
    e8b0:	200a90fa 	slli	r5,r4,3
    e8b4:	1908983a 	sll	r4,r3,r4
    e8b8:	00c00174 	movhi	r3,5
    e8bc:	18ceb204 	addi	r3,r3,15048
    e8c0:	28c7883a 	add	r3,r5,r3
    e8c4:	19400017 	ldw	r5,0(r3)
    e8c8:	10c00115 	stw	r3,4(r2)
    e8cc:	2188b03a 	or	r4,r4,r6
    e8d0:	11400015 	stw	r5,0(r2)
    e8d4:	19400017 	ldw	r5,0(r3)
    e8d8:	d1204a0d 	sth	r4,-32472(gp)
    e8dc:	18800015 	stw	r2,0(r3)
    e8e0:	28800115 	stw	r2,4(r5)
    e8e4:	dfc00017 	ldw	ra,0(sp)
    e8e8:	dec00104 	addi	sp,sp,4
    e8ec:	000e4c01 	jmpi	e4c0 <search_schedtsk>
    e8f0:	0001883a 	nop
    e8f4:	0001883a 	nop
    e8f8:	0001883a 	nop
    e8fc:	0001883a 	nop

0000e900 <suspend>:
    e900:	d0a04d17 	ldw	r2,-32460(gp)
    e904:	deffff04 	addi	sp,sp,-4
    e908:	dfc00015 	stw	ra,0(sp)
    e90c:	10000405 	stb	zero,16(r2)
    e910:	000e4c00 	call	e4c0 <search_schedtsk>
    e914:	d1204d17 	ldw	r4,-32460(gp)
    e918:	20800443 	ldbu	r2,17(r4)
    e91c:	10c03fcc 	andi	r3,r2,255
    e920:	1800031e 	bne	r3,zero,e930 <suspend+0x30>
    e924:	dfc00017 	ldw	ra,0(sp)
    e928:	dec00104 	addi	sp,sp,4
    e92c:	f800283a 	ret
    e930:	10bfffc4 	addi	r2,r2,-1
    e934:	20800445 	stb	r2,17(r4)
    e938:	dfc00017 	ldw	ra,0(sp)
    e93c:	dec00104 	addi	sp,sp,4
    e940:	000e6e01 	jmpi	e6e0 <make_active>
    e944:	0001883a 	nop
    e948:	0001883a 	nop
    e94c:	0001883a 	nop
    e950:	0001883a 	nop
    e954:	0001883a 	nop
    e958:	0001883a 	nop
    e95c:	0001883a 	nop

0000e960 <exit_task>:
    e960:	defffe04 	addi	sp,sp,-8
    e964:	dfc00115 	stw	ra,4(sp)
    e968:	dc000015 	stw	r16,0(sp)
    e96c:	00800074 	movhi	r2,1
    e970:	10832a04 	addi	r2,r2,3240
    e974:	10c00003 	ldbu	r3,0(r2)
    e978:	18c03fcc 	andi	r3,r3,255
    e97c:	18000c1e 	bne	r3,zero,e9b0 <exit_task+0x50>
    e980:	0007303a 	rdctl	r3,status
    e984:	01000074 	movhi	r4,1
    e988:	21030404 	addi	r4,r4,3088
    e98c:	21000017 	ldw	r4,0(r4)
    e990:	017f03c4 	movi	r5,-1009
    e994:	194a703a 	and	r5,r3,r5
    e998:	2908b03a 	or	r4,r5,r4
    e99c:	2001703a 	wrctl	status,r4
    e9a0:	01000074 	movhi	r4,1
    e9a4:	21032904 	addi	r4,r4,3236
    e9a8:	18c0fc0c 	andi	r3,r3,1008
    e9ac:	20c00015 	stw	r3,0(r4)
    e9b0:	10c00003 	ldbu	r3,0(r2)
    e9b4:	18c00044 	addi	r3,r3,1
    e9b8:	10c00005 	stb	r3,0(r2)
    e9bc:	01003fc4 	movi	r4,255
    e9c0:	000e1200 	call	e120 <release_interrupts>
    e9c4:	d4204d17 	ldw	r16,-32460(gp)
    e9c8:	80c00717 	ldw	r3,28(r16)
    e9cc:	1805883a 	mov	r2,r3
    e9d0:	18000a26 	beq	r3,zero,e9fc <exit_task+0x9c>
    e9d4:	81000317 	ldw	r4,12(r16)
    e9d8:	20000f16 	blt	r4,zero,ea18 <exit_task+0xb8>
    e9dc:	80c00217 	ldw	r3,8(r16)
    e9e0:	18c00417 	ldw	r3,16(r3)
    e9e4:	80c00315 	stw	r3,12(r16)
    e9e8:	10000305 	stb	zero,12(r2)
    e9ec:	80800717 	ldw	r2,28(r16)
    e9f0:	10800217 	ldw	r2,8(r2)
    e9f4:	80800715 	stw	r2,28(r16)
    e9f8:	103ffb1e 	bne	r2,zero,e9e8 <exit_task+0x88>
    e9fc:	01000074 	movhi	r4,1
    ea00:	212d7004 	addi	r4,r4,-19008
    ea04:	014002c4 	movi	r5,11
    ea08:	01802bc4 	movi	r6,175
    ea0c:	00085600 	call	8560 <stack_change_and_call_func_1>
    ea10:	000e9000 	call	e900 <suspend>
    ea14:	00005a00 	call	5a0 <exit_and_dispatch>
    ea18:	00800074 	movhi	r2,1
    ea1c:	10832a04 	addi	r2,r2,3240
    ea20:	10800003 	ldbu	r2,0(r2)
    ea24:	10803fcc 	andi	r2,r2,255
    ea28:	10000c1e 	bne	r2,zero,ea5c <exit_task+0xfc>
    ea2c:	00c00074 	movhi	r3,1
    ea30:	18c26504 	addi	r3,r3,2452
    ea34:	00800074 	movhi	r2,1
    ea38:	10833204 	addi	r2,r2,3272
    ea3c:	10c00015 	stw	r3,0(r2)
    ea40:	010006c4 	movi	r4,27
    ea44:	00c04c04 	movi	r3,304
    ea48:	00800074 	movhi	r2,1
    ea4c:	10833104 	addi	r2,r2,3268
    ea50:	10c00015 	stw	r3,0(r2)
    ea54:	000b7c00 	call	b7c0 <internal_shutdownos>
    ea58:	80c00717 	ldw	r3,28(r16)
    ea5c:	00800074 	movhi	r2,1
    ea60:	10832904 	addi	r2,r2,3236
    ea64:	10000015 	stw	zero,0(r2)
    ea68:	1805883a 	mov	r2,r3
    ea6c:	003fdb06 	br	e9dc <exit_task+0x7c>
	...

0000ea80 <memcmp>:
    ea80:	01c000c4 	movi	r7,3
    ea84:	3980192e 	bgeu	r7,r6,eaec <memcmp+0x6c>
    ea88:	2904b03a 	or	r2,r5,r4
    ea8c:	11c4703a 	and	r2,r2,r7
    ea90:	10000f26 	beq	r2,zero,ead0 <memcmp+0x50>
    ea94:	20c00003 	ldbu	r3,0(r4)
    ea98:	28800003 	ldbu	r2,0(r5)
    ea9c:	1880151e 	bne	r3,r2,eaf4 <memcmp+0x74>
    eaa0:	31bfff84 	addi	r6,r6,-2
    eaa4:	01ffffc4 	movi	r7,-1
    eaa8:	00000406 	br	eabc <memcmp+0x3c>
    eaac:	20c00003 	ldbu	r3,0(r4)
    eab0:	28800003 	ldbu	r2,0(r5)
    eab4:	31bfffc4 	addi	r6,r6,-1
    eab8:	18800e1e 	bne	r3,r2,eaf4 <memcmp+0x74>
    eabc:	21000044 	addi	r4,r4,1
    eac0:	29400044 	addi	r5,r5,1
    eac4:	31fff91e 	bne	r6,r7,eaac <memcmp+0x2c>
    eac8:	0005883a 	mov	r2,zero
    eacc:	f800283a 	ret
    ead0:	20c00017 	ldw	r3,0(r4)
    ead4:	28800017 	ldw	r2,0(r5)
    ead8:	1880041e 	bne	r3,r2,eaec <memcmp+0x6c>
    eadc:	31bfff04 	addi	r6,r6,-4
    eae0:	21000104 	addi	r4,r4,4
    eae4:	29400104 	addi	r5,r5,4
    eae8:	39bff936 	bltu	r7,r6,ead0 <memcmp+0x50>
    eaec:	303fe91e 	bne	r6,zero,ea94 <memcmp+0x14>
    eaf0:	003ff506 	br	eac8 <memcmp+0x48>
    eaf4:	1885c83a 	sub	r2,r3,r2
    eaf8:	f800283a 	ret

0000eafc <memcpy>:
    eafc:	00c003c4 	movi	r3,15
    eb00:	2005883a 	mov	r2,r4
    eb04:	3009883a 	mov	r4,r6
    eb08:	1980032e 	bgeu	r3,r6,eb18 <memcpy+0x1c>
    eb0c:	2886b03a 	or	r3,r5,r2
    eb10:	18c000cc 	andi	r3,r3,3
    eb14:	18000926 	beq	r3,zero,eb3c <memcpy+0x40>
    eb18:	1007883a 	mov	r3,r2
    eb1c:	290f883a 	add	r7,r5,r4
    eb20:	20000526 	beq	r4,zero,eb38 <memcpy+0x3c>
    eb24:	29800003 	ldbu	r6,0(r5)
    eb28:	18c00044 	addi	r3,r3,1
    eb2c:	29400044 	addi	r5,r5,1
    eb30:	19bfffc5 	stb	r6,-1(r3)
    eb34:	29fffb1e 	bne	r5,r7,eb24 <memcpy+0x28>
    eb38:	f800283a 	ret
    eb3c:	327ffc04 	addi	r9,r6,-16
    eb40:	4812d13a 	srli	r9,r9,4
    eb44:	11000404 	addi	r4,r2,16
    eb48:	1007883a 	mov	r3,r2
    eb4c:	4810913a 	slli	r8,r9,4
    eb50:	280f883a 	mov	r7,r5
    eb54:	2209883a 	add	r4,r4,r8
    eb58:	3a000017 	ldw	r8,0(r7)
    eb5c:	18c00404 	addi	r3,r3,16
    eb60:	39c00404 	addi	r7,r7,16
    eb64:	1a3ffc15 	stw	r8,-16(r3)
    eb68:	3a3ffd17 	ldw	r8,-12(r7)
    eb6c:	1a3ffd15 	stw	r8,-12(r3)
    eb70:	3a3ffe17 	ldw	r8,-8(r7)
    eb74:	1a3ffe15 	stw	r8,-8(r3)
    eb78:	3a3fff17 	ldw	r8,-4(r7)
    eb7c:	1a3fff15 	stw	r8,-4(r3)
    eb80:	193ff51e 	bne	r3,r4,eb58 <memcpy+0x5c>
    eb84:	49c00044 	addi	r7,r9,1
    eb88:	380e913a 	slli	r7,r7,4
    eb8c:	310003cc 	andi	r4,r6,15
    eb90:	018000c4 	movi	r6,3
    eb94:	11c7883a 	add	r3,r2,r7
    eb98:	29cb883a 	add	r5,r5,r7
    eb9c:	313fdf2e 	bgeu	r6,r4,eb1c <memcpy+0x20>
    eba0:	213fff04 	addi	r4,r4,-4
    eba4:	2014d0ba 	srli	r10,r4,2
    eba8:	1a400104 	addi	r9,r3,4
    ebac:	180d883a 	mov	r6,r3
    ebb0:	528f883a 	add	r7,r10,r10
    ebb4:	39cf883a 	add	r7,r7,r7
    ebb8:	49d3883a 	add	r9,r9,r7
    ebbc:	280f883a 	mov	r7,r5
    ebc0:	3a000017 	ldw	r8,0(r7)
    ebc4:	31800104 	addi	r6,r6,4
    ebc8:	39c00104 	addi	r7,r7,4
    ebcc:	323fff15 	stw	r8,-4(r6)
    ebd0:	327ffb1e 	bne	r6,r9,ebc0 <memcpy+0xc4>
    ebd4:	51800044 	addi	r6,r10,1
    ebd8:	52bfff24 	muli	r10,r10,-4
    ebdc:	318d883a 	add	r6,r6,r6
    ebe0:	318d883a 	add	r6,r6,r6
    ebe4:	5109883a 	add	r4,r10,r4
    ebe8:	298b883a 	add	r5,r5,r6
    ebec:	1987883a 	add	r3,r3,r6
    ebf0:	003fca06 	br	eb1c <memcpy+0x20>

0000ebf4 <memmove>:
    ebf4:	2005883a 	mov	r2,r4
    ebf8:	300f883a 	mov	r7,r6
    ebfc:	29000b2e 	bgeu	r5,r4,ec2c <memmove+0x38>
    ec00:	2987883a 	add	r3,r5,r6
    ec04:	20c0092e 	bgeu	r4,r3,ec2c <memmove+0x38>
    ec08:	218b883a 	add	r5,r4,r6
    ec0c:	198fc83a 	sub	r7,r3,r6
    ec10:	30003f26 	beq	r6,zero,ed10 <memmove+0x11c>
    ec14:	18ffffc4 	addi	r3,r3,-1
    ec18:	19000003 	ldbu	r4,0(r3)
    ec1c:	297fffc4 	addi	r5,r5,-1
    ec20:	29000005 	stb	r4,0(r5)
    ec24:	19fffb1e 	bne	r3,r7,ec14 <memmove+0x20>
    ec28:	f800283a 	ret
    ec2c:	00c003c4 	movi	r3,15
    ec30:	1980382e 	bgeu	r3,r6,ed14 <memmove+0x120>
    ec34:	2886b03a 	or	r3,r5,r2
    ec38:	18c000cc 	andi	r3,r3,3
    ec3c:	1800351e 	bne	r3,zero,ed14 <memmove+0x120>
    ec40:	327ffc04 	addi	r9,r6,-16
    ec44:	4812d13a 	srli	r9,r9,4
    ec48:	12000404 	addi	r8,r2,16
    ec4c:	1007883a 	mov	r3,r2
    ec50:	4808913a 	slli	r4,r9,4
    ec54:	280f883a 	mov	r7,r5
    ec58:	4111883a 	add	r8,r8,r4
    ec5c:	39000017 	ldw	r4,0(r7)
    ec60:	18c00404 	addi	r3,r3,16
    ec64:	39c00404 	addi	r7,r7,16
    ec68:	193ffc15 	stw	r4,-16(r3)
    ec6c:	393ffd17 	ldw	r4,-12(r7)
    ec70:	193ffd15 	stw	r4,-12(r3)
    ec74:	393ffe17 	ldw	r4,-8(r7)
    ec78:	193ffe15 	stw	r4,-8(r3)
    ec7c:	393fff17 	ldw	r4,-4(r7)
    ec80:	193fff15 	stw	r4,-4(r3)
    ec84:	1a3ff51e 	bne	r3,r8,ec5c <memmove+0x68>
    ec88:	49000044 	addi	r4,r9,1
    ec8c:	2008913a 	slli	r4,r4,4
    ec90:	31c003cc 	andi	r7,r6,15
    ec94:	1107883a 	add	r3,r2,r4
    ec98:	290b883a 	add	r5,r5,r4
    ec9c:	010000c4 	movi	r4,3
    eca0:	21c0142e 	bgeu	r4,r7,ecf4 <memmove+0x100>
    eca4:	39ffff04 	addi	r7,r7,-4
    eca8:	3814d0ba 	srli	r10,r7,2
    ecac:	1a400104 	addi	r9,r3,4
    ecb0:	180d883a 	mov	r6,r3
    ecb4:	5289883a 	add	r4,r10,r10
    ecb8:	2109883a 	add	r4,r4,r4
    ecbc:	4913883a 	add	r9,r9,r4
    ecc0:	2809883a 	mov	r4,r5
    ecc4:	22000017 	ldw	r8,0(r4)
    ecc8:	31800104 	addi	r6,r6,4
    eccc:	21000104 	addi	r4,r4,4
    ecd0:	323fff15 	stw	r8,-4(r6)
    ecd4:	327ffb1e 	bne	r6,r9,ecc4 <memmove+0xd0>
    ecd8:	51000044 	addi	r4,r10,1
    ecdc:	52bfff24 	muli	r10,r10,-4
    ece0:	2109883a 	add	r4,r4,r4
    ece4:	2109883a 	add	r4,r4,r4
    ece8:	51cf883a 	add	r7,r10,r7
    ecec:	290b883a 	add	r5,r5,r4
    ecf0:	1907883a 	add	r3,r3,r4
    ecf4:	38000626 	beq	r7,zero,ed10 <memmove+0x11c>
    ecf8:	19cf883a 	add	r7,r3,r7
    ecfc:	29800003 	ldbu	r6,0(r5)
    ed00:	18c00044 	addi	r3,r3,1
    ed04:	29400044 	addi	r5,r5,1
    ed08:	19bfffc5 	stb	r6,-1(r3)
    ed0c:	19fffb1e 	bne	r3,r7,ecfc <memmove+0x108>
    ed10:	f800283a 	ret
    ed14:	1007883a 	mov	r3,r2
    ed18:	003ff606 	br	ecf4 <memmove+0x100>

0000ed1c <memset>:
    ed1c:	00c000c4 	movi	r3,3
    ed20:	2005883a 	mov	r2,r4
    ed24:	29403fcc 	andi	r5,r5,255
    ed28:	19802d2e 	bgeu	r3,r6,ede0 <memset+0xc4>
    ed2c:	20c6703a 	and	r3,r4,r3
    ed30:	18002e1e 	bne	r3,zero,edec <memset+0xd0>
    ed34:	2806923a 	slli	r3,r5,8
    ed38:	010003c4 	movi	r4,15
    ed3c:	3011883a 	mov	r8,r6
    ed40:	1946b03a 	or	r3,r3,r5
    ed44:	180e943a 	slli	r7,r3,16
    ed48:	38ceb03a 	or	r7,r7,r3
    ed4c:	1007883a 	mov	r3,r2
    ed50:	21800f2e 	bgeu	r4,r6,ed90 <memset+0x74>
    ed54:	19c00015 	stw	r7,0(r3)
    ed58:	19c00115 	stw	r7,4(r3)
    ed5c:	19c00215 	stw	r7,8(r3)
    ed60:	19c00315 	stw	r7,12(r3)
    ed64:	423ffc04 	addi	r8,r8,-16
    ed68:	18c00404 	addi	r3,r3,16
    ed6c:	223ff936 	bltu	r4,r8,ed54 <memset+0x38>
    ed70:	30fffc04 	addi	r3,r6,-16
    ed74:	1806d13a 	srli	r3,r3,4
    ed78:	318003cc 	andi	r6,r6,15
    ed7c:	010000c4 	movi	r4,3
    ed80:	18c00044 	addi	r3,r3,1
    ed84:	1806913a 	slli	r3,r3,4
    ed88:	10c7883a 	add	r3,r2,r3
    ed8c:	21800e2e 	bgeu	r4,r6,edc8 <memset+0xac>
    ed90:	1813883a 	mov	r9,r3
    ed94:	3011883a 	mov	r8,r6
    ed98:	010000c4 	movi	r4,3
    ed9c:	49c00015 	stw	r7,0(r9)
    eda0:	423fff04 	addi	r8,r8,-4
    eda4:	4a400104 	addi	r9,r9,4
    eda8:	223ffc36 	bltu	r4,r8,ed9c <memset+0x80>
    edac:	313fff04 	addi	r4,r6,-4
    edb0:	2008d0ba 	srli	r4,r4,2
    edb4:	318000cc 	andi	r6,r6,3
    edb8:	21000044 	addi	r4,r4,1
    edbc:	2109883a 	add	r4,r4,r4
    edc0:	2109883a 	add	r4,r4,r4
    edc4:	1907883a 	add	r3,r3,r4
    edc8:	30000a26 	beq	r6,zero,edf4 <memset+0xd8>
    edcc:	198d883a 	add	r6,r3,r6
    edd0:	19400005 	stb	r5,0(r3)
    edd4:	18c00044 	addi	r3,r3,1
    edd8:	19bffd1e 	bne	r3,r6,edd0 <memset+0xb4>
    eddc:	f800283a 	ret
    ede0:	2007883a 	mov	r3,r4
    ede4:	303ff91e 	bne	r6,zero,edcc <memset+0xb0>
    ede8:	00000206 	br	edf4 <memset+0xd8>
    edec:	2007883a 	mov	r3,r4
    edf0:	003ff606 	br	edcc <memset+0xb0>
    edf4:	f800283a 	ret
